
GatorScribe.elf:     file format elf32-littlearm

Sections:
Idx Name          Size      VMA       LMA       File off  Algn
  0 .text         00006e48  00400000  00400000  00010000  2**6
                  CONTENTS, ALLOC, LOAD, READONLY, CODE
  1 .ARM.exidx    00000008  00406e48  00406e48  00016e48  2**2
                  CONTENTS, ALLOC, LOAD, READONLY, DATA
  2 .relocate     00000a10  20400000  00406e50  00020000  2**3
                  CONTENTS, ALLOC, LOAD, CODE
  3 .bss          000568e8  20404000  0040c000  00024000  2**14
                  ALLOC
  4 .stack        00002000  2045a8e8  004628e8  00024000  2**0
                  ALLOC
  5 .heap         00000200  2045c8e8  004648e8  00024000  2**0
                  ALLOC
  6 .ARM.attributes 0000002c  00000000  00000000  00020a10  2**0
                  CONTENTS, READONLY
  7 .comment      000000b4  00000000  00000000  00020a3c  2**0
                  CONTENTS, READONLY
  8 .debug_info   000206e4  00000000  00000000  00020af0  2**0
                  CONTENTS, READONLY, DEBUGGING
  9 .debug_abbrev 00004b79  00000000  00000000  000411d4  2**0
                  CONTENTS, READONLY, DEBUGGING
 10 .debug_loc    00009bf9  00000000  00000000  00045d4d  2**0
                  CONTENTS, READONLY, DEBUGGING
 11 .debug_aranges 00000cf0  00000000  00000000  0004f946  2**0
                  CONTENTS, READONLY, DEBUGGING
 12 .debug_ranges 00001f00  00000000  00000000  00050636  2**0
                  CONTENTS, READONLY, DEBUGGING
 13 .debug_macro  00025da4  00000000  00000000  00052536  2**0
                  CONTENTS, READONLY, DEBUGGING
 14 .debug_line   00014d16  00000000  00000000  000782da  2**0
                  CONTENTS, READONLY, DEBUGGING
 15 .debug_str    0009d35c  00000000  00000000  0008cff0  2**0
                  CONTENTS, READONLY, DEBUGGING
 16 .debug_frame  00002a40  00000000  00000000  0012a34c  2**2
                  CONTENTS, READONLY, DEBUGGING

Disassembly of section .text:

00400000 <exception_table>:
  400000:	e8 c8 45 20 49 24 40 00 41 24 40 00 45 24 40 00     ..E I$@.A$@.E$@.
  400010:	41 24 40 00 41 24 40 00 41 24 40 00 00 00 00 00     A$@.A$@.A$@.....
	...
  40002c:	41 24 40 00 41 24 40 00 00 00 00 00 41 24 40 00     A$@.A$@.....A$@.
  40003c:	41 24 40 00 41 24 40 00 41 24 40 00 41 24 40 00     A$@.A$@.A$@.A$@.
  40004c:	41 24 40 00 41 24 40 00 41 24 40 00 41 24 40 00     A$@.A$@.A$@.A$@.
  40005c:	41 24 40 00 41 24 40 00 00 00 00 00 81 1e 40 00     A$@.A$@.......@.
  40006c:	4d 1f 40 00 19 20 40 00 41 24 40 00 d5 26 40 00     M.@.. @.A$@..&@.
  40007c:	41 24 40 00 e5 20 40 00 b1 21 40 00 41 24 40 00     A$@.. @..!@.A$@.
  40008c:	41 24 40 00 41 24 40 00 41 24 40 00 41 24 40 00     A$@.A$@.A$@.A$@.
  40009c:	41 24 40 00 41 24 40 00 41 24 40 00 41 24 40 00     A$@.A$@.A$@.A$@.
  4000ac:	41 24 40 00 41 24 40 00 41 24 40 00 41 24 40 00     A$@.A$@.A$@.A$@.
  4000bc:	41 24 40 00 41 24 40 00 41 24 40 00 41 24 40 00     A$@.A$@.A$@.A$@.
  4000cc:	41 24 40 00 00 00 00 00 41 24 40 00 00 00 00 00     A$@.....A$@.....
  4000dc:	41 24 40 00 41 24 40 00 41 24 40 00 41 24 40 00     A$@.A$@.A$@.A$@.
  4000ec:	41 24 40 00 41 24 40 00 41 24 40 00 41 24 40 00     A$@.A$@.A$@.A$@.
  4000fc:	41 24 40 00 41 24 40 00 41 24 40 00 41 24 40 00     A$@.A$@.A$@.A$@.
  40010c:	41 24 40 00 41 24 40 00 41 24 40 00 00 00 00 00     A$@.A$@.A$@.....
  40011c:	00 00 00 00 41 24 40 00 41 24 40 00 ad 01 40 00     ....A$@.A$@...@.
  40012c:	41 24 40 00 41 24 40 00 00 00 00 00 41 24 40 00     A$@.A$@.....A$@.
  40013c:	41 24 40 00                                         A$@.

00400140 <__do_global_dtors_aux>:
  400140:	b510      	push	{r4, lr}
  400142:	4c05      	ldr	r4, [pc, #20]	; (400158 <__do_global_dtors_aux+0x18>)
  400144:	7823      	ldrb	r3, [r4, #0]
  400146:	b933      	cbnz	r3, 400156 <__do_global_dtors_aux+0x16>
  400148:	4b04      	ldr	r3, [pc, #16]	; (40015c <__do_global_dtors_aux+0x1c>)
  40014a:	b113      	cbz	r3, 400152 <__do_global_dtors_aux+0x12>
  40014c:	4804      	ldr	r0, [pc, #16]	; (400160 <__do_global_dtors_aux+0x20>)
  40014e:	f3af 8000 	nop.w
  400152:	2301      	movs	r3, #1
  400154:	7023      	strb	r3, [r4, #0]
  400156:	bd10      	pop	{r4, pc}
  400158:	20404000 	.word	0x20404000
  40015c:	00000000 	.word	0x00000000
  400160:	00406e50 	.word	0x00406e50

00400164 <frame_dummy>:
  400164:	4b0c      	ldr	r3, [pc, #48]	; (400198 <frame_dummy+0x34>)
  400166:	b143      	cbz	r3, 40017a <frame_dummy+0x16>
  400168:	480c      	ldr	r0, [pc, #48]	; (40019c <frame_dummy+0x38>)
  40016a:	490d      	ldr	r1, [pc, #52]	; (4001a0 <frame_dummy+0x3c>)
  40016c:	b510      	push	{r4, lr}
  40016e:	f3af 8000 	nop.w
  400172:	480c      	ldr	r0, [pc, #48]	; (4001a4 <frame_dummy+0x40>)
  400174:	6803      	ldr	r3, [r0, #0]
  400176:	b923      	cbnz	r3, 400182 <frame_dummy+0x1e>
  400178:	bd10      	pop	{r4, pc}
  40017a:	480a      	ldr	r0, [pc, #40]	; (4001a4 <frame_dummy+0x40>)
  40017c:	6803      	ldr	r3, [r0, #0]
  40017e:	b933      	cbnz	r3, 40018e <frame_dummy+0x2a>
  400180:	4770      	bx	lr
  400182:	4b09      	ldr	r3, [pc, #36]	; (4001a8 <frame_dummy+0x44>)
  400184:	2b00      	cmp	r3, #0
  400186:	d0f7      	beq.n	400178 <frame_dummy+0x14>
  400188:	e8bd 4010 	ldmia.w	sp!, {r4, lr}
  40018c:	4718      	bx	r3
  40018e:	4b06      	ldr	r3, [pc, #24]	; (4001a8 <frame_dummy+0x44>)
  400190:	2b00      	cmp	r3, #0
  400192:	d0f5      	beq.n	400180 <frame_dummy+0x1c>
  400194:	4718      	bx	r3
  400196:	bf00      	nop
  400198:	00000000 	.word	0x00000000
  40019c:	00406e50 	.word	0x00406e50
  4001a0:	20404004 	.word	0x20404004
  4001a4:	00406e50 	.word	0x00406e50
  4001a8:	00000000 	.word	0x00000000

004001ac <XDMAC_Handler>:
 */
static inline uint32_t xdmac_channel_get_interrupt_status(Xdmac *xdmac, uint32_t channel_num)
{
	Assert(xdmac);
	Assert(channel_num < XDMACCHID_NUMBER);
	return xdmac->XDMAC_CHID[channel_num].XDMAC_CIS;
  4001ac:	4b21      	ldr	r3, [pc, #132]	; (400234 <XDMAC_Handler+0x88>)
/*********************************** Extern Variables End ***********************************/

#define One_over_max_int16 0.0000305185f 
/******************************* XDMAC Interrupt Handler Start *******************************/ 
void XDMAC_Handler(void)
{
  4001ae:	b470      	push	{r4, r5, r6}
  4001b0:	6ddb      	ldr	r3, [r3, #92]	; 0x5c
    uint32_t dma_status;
    
    dma_status = xdmac_channel_get_interrupt_status(XDMAC, XDMA_CH_SSC_RX);
    if (dma_status & XDMAC_CIS_BIS)
  4001b2:	07da      	lsls	r2, r3, #31
  4001b4:	d529      	bpl.n	40020a <XDMAC_Handler+0x5e>
    {
		// Update input and process buffers to be used 
		if(inPingMode)
  4001b6:	4d20      	ldr	r5, [pc, #128]	; (400238 <XDMAC_Handler+0x8c>)
		else 
		{
			inBuffer = inPongBuffer; 
			processBuffer = processPongBuffer; 
		}
		inPingMode = !inPingMode; 
  4001b8:	2200      	movs	r2, #0
			processBuffer = processPingBuffer; 
  4001ba:	4c20      	ldr	r4, [pc, #128]	; (40023c <XDMAC_Handler+0x90>)
		if(inPingMode)
  4001bc:	782b      	ldrb	r3, [r5, #0]
			processBuffer = processPingBuffer; 
  4001be:	4820      	ldr	r0, [pc, #128]	; (400240 <XDMAC_Handler+0x94>)
  4001c0:	4293      	cmp	r3, r2
		inPingMode = !inPingMode; 
  4001c2:	782e      	ldrb	r6, [r5, #0]
			processBuffer = processPingBuffer; 
  4001c4:	491f      	ldr	r1, [pc, #124]	; (400244 <XDMAC_Handler+0x98>)
  4001c6:	4b20      	ldr	r3, [pc, #128]	; (400248 <XDMAC_Handler+0x9c>)
  4001c8:	bf1c      	itt	ne
  4001ca:	4621      	movne	r1, r4
  4001cc:	4603      	movne	r3, r0
		inPingMode = !inPingMode; 
  4001ce:	f086 0601 	eor.w	r6, r6, #1
  4001d2:	4c1e      	ldr	r4, [pc, #120]	; (40024c <XDMAC_Handler+0xa0>)
  4001d4:	481e      	ldr	r0, [pc, #120]	; (400250 <XDMAC_Handler+0xa4>)
		
		int processIdx = 0;
		// Fill process buffer - only left channel decimated by 1
		for(int i = 0; i < IO_BUF_SIZE; i+=2)
		{
			processBuffer[processIdx++] = ((float )(int16_t)inBuffer[i]) * One_over_max_int16; 
  4001d6:	ed9f 7a1f 	vldr	s14, [pc, #124]	; 400254 <XDMAC_Handler+0xa8>
		inPingMode = !inPingMode; 
  4001da:	702e      	strb	r6, [r5, #0]
  4001dc:	6021      	str	r1, [r4, #0]
  4001de:	6003      	str	r3, [r0, #0]
  4001e0:	e001      	b.n	4001e6 <XDMAC_Handler+0x3a>
  4001e2:	6821      	ldr	r1, [r4, #0]
  4001e4:	6803      	ldr	r3, [r0, #0]
			processBuffer[processIdx++] = ((float )(int16_t)inBuffer[i]) * One_over_max_int16; 
  4001e6:	5a9b      	ldrh	r3, [r3, r2]
  4001e8:	4411      	add	r1, r2
  4001ea:	3204      	adds	r2, #4
  4001ec:	b21b      	sxth	r3, r3
		for(int i = 0; i < IO_BUF_SIZE; i+=2)
  4001ee:	f5b2 5f80 	cmp.w	r2, #4096	; 0x1000
			processBuffer[processIdx++] = ((float )(int16_t)inBuffer[i]) * One_over_max_int16; 
  4001f2:	ee07 3a90 	vmov	s15, r3
  4001f6:	eef8 7ae7 	vcvt.f32.s32	s15, s15
  4001fa:	ee67 7a87 	vmul.f32	s15, s15, s14
  4001fe:	edc1 7a00 	vstr	s15, [r1]
		for(int i = 0; i < IO_BUF_SIZE; i+=2)
  400202:	d1ee      	bne.n	4001e2 <XDMAC_Handler+0x36>
		}
		dataReceived = true; // can check for out of time here 
  400204:	4b14      	ldr	r3, [pc, #80]	; (400258 <XDMAC_Handler+0xac>)
  400206:	2201      	movs	r2, #1
  400208:	701a      	strb	r2, [r3, #0]
  40020a:	4b0a      	ldr	r3, [pc, #40]	; (400234 <XDMAC_Handler+0x88>)
  40020c:	f8d3 309c 	ldr.w	r3, [r3, #156]	; 0x9c
    }
	
	dma_status = xdmac_channel_get_interrupt_status(XDMAC, XDMA_CH_SSC_TX);
	if (dma_status & XDMAC_CIS_BIS)
  400210:	07db      	lsls	r3, r3, #31
  400212:	d50c      	bpl.n	40022e <XDMAC_Handler+0x82>
	{
		// update output buffer to be used 
		if(outPingMode)
  400214:	4b11      	ldr	r3, [pc, #68]	; (40025c <XDMAC_Handler+0xb0>)
		{
			outBuffer = outPingBuffer; 
  400216:	4812      	ldr	r0, [pc, #72]	; (400260 <XDMAC_Handler+0xb4>)
		if(outPingMode)
  400218:	781c      	ldrb	r4, [r3, #0]
			outBuffer = outPingBuffer; 
  40021a:	4912      	ldr	r1, [pc, #72]	; (400264 <XDMAC_Handler+0xb8>)
		}
		else
		{
			outBuffer = outPongBuffer; 
		}
		outPingMode = !outPingMode; 
  40021c:	781a      	ldrb	r2, [r3, #0]
			outBuffer = outPingBuffer; 
  40021e:	2c00      	cmp	r4, #0
  400220:	bf18      	it	ne
  400222:	4601      	movne	r1, r0
  400224:	4810      	ldr	r0, [pc, #64]	; (400268 <XDMAC_Handler+0xbc>)
		outPingMode = !outPingMode; 
  400226:	f082 0201 	eor.w	r2, r2, #1
  40022a:	6001      	str	r1, [r0, #0]
  40022c:	701a      	strb	r2, [r3, #0]
	}
}
  40022e:	bc70      	pop	{r4, r5, r6}
  400230:	4770      	bx	lr
  400232:	bf00      	nop
  400234:	40078000 	.word	0x40078000
  400238:	20400010 	.word	0x20400010
  40023c:	20454800 	.word	0x20454800
  400240:	20459800 	.word	0x20459800
  400244:	20458800 	.word	0x20458800
  400248:	20455800 	.word	0x20455800
  40024c:	2040001c 	.word	0x2040001c
  400250:	2040000c 	.word	0x2040000c
  400254:	380000fd 	.word	0x380000fd
  400258:	2040401c 	.word	0x2040401c
  40025c:	20400018 	.word	0x20400018
  400260:	20456800 	.word	0x20456800
  400264:	20457800 	.word	0x20457800
  400268:	20400014 	.word	0x20400014

0040026c <configure_xdma>:
/******************************* XDMAC Interrupt Handler End *******************************/

/********************************** Public Functions Start **********************************/
void configure_xdma(void)
{
  40026c:	e92d 41f0 	stmdb	sp!, {r4, r5, r6, r7, r8, lr}
    uint16_t *src;
    
    xdmac_channel_config_t xdmac_channel_cfg = {0};
  400270:	2620      	movs	r6, #32
{
  400272:	b088      	sub	sp, #32
    xdmac_channel_config_t xdmac_channel_cfg = {0};
  400274:	2100      	movs	r1, #0
  400276:	4b30      	ldr	r3, [pc, #192]	; (400338 <configure_xdma+0xcc>)
  400278:	4632      	mov	r2, r6
  40027a:	4668      	mov	r0, sp
  40027c:	4798      	blx	r3
    
    /* Initialize and enable DMA controller */
    pmc_enable_periph_clk(ID_XDMAC);
  40027e:	4b2f      	ldr	r3, [pc, #188]	; (40033c <configure_xdma+0xd0>)
  400280:	203a      	movs	r0, #58	; 0x3a
    | XDMAC_CC_DIF_AHB_IF0
    | XDMAC_CC_SAM_FIXED_AM
    | XDMAC_CC_DAM_INCREMENTED_AM
    | XDMAC_CC_PERID(33);
	
    xdmac_configure_transfer(XDMAC, XDMA_CH_SSC_RX, &xdmac_channel_cfg);
  400282:	4c2f      	ldr	r4, [pc, #188]	; (400340 <configure_xdma+0xd4>)
    pmc_enable_periph_clk(ID_XDMAC);
  400284:	4798      	blx	r3

    \param [in]      IRQn  External interrupt number. Value cannot be negative.
 */
__STATIC_INLINE void NVIC_ClearPendingIRQ(IRQn_Type IRQn)
{
  NVIC->ICPR[((uint32_t)(IRQn) >> 5)] = (1 << ((uint32_t)(IRQn) & 0x1F)); /* Clear pending interrupt */
  400286:	f04f 6580 	mov.w	r5, #67108864	; 0x4000000
  40028a:	4b2e      	ldr	r3, [pc, #184]	; (400344 <configure_xdma+0xd8>)
    xdmac_configure_transfer(XDMAC, XDMA_CH_SSC_RX, &xdmac_channel_cfg);
  40028c:	466a      	mov	r2, sp
    xdmac_channel_cfg.mbr_cfg = XDMAC_CC_TYPE_PER_TRAN
  40028e:	f8df e0c8 	ldr.w	lr, [pc, #200]	; 400358 <configure_xdma+0xec>
    xdmac_configure_transfer(XDMAC, XDMA_CH_SSC_RX, &xdmac_channel_cfg);
  400292:	4620      	mov	r0, r4
  400294:	f8c3 5184 	str.w	r5, [r3, #388]	; 0x184
  400298:	2100      	movs	r1, #0
__STATIC_INLINE void NVIC_SetPriority(IRQn_Type IRQn, uint32_t priority)
{
  if(IRQn < 0) {
    SCB->SHPR[((uint32_t)(IRQn) & 0xF)-4] = ((priority << (8 - __NVIC_PRIO_BITS)) & 0xff); } /* set Priority for Cortex-M  System Interrupts */
  else {
    NVIC->IP[(uint32_t)(IRQn)]            = ((priority << (8 - __NVIC_PRIO_BITS)) & 0xff); } /* set Priority for device specific Interrupts  */
  40029a:	f883 633a 	strb.w	r6, [r3, #826]	; 0x33a
 */
static inline void xdmac_channel_set_descriptor_control(Xdmac *xdmac, uint32_t channel_num, uint32_t config)
{
	Assert(xdmac);
	Assert(channel_num < XDMACCHID_NUMBER);
	xdmac->XDMAC_CHID[channel_num].XDMAC_CNDC = config;
  40029e:	270f      	movs	r7, #15
  NVIC->ISER[(uint32_t)((int32_t)IRQn) >> 5] = (uint32_t)(1 << ((uint32_t)((int32_t)IRQn) & (uint32_t)0x1F)); /* enable interrupt */
  4002a0:	605d      	str	r5, [r3, #4]
	xdmac->XDMAC_GIE = ( XDMAC_GIE_IE0 << channel_num) ;
  4002a2:	2501      	movs	r5, #1
  4002a4:	f8df 80b4 	ldr.w	r8, [pc, #180]	; 40035c <configure_xdma+0xf0>
    xdmac_channel_cfg.mbr_cfg = XDMAC_CC_TYPE_PER_TRAN
  4002a8:	f8cd e00c 	str.w	lr, [sp, #12]
    xdmac_configure_transfer(XDMAC, XDMA_CH_SSC_RX, &xdmac_channel_cfg);
  4002ac:	47c0      	blx	r8
    
    /* Initialize linked list descriptor */
    src = (uint16_t *)&inPingBuffer[0];
    linklist_read[0].mbr_ubc = XDMAC_UBC_NVIEW_NDV1
  4002ae:	4b26      	ldr	r3, [pc, #152]	; (400348 <configure_xdma+0xdc>)
    | XDMAC_CC_DIF_AHB_IF1
    | XDMAC_CC_SAM_INCREMENTED_AM
    | XDMAC_CC_DAM_FIXED_AM
    | XDMAC_CC_PERID(32);
	
    xdmac_configure_transfer(XDMAC, XDMA_CH_SSC_TX, &xdmac_channel_cfg);
  4002b0:	466a      	mov	r2, sp
    linklist_read[0].mbr_da = (uint32_t)(src);
  4002b2:	f8df e0ac 	ldr.w	lr, [pc, #172]	; 400360 <configure_xdma+0xf4>
    xdmac_configure_transfer(XDMAC, XDMA_CH_SSC_TX, &xdmac_channel_cfg);
  4002b6:	4629      	mov	r1, r5
    linklist_read[0].mbr_nda = (uint32_t)&linklist_read[1];
  4002b8:	f103 0010 	add.w	r0, r3, #16
	xdmac->XDMAC_CHID[channel_num].XDMAC_CNDA = (desc_addr & 0xFFFFFFFC) | ndaif;
  4002bc:	f023 0603 	bic.w	r6, r3, #3
	linklist_read[1].mbr_da = (uint32_t)(src);
  4002c0:	f8df c0a0 	ldr.w	ip, [pc, #160]	; 400364 <configure_xdma+0xf8>
    linklist_read[0].mbr_nda = (uint32_t)&linklist_read[1];
  4002c4:	6018      	str	r0, [r3, #0]
    xdmac_configure_transfer(XDMAC, XDMA_CH_SSC_TX, &xdmac_channel_cfg);
  4002c6:	4620      	mov	r0, r4
	xdmac->XDMAC_CHID[channel_num].XDMAC_CNDC = config;
  4002c8:	66e7      	str	r7, [r4, #108]	; 0x6c
	xdmac->XDMAC_CHID[channel_num].XDMAC_CNDA = (desc_addr & 0xFFFFFFFC) | ndaif;
  4002ca:	66a6      	str	r6, [r4, #104]	; 0x68
	xdmac->XDMAC_GIE = ( XDMAC_GIE_IE0 << channel_num) ;
  4002cc:	60e5      	str	r5, [r4, #12]
    linklist_read[0].mbr_ubc = XDMAC_UBC_NVIEW_NDV1
  4002ce:	4e1f      	ldr	r6, [pc, #124]	; (40034c <configure_xdma+0xe0>)
	xdmac->XDMAC_CHID[channel_num].XDMAC_CIE = mask;
  4002d0:	6525      	str	r5, [r4, #80]	; 0x50
    linklist_read[0].mbr_da = (uint32_t)(src);
  4002d2:	f8c3 e00c 	str.w	lr, [r3, #12]
    linklist_read[0].mbr_sa  = (uint32_t)&(SSC->SSC_RHR);
  4002d6:	f8df e090 	ldr.w	lr, [pc, #144]	; 400368 <configure_xdma+0xfc>
	linklist_read[1].mbr_da = (uint32_t)(src);
  4002da:	f8c3 c01c 	str.w	ip, [r3, #28]
    xdmac_channel_cfg.mbr_cfg = XDMAC_CC_TYPE_PER_TRAN
  4002de:	f8df c08c 	ldr.w	ip, [pc, #140]	; 40036c <configure_xdma+0x100>
    linklist_read[0].mbr_ubc = XDMAC_UBC_NVIEW_NDV1
  4002e2:	605e      	str	r6, [r3, #4]
	linklist_read[1].mbr_ubc = XDMAC_UBC_NVIEW_NDV1
  4002e4:	615e      	str	r6, [r3, #20]
    linklist_read[0].mbr_sa  = (uint32_t)&(SSC->SSC_RHR);
  4002e6:	f8c3 e008 	str.w	lr, [r3, #8]
	linklist_read[1].mbr_sa  = (uint32_t)&(SSC->SSC_RHR);
  4002ea:	f8c3 e018 	str.w	lr, [r3, #24]
	linklist_read[1].mbr_nda = (uint32_t)&linklist_read[0];
  4002ee:	611b      	str	r3, [r3, #16]
    xdmac_channel_cfg.mbr_cfg = XDMAC_CC_TYPE_PER_TRAN
  4002f0:	f8cd c00c 	str.w	ip, [sp, #12]
    xdmac_configure_transfer(XDMAC, XDMA_CH_SSC_TX, &xdmac_channel_cfg);
  4002f4:	47c0      	blx	r8
    
    src = (uint16_t *)&outPingBuffer[0];
    linklist_write[0].mbr_ubc = XDMAC_UBC_NVIEW_NDV1
  4002f6:	4b16      	ldr	r3, [pc, #88]	; (400350 <configure_xdma+0xe4>)
	xdmac->XDMAC_GIE = ( XDMAC_GIE_IE0 << channel_num) ;
  4002f8:	2102      	movs	r1, #2
		 | XDMAC_UBC_NDE_FETCH_EN
		 | XDMAC_UBC_NSEN_UPDATED
			| XDMAC_CUBC_UBLEN(IO_BUF_SIZE);
    linklist_write[0].mbr_sa = (uint32_t)(src);
    linklist_write[0].mbr_da = (uint32_t)&(SSC->SSC_THR);
  4002fa:	4a16      	ldr	r2, [pc, #88]	; (400354 <configure_xdma+0xe8>)
    linklist_write[0].mbr_sa = (uint32_t)(src);
  4002fc:	f8df c070 	ldr.w	ip, [pc, #112]	; 400370 <configure_xdma+0x104>
    linklist_write[0].mbr_nda = (uint32_t)&linklist_write[1];
  400300:	f103 0810 	add.w	r8, r3, #16
	xdmac->XDMAC_CHID[channel_num].XDMAC_CNDA = (desc_addr & 0xFFFFFFFC) | ndaif;
  400304:	f023 0003 	bic.w	r0, r3, #3
	src = (uint16_t *)&outPongBuffer[0];
	linklist_write[1].mbr_ubc = XDMAC_UBC_NVIEW_NDV1
	    | XDMAC_UBC_NDE_FETCH_EN
	    | XDMAC_UBC_NSEN_UPDATED
	    | XDMAC_CUBC_UBLEN(IO_BUF_SIZE);
	linklist_write[1].mbr_sa = (uint32_t)(src);
  400308:	f8df e068 	ldr.w	lr, [pc, #104]	; 400374 <configure_xdma+0x108>
    linklist_write[0].mbr_ubc = XDMAC_UBC_NVIEW_NDV1
  40030c:	605e      	str	r6, [r3, #4]
	linklist_write[1].mbr_ubc = XDMAC_UBC_NVIEW_NDV1
  40030e:	615e      	str	r6, [r3, #20]
	linklist_write[1].mbr_da = (uint32_t)&(SSC->SSC_THR);
	linklist_write[1].mbr_nda = (uint32_t)&linklist_write[0];
  400310:	611b      	str	r3, [r3, #16]
    linklist_write[0].mbr_nda = (uint32_t)&linklist_write[1];
  400312:	f8c3 8000 	str.w	r8, [r3]
    linklist_write[0].mbr_sa = (uint32_t)(src);
  400316:	f8c3 c008 	str.w	ip, [r3, #8]
	xdmac->XDMAC_CHID[channel_num].XDMAC_CNDC = config;
  40031a:	f8c4 70ac 	str.w	r7, [r4, #172]	; 0xac
	linklist_write[1].mbr_sa = (uint32_t)(src);
  40031e:	f8c3 e018 	str.w	lr, [r3, #24]
	xdmac->XDMAC_CHID[channel_num].XDMAC_CNDA = (desc_addr & 0xFFFFFFFC) | ndaif;
  400322:	f8c4 00a8 	str.w	r0, [r4, #168]	; 0xa8
    linklist_write[0].mbr_da = (uint32_t)&(SSC->SSC_THR);
  400326:	60da      	str	r2, [r3, #12]
	xdmac->XDMAC_GIE = ( XDMAC_GIE_IE0 << channel_num) ;
  400328:	60e1      	str	r1, [r4, #12]
	linklist_write[1].mbr_da = (uint32_t)&(SSC->SSC_THR);
  40032a:	61da      	str	r2, [r3, #28]
	xdmac->XDMAC_CHID[channel_num].XDMAC_CIE = mask;
  40032c:	f8c4 5090 	str.w	r5, [r4, #144]	; 0x90
    xdmac_channel_set_descriptor_addr(XDMAC, XDMA_CH_SSC_TX, (uint32_t)(&linklist_write[0]), 0);
    
    xdmac_enable_interrupt(XDMAC, XDMA_CH_SSC_TX);
    xdmac_channel_enable_interrupt(XDMAC, XDMA_CH_SSC_TX, XDMAC_CIE_BIE);
    
}
  400330:	b008      	add	sp, #32
  400332:	e8bd 81f0 	ldmia.w	sp!, {r4, r5, r6, r7, r8, pc}
  400336:	bf00      	nop
  400338:	00403bd5 	.word	0x00403bd5
  40033c:	0040237d 	.word	0x0040237d
  400340:	40078000 	.word	0x40078000
  400344:	e000e100 	.word	0xe000e100
  400348:	20404020 	.word	0x20404020
  40034c:	0b000800 	.word	0x0b000800
  400350:	20404040 	.word	0x20404040
  400354:	40004024 	.word	0x40004024
  400358:	21042801 	.word	0x21042801
  40035c:	004017f9 	.word	0x004017f9
  400360:	20459800 	.word	0x20459800
  400364:	20455800 	.word	0x20455800
  400368:	40004020 	.word	0x40004020
  40036c:	20014811 	.word	0x20014811
  400370:	20456800 	.word	0x20456800
  400374:	20457800 	.word	0x20457800

00400378 <audio_init>:
#include "DMA_Audio.h"
#include "WM8904_Driver.h"
#include "ASF/sam/utils/cmsis/samv71/include/component/supc.h"

void audio_init(void)
{
  400378:	b510      	push	{r4, lr}
	/* Initialize WM8904 TWI interface*/
	if (wm8904_twi_init() != TWIHS_SUCCESS) {
  40037a:	4b13      	ldr	r3, [pc, #76]	; (4003c8 <audio_init+0x50>)
  40037c:	4798      	blx	r3
  40037e:	b118      	cbz	r0, 400388 <audio_init+0x10>
		printf("-E-\tWM8904 initialization failed.\r");
  400380:	4812      	ldr	r0, [pc, #72]	; (4003cc <audio_init+0x54>)
  400382:	4b13      	ldr	r3, [pc, #76]	; (4003d0 <audio_init+0x58>)
  400384:	4798      	blx	r3
  400386:	e7fe      	b.n	400386 <audio_init+0xe>
			/* Capture error */
		}
	}
		
	/* Configure CODEC */
	configure_codec();
  400388:	4b12      	ldr	r3, [pc, #72]	; (4003d4 <audio_init+0x5c>)
  40038a:	4604      	mov	r4, r0
  40038c:	4798      	blx	r3
		
	/* Configure SSC */
	configure_ssc();
  40038e:	4b12      	ldr	r3, [pc, #72]	; (4003d8 <audio_init+0x60>)
  400390:	4798      	blx	r3
		
	/* Configure XDMA */
	configure_xdma();
  400392:	4b12      	ldr	r3, [pc, #72]	; (4003dc <audio_init+0x64>)
  400394:	4798      	blx	r3
		
	/* Enable the DAC master clock (MCLK) */
	pmc_pck_set_prescaler(PMC_PCK_2, PMC_MCKR_PRES_CLK_1);
  400396:	4621      	mov	r1, r4
  400398:	2002      	movs	r0, #2
  40039a:	4b11      	ldr	r3, [pc, #68]	; (4003e0 <audio_init+0x68>)
  40039c:	4798      	blx	r3
	pmc_pck_set_source(PMC_PCK_2, PMC_MCKR_CSS_SLOW_CLK);
  40039e:	4621      	mov	r1, r4
  4003a0:	2002      	movs	r0, #2
  4003a2:	4b10      	ldr	r3, [pc, #64]	; (4003e4 <audio_init+0x6c>)
  4003a4:	4798      	blx	r3
	pmc_enable_pck(PMC_PCK_2);
  4003a6:	2002      	movs	r0, #2
  4003a8:	4b0f      	ldr	r3, [pc, #60]	; (4003e8 <audio_init+0x70>)
  4003aa:	4798      	blx	r3
		
	/* Start playing */
	ssc_enable_rx(SSC);
  4003ac:	f04f 2040 	mov.w	r0, #1073758208	; 0x40004000
  4003b0:	4b0e      	ldr	r3, [pc, #56]	; (4003ec <audio_init+0x74>)
  4003b2:	4798      	blx	r3
	xdmac->XDMAC_GE = (XDMAC_GE_EN0 << channel_num);
  4003b4:	4c0e      	ldr	r4, [pc, #56]	; (4003f0 <audio_init+0x78>)
  4003b6:	2201      	movs	r2, #1
	xdmac_channel_enable(XDMAC, XDMA_CH_SSC_RX);
	// might want to enable in the first xdma interrupt (if you care)
	ssc_enable_tx(SSC);
  4003b8:	4b0e      	ldr	r3, [pc, #56]	; (4003f4 <audio_init+0x7c>)
  4003ba:	f04f 2040 	mov.w	r0, #1073758208	; 0x40004000
  4003be:	61e2      	str	r2, [r4, #28]
  4003c0:	4798      	blx	r3
  4003c2:	2302      	movs	r3, #2
  4003c4:	61e3      	str	r3, [r4, #28]
  4003c6:	bd10      	pop	{r4, pc}
  4003c8:	00401379 	.word	0x00401379
  4003cc:	00406288 	.word	0x00406288
  4003d0:	00403509 	.word	0x00403509
  4003d4:	004004bd 	.word	0x004004bd
  4003d8:	004003f9 	.word	0x004003f9
  4003dc:	0040026d 	.word	0x0040026d
  4003e0:	004023c5 	.word	0x004023c5
  4003e4:	004023f9 	.word	0x004023f9
  4003e8:	0040242d 	.word	0x0040242d
  4003ec:	00401405 	.word	0x00401405
  4003f0:	40078000 	.word	0x40078000
  4003f4:	00401415 	.word	0x00401415

004003f8 <configure_ssc>:
#include "WM8904_Driver.h"


/********************************** Public Functions Start **********************************/
void configure_ssc(void)
{
  4003f8:	e92d 41f0 	stmdb	sp!, {r4, r5, r6, r7, r8, lr}
	clock_opt_t tx_clk_option, rx_clk_option;
	data_frame_opt_t tx_data_frame_option, rx_data_frame_option;

	/* Initialize clock */
	pmc_enable_periph_clk(ID_SSC);
  4003fc:	4b28      	ldr	r3, [pc, #160]	; (4004a0 <configure_ssc+0xa8>)
{
  4003fe:	b09c      	sub	sp, #112	; 0x70
	pmc_enable_periph_clk(ID_SSC);
  400400:	2016      	movs	r0, #22
	/* Reset SSC */
	ssc_reset(SSC);

	/* Transmitter clock mode configuration. */
	tx_clk_option.ul_cks = SSC_TCMR_CKS_TK;
	tx_clk_option.ul_cko = SSC_TCMR_CKO_NONE;
  400402:	2400      	movs	r4, #0
	pmc_enable_periph_clk(ID_SSC);
  400404:	4798      	blx	r3
	ssc_reset(SSC);
  400406:	f04f 2040 	mov.w	r0, #1073758208	; 0x40004000
  40040a:	4b26      	ldr	r3, [pc, #152]	; (4004a4 <configure_ssc+0xac>)
	tx_clk_option.ul_cki = 0;
	tx_clk_option.ul_ckg = SSC_TCMR_CKG_CONTINUOUS;
	tx_clk_option.ul_start_sel = SSC_TCMR_START_TF_EDGE;
	tx_clk_option.ul_sttdly = 1;
	tx_clk_option.ul_period = BITS_BY_SLOT - 1;
  40040c:	250f      	movs	r5, #15
	ssc_reset(SSC);
  40040e:	4798      	blx	r3
	tx_clk_option.ul_sttdly = 1;
  400410:	2601      	movs	r6, #1
	tx_clk_option.ul_start_sel = SSC_TCMR_START_TF_EDGE;
  400412:	f44f 68e0 	mov.w	r8, #1792	; 0x700
	tx_clk_option.ul_cks = SSC_TCMR_CKS_TK;
  400416:	f04f 0e02 	mov.w	lr, #2
	/* Transmitter frame mode configuration. */
	tx_data_frame_option.ul_datlen = BITS_BY_SLOT - 1;
	tx_data_frame_option.ul_msbf = SSC_TFMR_MSBF;
  40041a:	2780      	movs	r7, #128	; 0x80
	tx_data_frame_option.ul_fslen = BITS_BY_SLOT - 1;
	tx_data_frame_option.ul_fslen_ext = 0;
	tx_data_frame_option.ul_fsos = SSC_TFMR_FSOS_NONE;
	tx_data_frame_option.ul_fsedge = SSC_TFMR_FSEDGE_POSITIVE;
	/* Configure the SSC transmitter to I2S mode. */
	ssc_set_transmitter(SSC, &tx_clk_option, &tx_data_frame_option);
  40041c:	aa0e      	add	r2, sp, #56	; 0x38
  40041e:	4669      	mov	r1, sp
  400420:	f04f 2040 	mov.w	r0, #1073758208	; 0x40004000
  400424:	4b20      	ldr	r3, [pc, #128]	; (4004a8 <configure_ssc+0xb0>)
	tx_clk_option.ul_cks = SSC_TCMR_CKS_TK;
  400426:	f8cd e000 	str.w	lr, [sp]
	tx_clk_option.ul_cko = SSC_TCMR_CKO_NONE;
  40042a:	9401      	str	r4, [sp, #4]
	tx_clk_option.ul_cki = 0;
  40042c:	9402      	str	r4, [sp, #8]
	tx_clk_option.ul_ckg = SSC_TCMR_CKG_CONTINUOUS;
  40042e:	9403      	str	r4, [sp, #12]
	tx_data_frame_option.ul_datnb = 0;
  400430:	9410      	str	r4, [sp, #64]	; 0x40
	tx_data_frame_option.ul_fslen_ext = 0;
  400432:	9412      	str	r4, [sp, #72]	; 0x48
	tx_data_frame_option.ul_fsos = SSC_TFMR_FSOS_NONE;
  400434:	9413      	str	r4, [sp, #76]	; 0x4c
	tx_data_frame_option.ul_fsedge = SSC_TFMR_FSEDGE_POSITIVE;
  400436:	9414      	str	r4, [sp, #80]	; 0x50
	tx_clk_option.ul_start_sel = SSC_TCMR_START_TF_EDGE;
  400438:	f8cd 8018 	str.w	r8, [sp, #24]
	tx_clk_option.ul_sttdly = 1;
  40043c:	9605      	str	r6, [sp, #20]
	tx_clk_option.ul_period = BITS_BY_SLOT - 1;
  40043e:	9504      	str	r5, [sp, #16]
	tx_data_frame_option.ul_datlen = BITS_BY_SLOT - 1;
  400440:	950e      	str	r5, [sp, #56]	; 0x38
	tx_data_frame_option.ul_fslen = BITS_BY_SLOT - 1;
  400442:	9511      	str	r5, [sp, #68]	; 0x44
	tx_data_frame_option.ul_msbf = SSC_TFMR_MSBF;
  400444:	970f      	str	r7, [sp, #60]	; 0x3c
	ssc_set_transmitter(SSC, &tx_clk_option, &tx_data_frame_option);
  400446:	4798      	blx	r3

	/* Receiver clock mode configuration. */
	rx_clk_option.ul_cks = SSC_RCMR_CKS_TK;
	rx_clk_option.ul_cko = SSC_RCMR_CKO_NONE;
	rx_clk_option.ul_cki = SSC_RCMR_CKI;
  400448:	f04f 0c20 	mov.w	ip, #32
	rx_clk_option.ul_ckg = SSC_RCMR_CKG_CONTINUOUS;
	rx_clk_option.ul_start_sel = SSC_RCMR_START_RF_EDGE;
	rx_clk_option.ul_sttdly = 1;	
	rx_clk_option.ul_period = BITS_BY_SLOT;	
  40044c:	f04f 0e10 	mov.w	lr, #16
	rx_data_frame_option.ul_fslen = BITS_BY_SLOT - 1;	
	rx_data_frame_option.ul_fslen_ext = 0;
	rx_data_frame_option.ul_fsos = SSC_TFMR_FSOS_NONE;
	rx_data_frame_option.ul_fsedge = SSC_TFMR_FSEDGE_POSITIVE;
	/* Configure the SSC transmitter to I2S mode. */
	ssc_set_receiver(SSC, &rx_clk_option, &rx_data_frame_option);
  400450:	aa15      	add	r2, sp, #84	; 0x54
  400452:	a907      	add	r1, sp, #28
  400454:	f04f 2040 	mov.w	r0, #1073758208	; 0x40004000
  400458:	4b14      	ldr	r3, [pc, #80]	; (4004ac <configure_ssc+0xb4>)
	rx_clk_option.ul_cki = SSC_RCMR_CKI;
  40045a:	f8cd c024 	str.w	ip, [sp, #36]	; 0x24
	rx_clk_option.ul_period = BITS_BY_SLOT;	
  40045e:	f8cd e02c 	str.w	lr, [sp, #44]	; 0x2c
	rx_clk_option.ul_start_sel = SSC_RCMR_START_RF_EDGE;
  400462:	f8cd 8034 	str.w	r8, [sp, #52]	; 0x34
	rx_clk_option.ul_cks = SSC_RCMR_CKS_TK;
  400466:	9607      	str	r6, [sp, #28]
	rx_clk_option.ul_cko = SSC_RCMR_CKO_NONE;
  400468:	9408      	str	r4, [sp, #32]
	rx_clk_option.ul_ckg = SSC_RCMR_CKG_CONTINUOUS;
  40046a:	940a      	str	r4, [sp, #40]	; 0x28
	rx_clk_option.ul_sttdly = 1;	
  40046c:	960c      	str	r6, [sp, #48]	; 0x30
	rx_data_frame_option.ul_datlen = BITS_BY_SLOT - 1;
  40046e:	9515      	str	r5, [sp, #84]	; 0x54
	rx_data_frame_option.ul_msbf = SSC_RFMR_MSBF;
  400470:	9716      	str	r7, [sp, #88]	; 0x58
	rx_data_frame_option.ul_datnb = 0;
  400472:	9417      	str	r4, [sp, #92]	; 0x5c
	rx_data_frame_option.ul_fslen = BITS_BY_SLOT - 1;	
  400474:	9518      	str	r5, [sp, #96]	; 0x60
	rx_data_frame_option.ul_fslen_ext = 0;
  400476:	9419      	str	r4, [sp, #100]	; 0x64
	rx_data_frame_option.ul_fsos = SSC_TFMR_FSOS_NONE;
  400478:	941a      	str	r4, [sp, #104]	; 0x68
	rx_data_frame_option.ul_fsedge = SSC_TFMR_FSEDGE_POSITIVE;
  40047a:	941b      	str	r4, [sp, #108]	; 0x6c
	ssc_set_receiver(SSC, &rx_clk_option, &rx_data_frame_option);
  40047c:	4798      	blx	r3

	/* Disable transmitter first */
	ssc_disable_tx(SSC);
  40047e:	f04f 2040 	mov.w	r0, #1073758208	; 0x40004000
  400482:	4b0b      	ldr	r3, [pc, #44]	; (4004b0 <configure_ssc+0xb8>)
  400484:	4798      	blx	r3
	ssc_disable_rx(SSC);
  400486:	f04f 2040 	mov.w	r0, #1073758208	; 0x40004000
  40048a:	4b0a      	ldr	r3, [pc, #40]	; (4004b4 <configure_ssc+0xbc>)
  40048c:	4798      	blx	r3

	/* Disable All Interrupt */
	ssc_disable_interrupt(SSC, 0xFFFFFFFF);
  40048e:	f04f 31ff 	mov.w	r1, #4294967295
  400492:	f04f 2040 	mov.w	r0, #1073758208	; 0x40004000
  400496:	4b08      	ldr	r3, [pc, #32]	; (4004b8 <configure_ssc+0xc0>)
  400498:	4798      	blx	r3
}
  40049a:	b01c      	add	sp, #112	; 0x70
  40049c:	e8bd 81f0 	ldmia.w	sp!, {r4, r5, r6, r7, r8, pc}
  4004a0:	0040237d 	.word	0x0040237d
  4004a4:	004013f1 	.word	0x004013f1
  4004a8:	00401499 	.word	0x00401499
  4004ac:	00401425 	.word	0x00401425
  4004b0:	0040141d 	.word	0x0040141d
  4004b4:	0040140d 	.word	0x0040140d
  4004b8:	0040150d 	.word	0x0040150d

004004bc <configure_codec>:


void configure_codec(void)
{
  4004bc:	e92d 41f0 	stmdb	sp!, {r4, r5, r6, r7, r8, lr}
	uint16_t data = 0;
	/* check that WM8904 is present */
	wm8904_write_register(WM8904_SW_RESET_AND_ID, 0xFFFF);
  4004c0:	f64f 71ff 	movw	r1, #65535	; 0xffff
  4004c4:	4c3d      	ldr	r4, [pc, #244]	; (4005bc <configure_codec+0x100>)
  4004c6:	2000      	movs	r0, #0
	}

	wm8904_write_register(WM8904_BIAS_CONTROL_0, WM8904_ISEL_HP_BIAS);	
	wm8904_write_register(WM8904_VMID_CONTROL_0, WM8904_VMID_BUF_ENA |	
	WM8904_VMID_RES_FAST | WM8904_VMID_ENA);
	delay_ms(5);
  4004c8:	4e3d      	ldr	r6, [pc, #244]	; (4005c0 <configure_codec+0x104>)
	wm8904_write_register(WM8904_SW_RESET_AND_ID, 0xFFFF);
  4004ca:	47a0      	blx	r4
	data = wm8904_read_register(WM8904_SW_RESET_AND_ID);
  4004cc:	4b3d      	ldr	r3, [pc, #244]	; (4005c4 <configure_codec+0x108>)
  4004ce:	2000      	movs	r0, #0
	delay_ms(5);
  4004d0:	4d3d      	ldr	r5, [pc, #244]	; (4005c8 <configure_codec+0x10c>)
	data = wm8904_read_register(WM8904_SW_RESET_AND_ID);
  4004d2:	4798      	blx	r3
	wm8904_write_register(WM8904_BIAS_CONTROL_0, WM8904_ISEL_HP_BIAS);	
  4004d4:	2108      	movs	r1, #8
  4004d6:	2004      	movs	r0, #4
	WM8904_DCS_ENA_CHAN_3 | WM8904_DCS_ENA_CHAN_2 |
	WM8904_DCS_ENA_CHAN_1 | WM8904_DCS_ENA_CHAN_0);
	wm8904_write_register(WM8904_DC_SERVO_1,
	WM8904_DCS_TRIG_STARTUP_3 | WM8904_DCS_TRIG_STARTUP_2 |
	WM8904_DCS_TRIG_STARTUP_1 | WM8904_DCS_TRIG_STARTUP_0);
	delay_ms(100);
  4004d8:	4f3c      	ldr	r7, [pc, #240]	; (4005cc <configure_codec+0x110>)
	wm8904_write_register(WM8904_BIAS_CONTROL_0, WM8904_ISEL_HP_BIAS);	
  4004da:	47a0      	blx	r4
	wm8904_write_register(WM8904_VMID_CONTROL_0, WM8904_VMID_BUF_ENA |	
  4004dc:	2147      	movs	r1, #71	; 0x47
  4004de:	2005      	movs	r0, #5
  4004e0:	47a0      	blx	r4
	delay_ms(5);
  4004e2:	4630      	mov	r0, r6
  4004e4:	47a8      	blx	r5
	wm8904_write_register(WM8904_VMID_CONTROL_0, WM8904_VMID_BUF_ENA |
  4004e6:	2143      	movs	r1, #67	; 0x43
  4004e8:	2005      	movs	r0, #5
  4004ea:	47a0      	blx	r4
	wm8904_write_register(WM8904_BIAS_CONTROL_0, WM8904_ISEL_HP_BIAS | WM8904_BIAS_ENA);
  4004ec:	2109      	movs	r1, #9
  4004ee:	2004      	movs	r0, #4
  4004f0:	47a0      	blx	r4
	wm8904_write_register(WM8904_POWER_MANAGEMENT_0, WM8904_INL_ENA | WM8904_INR_ENA);
  4004f2:	2103      	movs	r1, #3
  4004f4:	200c      	movs	r0, #12
  4004f6:	47a0      	blx	r4
	wm8904_write_register(WM8904_POWER_MANAGEMENT_2, WM8904_HPL_PGA_ENA | WM8904_HPR_PGA_ENA);
  4004f8:	2103      	movs	r1, #3
  4004fa:	200e      	movs	r0, #14
  4004fc:	47a0      	blx	r4
	wm8904_write_register(WM8904_DAC_DIGITAL_1, WM8904_DEEMPH(0));
  4004fe:	2100      	movs	r1, #0
  400500:	2021      	movs	r0, #33	; 0x21
  400502:	47a0      	blx	r4
	wm8904_write_register(WM8904_ANALOGUE_OUT12_ZC, 0x0000);
  400504:	2100      	movs	r1, #0
  400506:	203d      	movs	r0, #61	; 0x3d
  400508:	47a0      	blx	r4
	wm8904_write_register(WM8904_CHARGE_PUMP_0, WM8904_CP_ENA);
  40050a:	2101      	movs	r1, #1
  40050c:	2062      	movs	r0, #98	; 0x62
  40050e:	47a0      	blx	r4
	wm8904_write_register(WM8904_CLASS_W_0, WM8904_CP_DYN_PWR);
  400510:	2101      	movs	r1, #1
  400512:	2068      	movs	r0, #104	; 0x68
  400514:	47a0      	blx	r4
	wm8904_write_register(WM8904_FLL_CONTROL_1, 0x0000);
  400516:	2100      	movs	r1, #0
  400518:	2074      	movs	r0, #116	; 0x74
  40051a:	47a0      	blx	r4
	wm8904_write_register(WM8904_FLL_CONTROL_2, WM8904_FLL_OUTDIV(7)| WM8904_FLL_FRATIO(4));
  40051c:	f240 7104 	movw	r1, #1796	; 0x704
  400520:	2075      	movs	r0, #117	; 0x75
  400522:	47a0      	blx	r4
	wm8904_write_register(WM8904_FLL_CONTROL_3, WM8904_FLL_K(0x8000));
  400524:	f44f 4100 	mov.w	r1, #32768	; 0x8000
  400528:	2076      	movs	r0, #118	; 0x76
  40052a:	47a0      	blx	r4
	wm8904_write_register(WM8904_FLL_CONTROL_4, WM8904_FLL_N(0xBB));
  40052c:	f44f 51bb 	mov.w	r1, #5984	; 0x1760
  400530:	2077      	movs	r0, #119	; 0x77
  400532:	47a0      	blx	r4
	wm8904_write_register(WM8904_FLL_CONTROL_1, WM8904_FLL_FRACN_ENA | WM8904_FLL_ENA);
  400534:	2105      	movs	r1, #5
  400536:	2074      	movs	r0, #116	; 0x74
  400538:	47a0      	blx	r4
	delay_ms(5);
  40053a:	4630      	mov	r0, r6
  40053c:	47a8      	blx	r5
	wm8904_write_register(WM8904_CLOCK_RATES_1, WM8904_CLK_SYS_RATE(3) | WM8904_SAMPLE_RATE(SAMPLE_RATE));
  40053e:	f640 4105 	movw	r1, #3077	; 0xc05
  400542:	2015      	movs	r0, #21
  400544:	47a0      	blx	r4
	wm8904_write_register(WM8904_CLOCK_RATES_0, 0x0000);
  400546:	2100      	movs	r1, #0
  400548:	2014      	movs	r0, #20
  40054a:	47a0      	blx	r4
	wm8904_write_register(WM8904_CLOCK_RATES_2,
  40054c:	f244 0106 	movw	r1, #16390	; 0x4006
  400550:	2016      	movs	r0, #22
  400552:	47a0      	blx	r4
	wm8904_write_register(WM8904_AUDIO_INTERFACE_1, WM8904_BCLK_DIR | WM8904_AIF_FMT_I2S); 
  400554:	2142      	movs	r1, #66	; 0x42
  400556:	2019      	movs	r0, #25
  400558:	47a0      	blx	r4
	wm8904_write_register(WM8904_AUDIO_INTERFACE_2, WM8904_BCLK_DIV(8));
  40055a:	2108      	movs	r1, #8
  40055c:	201a      	movs	r0, #26
  40055e:	47a0      	blx	r4
	wm8904_write_register(WM8904_AUDIO_INTERFACE_3, WM8904_LRCLK_DIR | WM8904_LRCLK_RATE(0x20));
  400560:	f44f 6102 	mov.w	r1, #2080	; 0x820
  400564:	201b      	movs	r0, #27
  400566:	47a0      	blx	r4
	wm8904_write_register(WM8904_POWER_MANAGEMENT_6,
  400568:	210f      	movs	r1, #15
  40056a:	2012      	movs	r0, #18
  40056c:	47a0      	blx	r4
	delay_ms(5);
  40056e:	4630      	mov	r0, r6
  400570:	47a8      	blx	r5
	wm8904_write_register(WM8904_ANALOGUE_LEFT_INPUT_0, WM8904_LIN_VOL(0x10));
  400572:	2110      	movs	r1, #16
  400574:	202c      	movs	r0, #44	; 0x2c
  400576:	47a0      	blx	r4
	wm8904_write_register(WM8904_ANALOGUE_RIGHT_INPUT_0, WM8904_RIN_VOL(0x10));
  400578:	2110      	movs	r1, #16
  40057a:	202d      	movs	r0, #45	; 0x2d
  40057c:	47a0      	blx	r4
	wm8904_write_register(WM8904_ANALOGUE_HP_0,
  40057e:	2111      	movs	r1, #17
  400580:	205a      	movs	r0, #90	; 0x5a
  400582:	47a0      	blx	r4
	wm8904_write_register(WM8904_ANALOGUE_HP_0,
  400584:	2133      	movs	r1, #51	; 0x33
  400586:	205a      	movs	r0, #90	; 0x5a
  400588:	47a0      	blx	r4
	wm8904_write_register(WM8904_DC_SERVO_0,
  40058a:	210f      	movs	r1, #15
  40058c:	2043      	movs	r0, #67	; 0x43
  40058e:	47a0      	blx	r4
	wm8904_write_register(WM8904_DC_SERVO_1,
  400590:	21f0      	movs	r1, #240	; 0xf0
  400592:	2044      	movs	r0, #68	; 0x44
  400594:	47a0      	blx	r4
	delay_ms(100);
  400596:	4638      	mov	r0, r7
  400598:	47a8      	blx	r5
	wm8904_write_register(WM8904_ANALOGUE_HP_0,
  40059a:	2177      	movs	r1, #119	; 0x77
  40059c:	205a      	movs	r0, #90	; 0x5a
  40059e:	47a0      	blx	r4
	WM8904_HPL_ENA_OUTP | WM8904_HPL_ENA_DLY | WM8904_HPL_ENA |
	WM8904_HPR_ENA_OUTP | WM8904_HPR_ENA_DLY | WM8904_HPR_ENA);
	wm8904_write_register(WM8904_ANALOGUE_HP_0,
  4005a0:	21ff      	movs	r1, #255	; 0xff
  4005a2:	205a      	movs	r0, #90	; 0x5a
  4005a4:	47a0      	blx	r4
	WM8904_HPL_RMV_SHORT | WM8904_HPL_ENA_OUTP | WM8904_HPL_ENA_DLY | WM8904_HPL_ENA |
	WM8904_HPR_RMV_SHORT | WM8904_HPR_ENA_OUTP | WM8904_HPR_ENA_DLY | WM8904_HPR_ENA);
	wm8904_write_register(WM8904_ANALOGUE_OUT1_LEFT, WM8904_HPOUT_VU | WM8904_HPOUTL_VOL(0x39));
  4005a6:	21b9      	movs	r1, #185	; 0xb9
  4005a8:	2039      	movs	r0, #57	; 0x39
  4005aa:	47a0      	blx	r4
	wm8904_write_register(WM8904_ANALOGUE_OUT1_RIGHT, WM8904_HPOUT_VU | WM8904_HPOUTR_VOL(0x39));
  4005ac:	203a      	movs	r0, #58	; 0x3a
  4005ae:	21b9      	movs	r1, #185	; 0xb9
  4005b0:	47a0      	blx	r4
	delay_ms(100);
  4005b2:	4638      	mov	r0, r7
  4005b4:	462b      	mov	r3, r5
}
  4005b6:	e8bd 41f0 	ldmia.w	sp!, {r4, r5, r6, r7, r8, lr}
	delay_ms(100);
  4005ba:	4718      	bx	r3
  4005bc:	00401301 	.word	0x00401301
  4005c0:	0003dbc2 	.word	0x0003dbc2
  4005c4:	0040133d 	.word	0x0040133d
  4005c8:	20400001 	.word	0x20400001
  4005cc:	004d2b25 	.word	0x004d2b25

004005d0 <computeWaveletPitch>:
	float pitchF = 0.0f;
	int32_t i, j;
	float si, si1;
	float power; 
	
	arm_copy_f32(samples, sam, WIN_SIZE); 
  4005d0:	f44f 6280 	mov.w	r2, #1024	; 0x400
  4005d4:	4995      	ldr	r1, [pc, #596]	; (40082c <computeWaveletPitch+0x25c>)
  4005d6:	4b96      	ldr	r3, [pc, #600]	; (400830 <computeWaveletPitch+0x260>)
	
	return pitchF;
}

float computeWaveletPitch(float * samples)
{
  4005d8:	e92d 4ff0 	stmdb	sp!, {r4, r5, r6, r7, r8, r9, sl, fp, lr}
	int32_t curSamNb = WIN_SIZE;
  4005dc:	4692      	mov	sl, r2
	int32_t curLevel = 0;
  4005de:	2400      	movs	r4, #0
		memset(distances, 0, WIN_SIZE*sizeof(int32_t));
  4005e0:	f8df b268 	ldr.w	fp, [pc, #616]	; 40084c <computeWaveletPitch+0x27c>
{
  4005e4:	ed2d 8b04 	vpush	{d8-d9}
  4005e8:	b087      	sub	sp, #28
	float curModeDistance = -1.0f;
  4005ea:	eeff 9a00 	vmov.f32	s19, #240	; 0xbf800000 -1.0
	arm_copy_f32(samples, sam, WIN_SIZE); 
  4005ee:	4798      	blx	r3
		arm_max_f32(sam, WIN_SIZE, &maxValue, &temp_idx); 
  4005f0:	4651      	mov	r1, sl
  4005f2:	ab03      	add	r3, sp, #12
  4005f4:	aa04      	add	r2, sp, #16
  4005f6:	488d      	ldr	r0, [pc, #564]	; (40082c <computeWaveletPitch+0x25c>)
	int32_t curLevel = 0;
  4005f8:	9400      	str	r4, [sp, #0]
		arm_max_f32(sam, WIN_SIZE, &maxValue, &temp_idx); 
  4005fa:	4c8e      	ldr	r4, [pc, #568]	; (400834 <computeWaveletPitch+0x264>)
  4005fc:	47a0      	blx	r4
		arm_min_f32(sam, WIN_SIZE, &minValue, &temp_idx); 
  4005fe:	ab03      	add	r3, sp, #12
  400600:	aa05      	add	r2, sp, #20
  400602:	4651      	mov	r1, sl
  400604:	4889      	ldr	r0, [pc, #548]	; (40082c <computeWaveletPitch+0x25c>)
  400606:	4c8c      	ldr	r4, [pc, #560]	; (400838 <computeWaveletPitch+0x268>)
  400608:	47a0      	blx	r4
		float amplitudeMax = (maxValue > -minValue ? maxValue : -minValue);
  40060a:	ed9d 9a05 	vldr	s18, [sp, #20]
		ampltitudeThreshold = amplitudeMax*maximaThresholdRatio;		
  40060e:	eef6 7a08 	vmov.f32	s15, #104	; 0x3f400000  0.750
		float amplitudeMax = (maxValue > -minValue ? maxValue : -minValue);
  400612:	ed9d 7a04 	vldr	s14, [sp, #16]
  400616:	eeb1 9a49 	vneg.f32	s18, s18
	int32_t res = 1, j;
  40061a:	2301      	movs	r3, #1
		delta = DYW_SAMPLING_RATE/(_2power(curLevel)*maxF);
  40061c:	eddf 8a87 	vldr	s17, [pc, #540]	; 40083c <computeWaveletPitch+0x26c>
		if (curSamNb < 2) return pitchF;
  400620:	ed9f 8a87 	vldr	s16, [pc, #540]	; 400840 <computeWaveletPitch+0x270>
		float amplitudeMax = (maxValue > -minValue ? maxValue : -minValue);
  400624:	fe89 9a07 	vmaxnm.f32	s18, s18, s14
		ampltitudeThreshold = amplitudeMax*maximaThresholdRatio;		
  400628:	ee29 9a27 	vmul.f32	s18, s18, s15
		delta = DYW_SAMPLING_RATE/(_2power(curLevel)*maxF);
  40062c:	ee07 3a90 	vmov	s15, r3
		if (curSamNb < 2) return pitchF;
  400630:	f1ba 0f01 	cmp.w	sl, #1
		delta = DYW_SAMPLING_RATE/(_2power(curLevel)*maxF);
  400634:	eef8 7ae7 	vcvt.f32.s32	s15, s15
  400638:	ee88 7aa7 	vdiv.f32	s14, s17, s15
  40063c:	eefd 7ac7 	vcvt.s32.f32	s15, s14
  400640:	ee17 4a90 	vmov	r4, s15
		if (curSamNb < 2) return pitchF;
  400644:	f340 8284 	ble.w	400b50 <computeWaveletPitch+0x580>
  400648:	f1ba 0f03 	cmp.w	sl, #3
  40064c:	f340 826b 	ble.w	400b26 <computeWaveletPitch+0x556>
  400650:	f1aa 0e04 	sub.w	lr, sl, #4
  400654:	4b75      	ldr	r3, [pc, #468]	; (40082c <computeWaveletPitch+0x25c>)
  400656:	2000      	movs	r0, #0
  400658:	f8df 81f4 	ldr.w	r8, [pc, #500]	; 400850 <computeWaveletPitch+0x280>
  40065c:	f02e 0e01 	bic.w	lr, lr, #1
  400660:	4619      	mov	r1, r3
  400662:	9301      	str	r3, [sp, #4]
  400664:	4602      	mov	r2, r0
  400666:	edd3 7a00 	vldr	s15, [r3]
  40066a:	f10e 0e03 	add.w	lr, lr, #3
  40066e:	4606      	mov	r6, r0
  400670:	4605      	mov	r5, r0
  400672:	46c4      	mov	ip, r8
  400674:	eeb0 7a48 	vmov.f32	s14, s16
  400678:	2301      	movs	r3, #1
  40067a:	e050      	b.n	40071e <computeWaveletPitch+0x14e>
						if (i -1 > lastmaxIndex + delta) 
  40067c:	2201      	movs	r2, #1
			si = sam[i]; // - theDC;
  40067e:	edd1 7a02 	vldr	s15, [r1, #8]
			if (si1 <= 0 && si > 0) {findMax = 1; findMin = 0; }
  400682:	eef5 7a40 	vcmp.f32	s15, #0.0
  400686:	eef1 fa10 	vmrs	APSR_nzcv, fpscr
  40068a:	dd06      	ble.n	40069a <computeWaveletPitch+0xca>
  40068c:	eef5 6ac0 	vcmpe.f32	s13, #0.0
  400690:	eef1 fa10 	vmrs	APSR_nzcv, fpscr
  400694:	d801      	bhi.n	40069a <computeWaveletPitch+0xca>
  400696:	2000      	movs	r0, #0
  400698:	2201      	movs	r2, #1
			if (si1 >= 0 && si < 0) {findMin = 1; findMax = 0; }
  40069a:	eef5 7a40 	vcmp.f32	s15, #0.0
  40069e:	eef1 fa10 	vmrs	APSR_nzcv, fpscr
  4006a2:	d506      	bpl.n	4006b2 <computeWaveletPitch+0xe2>
  4006a4:	eef5 6ac0 	vcmpe.f32	s13, #0.0
  4006a8:	eef1 fa10 	vmrs	APSR_nzcv, fpscr
  4006ac:	db01      	blt.n	4006b2 <computeWaveletPitch+0xe2>
  4006ae:	2001      	movs	r0, #1
  4006b0:	2200      	movs	r2, #0
			if (previousDV > -1000.0f) 
  4006b2:	eeb4 6ac8 	vcmpe.f32	s12, s16
			dv = si - si1;
  4006b6:	ee37 7ae6 	vsub.f32	s14, s15, s13
			if (previousDV > -1000.0f) 
  4006ba:	eef1 fa10 	vmrs	APSR_nzcv, fpscr
  4006be:	dd2a      	ble.n	400716 <computeWaveletPitch+0x146>
				if (findMin && previousDV < 0.0f && dv >= 0.0f) 
  4006c0:	eeb5 6ac0 	vcmpe.f32	s12, #0.0
  4006c4:	f000 0701 	and.w	r7, r0, #1
  4006c8:	eef1 fa10 	vmrs	APSR_nzcv, fpscr
  4006cc:	bf58      	it	pl
  4006ce:	2700      	movpl	r7, #0
  4006d0:	b1af      	cbz	r7, 4006fe <computeWaveletPitch+0x12e>
  4006d2:	eeb5 7ac0 	vcmpe.f32	s14, #0.0
  4006d6:	eef1 fa10 	vmrs	APSR_nzcv, fpscr
  4006da:	db10      	blt.n	4006fe <computeWaveletPitch+0x12e>
					if (Abs(si1) >= ampltitudeThreshold) 
  4006dc:	eef0 5ae6 	vabs.f32	s11, s13
  4006e0:	eeb4 9ae5 	vcmpe.f32	s18, s11
  4006e4:	eef1 fa10 	vmrs	APSR_nzcv, fpscr
  4006e8:	d809      	bhi.n	4006fe <computeWaveletPitch+0x12e>
						if (i - 1 > lastMinIndex + delta)
  4006ea:	eb04 070c 	add.w	r7, r4, ip
  4006ee:	429f      	cmp	r7, r3
  4006f0:	da05      	bge.n	4006fe <computeWaveletPitch+0x12e>
							mins[nbMins++] = i - 1;
  4006f2:	4854      	ldr	r0, [pc, #336]	; (400844 <computeWaveletPitch+0x274>)
  4006f4:	469c      	mov	ip, r3
  4006f6:	f840 3025 	str.w	r3, [r0, r5, lsl #2]
  4006fa:	3501      	adds	r5, #1
							findMin = 0;
  4006fc:	2000      	movs	r0, #0
				if (findMax && previousDV > 0.0f && dv <= 0.0f) 
  4006fe:	eeb5 6a40 	vcmp.f32	s12, #0.0
  400702:	eef1 fa10 	vmrs	APSR_nzcv, fpscr
  400706:	dd06      	ble.n	400716 <computeWaveletPitch+0x146>
  400708:	b12a      	cbz	r2, 400716 <computeWaveletPitch+0x146>
  40070a:	eeb5 7ac0 	vcmpe.f32	s14, #0.0
  40070e:	eef1 fa10 	vmrs	APSR_nzcv, fpscr
  400712:	d96b      	bls.n	4007ec <computeWaveletPitch+0x21c>
						if (i -1 > lastmaxIndex + delta) 
  400714:	2201      	movs	r2, #1
  400716:	3302      	adds	r3, #2
  400718:	3108      	adds	r1, #8
  40071a:	4573      	cmp	r3, lr
  40071c:	d07b      	beq.n	400816 <computeWaveletPitch+0x246>
			if (si1 <= 0 && si > 0) {findMax = 1; findMin = 0; }
  40071e:	eef5 7a40 	vcmp.f32	s15, #0.0
			si = sam[i]; // - theDC;
  400722:	edd1 6a01 	vldr	s13, [r1, #4]
  400726:	1e5f      	subs	r7, r3, #1
			if (si1 <= 0 && si > 0) {findMax = 1; findMin = 0; }
  400728:	eef1 fa10 	vmrs	APSR_nzcv, fpscr
  40072c:	d806      	bhi.n	40073c <computeWaveletPitch+0x16c>
  40072e:	eef5 6ac0 	vcmpe.f32	s13, #0.0
  400732:	eef1 fa10 	vmrs	APSR_nzcv, fpscr
  400736:	dd01      	ble.n	40073c <computeWaveletPitch+0x16c>
  400738:	2000      	movs	r0, #0
  40073a:	2201      	movs	r2, #1
			if (si1 >= 0 && si < 0) {findMin = 1; findMax = 0; }
  40073c:	eef5 7a40 	vcmp.f32	s15, #0.0
  400740:	eef1 fa10 	vmrs	APSR_nzcv, fpscr
  400744:	db06      	blt.n	400754 <computeWaveletPitch+0x184>
  400746:	eef5 6ac0 	vcmpe.f32	s13, #0.0
  40074a:	eef1 fa10 	vmrs	APSR_nzcv, fpscr
  40074e:	d501      	bpl.n	400754 <computeWaveletPitch+0x184>
  400750:	2001      	movs	r0, #1
  400752:	2200      	movs	r2, #0
			if (previousDV > -1000.0f) 
  400754:	eeb4 7ac8 	vcmpe.f32	s14, s16
			dv = si - si1;
  400758:	ee36 6ae7 	vsub.f32	s12, s13, s15
			if (previousDV > -1000.0f) 
  40075c:	eef1 fa10 	vmrs	APSR_nzcv, fpscr
  400760:	dd8d      	ble.n	40067e <computeWaveletPitch+0xae>
				if (findMin && previousDV < 0.0f && dv >= 0.0f) 
  400762:	eeb5 7ac0 	vcmpe.f32	s14, #0.0
  400766:	f000 0901 	and.w	r9, r0, #1
  40076a:	eef1 fa10 	vmrs	APSR_nzcv, fpscr
  40076e:	bf58      	it	pl
  400770:	f04f 0900 	movpl.w	r9, #0
  400774:	f1b9 0f00 	cmp.w	r9, #0
  400778:	d015      	beq.n	4007a6 <computeWaveletPitch+0x1d6>
  40077a:	eeb5 6a40 	vcmp.f32	s12, #0.0
  40077e:	eef1 fa10 	vmrs	APSR_nzcv, fpscr
  400782:	db10      	blt.n	4007a6 <computeWaveletPitch+0x1d6>
					if (Abs(si1) >= ampltitudeThreshold) 
  400784:	eef0 5ae7 	vabs.f32	s11, s15
  400788:	eeb4 9ae5 	vcmpe.f32	s18, s11
  40078c:	eef1 fa10 	vmrs	APSR_nzcv, fpscr
  400790:	d809      	bhi.n	4007a6 <computeWaveletPitch+0x1d6>
						if (i - 1 > lastMinIndex + delta)
  400792:	eb04 090c 	add.w	r9, r4, ip
  400796:	45b9      	cmp	r9, r7
  400798:	da05      	bge.n	4007a6 <computeWaveletPitch+0x1d6>
							mins[nbMins++] = i - 1;
  40079a:	482a      	ldr	r0, [pc, #168]	; (400844 <computeWaveletPitch+0x274>)
  40079c:	46bc      	mov	ip, r7
  40079e:	f840 7025 	str.w	r7, [r0, r5, lsl #2]
  4007a2:	3501      	adds	r5, #1
							findMin = 0;
  4007a4:	2000      	movs	r0, #0
				if (findMax && previousDV > 0.0f && dv <= 0.0f) 
  4007a6:	eeb5 7a40 	vcmp.f32	s14, #0.0
  4007aa:	eef1 fa10 	vmrs	APSR_nzcv, fpscr
  4007ae:	f77f af66 	ble.w	40067e <computeWaveletPitch+0xae>
  4007b2:	2a00      	cmp	r2, #0
  4007b4:	f43f af63 	beq.w	40067e <computeWaveletPitch+0xae>
  4007b8:	eeb5 6ac0 	vcmpe.f32	s12, #0.0
  4007bc:	eef1 fa10 	vmrs	APSR_nzcv, fpscr
  4007c0:	f63f af5c 	bhi.w	40067c <computeWaveletPitch+0xac>
					if (Abs(si1) >= ampltitudeThreshold) 
  4007c4:	eef0 7ae7 	vabs.f32	s15, s15
  4007c8:	eeb4 9ae7 	vcmpe.f32	s18, s15
  4007cc:	eef1 fa10 	vmrs	APSR_nzcv, fpscr
  4007d0:	f63f af54 	bhi.w	40067c <computeWaveletPitch+0xac>
						if (i -1 > lastmaxIndex + delta) 
  4007d4:	eb04 0208 	add.w	r2, r4, r8
  4007d8:	42ba      	cmp	r2, r7
  4007da:	f6bf af4f 	bge.w	40067c <computeWaveletPitch+0xac>
							maxs[nbMaxs++] = i - 1;
  4007de:	4a1a      	ldr	r2, [pc, #104]	; (400848 <computeWaveletPitch+0x278>)
  4007e0:	46b8      	mov	r8, r7
  4007e2:	f842 7026 	str.w	r7, [r2, r6, lsl #2]
  4007e6:	3601      	adds	r6, #1
							findMax = 0;
  4007e8:	2200      	movs	r2, #0
  4007ea:	e748      	b.n	40067e <computeWaveletPitch+0xae>
					if (Abs(si1) >= ampltitudeThreshold) 
  4007ec:	eef0 6ae6 	vabs.f32	s13, s13
  4007f0:	eeb4 9ae6 	vcmpe.f32	s18, s13
  4007f4:	eef1 fa10 	vmrs	APSR_nzcv, fpscr
  4007f8:	d88c      	bhi.n	400714 <computeWaveletPitch+0x144>
						if (i -1 > lastmaxIndex + delta) 
  4007fa:	eb04 0208 	add.w	r2, r4, r8
  4007fe:	429a      	cmp	r2, r3
  400800:	da88      	bge.n	400714 <computeWaveletPitch+0x144>
							maxs[nbMaxs++] = i - 1;
  400802:	4a11      	ldr	r2, [pc, #68]	; (400848 <computeWaveletPitch+0x278>)
  400804:	4698      	mov	r8, r3
  400806:	3108      	adds	r1, #8
  400808:	f842 3026 	str.w	r3, [r2, r6, lsl #2]
  40080c:	3302      	adds	r3, #2
  40080e:	3601      	adds	r6, #1
							findMax = 0;
  400810:	2200      	movs	r2, #0
  400812:	4573      	cmp	r3, lr
  400814:	d183      	bne.n	40071e <computeWaveletPitch+0x14e>
  400816:	9f01      	ldr	r7, [sp, #4]
  400818:	f06f 4140 	mvn.w	r1, #3221225472	; 0xc0000000
							mins[nbMins++] = i - 1;
  40081c:	f8df 9024 	ldr.w	r9, [pc, #36]	; 400844 <computeWaveletPitch+0x274>
  400820:	46a6      	mov	lr, r4
  400822:	4419      	add	r1, r3
  400824:	eb07 0181 	add.w	r1, r7, r1, lsl #2
  400828:	e01a      	b.n	400860 <computeWaveletPitch+0x290>
  40082a:	bf00      	nop
  40082c:	20407400 	.word	0x20407400
  400830:	0040314d 	.word	0x0040314d
  400834:	004032e9 	.word	0x004032e9
  400838:	0040320d 	.word	0x0040320d
  40083c:	41780419 	.word	0x41780419
  400840:	c47a0000 	.word	0xc47a0000
  400844:	20406400 	.word	0x20406400
  400848:	20405400 	.word	0x20405400
  40084c:	20404400 	.word	0x20404400
  400850:	fff0bdc0 	.word	0xfff0bdc0
						if (i -1 > lastmaxIndex + delta) 
  400854:	2201      	movs	r2, #1
		for (i = 1; i < curSamNb; i++) 
  400856:	3301      	adds	r3, #1
			dv = si - si1;
  400858:	eeb0 7a67 	vmov.f32	s14, s15
		for (i = 1; i < curSamNb; i++) 
  40085c:	459a      	cmp	sl, r3
  40085e:	dd65      	ble.n	40092c <computeWaveletPitch+0x35c>
			si = sam[i]; // - theDC;
  400860:	edd1 7a01 	vldr	s15, [r1, #4]
  400864:	1e5f      	subs	r7, r3, #1
			si1 = sam[i-1]; // - theDC;
  400866:	ecf1 6a01 	vldmia	r1!, {s13}
			if (si1 <= 0 && si > 0) {findMax = 1; findMin = 0; }
  40086a:	eef5 7a40 	vcmp.f32	s15, #0.0
  40086e:	eef1 fa10 	vmrs	APSR_nzcv, fpscr
  400872:	dd06      	ble.n	400882 <computeWaveletPitch+0x2b2>
  400874:	eef5 6ac0 	vcmpe.f32	s13, #0.0
  400878:	eef1 fa10 	vmrs	APSR_nzcv, fpscr
  40087c:	d801      	bhi.n	400882 <computeWaveletPitch+0x2b2>
  40087e:	2000      	movs	r0, #0
  400880:	2201      	movs	r2, #1
			if (si1 >= 0 && si < 0) {findMin = 1; findMax = 0; }
  400882:	eef5 7a40 	vcmp.f32	s15, #0.0
  400886:	eef1 fa10 	vmrs	APSR_nzcv, fpscr
  40088a:	d506      	bpl.n	40089a <computeWaveletPitch+0x2ca>
  40088c:	eef5 6ac0 	vcmpe.f32	s13, #0.0
  400890:	eef1 fa10 	vmrs	APSR_nzcv, fpscr
  400894:	db01      	blt.n	40089a <computeWaveletPitch+0x2ca>
  400896:	2001      	movs	r0, #1
  400898:	2200      	movs	r2, #0
			if (previousDV > -1000.0f) 
  40089a:	eeb4 7ac8 	vcmpe.f32	s14, s16
			dv = si - si1;
  40089e:	ee77 7ae6 	vsub.f32	s15, s15, s13
			if (previousDV > -1000.0f) 
  4008a2:	eef1 fa10 	vmrs	APSR_nzcv, fpscr
  4008a6:	ddd6      	ble.n	400856 <computeWaveletPitch+0x286>
				if (findMin && previousDV < 0.0f && dv >= 0.0f) 
  4008a8:	eeb5 7ac0 	vcmpe.f32	s14, #0.0
  4008ac:	f000 0401 	and.w	r4, r0, #1
  4008b0:	eef1 fa10 	vmrs	APSR_nzcv, fpscr
  4008b4:	bf58      	it	pl
  4008b6:	2400      	movpl	r4, #0
  4008b8:	b1a4      	cbz	r4, 4008e4 <computeWaveletPitch+0x314>
  4008ba:	eef5 7a40 	vcmp.f32	s15, #0.0
  4008be:	eef1 fa10 	vmrs	APSR_nzcv, fpscr
  4008c2:	db0f      	blt.n	4008e4 <computeWaveletPitch+0x314>
					if (Abs(si1) >= ampltitudeThreshold) 
  4008c4:	eeb0 6ae6 	vabs.f32	s12, s13
  4008c8:	eeb4 9ac6 	vcmpe.f32	s18, s12
  4008cc:	eef1 fa10 	vmrs	APSR_nzcv, fpscr
  4008d0:	d808      	bhi.n	4008e4 <computeWaveletPitch+0x314>
						if (i - 1 > lastMinIndex + delta)
  4008d2:	eb0e 040c 	add.w	r4, lr, ip
  4008d6:	42bc      	cmp	r4, r7
  4008d8:	da04      	bge.n	4008e4 <computeWaveletPitch+0x314>
							mins[nbMins++] = i - 1;
  4008da:	f849 7025 	str.w	r7, [r9, r5, lsl #2]
  4008de:	46bc      	mov	ip, r7
  4008e0:	3501      	adds	r5, #1
							findMin = 0;
  4008e2:	2000      	movs	r0, #0
				if (findMax && previousDV > 0.0f && dv <= 0.0f) 
  4008e4:	eeb5 7a40 	vcmp.f32	s14, #0.0
  4008e8:	eef1 fa10 	vmrs	APSR_nzcv, fpscr
  4008ec:	ddb3      	ble.n	400856 <computeWaveletPitch+0x286>
  4008ee:	2a00      	cmp	r2, #0
  4008f0:	d0b1      	beq.n	400856 <computeWaveletPitch+0x286>
  4008f2:	eef5 7ac0 	vcmpe.f32	s15, #0.0
  4008f6:	eef1 fa10 	vmrs	APSR_nzcv, fpscr
  4008fa:	d8ab      	bhi.n	400854 <computeWaveletPitch+0x284>
					if (Abs(si1) >= ampltitudeThreshold) 
  4008fc:	eef0 6ae6 	vabs.f32	s13, s13
  400900:	eeb4 9ae6 	vcmpe.f32	s18, s13
  400904:	eef1 fa10 	vmrs	APSR_nzcv, fpscr
  400908:	d8a4      	bhi.n	400854 <computeWaveletPitch+0x284>
						if (i -1 > lastmaxIndex + delta) 
  40090a:	eb0e 0208 	add.w	r2, lr, r8
  40090e:	42ba      	cmp	r2, r7
  400910:	daa0      	bge.n	400854 <computeWaveletPitch+0x284>
		for (i = 1; i < curSamNb; i++) 
  400912:	3301      	adds	r3, #1
							maxs[nbMaxs++] = i - 1;
  400914:	4acf      	ldr	r2, [pc, #828]	; (400c54 <computeWaveletPitch+0x684>)
  400916:	46b8      	mov	r8, r7
			dv = si - si1;
  400918:	eeb0 7a67 	vmov.f32	s14, s15
		for (i = 1; i < curSamNb; i++) 
  40091c:	459a      	cmp	sl, r3
							maxs[nbMaxs++] = i - 1;
  40091e:	f842 7026 	str.w	r7, [r2, r6, lsl #2]
  400922:	f106 0601 	add.w	r6, r6, #1
							findMax = 0;
  400926:	f04f 0200 	mov.w	r2, #0
		for (i = 1; i < curSamNb; i++) 
  40092a:	dc99      	bgt.n	400860 <computeWaveletPitch+0x290>
  40092c:	4674      	mov	r4, lr
		if (nbMins == 0 && nbMaxs == 0) 
  40092e:	b915      	cbnz	r5, 400936 <computeWaveletPitch+0x366>
  400930:	2e00      	cmp	r6, #0
  400932:	f000 810d 	beq.w	400b50 <computeWaveletPitch+0x580>
		memset(distances, 0, WIN_SIZE*sizeof(int32_t));
  400936:	f44f 5280 	mov.w	r2, #4096	; 0x1000
  40093a:	2100      	movs	r1, #0
  40093c:	4658      	mov	r0, fp
  40093e:	4bc6      	ldr	r3, [pc, #792]	; (400c58 <computeWaveletPitch+0x688>)
  400940:	4798      	blx	r3
		for (i = 0 ; i < nbMins ; i++) 
  400942:	b34d      	cbz	r5, 400998 <computeWaveletPitch+0x3c8>
  400944:	f8df e32c 	ldr.w	lr, [pc, #812]	; 400c74 <computeWaveletPitch+0x6a4>
  400948:	2202      	movs	r2, #2
  40094a:	2700      	movs	r7, #0
  40094c:	4671      	mov	r1, lr
  40094e:	e012      	b.n	400976 <computeWaveletPitch+0x3a6>
					d = Abs(mins[i] - mins[i+j]);
  400950:	f8d1 c000 	ldr.w	ip, [r1]
  400954:	684b      	ldr	r3, [r1, #4]
  400956:	ebac 0303 	sub.w	r3, ip, r3
  40095a:	2b00      	cmp	r3, #0
  40095c:	bfb8      	it	lt
  40095e:	425b      	neglt	r3, r3
				if (i+j < nbMins) 
  400960:	42aa      	cmp	r2, r5
					distances[d]++; 
  400962:	f85b 0023 	ldr.w	r0, [fp, r3, lsl #2]
  400966:	f100 0001 	add.w	r0, r0, #1
  40096a:	f84b 0023 	str.w	r0, [fp, r3, lsl #2]
				if (i+j < nbMins) 
  40096e:	f2c0 80cc 	blt.w	400b0a <computeWaveletPitch+0x53a>
  400972:	3104      	adds	r1, #4
  400974:	3201      	adds	r2, #1
  400976:	3701      	adds	r7, #1
  400978:	42af      	cmp	r7, r5
  40097a:	dbe9      	blt.n	400950 <computeWaveletPitch+0x380>
  40097c:	42aa      	cmp	r2, r5
  40097e:	da0b      	bge.n	400998 <computeWaveletPitch+0x3c8>
					d = Abs(mins[i] - mins[i+j]);
  400980:	f85e 2022 	ldr.w	r2, [lr, r2, lsl #2]
  400984:	680b      	ldr	r3, [r1, #0]
  400986:	1a9b      	subs	r3, r3, r2
  400988:	2b00      	cmp	r3, #0
  40098a:	bfb8      	it	lt
  40098c:	425b      	neglt	r3, r3
					distances[d]++; 
  40098e:	f85b 2023 	ldr.w	r2, [fp, r3, lsl #2]
  400992:	3201      	adds	r2, #1
  400994:	f84b 2023 	str.w	r2, [fp, r3, lsl #2]
		for (i = 0 ; i < nbMaxs ; i++) 
  400998:	b346      	cbz	r6, 4009ec <computeWaveletPitch+0x41c>
  40099a:	4dae      	ldr	r5, [pc, #696]	; (400c54 <computeWaveletPitch+0x684>)
  40099c:	2202      	movs	r2, #2
  40099e:	2700      	movs	r7, #0
  4009a0:	4629      	mov	r1, r5
  4009a2:	e012      	b.n	4009ca <computeWaveletPitch+0x3fa>
					d = Abs(maxs[i] - maxs[i+j]);
  4009a4:	f8d1 e000 	ldr.w	lr, [r1]
  4009a8:	684b      	ldr	r3, [r1, #4]
  4009aa:	ebae 0303 	sub.w	r3, lr, r3
  4009ae:	2b00      	cmp	r3, #0
  4009b0:	bfb8      	it	lt
  4009b2:	425b      	neglt	r3, r3
				if (i+j < nbMaxs) 
  4009b4:	42b2      	cmp	r2, r6
					distances[d]++; 
  4009b6:	f85b 0023 	ldr.w	r0, [fp, r3, lsl #2]
  4009ba:	f100 0001 	add.w	r0, r0, #1
  4009be:	f84b 0023 	str.w	r0, [fp, r3, lsl #2]
				if (i+j < nbMaxs) 
  4009c2:	f2c0 818f 	blt.w	400ce4 <computeWaveletPitch+0x714>
  4009c6:	3104      	adds	r1, #4
  4009c8:	3201      	adds	r2, #1
  4009ca:	3701      	adds	r7, #1
  4009cc:	42b7      	cmp	r7, r6
  4009ce:	dbe9      	blt.n	4009a4 <computeWaveletPitch+0x3d4>
  4009d0:	42b2      	cmp	r2, r6
  4009d2:	da0b      	bge.n	4009ec <computeWaveletPitch+0x41c>
					d = Abs(maxs[i] - maxs[i+j]);
  4009d4:	f855 2022 	ldr.w	r2, [r5, r2, lsl #2]
  4009d8:	680b      	ldr	r3, [r1, #0]
  4009da:	1a9b      	subs	r3, r3, r2
  4009dc:	2b00      	cmp	r3, #0
  4009de:	bfb8      	it	lt
  4009e0:	425b      	neglt	r3, r3
					distances[d]++; 
  4009e2:	f85b 2023 	ldr.w	r2, [fp, r3, lsl #2]
  4009e6:	3201      	adds	r2, #1
  4009e8:	f84b 2023 	str.w	r2, [fp, r3, lsl #2]
		for (i = 0 ; i < nbMaxs ; i++) 
  4009ec:	f04f 36ff 	mov.w	r6, #4294967295
  4009f0:	f1c4 0e00 	rsb	lr, r4, #0
  4009f4:	2500      	movs	r5, #0
  4009f6:	f104 0c01 	add.w	ip, r4, #1
  4009fa:	4637      	mov	r7, r6
			for (j = -delta ; j <= delta ; j++) 
  4009fc:	4574      	cmp	r4, lr
  4009fe:	f2c0 8082 	blt.w	400b06 <computeWaveletPitch+0x536>
  400a02:	1b2b      	subs	r3, r5, r4
  400a04:	eb0c 0205 	add.w	r2, ip, r5
  400a08:	2100      	movs	r1, #0
				if (i+j >=0 && i+j < curSamNb)
  400a0a:	4553      	cmp	r3, sl
  400a0c:	da04      	bge.n	400a18 <computeWaveletPitch+0x448>
  400a0e:	2b00      	cmp	r3, #0
  400a10:	db02      	blt.n	400a18 <computeWaveletPitch+0x448>
					summed += distances[i+j];
  400a12:	f85b 0023 	ldr.w	r0, [fp, r3, lsl #2]
  400a16:	4401      	add	r1, r0
  400a18:	3301      	adds	r3, #1
			for (j = -delta ; j <= delta ; j++) 
  400a1a:	4293      	cmp	r3, r2
  400a1c:	d1f5      	bne.n	400a0a <computeWaveletPitch+0x43a>
			if (summed == bestValue) 
  400a1e:	42b9      	cmp	r1, r7
  400a20:	d06c      	beq.n	400afc <computeWaveletPitch+0x52c>
			else if (summed > bestValue) 
  400a22:	dd01      	ble.n	400a28 <computeWaveletPitch+0x458>
  400a24:	460f      	mov	r7, r1
  400a26:	462e      	mov	r6, r5
		for (i = 0; i< curSamNb; i++) 
  400a28:	3501      	adds	r5, #1
  400a2a:	4555      	cmp	r5, sl
  400a2c:	d1e6      	bne.n	4009fc <computeWaveletPitch+0x42c>
		for (j = -delta ; j <= delta ; j++) 
  400a2e:	4574      	cmp	r4, lr
  400a30:	f2c0 8087 	blt.w	400b42 <computeWaveletPitch+0x572>
  400a34:	ed9f 7a89 	vldr	s14, [pc, #548]	; 400c5c <computeWaveletPitch+0x68c>
  400a38:	1c62      	adds	r2, r4, #1
  400a3a:	1b33      	subs	r3, r6, r4
  400a3c:	eef0 6a47 	vmov.f32	s13, s14
  400a40:	4416      	add	r6, r2
			if (bestDistance+j >=0 && bestDistance+j < WIN_SIZE) 
  400a42:	f5b3 6f80 	cmp.w	r3, #1024	; 0x400
  400a46:	d211      	bcs.n	400a6c <computeWaveletPitch+0x49c>
				int32_t nbDist = distances[bestDistance+j];
  400a48:	f85b 2023 	ldr.w	r2, [fp, r3, lsl #2]
					distAvg += (bestDistance+j)*nbDist;
  400a4c:	fb02 f103 	mul.w	r1, r2, r3
					nbDists += nbDist;
  400a50:	ee06 2a10 	vmov	s12, r2
				if (nbDist > 0) {
  400a54:	2a00      	cmp	r2, #0
					distAvg += (bestDistance+j)*nbDist;
  400a56:	ee07 1a90 	vmov	s15, r1
					nbDists += nbDist;
  400a5a:	eeb8 6ac6 	vcvt.f32.s32	s12, s12
					distAvg += (bestDistance+j)*nbDist;
  400a5e:	eef8 7ae7 	vcvt.f32.s32	s15, s15
				if (nbDist > 0) {
  400a62:	dd03      	ble.n	400a6c <computeWaveletPitch+0x49c>
					nbDists += nbDist;
  400a64:	ee76 6a86 	vadd.f32	s13, s13, s12
					distAvg += (bestDistance+j)*nbDist;
  400a68:	ee37 7a27 	vadd.f32	s14, s14, s15
  400a6c:	3301      	adds	r3, #1
		for (j = -delta ; j <= delta ; j++) 
  400a6e:	42b3      	cmp	r3, r6
  400a70:	d1e7      	bne.n	400a42 <computeWaveletPitch+0x472>
  400a72:	ee87 6a26 	vdiv.f32	s12, s14, s13
				pitchF = DYW_SAMPLING_RATE/(_2power(curLevel-1)*curModeDistance);
  400a76:	9b00      	ldr	r3, [sp, #0]
		if (curModeDistance > -1.0f) 
  400a78:	eeff 7a00 	vmov.f32	s15, #240	; 0xbf800000 -1.0
  400a7c:	eef4 9ae7 	vcmpe.f32	s19, s15
  400a80:	eef1 fa10 	vmrs	APSR_nzcv, fpscr
  400a84:	dd12      	ble.n	400aac <computeWaveletPitch+0x4dc>
			float similarity = Abs(distAvg*2 - curModeDistance);
  400a86:	eeb0 7a00 	vmov.f32	s14, #0	; 0x40000000  2.0
			if (similarity <= 2*delta) 
  400a8a:	0064      	lsls	r4, r4, #1
			float similarity = Abs(distAvg*2 - curModeDistance);
  400a8c:	eef0 6a69 	vmov.f32	s13, s19
			if (similarity <= 2*delta) 
  400a90:	ee07 4a90 	vmov	s15, r4
			float similarity = Abs(distAvg*2 - curModeDistance);
  400a94:	eed6 6a07 	vfnms.f32	s13, s12, s14
			if (similarity <= 2*delta) 
  400a98:	eef8 7ae7 	vcvt.f32.s32	s15, s15
			float similarity = Abs(distAvg*2 - curModeDistance);
  400a9c:	eeb0 7ae6 	vabs.f32	s14, s13
			if (similarity <= 2*delta) 
  400aa0:	eeb4 7ae7 	vcmpe.f32	s14, s15
  400aa4:	eef1 fa10 	vmrs	APSR_nzcv, fpscr
  400aa8:	f240 8087 	bls.w	400bba <computeWaveletPitch+0x5ea>
		curLevel = curLevel + 1;
  400aac:	3301      	adds	r3, #1
		if (curLevel >= maxFLWTlevels) 
  400aae:	2b06      	cmp	r3, #6
		curLevel = curLevel + 1;
  400ab0:	9300      	str	r3, [sp, #0]
		if (curLevel >= maxFLWTlevels) 
  400ab2:	d04d      	beq.n	400b50 <computeWaveletPitch+0x580>
  400ab4:	9b01      	ldr	r3, [sp, #4]
		for (i = 0; i < curSamNb/2; i++)
  400ab6:	ea4f 0a6a 	mov.w	sl, sl, asr #1
  400aba:	4a69      	ldr	r2, [pc, #420]	; (400c60 <computeWaveletPitch+0x690>)
			sam[i] = (sam[2*i] + sam[2*i + 1]) * 0.5f;
  400abc:	eef6 6a00 	vmov.f32	s13, #96	; 0x3f000000  0.5
  400ac0:	eb03 01ca 	add.w	r1, r3, sl, lsl #3
		for (i = 0; i < curSamNb/2; i++)
  400ac4:	4613      	mov	r3, r2
			sam[i] = (sam[2*i] + sam[2*i + 1]) * 0.5f;
  400ac6:	ed93 7a00 	vldr	s14, [r3]
  400aca:	3308      	adds	r3, #8
  400acc:	ed53 7a01 	vldr	s15, [r3, #-4]
		for (i = 0; i < curSamNb/2; i++)
  400ad0:	428b      	cmp	r3, r1
			sam[i] = (sam[2*i] + sam[2*i + 1]) * 0.5f;
  400ad2:	ee77 7a27 	vadd.f32	s15, s14, s15
  400ad6:	ee67 7aa6 	vmul.f32	s15, s15, s13
  400ada:	ece2 7a01 	vstmia	r2!, {s15}
		for (i = 0; i < curSamNb/2; i++)
  400ade:	d1f2      	bne.n	400ac6 <computeWaveletPitch+0x4f6>
	for (j = 0; j < i; j++) res <<= 1;
  400ae0:	9b00      	ldr	r3, [sp, #0]
  400ae2:	2b01      	cmp	r3, #1
  400ae4:	d057      	beq.n	400b96 <computeWaveletPitch+0x5c6>
  400ae6:	2b02      	cmp	r3, #2
  400ae8:	d030      	beq.n	400b4c <computeWaveletPitch+0x57c>
  400aea:	2b03      	cmp	r3, #3
  400aec:	d02c      	beq.n	400b48 <computeWaveletPitch+0x578>
  400aee:	2b05      	cmp	r3, #5
  400af0:	bf0c      	ite	eq
  400af2:	2320      	moveq	r3, #32
  400af4:	2310      	movne	r3, #16
		curModeDistance = distAvg;
  400af6:	eef0 9a46 	vmov.f32	s19, s12
  400afa:	e597      	b.n	40062c <computeWaveletPitch+0x5c>
				if (i == 2*bestDistance)
  400afc:	ebb5 0f46 	cmp.w	r5, r6, lsl #1
  400b00:	bf08      	it	eq
  400b02:	462e      	moveq	r6, r5
  400b04:	e790      	b.n	400a28 <computeWaveletPitch+0x458>
			int32_t summed = 0;
  400b06:	2100      	movs	r1, #0
  400b08:	e789      	b.n	400a1e <computeWaveletPitch+0x44e>
					d = Abs(mins[i] - mins[i+j]);
  400b0a:	f85e 3022 	ldr.w	r3, [lr, r2, lsl #2]
  400b0e:	ebac 0303 	sub.w	r3, ip, r3
  400b12:	ea83 70e3 	eor.w	r0, r3, r3, asr #31
  400b16:	eba0 70e3 	sub.w	r0, r0, r3, asr #31
					distances[d]++; 
  400b1a:	f85b 3020 	ldr.w	r3, [fp, r0, lsl #2]
  400b1e:	3301      	adds	r3, #1
  400b20:	f84b 3020 	str.w	r3, [fp, r0, lsl #2]
  400b24:	e725      	b.n	400972 <computeWaveletPitch+0x3a2>
		if (curSamNb < 2) return pitchF;
  400b26:	2000      	movs	r0, #0
  400b28:	494d      	ldr	r1, [pc, #308]	; (400c60 <computeWaveletPitch+0x690>)
  400b2a:	f8df 814c 	ldr.w	r8, [pc, #332]	; 400c78 <computeWaveletPitch+0x6a8>
  400b2e:	eeb0 7a48 	vmov.f32	s14, s16
  400b32:	2301      	movs	r3, #1
  400b34:	4602      	mov	r2, r0
  400b36:	4606      	mov	r6, r0
  400b38:	4605      	mov	r5, r0
  400b3a:	46c4      	mov	ip, r8
  400b3c:	9101      	str	r1, [sp, #4]
  400b3e:	460f      	mov	r7, r1
  400b40:	e66a      	b.n	400818 <computeWaveletPitch+0x248>
		for (j = -delta ; j <= delta ; j++) 
  400b42:	ed9f 6a48 	vldr	s12, [pc, #288]	; 400c64 <computeWaveletPitch+0x694>
  400b46:	e796      	b.n	400a76 <computeWaveletPitch+0x4a6>
	for (j = 0; j < i; j++) res <<= 1;
  400b48:	2308      	movs	r3, #8
  400b4a:	e7d4      	b.n	400af6 <computeWaveletPitch+0x526>
  400b4c:	2304      	movs	r3, #4
  400b4e:	e7d2      	b.n	400af6 <computeWaveletPitch+0x526>
		if (pitchtracker._prevPitch > -1.0f) 
  400b50:	4a45      	ldr	r2, [pc, #276]	; (400c68 <computeWaveletPitch+0x698>)
  400b52:	eebf 7a00 	vmov.f32	s14, #240	; 0xbf800000 -1.0
  400b56:	edd2 7a00 	vldr	s15, [r2]
  400b5a:	eef4 7ac7 	vcmpe.f32	s15, s14
  400b5e:	eef1 fa10 	vmrs	APSR_nzcv, fpscr
  400b62:	dd1a      	ble.n	400b9a <computeWaveletPitch+0x5ca>
			if (pitchtracker._pitchConfidence >= 1) 
  400b64:	6853      	ldr	r3, [r2, #4]
  400b66:	2b00      	cmp	r3, #0
  400b68:	dd20      	ble.n	400bac <computeWaveletPitch+0x5dc>
				pitchtracker._pitchConfidence = Max(0, pitchtracker._pitchConfidence - 1);
  400b6a:	3b01      	subs	r3, #1
  400b6c:	6053      	str	r3, [r2, #4]
	if (pitchtracker._pitchConfidence >= 1) 
  400b6e:	2b00      	cmp	r3, #0
  400b70:	dd13      	ble.n	400b9a <computeWaveletPitch+0x5ca>
	if (pitch < -1.0f) pitch = 0.0f;
  400b72:	eeff 6a00 	vmov.f32	s13, #240	; 0xbf800000 -1.0
  400b76:	ed9f 7a39 	vldr	s14, [pc, #228]	; 400c5c <computeWaveletPitch+0x68c>
  400b7a:	eef4 7a66 	vcmp.f32	s15, s13
  400b7e:	eef1 fa10 	vmrs	APSR_nzcv, fpscr
  400b82:	bf48      	it	mi
  400b84:	eef0 7a47 	vmovmi.f32	s15, s14
	return _dywapitch_dynamicprocess(get_raw_pitch(samples)); 
  400b88:	ee17 0a90 	vmov	r0, s15
  400b8c:	b007      	add	sp, #28
  400b8e:	ecbd 8b04 	vpop	{d8-d9}
  400b92:	e8bd 8ff0 	ldmia.w	sp!, {r4, r5, r6, r7, r8, r9, sl, fp, pc}
	for (j = 0; j < i; j++) res <<= 1;
  400b96:	2302      	movs	r3, #2
  400b98:	e7ad      	b.n	400af6 <computeWaveletPitch+0x526>
	float estimatedPitch = -1.0f;
  400b9a:	eeff 7a00 	vmov.f32	s15, #240	; 0xbf800000 -1.0
  400b9e:	ee17 0a90 	vmov	r0, s15
  400ba2:	b007      	add	sp, #28
  400ba4:	ecbd 8b04 	vpop	{d8-d9}
  400ba8:	e8bd 8ff0 	ldmia.w	sp!, {r4, r5, r6, r7, r8, r9, sl, fp, pc}
				pitchtracker._pitchConfidence = 0;
  400bac:	2300      	movs	r3, #0
				pitchtracker._prevPitch = -1.0f;
  400bae:	ed82 7a00 	vstr	s14, [r2]
		pitch = -1.0f;
  400bb2:	eef0 7a47 	vmov.f32	s15, s14
				pitchtracker._pitchConfidence = 0;
  400bb6:	6053      	str	r3, [r2, #4]
  400bb8:	e7f1      	b.n	400b9e <computeWaveletPitch+0x5ce>
				pitchF = DYW_SAMPLING_RATE/(_2power(curLevel-1)*curModeDistance);
  400bba:	3b01      	subs	r3, #1
	for (j = 0; j < i; j++) res <<= 1;
  400bbc:	2b00      	cmp	r3, #0
  400bbe:	f340 808e 	ble.w	400cde <computeWaveletPitch+0x70e>
  400bc2:	2b01      	cmp	r3, #1
  400bc4:	f000 809e 	beq.w	400d04 <computeWaveletPitch+0x734>
  400bc8:	2b02      	cmp	r3, #2
  400bca:	f000 8099 	beq.w	400d00 <computeWaveletPitch+0x730>
  400bce:	2b04      	cmp	r3, #4
  400bd0:	bf0c      	ite	eq
  400bd2:	2310      	moveq	r3, #16
  400bd4:	2308      	movne	r3, #8
  400bd6:	ee07 3a90 	vmov	s15, r3
  400bda:	eef8 7ae7 	vcvt.f32.s32	s15, s15
				pitchF = DYW_SAMPLING_RATE/(_2power(curLevel-1)*curModeDistance);
  400bde:	ee69 9aa7 	vmul.f32	s19, s19, s15
  400be2:	eddf 6a22 	vldr	s13, [pc, #136]	; 400c6c <computeWaveletPitch+0x69c>
	if (pitch < 1.0f) pitch = -1.0f;
  400be6:	eeb7 7a00 	vmov.f32	s14, #112	; 0x3f800000  1.0
				pitchF = DYW_SAMPLING_RATE/(_2power(curLevel-1)*curModeDistance);
  400bea:	eec6 7aa9 	vdiv.f32	s15, s13, s19
	if (pitch < 1.0f) pitch = -1.0f;
  400bee:	eef4 7ac7 	vcmpe.f32	s15, s14
  400bf2:	eef1 fa10 	vmrs	APSR_nzcv, fpscr
  400bf6:	d4ab      	bmi.n	400b50 <computeWaveletPitch+0x580>
	if (pitch > -1.0) {
  400bf8:	eebf 7a00 	vmov.f32	s14, #240	; 0xbf800000 -1.0
  400bfc:	eef4 7ac7 	vcmpe.f32	s15, s14
  400c00:	eef1 fa10 	vmrs	APSR_nzcv, fpscr
  400c04:	dda4      	ble.n	400b50 <computeWaveletPitch+0x580>
		if (pitchtracker._prevPitch < 0.0f) 
  400c06:	4a18      	ldr	r2, [pc, #96]	; (400c68 <computeWaveletPitch+0x698>)
  400c08:	edd2 6a00 	vldr	s13, [r2]
  400c0c:	eef5 6ac0 	vcmpe.f32	s13, #0.0
  400c10:	eef1 fa10 	vmrs	APSR_nzcv, fpscr
  400c14:	d43a      	bmi.n	400c8c <computeWaveletPitch+0x6bc>
		else if (abs(pitchtracker._prevPitch - pitch)/pitch < acceptedError) 
  400c16:	ee36 7ae7 	vsub.f32	s14, s13, s15
  400c1a:	ed9f 6a15 	vldr	s12, [pc, #84]	; 400c70 <computeWaveletPitch+0x6a0>
  400c1e:	eebd 7ac7 	vcvt.s32.f32	s14, s14
  400c22:	ee17 3a10 	vmov	r3, s14
  400c26:	2b00      	cmp	r3, #0
  400c28:	bfb8      	it	lt
  400c2a:	425b      	neglt	r3, r3
  400c2c:	ee07 3a10 	vmov	s14, r3
			pitchtracker._pitchConfidence = Min(maxConfidence, pitchtracker._pitchConfidence + 1); // maximum 3
  400c30:	6853      	ldr	r3, [r2, #4]
		else if (abs(pitchtracker._prevPitch - pitch)/pitch < acceptedError) 
  400c32:	eeb8 7ac7 	vcvt.f32.s32	s14, s14
  400c36:	eec7 5a27 	vdiv.f32	s11, s14, s15
  400c3a:	eef4 5ac6 	vcmpe.f32	s11, s12
  400c3e:	eef1 fa10 	vmrs	APSR_nzcv, fpscr
  400c42:	d51b      	bpl.n	400c7c <computeWaveletPitch+0x6ac>
			pitchtracker._pitchConfidence = Min(maxConfidence, pitchtracker._pitchConfidence + 1); // maximum 3
  400c44:	2b04      	cmp	r3, #4
			pitchtracker._prevPitch = pitch;
  400c46:	edc2 7a00 	vstr	s15, [r2]
			pitchtracker._pitchConfidence = Min(maxConfidence, pitchtracker._pitchConfidence + 1); // maximum 3
  400c4a:	bfd4      	ite	le
  400c4c:	3301      	addle	r3, #1
  400c4e:	2305      	movgt	r3, #5
				pitchtracker._pitchConfidence = max(0, pitchtracker._pitchConfidence - 1);
  400c50:	6053      	str	r3, [r2, #4]
  400c52:	e78c      	b.n	400b6e <computeWaveletPitch+0x59e>
  400c54:	20405400 	.word	0x20405400
  400c58:	00403bd5 	.word	0x00403bd5
  400c5c:	00000000 	.word	0x00000000
  400c60:	20407400 	.word	0x20407400
  400c64:	7fc00000 	.word	0x7fc00000
  400c68:	20400020 	.word	0x20400020
  400c6c:	4735a700 	.word	0x4735a700
  400c70:	3e4ccccd 	.word	0x3e4ccccd
  400c74:	20406400 	.word	0x20406400
  400c78:	fff0bdc0 	.word	0xfff0bdc0
		else if ((pitchtracker._pitchConfidence >= maxConfidence-2) && Abs(pitchtracker._prevPitch - 2.0f*pitch)/(2.0f*pitch) < acceptedError) 
  400c7c:	2b02      	cmp	r3, #2
  400c7e:	dc0a      	bgt.n	400c96 <computeWaveletPitch+0x6c6>
			if (pitchtracker._pitchConfidence >= 1) 
  400c80:	2b00      	cmp	r3, #0
  400c82:	dd03      	ble.n	400c8c <computeWaveletPitch+0x6bc>
				pitchtracker._pitchConfidence = max(0, pitchtracker._pitchConfidence - 1);
  400c84:	3b01      	subs	r3, #1
				estimatedPitch = pitchtracker._prevPitch;
  400c86:	eef0 7a66 	vmov.f32	s15, s13
  400c8a:	e7e1      	b.n	400c50 <computeWaveletPitch+0x680>
				pitchtracker._pitchConfidence = 1;
  400c8c:	2301      	movs	r3, #1
				pitchtracker._prevPitch = pitch;
  400c8e:	edc2 7a00 	vstr	s15, [r2]
				pitchtracker._pitchConfidence = 1;
  400c92:	6053      	str	r3, [r2, #4]
  400c94:	e76d      	b.n	400b72 <computeWaveletPitch+0x5a2>
		else if ((pitchtracker._pitchConfidence >= maxConfidence-2) && Abs(pitchtracker._prevPitch - 2.0f*pitch)/(2.0f*pitch) < acceptedError) 
  400c96:	ee37 7aa7 	vadd.f32	s14, s15, s15
  400c9a:	ee76 5ac7 	vsub.f32	s11, s13, s14
  400c9e:	eef0 5ae5 	vabs.f32	s11, s11
  400ca2:	ee85 5a87 	vdiv.f32	s10, s11, s14
  400ca6:	eeb4 5ac6 	vcmpe.f32	s10, s12
  400caa:	eef1 fa10 	vmrs	APSR_nzcv, fpscr
  400cae:	d504      	bpl.n	400cba <computeWaveletPitch+0x6ea>
			pitchtracker._prevPitch = estimatedPitch;
  400cb0:	ed82 7a00 	vstr	s14, [r2]
			estimatedPitch = 2.0f*pitch;
  400cb4:	eef0 7a47 	vmov.f32	s15, s14
  400cb8:	e75b      	b.n	400b72 <computeWaveletPitch+0x5a2>
		else if ((pitchtracker._pitchConfidence >= maxConfidence-2) && Abs(pitchtracker._prevPitch - 0.5f*pitch)/(0.5f*pitch) < acceptedError) 
  400cba:	eeb6 7a00 	vmov.f32	s14, #96	; 0x3f000000  0.5
  400cbe:	ee67 7a87 	vmul.f32	s15, s15, s14
  400cc2:	ee36 7ae7 	vsub.f32	s14, s13, s15
  400cc6:	eeb0 7ac7 	vabs.f32	s14, s14
  400cca:	eec7 5a27 	vdiv.f32	s11, s14, s15
  400cce:	eef4 5ac6 	vcmpe.f32	s11, s12
  400cd2:	eef1 fa10 	vmrs	APSR_nzcv, fpscr
  400cd6:	d5d5      	bpl.n	400c84 <computeWaveletPitch+0x6b4>
			pitchtracker._prevPitch = estimatedPitch;
  400cd8:	edc2 7a00 	vstr	s15, [r2]
  400cdc:	e749      	b.n	400b72 <computeWaveletPitch+0x5a2>
	for (j = 0; j < i; j++) res <<= 1;
  400cde:	eef7 7a00 	vmov.f32	s15, #112	; 0x3f800000  1.0
  400ce2:	e77c      	b.n	400bde <computeWaveletPitch+0x60e>
					d = Abs(maxs[i] - maxs[i+j]);
  400ce4:	f855 3022 	ldr.w	r3, [r5, r2, lsl #2]
  400ce8:	ebae 0303 	sub.w	r3, lr, r3
  400cec:	ea83 70e3 	eor.w	r0, r3, r3, asr #31
  400cf0:	eba0 70e3 	sub.w	r0, r0, r3, asr #31
					distances[d]++; 
  400cf4:	f85b 3020 	ldr.w	r3, [fp, r0, lsl #2]
  400cf8:	3301      	adds	r3, #1
  400cfa:	f84b 3020 	str.w	r3, [fp, r0, lsl #2]
  400cfe:	e662      	b.n	4009c6 <computeWaveletPitch+0x3f6>
	for (j = 0; j < i; j++) res <<= 1;
  400d00:	2304      	movs	r3, #4
  400d02:	e768      	b.n	400bd6 <computeWaveletPitch+0x606>
  400d04:	2302      	movs	r3, #2
  400d06:	e766      	b.n	400bd6 <computeWaveletPitch+0x606>

00400d08 <PSOLA_init>:
static float prev_pitch_shifts[MAX_NUM_SHIFTS]; 
static float window[10*WIN_SIZE]; // sufficiently large window array  
/************************ Static variables *********************/

void PSOLA_init(void)
{
  400d08:	b5f8      	push	{r3, r4, r5, r6, r7, lr}
	arm_fill_f32(0.0f, input_ring_buffer, RING_BUFFER_SIZE); 
  400d0a:	2600      	movs	r6, #0
  400d0c:	4c19      	ldr	r4, [pc, #100]	; (400d74 <PSOLA_init+0x6c>)
  400d0e:	f44f 5280 	mov.w	r2, #4096	; 0x1000
  400d12:	4919      	ldr	r1, [pc, #100]	; (400d78 <PSOLA_init+0x70>)
  400d14:	4630      	mov	r0, r6
	arm_fill_f32(0.0f, output_ring_buffer, RING_BUFFER_SIZE);
	arm_fill_f32(0.0f, window, 10*WIN_SIZE); 
	arm_fill_f32(1.0f, prev_pitch_shifts, MAX_NUM_SHIFTS); 
  400d16:	4d19      	ldr	r5, [pc, #100]	; (400d7c <PSOLA_init+0x74>)
	arm_fill_f32(0.0f, input_ring_buffer, RING_BUFFER_SIZE); 
  400d18:	47a0      	blx	r4
	arm_fill_f32(0.0f, output_ring_buffer, RING_BUFFER_SIZE);
  400d1a:	4630      	mov	r0, r6
  400d1c:	f44f 5280 	mov.w	r2, #4096	; 0x1000
  400d20:	4917      	ldr	r1, [pc, #92]	; (400d80 <PSOLA_init+0x78>)
  400d22:	47a0      	blx	r4
	arm_fill_f32(0.0f, window, 10*WIN_SIZE); 
  400d24:	4630      	mov	r0, r6
  400d26:	f44f 5220 	mov.w	r2, #10240	; 0x2800
  400d2a:	4916      	ldr	r1, [pc, #88]	; (400d84 <PSOLA_init+0x7c>)
  400d2c:	47a0      	blx	r4
  400d2e:	272c      	movs	r7, #44	; 0x2c
	arm_fill_f32(1.0f, prev_pitch_shifts, MAX_NUM_SHIFTS); 
  400d30:	4629      	mov	r1, r5
  400d32:	220b      	movs	r2, #11
  400d34:	f04f 507e 	mov.w	r0, #1065353216	; 0x3f800000
	prev_pitch_shifts[0] = 1.0f; 
  400d38:	f04f 567e 	mov.w	r6, #1065353216	; 0x3f800000
	arm_fill_f32(1.0f, prev_pitch_shifts, MAX_NUM_SHIFTS); 
  400d3c:	47a0      	blx	r4
	prev_pitch_shifts[1] = -1.0f; 
  400d3e:	4b12      	ldr	r3, [pc, #72]	; (400d88 <PSOLA_init+0x80>)
  400d40:	463a      	mov	r2, r7
  400d42:	4c12      	ldr	r4, [pc, #72]	; (400d8c <PSOLA_init+0x84>)
  400d44:	2100      	movs	r1, #0
  400d46:	4812      	ldr	r0, [pc, #72]	; (400d90 <PSOLA_init+0x88>)
  400d48:	606b      	str	r3, [r5, #4]
	prev_pitch_shifts[0] = 1.0f; 
  400d4a:	602e      	str	r6, [r5, #0]
  400d4c:	47a0      	blx	r4
  400d4e:	463a      	mov	r2, r7
  400d50:	2100      	movs	r1, #0
  400d52:	4810      	ldr	r0, [pc, #64]	; (400d94 <PSOLA_init+0x8c>)
	{
		outPtrList[i] = 0; 
		saved_samplesLeftInPeriod[i] = 0; 
	}
		
	current_num_shifts = 1; // always doing root 
  400d54:	2701      	movs	r7, #1
  400d56:	47a0      	blx	r4
  400d58:	4e0f      	ldr	r6, [pc, #60]	; (400d98 <PSOLA_init+0x90>)
	
	readPos = RING_BUFFER_SIZE - WIN_SIZE; // + WEIRD_OFFSET; 
  400d5a:	4c10      	ldr	r4, [pc, #64]	; (400d9c <PSOLA_init+0x94>)
  400d5c:	f44f 6540 	mov.w	r5, #3072	; 0xc00
	inPtr = 0; 
  400d60:	490f      	ldr	r1, [pc, #60]	; (400da0 <PSOLA_init+0x98>)
  400d62:	2000      	movs	r0, #0
	inputPeriodLength = PSOLA_SAMPLE_RATE / MINIMUM_PITCH; 
  400d64:	4b0f      	ldr	r3, [pc, #60]	; (400da4 <PSOLA_init+0x9c>)
  400d66:	f240 12d1 	movw	r2, #465	; 0x1d1
	current_num_shifts = 1; // always doing root 
  400d6a:	6037      	str	r7, [r6, #0]
	readPos = RING_BUFFER_SIZE - WIN_SIZE; // + WEIRD_OFFSET; 
  400d6c:	6025      	str	r5, [r4, #0]
	inPtr = 0; 
  400d6e:	6008      	str	r0, [r1, #0]
	inputPeriodLength = PSOLA_SAMPLE_RATE / MINIMUM_PITCH; 
  400d70:	601a      	str	r2, [r3, #0]
  400d72:	bdf8      	pop	{r3, r4, r5, r6, r7, pc}
  400d74:	0040311d 	.word	0x0040311d
  400d78:	20409000 	.word	0x20409000
  400d7c:	20412000 	.word	0x20412000
  400d80:	2040e000 	.word	0x2040e000
  400d84:	2041205c 	.word	0x2041205c
  400d88:	bf800000 	.word	0xbf800000
  400d8c:	00403bd5 	.word	0x00403bd5
  400d90:	2040d000 	.word	0x2040d000
  400d94:	20412030 	.word	0x20412030
  400d98:	20408400 	.word	0x20408400
  400d9c:	2041202c 	.word	0x2041202c
  400da0:	20408404 	.word	0x20408404
  400da4:	20408408 	.word	0x20408408

00400da8 <create_harmonies>:
	currentPitch = MINIMUM_PITCH; 
}

// assumes valid pitch shifts 
void create_harmonies(float* input, float *output, float inputPitch, float *pitch_shifts_in, float harm_volume, float dry_volume)
{
  400da8:	e92d 4ff0 	stmdb	sp!, {r4, r5, r6, r7, r8, r9, sl, fp, lr}
  400dac:	ed2d 8b06 	vpush	{d8-d10}
  400db0:	b08d      	sub	sp, #52	; 0x34
  400db2:	ee09 2a10 	vmov	s18, r2
  400db6:	4ca3      	ldr	r4, [pc, #652]	; (401044 <create_harmonies+0x29c>)
  400db8:	9308      	str	r3, [sp, #32]
	uint32_t i, w; 
	int32_t olaIdx; 
	
	uint32_t saved_inPtr = inPtr; 
  400dba:	4ba3      	ldr	r3, [pc, #652]	; (401048 <create_harmonies+0x2a0>)
{
  400dbc:	910b      	str	r1, [sp, #44]	; 0x2c
	uint32_t saved_inPtr = inPtr; 
  400dbe:	681b      	ldr	r3, [r3, #0]
{
  400dc0:	ed9d 8a1c 	vldr	s16, [sp, #112]	; 0x70
	uint32_t outPtr; 
	uint32_t pitch_idx = 0; 
	
	uint32_t starting_input_ptr = inPtr + WIN_SIZE; 
  400dc4:	461a      	mov	r2, r3
	uint32_t saved_inPtr = inPtr; 
  400dc6:	9306      	str	r3, [sp, #24]
{
  400dc8:	eddd 8a1d 	vldr	s17, [sp, #116]	; 0x74
	uint32_t starting_input_ptr = inPtr + WIN_SIZE; 
  400dcc:	f503 6380 	add.w	r3, r3, #1024	; 0x400
  400dd0:	f502 6100 	add.w	r1, r2, #2048	; 0x800
	for (i = 0; i < WIN_SIZE; i++)
	{
		input_ring_buffer[(starting_input_ptr++) & RING_BUFFER_MASK] = input[i]; 
  400dd4:	f3c3 020b 	ubfx	r2, r3, #0, #12
  400dd8:	3301      	adds	r3, #1
  400dda:	f850 5b04 	ldr.w	r5, [r0], #4
  400dde:	eb04 0282 	add.w	r2, r4, r2, lsl #2
	for (i = 0; i < WIN_SIZE; i++)
  400de2:	428b      	cmp	r3, r1
		input_ring_buffer[(starting_input_ptr++) & RING_BUFFER_MASK] = input[i]; 
  400de4:	6015      	str	r5, [r2, #0]
	for (i = 0; i < WIN_SIZE; i++)
  400de6:	d1f5      	bne.n	400dd4 <create_harmonies+0x2c>
	}
		
	uint32_t outLag;
	uint32_t inHalfAway;
	float periodRatio;
	float inputPeriodLengthRecip = 1.0f / inputPeriodLength;
  400de8:	4b98      	ldr	r3, [pc, #608]	; (40104c <create_harmonies+0x2a4>)
  400dea:	f8d3 8000 	ldr.w	r8, [r3]
  400dee:	ee07 8a90 	vmov	s15, r8
	uint32_t samplesLeftInPeriod = 0; 
	
	// pre-compute window function	
	for (olaIdx = 0, w = 0; olaIdx < 2*inputPeriodLength; olaIdx++, w++)
  400df2:	f1b8 0f00 	cmp.w	r8, #0
	float inputPeriodLengthRecip = 1.0f / inputPeriodLength;
  400df6:	eef8 7ae7 	vcvt.f32.s32	s15, s15
	for (olaIdx = 0, w = 0; olaIdx < 2*inputPeriodLength; olaIdx++, w++)
  400dfa:	dd22      	ble.n	400e42 <create_harmonies+0x9a>
  400dfc:	ed9f 7a94 	vldr	s14, [pc, #592]	; 401050 <create_harmonies+0x2a8>
	{
		window[w] = (1.0f - arm_cos_f32(PI_F * (float)olaIdx * inputPeriodLengthRecip)) * 0.5f;
  400e00:	eef7 aa00 	vmov.f32	s21, #112	; 0x3f800000  1.0
  400e04:	eeb6 aa00 	vmov.f32	s20, #96	; 0x3f000000  0.5
  400e08:	4e92      	ldr	r6, [pc, #584]	; (401054 <create_harmonies+0x2ac>)
  400e0a:	eec7 9a27 	vdiv.f32	s19, s14, s15
	for (olaIdx = 0, w = 0; olaIdx < 2*inputPeriodLength; olaIdx++, w++)
  400e0e:	2500      	movs	r5, #0
  400e10:	4f91      	ldr	r7, [pc, #580]	; (401058 <create_harmonies+0x2b0>)
		window[w] = (1.0f - arm_cos_f32(PI_F * (float)olaIdx * inputPeriodLengthRecip)) * 0.5f;
  400e12:	ee07 5a90 	vmov	s15, r5
	for (olaIdx = 0, w = 0; olaIdx < 2*inputPeriodLength; olaIdx++, w++)
  400e16:	3501      	adds	r5, #1
		window[w] = (1.0f - arm_cos_f32(PI_F * (float)olaIdx * inputPeriodLengthRecip)) * 0.5f;
  400e18:	eef8 7ae7 	vcvt.f32.s32	s15, s15
  400e1c:	ee67 7aa9 	vmul.f32	s15, s15, s19
  400e20:	ee17 0a90 	vmov	r0, s15
  400e24:	47b8      	blx	r7
  400e26:	ee07 0a90 	vmov	s15, r0
	for (olaIdx = 0, w = 0; olaIdx < 2*inputPeriodLength; olaIdx++, w++)
  400e2a:	4b88      	ldr	r3, [pc, #544]	; (40104c <create_harmonies+0x2a4>)
		window[w] = (1.0f - arm_cos_f32(PI_F * (float)olaIdx * inputPeriodLengthRecip)) * 0.5f;
  400e2c:	ee7a 7ae7 	vsub.f32	s15, s21, s15
	for (olaIdx = 0, w = 0; olaIdx < 2*inputPeriodLength; olaIdx++, w++)
  400e30:	681b      	ldr	r3, [r3, #0]
		window[w] = (1.0f - arm_cos_f32(PI_F * (float)olaIdx * inputPeriodLengthRecip)) * 0.5f;
  400e32:	ee67 7a8a 	vmul.f32	s15, s15, s20
	for (olaIdx = 0, w = 0; olaIdx < 2*inputPeriodLength; olaIdx++, w++)
  400e36:	ebb5 0f43 	cmp.w	r5, r3, lsl #1
		window[w] = (1.0f - arm_cos_f32(PI_F * (float)olaIdx * inputPeriodLengthRecip)) * 0.5f;
  400e3a:	ece6 7a01 	vstmia	r6!, {s15}
	for (olaIdx = 0, w = 0; olaIdx < 2*inputPeriodLength; olaIdx++, w++)
  400e3e:	dbe8      	blt.n	400e12 <create_harmonies+0x6a>
  400e40:	4698      	mov	r8, r3
	}
		
	// for each pitch shift 
	while(pitch_shifts_in[pitch_idx] > 0.0f && pitch_idx < MAX_NUM_SHIFTS)
  400e42:	9908      	ldr	r1, [sp, #32]
  400e44:	ed91 7a00 	vldr	s14, [r1]
  400e48:	eeb5 7ac0 	vcmpe.f32	s14, #0.0
  400e4c:	eef1 fa10 	vmrs	APSR_nzcv, fpscr
  400e50:	f340 81f4 	ble.w	40123c <create_harmonies+0x494>
  400e54:	4b81      	ldr	r3, [pc, #516]	; (40105c <create_harmonies+0x2b4>)
  400e56:	ee07 8a90 	vmov	s15, r8
		
		if (pitch_idx > current_num_shifts - 1)
		{
			// find closest harmony for the onset of a new harmony 
			float tmp; 
			float min = Abs(pitch_shifts_in[pitch_idx] - prev_pitch_shifts[0]); 
  400e5a:	4a81      	ldr	r2, [pc, #516]	; (401060 <create_harmonies+0x2b8>)
		periodRatio = 1.0f / pitch_shifts_in[pitch_idx]; 
  400e5c:	eeb7 0a00 	vmov.f32	s0, #112	; 0x3f800000  1.0
  400e60:	4618      	mov	r0, r3
  400e62:	9309      	str	r3, [sp, #36]	; 0x24
			outPtr = outPtrList[0]; 
			for (i = 1; i < current_num_shifts; i++)
			{
				tmp = Abs(pitch_shifts_in[pitch_idx] - prev_pitch_shifts[i]);
  400e64:	2300      	movs	r3, #0
  400e66:	eef8 0ae7 	vcvt.f32.s32	s1, s15
  400e6a:	6800      	ldr	r0, [r0, #0]
  400e6c:	3104      	adds	r1, #4
  400e6e:	469b      	mov	fp, r3
			float min = Abs(pitch_shifts_in[pitch_idx] - prev_pitch_shifts[0]); 
  400e70:	ed92 1a00 	vldr	s2, [r2]
  400e74:	9003      	str	r0, [sp, #12]
  400e76:	3801      	subs	r0, #1
				tmp = Abs(pitch_shifts_in[pitch_idx] - prev_pitch_shifts[i]);
  400e78:	edd2 1a01 	vldr	s3, [r2, #4]
  400e7c:	f1c8 0900 	rsb	r9, r8, #0
  400e80:	900a      	str	r0, [sp, #40]	; 0x28
  400e82:	ed92 2a02 	vldr	s4, [r2, #8]
  400e86:	4877      	ldr	r0, [pc, #476]	; (401064 <create_harmonies+0x2bc>)
  400e88:	edd2 2a03 	vldr	s5, [r2, #12]
  400e8c:	ed92 3a04 	vldr	s6, [r2, #16]
  400e90:	edd2 3a05 	vldr	s7, [r2, #20]
  400e94:	ed92 4a06 	vldr	s8, [r2, #24]
  400e98:	edd2 4a07 	vldr	s9, [r2, #28]
  400e9c:	ed92 5a08 	vldr	s10, [r2, #32]
  400ea0:	edd2 5a09 	vldr	s11, [r2, #36]	; 0x24
  400ea4:	ed92 6a0a 	vldr	s12, [r2, #40]	; 0x28
  400ea8:	4d6f      	ldr	r5, [pc, #444]	; (401068 <create_harmonies+0x2c0>)
  400eaa:	9005      	str	r0, [sp, #20]
  400eac:	9107      	str	r1, [sp, #28]
		if (pitch_idx > current_num_shifts - 1)
  400eae:	9a0a      	ldr	r2, [sp, #40]	; 0x28
		periodRatio = 1.0f / pitch_shifts_in[pitch_idx]; 
  400eb0:	eec0 9a07 	vdiv.f32	s19, s0, s14
		if (pitch_idx > current_num_shifts - 1)
  400eb4:	4593      	cmp	fp, r2
  400eb6:	f240 81b8 	bls.w	40122a <create_harmonies+0x482>
			outPtr = outPtrList[0]; 
  400eba:	4a6c      	ldr	r2, [pc, #432]	; (40106c <create_harmonies+0x2c4>)
			float min = Abs(pitch_shifts_in[pitch_idx] - prev_pitch_shifts[0]); 
  400ebc:	ee77 7a41 	vsub.f32	s15, s14, s2
			outPtr = outPtrList[0]; 
  400ec0:	f8d2 e000 	ldr.w	lr, [r2]
			for (i = 1; i < current_num_shifts; i++)
  400ec4:	9a03      	ldr	r2, [sp, #12]
			float min = Abs(pitch_shifts_in[pitch_idx] - prev_pitch_shifts[0]); 
  400ec6:	eef0 7ae7 	vabs.f32	s15, s15
			for (i = 1; i < current_num_shifts; i++)
  400eca:	2a01      	cmp	r2, #1
  400ecc:	f240 80d0 	bls.w	401070 <create_harmonies+0x2c8>
				tmp = Abs(pitch_shifts_in[pitch_idx] - prev_pitch_shifts[i]);
  400ed0:	ee77 6a61 	vsub.f32	s13, s14, s3
  400ed4:	eef0 6ae6 	vabs.f32	s13, s13
				if (tmp < min)
  400ed8:	eef4 7ae6 	vcmpe.f32	s15, s13
  400edc:	eef1 fa10 	vmrs	APSR_nzcv, fpscr
  400ee0:	dd06      	ble.n	400ef0 <create_harmonies+0x148>
				{
					outPtr = outPtrList[i]; 
  400ee2:	4b62      	ldr	r3, [pc, #392]	; (40106c <create_harmonies+0x2c4>)
				tmp = Abs(pitch_shifts_in[pitch_idx] - prev_pitch_shifts[i]);
  400ee4:	eef0 7a66 	vmov.f32	s15, s13
					outPtr = outPtrList[i]; 
  400ee8:	f8d3 e004 	ldr.w	lr, [r3, #4]
					samplesLeftInPeriod = saved_samplesLeftInPeriod[i]; 
  400eec:	4b5d      	ldr	r3, [pc, #372]	; (401064 <create_harmonies+0x2bc>)
  400eee:	685b      	ldr	r3, [r3, #4]
			for (i = 1; i < current_num_shifts; i++)
  400ef0:	2a02      	cmp	r2, #2
  400ef2:	f000 80bd 	beq.w	401070 <create_harmonies+0x2c8>
				tmp = Abs(pitch_shifts_in[pitch_idx] - prev_pitch_shifts[i]);
  400ef6:	ee77 6a42 	vsub.f32	s13, s14, s4
  400efa:	eef0 6ae6 	vabs.f32	s13, s13
				if (tmp < min)
  400efe:	eef4 7ae6 	vcmpe.f32	s15, s13
  400f02:	eef1 fa10 	vmrs	APSR_nzcv, fpscr
  400f06:	dd06      	ble.n	400f16 <create_harmonies+0x16e>
					outPtr = outPtrList[i]; 
  400f08:	4b58      	ldr	r3, [pc, #352]	; (40106c <create_harmonies+0x2c4>)
				tmp = Abs(pitch_shifts_in[pitch_idx] - prev_pitch_shifts[i]);
  400f0a:	eef0 7a66 	vmov.f32	s15, s13
					outPtr = outPtrList[i]; 
  400f0e:	f8d3 e008 	ldr.w	lr, [r3, #8]
					samplesLeftInPeriod = saved_samplesLeftInPeriod[i]; 
  400f12:	4b54      	ldr	r3, [pc, #336]	; (401064 <create_harmonies+0x2bc>)
  400f14:	689b      	ldr	r3, [r3, #8]
			for (i = 1; i < current_num_shifts; i++)
  400f16:	2a03      	cmp	r2, #3
  400f18:	f000 80aa 	beq.w	401070 <create_harmonies+0x2c8>
				tmp = Abs(pitch_shifts_in[pitch_idx] - prev_pitch_shifts[i]);
  400f1c:	ee77 6a62 	vsub.f32	s13, s14, s5
  400f20:	eef0 6ae6 	vabs.f32	s13, s13
				if (tmp < min)
  400f24:	eef4 7ae6 	vcmpe.f32	s15, s13
  400f28:	eef1 fa10 	vmrs	APSR_nzcv, fpscr
  400f2c:	dd06      	ble.n	400f3c <create_harmonies+0x194>
					outPtr = outPtrList[i]; 
  400f2e:	4b4f      	ldr	r3, [pc, #316]	; (40106c <create_harmonies+0x2c4>)
				tmp = Abs(pitch_shifts_in[pitch_idx] - prev_pitch_shifts[i]);
  400f30:	eef0 7a66 	vmov.f32	s15, s13
					outPtr = outPtrList[i]; 
  400f34:	f8d3 e00c 	ldr.w	lr, [r3, #12]
					samplesLeftInPeriod = saved_samplesLeftInPeriod[i]; 
  400f38:	4b4a      	ldr	r3, [pc, #296]	; (401064 <create_harmonies+0x2bc>)
  400f3a:	68db      	ldr	r3, [r3, #12]
			for (i = 1; i < current_num_shifts; i++)
  400f3c:	2a04      	cmp	r2, #4
  400f3e:	f000 8097 	beq.w	401070 <create_harmonies+0x2c8>
				tmp = Abs(pitch_shifts_in[pitch_idx] - prev_pitch_shifts[i]);
  400f42:	ee77 6a43 	vsub.f32	s13, s14, s6
  400f46:	eef0 6ae6 	vabs.f32	s13, s13
				if (tmp < min)
  400f4a:	eef4 7ae6 	vcmpe.f32	s15, s13
  400f4e:	eef1 fa10 	vmrs	APSR_nzcv, fpscr
  400f52:	dd06      	ble.n	400f62 <create_harmonies+0x1ba>
					outPtr = outPtrList[i]; 
  400f54:	4b45      	ldr	r3, [pc, #276]	; (40106c <create_harmonies+0x2c4>)
				tmp = Abs(pitch_shifts_in[pitch_idx] - prev_pitch_shifts[i]);
  400f56:	eef0 7a66 	vmov.f32	s15, s13
					outPtr = outPtrList[i]; 
  400f5a:	f8d3 e010 	ldr.w	lr, [r3, #16]
					samplesLeftInPeriod = saved_samplesLeftInPeriod[i]; 
  400f5e:	4b41      	ldr	r3, [pc, #260]	; (401064 <create_harmonies+0x2bc>)
  400f60:	691b      	ldr	r3, [r3, #16]
			for (i = 1; i < current_num_shifts; i++)
  400f62:	2a05      	cmp	r2, #5
  400f64:	f000 8084 	beq.w	401070 <create_harmonies+0x2c8>
				tmp = Abs(pitch_shifts_in[pitch_idx] - prev_pitch_shifts[i]);
  400f68:	ee77 6a63 	vsub.f32	s13, s14, s7
  400f6c:	eef0 6ae6 	vabs.f32	s13, s13
				if (tmp < min)
  400f70:	eef4 7ae6 	vcmpe.f32	s15, s13
  400f74:	eef1 fa10 	vmrs	APSR_nzcv, fpscr
  400f78:	dd06      	ble.n	400f88 <create_harmonies+0x1e0>
					outPtr = outPtrList[i]; 
  400f7a:	4b3c      	ldr	r3, [pc, #240]	; (40106c <create_harmonies+0x2c4>)
				tmp = Abs(pitch_shifts_in[pitch_idx] - prev_pitch_shifts[i]);
  400f7c:	eef0 7a66 	vmov.f32	s15, s13
					outPtr = outPtrList[i]; 
  400f80:	f8d3 e014 	ldr.w	lr, [r3, #20]
					samplesLeftInPeriod = saved_samplesLeftInPeriod[i]; 
  400f84:	4b37      	ldr	r3, [pc, #220]	; (401064 <create_harmonies+0x2bc>)
  400f86:	695b      	ldr	r3, [r3, #20]
			for (i = 1; i < current_num_shifts; i++)
  400f88:	2a06      	cmp	r2, #6
  400f8a:	d071      	beq.n	401070 <create_harmonies+0x2c8>
				tmp = Abs(pitch_shifts_in[pitch_idx] - prev_pitch_shifts[i]);
  400f8c:	ee77 6a44 	vsub.f32	s13, s14, s8
  400f90:	eef0 6ae6 	vabs.f32	s13, s13
				if (tmp < min)
  400f94:	eef4 7ae6 	vcmpe.f32	s15, s13
  400f98:	eef1 fa10 	vmrs	APSR_nzcv, fpscr
  400f9c:	dd06      	ble.n	400fac <create_harmonies+0x204>
					outPtr = outPtrList[i]; 
  400f9e:	4b33      	ldr	r3, [pc, #204]	; (40106c <create_harmonies+0x2c4>)
				tmp = Abs(pitch_shifts_in[pitch_idx] - prev_pitch_shifts[i]);
  400fa0:	eef0 7a66 	vmov.f32	s15, s13
					outPtr = outPtrList[i]; 
  400fa4:	f8d3 e018 	ldr.w	lr, [r3, #24]
					samplesLeftInPeriod = saved_samplesLeftInPeriod[i]; 
  400fa8:	4b2e      	ldr	r3, [pc, #184]	; (401064 <create_harmonies+0x2bc>)
  400faa:	699b      	ldr	r3, [r3, #24]
			for (i = 1; i < current_num_shifts; i++)
  400fac:	2a07      	cmp	r2, #7
  400fae:	d05f      	beq.n	401070 <create_harmonies+0x2c8>
				tmp = Abs(pitch_shifts_in[pitch_idx] - prev_pitch_shifts[i]);
  400fb0:	ee77 6a64 	vsub.f32	s13, s14, s9
  400fb4:	eef0 6ae6 	vabs.f32	s13, s13
				if (tmp < min)
  400fb8:	eef4 7ae6 	vcmpe.f32	s15, s13
  400fbc:	eef1 fa10 	vmrs	APSR_nzcv, fpscr
  400fc0:	dd06      	ble.n	400fd0 <create_harmonies+0x228>
					outPtr = outPtrList[i]; 
  400fc2:	4b2a      	ldr	r3, [pc, #168]	; (40106c <create_harmonies+0x2c4>)
				tmp = Abs(pitch_shifts_in[pitch_idx] - prev_pitch_shifts[i]);
  400fc4:	eef0 7a66 	vmov.f32	s15, s13
					outPtr = outPtrList[i]; 
  400fc8:	f8d3 e01c 	ldr.w	lr, [r3, #28]
					samplesLeftInPeriod = saved_samplesLeftInPeriod[i]; 
  400fcc:	4b25      	ldr	r3, [pc, #148]	; (401064 <create_harmonies+0x2bc>)
  400fce:	69db      	ldr	r3, [r3, #28]
			for (i = 1; i < current_num_shifts; i++)
  400fd0:	2a08      	cmp	r2, #8
  400fd2:	d04d      	beq.n	401070 <create_harmonies+0x2c8>
				tmp = Abs(pitch_shifts_in[pitch_idx] - prev_pitch_shifts[i]);
  400fd4:	ee77 6a45 	vsub.f32	s13, s14, s10
  400fd8:	eef0 6ae6 	vabs.f32	s13, s13
				if (tmp < min)
  400fdc:	eef4 7ae6 	vcmpe.f32	s15, s13
  400fe0:	eef1 fa10 	vmrs	APSR_nzcv, fpscr
  400fe4:	dd06      	ble.n	400ff4 <create_harmonies+0x24c>
					outPtr = outPtrList[i]; 
  400fe6:	4b21      	ldr	r3, [pc, #132]	; (40106c <create_harmonies+0x2c4>)
				tmp = Abs(pitch_shifts_in[pitch_idx] - prev_pitch_shifts[i]);
  400fe8:	eef0 7a66 	vmov.f32	s15, s13
					outPtr = outPtrList[i]; 
  400fec:	f8d3 e020 	ldr.w	lr, [r3, #32]
					samplesLeftInPeriod = saved_samplesLeftInPeriod[i]; 
  400ff0:	4b1c      	ldr	r3, [pc, #112]	; (401064 <create_harmonies+0x2bc>)
  400ff2:	6a1b      	ldr	r3, [r3, #32]
			for (i = 1; i < current_num_shifts; i++)
  400ff4:	2a09      	cmp	r2, #9
  400ff6:	d03b      	beq.n	401070 <create_harmonies+0x2c8>
				tmp = Abs(pitch_shifts_in[pitch_idx] - prev_pitch_shifts[i]);
  400ff8:	ee77 6a65 	vsub.f32	s13, s14, s11
  400ffc:	eef0 6ae6 	vabs.f32	s13, s13
				if (tmp < min)
  401000:	eef4 7ae6 	vcmpe.f32	s15, s13
  401004:	eef1 fa10 	vmrs	APSR_nzcv, fpscr
  401008:	dd06      	ble.n	401018 <create_harmonies+0x270>
					outPtr = outPtrList[i]; 
  40100a:	4b18      	ldr	r3, [pc, #96]	; (40106c <create_harmonies+0x2c4>)
				tmp = Abs(pitch_shifts_in[pitch_idx] - prev_pitch_shifts[i]);
  40100c:	eef0 7a66 	vmov.f32	s15, s13
					outPtr = outPtrList[i]; 
  401010:	f8d3 e024 	ldr.w	lr, [r3, #36]	; 0x24
					samplesLeftInPeriod = saved_samplesLeftInPeriod[i]; 
  401014:	4b13      	ldr	r3, [pc, #76]	; (401064 <create_harmonies+0x2bc>)
  401016:	6a5b      	ldr	r3, [r3, #36]	; 0x24
			for (i = 1; i < current_num_shifts; i++)
  401018:	2a0a      	cmp	r2, #10
  40101a:	d029      	beq.n	401070 <create_harmonies+0x2c8>
				tmp = Abs(pitch_shifts_in[pitch_idx] - prev_pitch_shifts[i]);
  40101c:	ee37 7a46 	vsub.f32	s14, s14, s12
  401020:	eeb0 7ac7 	vabs.f32	s14, s14
				if (tmp < min)
  401024:	eef4 7ac7 	vcmpe.f32	s15, s14
  401028:	eef1 fa10 	vmrs	APSR_nzcv, fpscr
  40102c:	dd04      	ble.n	401038 <create_harmonies+0x290>
					outPtr = outPtrList[i]; 
  40102e:	4b0f      	ldr	r3, [pc, #60]	; (40106c <create_harmonies+0x2c4>)
  401030:	f8d3 e028 	ldr.w	lr, [r3, #40]	; 0x28
					samplesLeftInPeriod = saved_samplesLeftInPeriod[i]; 
  401034:	4b0b      	ldr	r3, [pc, #44]	; (401064 <create_harmonies+0x2bc>)
  401036:	6a9b      	ldr	r3, [r3, #40]	; 0x28
			for (i = 1; i < current_num_shifts; i++)
  401038:	2a0b      	cmp	r2, #11
  40103a:	d019      	beq.n	401070 <create_harmonies+0x2c8>
  40103c:	4b02      	ldr	r3, [pc, #8]	; (401048 <create_harmonies+0x2a0>)
  40103e:	9a06      	ldr	r2, [sp, #24]
  401040:	601a      	str	r2, [r3, #0]
  401042:	bf00      	nop
  401044:	20409000 	.word	0x20409000
  401048:	20408404 	.word	0x20408404
  40104c:	20408408 	.word	0x20408408
  401050:	40490fdb 	.word	0x40490fdb
  401054:	2041205c 	.word	0x2041205c
  401058:	004033c5 	.word	0x004033c5
  40105c:	20408400 	.word	0x20408400
  401060:	20412000 	.word	0x20412000
  401064:	20412030 	.word	0x20412030
  401068:	2040e000 	.word	0x2040e000
  40106c:	2040d000 	.word	0x2040d000
  401070:	ea4f 028b 	mov.w	r2, fp, lsl #2
  401074:	9202      	str	r2, [sp, #8]
  401076:	ee60 9aa9 	vmul.f32	s19, s1, s19
				tmp = Abs(pitch_shifts_in[pitch_idx] - prev_pitch_shifts[i]);
  40107a:	f44f 6280 	mov.w	r2, #1024	; 0x400
  40107e:	f8dd a018 	ldr.w	sl, [sp, #24]
  401082:	9204      	str	r2, [sp, #16]
  401084:	eefc 7ae9 	vcvt.u32.f32	s15, s19
  401088:	f8cd b000 	str.w	fp, [sp]
  40108c:	edcd 7a01 	vstr	s15, [sp, #4]
			samplesLeftInPeriod = saved_samplesLeftInPeriod[pitch_idx]; 
		}
		
		for (i = 0; i < WIN_SIZE; i++)
		{		
			if (samplesLeftInPeriod == 0)
  401090:	2b00      	cmp	r3, #0
  401092:	d13d      	bne.n	401110 <create_harmonies+0x368>
			{
				outLag = 1; 
			
				inHalfAway = (inPtr + RING_BUFFER_SIZE_D2) & RING_BUFFER_MASK;
  401094:	f50a 6c00 	add.w	ip, sl, #2048	; 0x800
  401098:	f3cc 0c0b 	ubfx	ip, ip, #0, #12
                
				if (inHalfAway < RING_BUFFER_SIZE_D2) 
  40109c:	f5bc 6f00 	cmp.w	ip, #2048	; 0x800
  4010a0:	f080 80bc 	bcs.w	40121c <create_harmonies+0x474>
				{
					/* The zero element of the input buffer lies
						in (inptr, inHalfAway] */
					if (outPtr < inHalfAway || outPtr > inPtr) {
  4010a4:	45f4      	cmp	ip, lr
  4010a6:	d832      	bhi.n	40110e <create_harmonies+0x366>
  4010a8:	45f2      	cmp	sl, lr
  4010aa:	d330      	bcc.n	40110e <create_harmonies+0x366>
  4010ac:	f50a 7b16 	add.w	fp, sl, #600	; 0x258
				}

				while(outLag == 1)
				{
					// set outPtr about the sample at which we OLA 
					outPtr = (outPtr + (uint32_t)((float)inputPeriodLength * periodRatio)) & RING_BUFFER_MASK; 
  4010b0:	9b01      	ldr	r3, [sp, #4]
  4010b2:	449e      	add	lr, r3
				
					// OLA 
					if (pitch_idx == 0)
  4010b4:	9b00      	ldr	r3, [sp, #0]
					outPtr = (outPtr + (uint32_t)((float)inputPeriodLength * periodRatio)) & RING_BUFFER_MASK; 
  4010b6:	f3ce 0e0b 	ubfx	lr, lr, #0, #12
					if (pitch_idx == 0)
  4010ba:	2b00      	cmp	r3, #0
  4010bc:	f040 8082 	bne.w	4011c4 <create_harmonies+0x41c>
					{
						for (olaIdx = -inputPeriodLength, w = 0; olaIdx < inputPeriodLength; olaIdx++, w++)
  4010c0:	45c8      	cmp	r8, r9
  4010c2:	dd1e      	ble.n	401102 <create_harmonies+0x35a>
  4010c4:	ebae 0208 	sub.w	r2, lr, r8
  4010c8:	485f      	ldr	r0, [pc, #380]	; (401248 <create_harmonies+0x4a0>)
  4010ca:	eb0e 0708 	add.w	r7, lr, r8
  4010ce:	ebab 060e 	sub.w	r6, fp, lr
						{
							output_ring_buffer[(uint32_t)(olaIdx + (int64_t)outPtr) & RING_BUFFER_MASK] +=
							dry_volume * window[w] * input_ring_buffer[(uint32_t)(olaIdx + (int64_t)inPtr + WEIRD_OFFSET) & RING_BUFFER_MASK];
  4010d2:	18b3      	adds	r3, r6, r2
							output_ring_buffer[(uint32_t)(olaIdx + (int64_t)outPtr) & RING_BUFFER_MASK] +=
  4010d4:	f3c2 010b 	ubfx	r1, r2, #0, #12
							dry_volume * window[w] * input_ring_buffer[(uint32_t)(olaIdx + (int64_t)inPtr + WEIRD_OFFSET) & RING_BUFFER_MASK];
  4010d8:	ecb0 7a01 	vldmia	r0!, {s14}
  4010dc:	3201      	adds	r2, #1
  4010de:	f3c3 030b 	ubfx	r3, r3, #0, #12
							output_ring_buffer[(uint32_t)(olaIdx + (int64_t)outPtr) & RING_BUFFER_MASK] +=
  4010e2:	eb05 0181 	add.w	r1, r5, r1, lsl #2
							dry_volume * window[w] * input_ring_buffer[(uint32_t)(olaIdx + (int64_t)inPtr + WEIRD_OFFSET) & RING_BUFFER_MASK];
  4010e6:	ee27 7a28 	vmul.f32	s14, s14, s17
						for (olaIdx = -inputPeriodLength, w = 0; olaIdx < inputPeriodLength; olaIdx++, w++)
  4010ea:	4297      	cmp	r7, r2
							dry_volume * window[w] * input_ring_buffer[(uint32_t)(olaIdx + (int64_t)inPtr + WEIRD_OFFSET) & RING_BUFFER_MASK];
  4010ec:	eb04 0383 	add.w	r3, r4, r3, lsl #2
							output_ring_buffer[(uint32_t)(olaIdx + (int64_t)outPtr) & RING_BUFFER_MASK] +=
  4010f0:	edd1 7a00 	vldr	s15, [r1]
  4010f4:	edd3 6a00 	vldr	s13, [r3]
  4010f8:	eee7 7a26 	vfma.f32	s15, s14, s13
  4010fc:	edc1 7a00 	vstr	s15, [r1]
						for (olaIdx = -inputPeriodLength, w = 0; olaIdx < inputPeriodLength; olaIdx++, w++)
  401100:	d1e7      	bne.n	4010d2 <create_harmonies+0x32a>
								harm_volume * window[w] * input_ring_buffer[(uint32_t)(olaIdx + (int64_t)inPtr + WEIRD_OFFSET) & RING_BUFFER_MASK];
						}
					}
	
					
					if (inHalfAway < RING_BUFFER_SIZE_D2) 
  401102:	f5bc 6f00 	cmp.w	ip, #2048	; 0x800
  401106:	f080 8082 	bcs.w	40120e <create_harmonies+0x466>
					{
						/* The zero element of the input buffer lies
							in (inptr, inHalfAway] */
						if (outPtr < inHalfAway || outPtr > inPtr) {
  40110a:	45f4      	cmp	ip, lr
  40110c:	d950      	bls.n	4011b0 <create_harmonies+0x408>
						}
					}		
				}
			
				// assume uniform frequency within window 
				samplesLeftInPeriod = inputPeriodLength;
  40110e:	4643      	mov	r3, r8
		for (i = 0; i < WIN_SIZE; i++)
  401110:	9a04      	ldr	r2, [sp, #16]
			}
		
			--samplesLeftInPeriod; 
		
			// inc/wrap input ring buffer index 
			inPtr = (inPtr+1) & RING_BUFFER_MASK; 		
  401112:	f10a 0a01 	add.w	sl, sl, #1
			--samplesLeftInPeriod; 
  401116:	3b01      	subs	r3, #1
		for (i = 0; i < WIN_SIZE; i++)
  401118:	3a01      	subs	r2, #1
			inPtr = (inPtr+1) & RING_BUFFER_MASK; 		
  40111a:	f3ca 0a0b 	ubfx	sl, sl, #0, #12
		for (i = 0; i < WIN_SIZE; i++)
  40111e:	9204      	str	r2, [sp, #16]
  401120:	d1b6      	bne.n	401090 <create_harmonies+0x2e8>
		}

		saved_samplesLeftInPeriod[pitch_idx] = samplesLeftInPeriod; 
  401122:	9a05      	ldr	r2, [sp, #20]
		outPtrList[pitch_idx] = outPtr; 
  401124:	9902      	ldr	r1, [sp, #8]
		saved_samplesLeftInPeriod[pitch_idx] = samplesLeftInPeriod; 
  401126:	6013      	str	r3, [r2, #0]
		outPtrList[pitch_idx] = outPtr; 
  401128:	4a48      	ldr	r2, [pc, #288]	; (40124c <create_harmonies+0x4a4>)
  40112a:	f8dd b000 	ldr.w	fp, [sp]
  40112e:	f842 e001 	str.w	lr, [r2, r1]
	while(pitch_shifts_in[pitch_idx] > 0.0f && pitch_idx < MAX_NUM_SHIFTS)
  401132:	9a07      	ldr	r2, [sp, #28]
		pitch_idx++;  
  401134:	f10b 0b01 	add.w	fp, fp, #1
	while(pitch_shifts_in[pitch_idx] > 0.0f && pitch_idx < MAX_NUM_SHIFTS)
  401138:	ecb2 7a01 	vldmia	r2!, {s14}
  40113c:	eeb5 7ac0 	vcmpe.f32	s14, #0.0
  401140:	9207      	str	r2, [sp, #28]
  401142:	eef1 fa10 	vmrs	APSR_nzcv, fpscr
  401146:	dd07      	ble.n	401158 <create_harmonies+0x3b0>
  401148:	9a05      	ldr	r2, [sp, #20]
  40114a:	f1bb 0f0b 	cmp.w	fp, #11
  40114e:	f102 0204 	add.w	r2, r2, #4
  401152:	9205      	str	r2, [sp, #20]
  401154:	f47f aeab 	bne.w	400eae <create_harmonies+0x106>
  401158:	4b3d      	ldr	r3, [pc, #244]	; (401250 <create_harmonies+0x4a8>)
  40115a:	f8c3 a000 	str.w	sl, [r3]
  40115e:	9a0b      	ldr	r2, [sp, #44]	; 0x2c
	}
	
	for(i = 0; i < WIN_SIZE; i++)
	{
		output[i] = output_ring_buffer[readPos]; 	
		output_ring_buffer[readPos] = 0.0f;
  401160:	2400      	movs	r4, #0
  401162:	493c      	ldr	r1, [pc, #240]	; (401254 <create_harmonies+0x4ac>)
  401164:	4e3c      	ldr	r6, [pc, #240]	; (401258 <create_harmonies+0x4b0>)
  401166:	f502 5580 	add.w	r5, r2, #4096	; 0x1000
  40116a:	680b      	ldr	r3, [r1, #0]
		output[i] = output_ring_buffer[readPos]; 	
  40116c:	eb06 0083 	add.w	r0, r6, r3, lsl #2
		readPos = (readPos+1) & RING_BUFFER_MASK;
  401170:	3301      	adds	r3, #1
		output[i] = output_ring_buffer[readPos]; 	
  401172:	6807      	ldr	r7, [r0, #0]
		readPos = (readPos+1) & RING_BUFFER_MASK;
  401174:	f3c3 030b 	ubfx	r3, r3, #0, #12
		output[i] = output_ring_buffer[readPos]; 	
  401178:	f842 7b04 	str.w	r7, [r2], #4
	for(i = 0; i < WIN_SIZE; i++)
  40117c:	42aa      	cmp	r2, r5
		output_ring_buffer[readPos] = 0.0f;
  40117e:	6004      	str	r4, [r0, #0]
	for(i = 0; i < WIN_SIZE; i++)
  401180:	d1f4      	bne.n	40116c <create_harmonies+0x3c4>
	// variables for next harmonization  
	//if ((pitch_idx-1) > 0)
		//samplesLeftInPeriod = cum_samplesLeftInPeriod / (pitch_idx-1); // average the number of samples left in period 
	
	currentPitch = inputPitch; 
	inputPeriodLength = (uint32_t)(PSOLA_SAMPLE_RATE / currentPitch);
  401182:	ed9f 7a36 	vldr	s14, [pc, #216]	; 40125c <create_harmonies+0x4b4>
	current_num_shifts = pitch_idx; 
	arm_copy_f32(pitch_shifts_in, prev_pitch_shifts, MAX_NUM_SHIFTS); 
  401186:	220b      	movs	r2, #11
	current_num_shifts = pitch_idx; 
  401188:	9c09      	ldr	r4, [sp, #36]	; 0x24
	inputPeriodLength = (uint32_t)(PSOLA_SAMPLE_RATE / currentPitch);
  40118a:	eec7 7a09 	vdiv.f32	s15, s14, s18
  40118e:	600b      	str	r3, [r1, #0]
	current_num_shifts = pitch_idx; 
  401190:	f8c4 b000 	str.w	fp, [r4]
	arm_copy_f32(pitch_shifts_in, prev_pitch_shifts, MAX_NUM_SHIFTS); 
  401194:	9808      	ldr	r0, [sp, #32]
	inputPeriodLength = (uint32_t)(PSOLA_SAMPLE_RATE / currentPitch);
  401196:	4c32      	ldr	r4, [pc, #200]	; (401260 <create_harmonies+0x4b8>)
	arm_copy_f32(pitch_shifts_in, prev_pitch_shifts, MAX_NUM_SHIFTS); 
  401198:	4932      	ldr	r1, [pc, #200]	; (401264 <create_harmonies+0x4bc>)
  40119a:	4b33      	ldr	r3, [pc, #204]	; (401268 <create_harmonies+0x4c0>)
	inputPeriodLength = (uint32_t)(PSOLA_SAMPLE_RATE / currentPitch);
  40119c:	eefc 7ae7 	vcvt.u32.f32	s15, s15
  4011a0:	edc4 7a00 	vstr	s15, [r4]
}
  4011a4:	b00d      	add	sp, #52	; 0x34
  4011a6:	ecbd 8b06 	vpop	{d8-d10}
  4011aa:	e8bd 4ff0 	ldmia.w	sp!, {r4, r5, r6, r7, r8, r9, sl, fp, lr}
	arm_copy_f32(pitch_shifts_in, prev_pitch_shifts, MAX_NUM_SHIFTS); 
  4011ae:	4718      	bx	r3
						if (outPtr < inHalfAway || outPtr > inPtr) {
  4011b0:	45d6      	cmp	lr, sl
  4011b2:	d8ac      	bhi.n	40110e <create_harmonies+0x366>
					outPtr = (outPtr + (uint32_t)((float)inputPeriodLength * periodRatio)) & RING_BUFFER_MASK; 
  4011b4:	9b01      	ldr	r3, [sp, #4]
  4011b6:	449e      	add	lr, r3
					if (pitch_idx == 0)
  4011b8:	9b00      	ldr	r3, [sp, #0]
					outPtr = (outPtr + (uint32_t)((float)inputPeriodLength * periodRatio)) & RING_BUFFER_MASK; 
  4011ba:	f3ce 0e0b 	ubfx	lr, lr, #0, #12
					if (pitch_idx == 0)
  4011be:	2b00      	cmp	r3, #0
  4011c0:	f43f af7e 	beq.w	4010c0 <create_harmonies+0x318>
						for (olaIdx = -inputPeriodLength, w = 0; olaIdx < inputPeriodLength; olaIdx++, w++)
  4011c4:	45c8      	cmp	r8, r9
  4011c6:	dd9c      	ble.n	401102 <create_harmonies+0x35a>
  4011c8:	ebae 0208 	sub.w	r2, lr, r8
  4011cc:	481e      	ldr	r0, [pc, #120]	; (401248 <create_harmonies+0x4a0>)
  4011ce:	eb0e 0708 	add.w	r7, lr, r8
  4011d2:	ebab 060e 	sub.w	r6, fp, lr
								harm_volume * window[w] * input_ring_buffer[(uint32_t)(olaIdx + (int64_t)inPtr + WEIRD_OFFSET) & RING_BUFFER_MASK];
  4011d6:	18b3      	adds	r3, r6, r2
							output_ring_buffer[(uint32_t)(olaIdx + (int64_t)outPtr) & RING_BUFFER_MASK] +=
  4011d8:	f3c2 010b 	ubfx	r1, r2, #0, #12
								harm_volume * window[w] * input_ring_buffer[(uint32_t)(olaIdx + (int64_t)inPtr + WEIRD_OFFSET) & RING_BUFFER_MASK];
  4011dc:	ecb0 7a01 	vldmia	r0!, {s14}
  4011e0:	3201      	adds	r2, #1
  4011e2:	f3c3 030b 	ubfx	r3, r3, #0, #12
							output_ring_buffer[(uint32_t)(olaIdx + (int64_t)outPtr) & RING_BUFFER_MASK] +=
  4011e6:	eb05 0181 	add.w	r1, r5, r1, lsl #2
								harm_volume * window[w] * input_ring_buffer[(uint32_t)(olaIdx + (int64_t)inPtr + WEIRD_OFFSET) & RING_BUFFER_MASK];
  4011ea:	ee27 7a08 	vmul.f32	s14, s14, s16
						for (olaIdx = -inputPeriodLength, w = 0; olaIdx < inputPeriodLength; olaIdx++, w++)
  4011ee:	4297      	cmp	r7, r2
								harm_volume * window[w] * input_ring_buffer[(uint32_t)(olaIdx + (int64_t)inPtr + WEIRD_OFFSET) & RING_BUFFER_MASK];
  4011f0:	eb04 0383 	add.w	r3, r4, r3, lsl #2
							output_ring_buffer[(uint32_t)(olaIdx + (int64_t)outPtr) & RING_BUFFER_MASK] +=
  4011f4:	edd1 7a00 	vldr	s15, [r1]
  4011f8:	edd3 6a00 	vldr	s13, [r3]
  4011fc:	eee7 7a26 	vfma.f32	s15, s14, s13
  401200:	edc1 7a00 	vstr	s15, [r1]
						for (olaIdx = -inputPeriodLength, w = 0; olaIdx < inputPeriodLength; olaIdx++, w++)
  401204:	d1e7      	bne.n	4011d6 <create_harmonies+0x42e>
					if (inHalfAway < RING_BUFFER_SIZE_D2) 
  401206:	f5bc 6f00 	cmp.w	ip, #2048	; 0x800
  40120a:	f4ff af7e 	bcc.w	40110a <create_harmonies+0x362>
						if (outPtr > inPtr && outPtr < inHalfAway) {
  40120e:	45d6      	cmp	lr, sl
  401210:	f67f af4e 	bls.w	4010b0 <create_harmonies+0x308>
  401214:	45f4      	cmp	ip, lr
  401216:	f63f af7a 	bhi.w	40110e <create_harmonies+0x366>
  40121a:	e749      	b.n	4010b0 <create_harmonies+0x308>
					if (outPtr > inPtr && outPtr < inHalfAway) {
  40121c:	45f2      	cmp	sl, lr
  40121e:	f4bf af45 	bcs.w	4010ac <create_harmonies+0x304>
  401222:	45f4      	cmp	ip, lr
  401224:	f63f af73 	bhi.w	40110e <create_harmonies+0x366>
  401228:	e740      	b.n	4010ac <create_harmonies+0x304>
			outPtr = outPtrList[pitch_idx]; 
  40122a:	ea4f 038b 	mov.w	r3, fp, lsl #2
  40122e:	9302      	str	r3, [sp, #8]
  401230:	4b06      	ldr	r3, [pc, #24]	; (40124c <create_harmonies+0x4a4>)
  401232:	f853 e02b 	ldr.w	lr, [r3, fp, lsl #2]
			samplesLeftInPeriod = saved_samplesLeftInPeriod[pitch_idx]; 
  401236:	9b05      	ldr	r3, [sp, #20]
  401238:	681b      	ldr	r3, [r3, #0]
  40123a:	e71c      	b.n	401076 <create_harmonies+0x2ce>
  40123c:	4b0b      	ldr	r3, [pc, #44]	; (40126c <create_harmonies+0x4c4>)
	while(pitch_shifts_in[pitch_idx] > 0.0f && pitch_idx < MAX_NUM_SHIFTS)
  40123e:	f04f 0b00 	mov.w	fp, #0
  401242:	9309      	str	r3, [sp, #36]	; 0x24
  401244:	e78b      	b.n	40115e <create_harmonies+0x3b6>
  401246:	bf00      	nop
  401248:	2041205c 	.word	0x2041205c
  40124c:	2040d000 	.word	0x2040d000
  401250:	20408404 	.word	0x20408404
  401254:	2041202c 	.word	0x2041202c
  401258:	2040e000 	.word	0x2040e000
  40125c:	4735a700 	.word	0x4735a700
  401260:	20408408 	.word	0x20408408
  401264:	20412000 	.word	0x20412000
  401268:	0040314d 	.word	0x0040314d
  40126c:	20408400 	.word	0x20408400

00401270 <_read>:
int __attribute__((weak))
_read (int file, char * ptr, int len); // Remove GCC compiler warning

int __attribute__((weak))
_read (int file, char * ptr, int len)
{
  401270:	e92d 41f0 	stmdb	sp!, {r4, r5, r6, r7, r8, lr}
	int nChars = 0;

	if (file != 0) {
  401274:	b990      	cbnz	r0, 40129c <_read+0x2c>
		return -1;
	}

	for (; len > 0; --len) {
  401276:	2a00      	cmp	r2, #0
  401278:	4690      	mov	r8, r2
  40127a:	dd0d      	ble.n	401298 <_read+0x28>
  40127c:	460c      	mov	r4, r1
  40127e:	188f      	adds	r7, r1, r2
  401280:	4e08      	ldr	r6, [pc, #32]	; (4012a4 <_read+0x34>)
  401282:	4d09      	ldr	r5, [pc, #36]	; (4012a8 <_read+0x38>)
		ptr_get(stdio_base, ptr);
  401284:	4621      	mov	r1, r4
		ptr++;
  401286:	3401      	adds	r4, #1
		ptr_get(stdio_base, ptr);
  401288:	6830      	ldr	r0, [r6, #0]
  40128a:	682b      	ldr	r3, [r5, #0]
  40128c:	4798      	blx	r3
	for (; len > 0; --len) {
  40128e:	42bc      	cmp	r4, r7
  401290:	d1f8      	bne.n	401284 <_read+0x14>
		nChars++;
	}
	return nChars;
}
  401292:	4640      	mov	r0, r8
  401294:	e8bd 81f0 	ldmia.w	sp!, {r4, r5, r6, r7, r8, pc}
	for (; len > 0; --len) {
  401298:	4680      	mov	r8, r0
  40129a:	e7fa      	b.n	401292 <_read+0x22>
		return -1;
  40129c:	f04f 38ff 	mov.w	r8, #4294967295
  4012a0:	e7f7      	b.n	401292 <_read+0x22>
  4012a2:	bf00      	nop
  4012a4:	2045a808 	.word	0x2045a808
  4012a8:	2045a800 	.word	0x2045a800

004012ac <_write>:
int __attribute__((weak))
_write (int file, const char *ptr, int len)
{
	int nChars = 0;

	if ((file != 1) && (file != 2) && (file!=3)) {
  4012ac:	3801      	subs	r0, #1
  4012ae:	2802      	cmp	r0, #2
  4012b0:	d81e      	bhi.n	4012f0 <_write+0x44>
{
  4012b2:	e92d 41f0 	stmdb	sp!, {r4, r5, r6, r7, r8, lr}
  4012b6:	4615      	mov	r5, r2
		return -1;
	}

	for (; len != 0; --len) {
  4012b8:	b1ba      	cbz	r2, 4012ea <_write+0x3e>
  4012ba:	460e      	mov	r6, r1
  4012bc:	460c      	mov	r4, r1
  4012be:	f8df 803c 	ldr.w	r8, [pc, #60]	; 4012fc <_write+0x50>
  4012c2:	4f0d      	ldr	r7, [pc, #52]	; (4012f8 <_write+0x4c>)
  4012c4:	e001      	b.n	4012ca <_write+0x1e>
  4012c6:	3d01      	subs	r5, #1
  4012c8:	d00d      	beq.n	4012e6 <_write+0x3a>
		if (ptr_put(stdio_base, *ptr++) < 0) {
  4012ca:	f814 1b01 	ldrb.w	r1, [r4], #1
  4012ce:	f8d8 0000 	ldr.w	r0, [r8]
  4012d2:	683b      	ldr	r3, [r7, #0]
  4012d4:	4798      	blx	r3
  4012d6:	2800      	cmp	r0, #0
  4012d8:	eba4 0006 	sub.w	r0, r4, r6
  4012dc:	daf3      	bge.n	4012c6 <_write+0x1a>
		return -1;
  4012de:	f04f 30ff 	mov.w	r0, #4294967295
  4012e2:	e8bd 81f0 	ldmia.w	sp!, {r4, r5, r6, r7, r8, pc}
  4012e6:	e8bd 81f0 	ldmia.w	sp!, {r4, r5, r6, r7, r8, pc}
	for (; len != 0; --len) {
  4012ea:	4610      	mov	r0, r2
			return -1;
		}
		++nChars;
	}
	return nChars;
}
  4012ec:	e8bd 81f0 	ldmia.w	sp!, {r4, r5, r6, r7, r8, pc}
		return -1;
  4012f0:	f04f 30ff 	mov.w	r0, #4294967295
}
  4012f4:	4770      	bx	lr
  4012f6:	bf00      	nop
  4012f8:	2045a804 	.word	0x2045a804
  4012fc:	2045a808 	.word	0x2045a808

00401300 <wm8904_write_register>:
 *
 * \param uc_register_address Register address to write
 * \param us_data Data to write.
 */
void wm8904_write_register(uint8_t uc_register_address, uint16_t us_data)
{
  401300:	b570      	push	{r4, r5, r6, lr}
  401302:	460b      	mov	r3, r1
  401304:	b086      	sub	sp, #24
	uint8_t uc_temp_data[2];
	twihs_packet_t packet;

	uc_temp_data[0] = (us_data & 0xff00) >> 8;
  401306:	0a0e      	lsrs	r6, r1, #8

	packet.addr[0]     = uc_register_address;
	packet.addr_length = 0x1;
	packet.buffer      = uc_temp_data;
	packet.length      = 0x2;
	packet.chip        = WM8904_SLAVE_ADDRESS;
  401308:	221a      	movs	r2, #26
	uc_temp_data[1] = us_data & 0xff;
  40130a:	f88d 3001 	strb.w	r3, [sp, #1]
	packet.addr_length = 0x1;
  40130e:	2501      	movs	r5, #1
	packet.length      = 0x2;
  401310:	2402      	movs	r4, #2

	twihs_master_write(WM8904_TWIHS, &packet);
  401312:	a901      	add	r1, sp, #4
  401314:	4b07      	ldr	r3, [pc, #28]	; (401334 <wm8904_write_register+0x34>)
	packet.addr[0]     = uc_register_address;
  401316:	f88d 0004 	strb.w	r0, [sp, #4]
	twihs_master_write(WM8904_TWIHS, &packet);
  40131a:	4807      	ldr	r0, [pc, #28]	; (401338 <wm8904_write_register+0x38>)
	uc_temp_data[0] = (us_data & 0xff00) >> 8;
  40131c:	f88d 6000 	strb.w	r6, [sp]
	packet.addr_length = 0x1;
  401320:	9502      	str	r5, [sp, #8]
	packet.buffer      = uc_temp_data;
  401322:	f8cd d00c 	str.w	sp, [sp, #12]
	packet.length      = 0x2;
  401326:	9404      	str	r4, [sp, #16]
	packet.chip        = WM8904_SLAVE_ADDRESS;
  401328:	f88d 2014 	strb.w	r2, [sp, #20]
	twihs_master_write(WM8904_TWIHS, &packet);
  40132c:	4798      	blx	r3
}
  40132e:	b006      	add	sp, #24
  401330:	bd70      	pop	{r4, r5, r6, pc}
  401332:	bf00      	nop
  401334:	004016a5 	.word	0x004016a5
  401338:	40018000 	.word	0x40018000

0040133c <wm8904_read_register>:
 *
 * \param uc_register_address Register address to write
 * \retun Register value.
 */
uint16_t wm8904_read_register(uint8_t uc_register_address)
{
  40133c:	b530      	push	{r4, r5, lr}
  40133e:	b087      	sub	sp, #28

	packet.addr[0]     = uc_register_address;
	packet.addr_length = 0x1;
	packet.buffer      = uc_temp_data;
	packet.length      = 0x2;
	packet.chip        = WM8904_SLAVE_ADDRESS;
  401340:	221a      	movs	r2, #26
	packet.addr_length = 0x1;
  401342:	2501      	movs	r5, #1
	packet.length      = 0x2;
  401344:	2402      	movs	r4, #2
	packet.addr[0]     = uc_register_address;
  401346:	f88d 0004 	strb.w	r0, [sp, #4]

	twihs_master_read(WM8904_TWIHS, &packet);
  40134a:	a901      	add	r1, sp, #4
  40134c:	4b08      	ldr	r3, [pc, #32]	; (401370 <wm8904_read_register+0x34>)
  40134e:	4809      	ldr	r0, [pc, #36]	; (401374 <wm8904_read_register+0x38>)
	packet.addr_length = 0x1;
  401350:	9502      	str	r5, [sp, #8]
	packet.buffer      = uc_temp_data;
  401352:	f8cd d00c 	str.w	sp, [sp, #12]
	packet.length      = 0x2;
  401356:	9404      	str	r4, [sp, #16]
	packet.chip        = WM8904_SLAVE_ADDRESS;
  401358:	f88d 2014 	strb.w	r2, [sp, #20]
	twihs_master_read(WM8904_TWIHS, &packet);
  40135c:	4798      	blx	r3
	us_data = (((uint16_t)uc_temp_data[0] << 8) & 0xff00) | uc_temp_data[1];
  40135e:	f89d 0000 	ldrb.w	r0, [sp]
  401362:	f89d 3001 	ldrb.w	r3, [sp, #1]

	return us_data;
}
  401366:	ea43 2000 	orr.w	r0, r3, r0, lsl #8
  40136a:	b007      	add	sp, #28
  40136c:	bd30      	pop	{r4, r5, pc}
  40136e:	bf00      	nop
  401370:	004015f1 	.word	0x004015f1
  401374:	40018000 	.word	0x40018000

00401378 <wm8904_twi_init>:
 * \brief Initialize TWIHS connect to WM8904.
 *
 * \retun TWIHS_SUCCESS if initialization is complete, error code otherwise.
 */
uint32_t wm8904_twi_init(void)
{
  401378:	b510      	push	{r4, lr}
	pio_configure_pin(WM8904_TK_PIO, WM8904_TK_FLAGS);
  40137a:	f04f 5100 	mov.w	r1, #536870912	; 0x20000000
{
  40137e:	b084      	sub	sp, #16
	pio_configure_pin(WM8904_TK_PIO, WM8904_TK_FLAGS);
  401380:	4c15      	ldr	r4, [pc, #84]	; (4013d8 <wm8904_twi_init+0x60>)
  401382:	2021      	movs	r0, #33	; 0x21
  401384:	47a0      	blx	r4
	pio_configure_pin(WM8904_TF_PIO, WM8904_TF_FLAGS);
  401386:	f04f 5100 	mov.w	r1, #536870912	; 0x20000000
  40138a:	2020      	movs	r0, #32
  40138c:	47a0      	blx	r4
	pio_configure_pin(WM8904_TD_PIO, WM8904_TD_FLAGS);
  40138e:	f04f 5180 	mov.w	r1, #268435456	; 0x10000000
  401392:	207a      	movs	r0, #122	; 0x7a
  401394:	47a0      	blx	r4
	pio_configure_pin(WM8904_RK_PIO, WM8904_RK_FLAGS);
  401396:	f04f 6100 	mov.w	r1, #134217728	; 0x8000000
  40139a:	2016      	movs	r0, #22
  40139c:	47a0      	blx	r4
	pio_configure_pin(WM8904_RF_PIO, WM8904_RF_FLAGS);
  40139e:	f04f 5180 	mov.w	r1, #268435456	; 0x10000000
  4013a2:	2078      	movs	r0, #120	; 0x78
  4013a4:	47a0      	blx	r4
	pio_configure_pin(WM8904_RD_PIO, WM8904_RD_FLAGS);
  4013a6:	f04f 51c0 	mov.w	r1, #402653184	; 0x18000000
  4013aa:	200a      	movs	r0, #10
  4013ac:	47a0      	blx	r4
	pio_configure_pin(WM8904_PCK2_PIO, WM8904_PCK2_FLAGS);
  4013ae:	f04f 5180 	mov.w	r1, #268435456	; 0x10000000
  4013b2:	2012      	movs	r0, #18
  4013b4:	47a0      	blx	r4

static inline uint32_t twihs_master_setup(twihs_master_t p_twihs,
		twihs_master_options_t *p_opt)
{
	p_opt->master_clk = sysclk_get_peripheral_hz();
	p_opt->smbus      = 0;
  4013b6:	2200      	movs	r2, #0
	p_opt->master_clk = sysclk_get_peripheral_hz();
  4013b8:	4908      	ldr	r1, [pc, #32]	; (4013dc <wm8904_twi_init+0x64>)
 *
 * \param ul_id Id (number) of the peripheral clock.
 */
static inline void sysclk_enable_peripheral_clock(uint32_t ul_id)
{
	pmc_enable_periph_clk(ul_id);
  4013ba:	2013      	movs	r0, #19

	twihs_options_t opt;
	opt.master_clk = sysclk_get_cpu_hz();
	opt.speed = WM8904_TWIHS_CLK;
  4013bc:	4c08      	ldr	r4, [pc, #32]	; (4013e0 <wm8904_twi_init+0x68>)
  4013be:	4b09      	ldr	r3, [pc, #36]	; (4013e4 <wm8904_twi_init+0x6c>)
  4013c0:	9101      	str	r1, [sp, #4]
	p_opt->smbus      = 0;
  4013c2:	f88d 200d 	strb.w	r2, [sp, #13]
  4013c6:	9402      	str	r4, [sp, #8]
  4013c8:	4798      	blx	r3
#endif		
	} else {
		// Do Nothing
	}
#endif
	return (twihs_master_init(p_twihs, p_opt));
  4013ca:	a901      	add	r1, sp, #4
  4013cc:	4b06      	ldr	r3, [pc, #24]	; (4013e8 <wm8904_twi_init+0x70>)
  4013ce:	4807      	ldr	r0, [pc, #28]	; (4013ec <wm8904_twi_init+0x74>)
  4013d0:	4798      	blx	r3
	return twihs_master_setup(WM8904_TWIHS, &opt);
}
  4013d2:	b004      	add	sp, #16
  4013d4:	bd10      	pop	{r4, pc}
  4013d6:	bf00      	nop
  4013d8:	00401d2d 	.word	0x00401d2d
  4013dc:	08f0d180 	.word	0x08f0d180
  4013e0:	00061a80 	.word	0x00061a80
  4013e4:	0040237d 	.word	0x0040237d
  4013e8:	00401511 	.word	0x00401511
  4013ec:	40018000 	.word	0x40018000

004013f0 <ssc_reset>:
 * \param p_ssc Pointer to an SSC instance.
 */
void ssc_reset(Ssc *p_ssc)
{
	p_ssc->SSC_CR = SSC_CR_SWRST;
	p_ssc->SSC_CMR = 0;
  4013f0:	2300      	movs	r3, #0
	p_ssc->SSC_CR = SSC_CR_SWRST;
  4013f2:	f44f 4200 	mov.w	r2, #32768	; 0x8000
  4013f6:	6002      	str	r2, [r0, #0]
	p_ssc->SSC_CMR = 0;
  4013f8:	6043      	str	r3, [r0, #4]
	p_ssc->SSC_RCMR = 0;
  4013fa:	6103      	str	r3, [r0, #16]
	p_ssc->SSC_RFMR = 0;
  4013fc:	6143      	str	r3, [r0, #20]
	p_ssc->SSC_TCMR = 0;
  4013fe:	6183      	str	r3, [r0, #24]
	p_ssc->SSC_TFMR = 0;
  401400:	61c3      	str	r3, [r0, #28]
  401402:	4770      	bx	lr

00401404 <ssc_enable_rx>:
 *
 * \param p_ssc Pointer to an SSC instance.
 */
void ssc_enable_rx(Ssc *p_ssc)
{
	p_ssc->SSC_CR = SSC_CR_RXEN;
  401404:	2301      	movs	r3, #1
  401406:	6003      	str	r3, [r0, #0]
  401408:	4770      	bx	lr
  40140a:	bf00      	nop

0040140c <ssc_disable_rx>:
 *
 * \param p_ssc Pointer to an SSC instance.
 */
void ssc_disable_rx(Ssc *p_ssc)
{
	p_ssc->SSC_CR = SSC_CR_RXDIS;
  40140c:	2302      	movs	r3, #2
  40140e:	6003      	str	r3, [r0, #0]
  401410:	4770      	bx	lr
  401412:	bf00      	nop

00401414 <ssc_enable_tx>:
 *
 * \param p_ssc Pointer to an SSC instance.
 */
void ssc_enable_tx(Ssc *p_ssc)
{
	p_ssc->SSC_CR = SSC_CR_TXEN;
  401414:	f44f 7380 	mov.w	r3, #256	; 0x100
  401418:	6003      	str	r3, [r0, #0]
  40141a:	4770      	bx	lr

0040141c <ssc_disable_tx>:
 *
 * \param p_ssc Pointer to an SSC instance.
 */
void ssc_disable_tx(Ssc *p_ssc)
{
	p_ssc->SSC_CR = SSC_CR_TXDIS;
  40141c:	f44f 7300 	mov.w	r3, #512	; 0x200
  401420:	6003      	str	r3, [r0, #0]
  401422:	4770      	bx	lr

00401424 <ssc_set_receiver>:
 * \param p_rx_clk_opt Pointer to the receiver clock configuration structure.
 * \param p_rx_data_frame Pointer to the receiver data frame configuration structure.
 */
void ssc_set_receiver(Ssc *p_ssc, clock_opt_t *p_rx_clk_opt,
		data_frame_opt_t *p_rx_data_frame)
{
  401424:	b4f0      	push	{r4, r5, r6, r7}
	if (p_rx_clk_opt == NULL) {
  401426:	2900      	cmp	r1, #0
  401428:	d02f      	beq.n	40148a <ssc_set_receiver+0x66>
		p_ssc->SSC_RCMR = 0;
	} else {
		p_ssc->SSC_RCMR |= p_rx_clk_opt->ul_cks |
  40142a:	6904      	ldr	r4, [r0, #16]
  40142c:	68cf      	ldr	r7, [r1, #12]
  40142e:	698e      	ldr	r6, [r1, #24]
  401430:	e891 0028 	ldmia.w	r1, {r3, r5}
  401434:	432b      	orrs	r3, r5
  401436:	688d      	ldr	r5, [r1, #8]
  401438:	4323      	orrs	r3, r4
				p_rx_clk_opt->ul_cko | p_rx_clk_opt->ul_cki |
				p_rx_clk_opt->ul_ckg |
				p_rx_clk_opt->ul_start_sel |
				SSC_RCMR_PERIOD(p_rx_clk_opt->ul_period) |
				SSC_RCMR_STTDLY(p_rx_clk_opt->ul_sttdly);
  40143a:	694c      	ldr	r4, [r1, #20]
		p_ssc->SSC_RCMR |= p_rx_clk_opt->ul_cks |
  40143c:	432b      	orrs	r3, r5
				SSC_RCMR_PERIOD(p_rx_clk_opt->ul_period) |
  40143e:	690d      	ldr	r5, [r1, #16]
				SSC_RCMR_STTDLY(p_rx_clk_opt->ul_sttdly);
  401440:	0421      	lsls	r1, r4, #16
		p_ssc->SSC_RCMR |= p_rx_clk_opt->ul_cks |
  401442:	433b      	orrs	r3, r7
				SSC_RCMR_STTDLY(p_rx_clk_opt->ul_sttdly);
  401444:	f401 017f 	and.w	r1, r1, #16711680	; 0xff0000
		p_ssc->SSC_RCMR |= p_rx_clk_opt->ul_cks |
  401448:	4333      	orrs	r3, r6
  40144a:	ea43 6305 	orr.w	r3, r3, r5, lsl #24
  40144e:	430b      	orrs	r3, r1
  401450:	6103      	str	r3, [r0, #16]
	}

	if (p_rx_data_frame == NULL) {
  401452:	b1ea      	cbz	r2, 401490 <ssc_set_receiver+0x6c>
		p_ssc->SSC_RFMR = 0;
	} else {
		p_ssc->SSC_RFMR |= SSC_RFMR_DATLEN(p_rx_data_frame->ul_datlen) |
  401454:	6954      	ldr	r4, [r2, #20]
  401456:	6853      	ldr	r3, [r2, #4]
  401458:	6991      	ldr	r1, [r2, #24]
  40145a:	4323      	orrs	r3, r4
  40145c:	6946      	ldr	r6, [r0, #20]
  40145e:	6814      	ldr	r4, [r2, #0]
  401460:	430b      	orrs	r3, r1
				p_rx_data_frame->ul_msbf |
				SSC_RFMR_DATNB(p_rx_data_frame->ul_datnb) |
  401462:	6891      	ldr	r1, [r2, #8]
		p_ssc->SSC_RFMR |= SSC_RFMR_DATLEN(p_rx_data_frame->ul_datlen) |
  401464:	f004 041f 	and.w	r4, r4, #31
				SSC_RFMR_FSLEN(p_rx_data_frame->ul_fslen) |
				SSC_RFMR_FSLEN_EXT(p_rx_data_frame->ul_fslen_ext) |
  401468:	6915      	ldr	r5, [r2, #16]
		p_ssc->SSC_RFMR |= SSC_RFMR_DATLEN(p_rx_data_frame->ul_datlen) |
  40146a:	4333      	orrs	r3, r6
				SSC_RFMR_FSLEN(p_rx_data_frame->ul_fslen) |
  40146c:	68d2      	ldr	r2, [r2, #12]
				SSC_RFMR_DATNB(p_rx_data_frame->ul_datnb) |
  40146e:	0209      	lsls	r1, r1, #8
		p_ssc->SSC_RFMR |= SSC_RFMR_DATLEN(p_rx_data_frame->ul_datlen) |
  401470:	4323      	orrs	r3, r4
				SSC_RFMR_FSLEN(p_rx_data_frame->ul_fslen) |
  401472:	0412      	lsls	r2, r2, #16
				SSC_RFMR_DATNB(p_rx_data_frame->ul_datnb) |
  401474:	f401 6170 	and.w	r1, r1, #3840	; 0xf00
		p_ssc->SSC_RFMR |= SSC_RFMR_DATLEN(p_rx_data_frame->ul_datlen) |
  401478:	ea43 7305 	orr.w	r3, r3, r5, lsl #28
				SSC_RFMR_FSLEN(p_rx_data_frame->ul_fslen) |
  40147c:	f402 2270 	and.w	r2, r2, #983040	; 0xf0000
		p_ssc->SSC_RFMR |= SSC_RFMR_DATLEN(p_rx_data_frame->ul_datlen) |
  401480:	430b      	orrs	r3, r1
  401482:	4313      	orrs	r3, r2
				p_rx_data_frame->ul_fsos |
				p_rx_data_frame->ul_fsedge;
	}
}
  401484:	bcf0      	pop	{r4, r5, r6, r7}
		p_ssc->SSC_RFMR |= SSC_RFMR_DATLEN(p_rx_data_frame->ul_datlen) |
  401486:	6143      	str	r3, [r0, #20]
}
  401488:	4770      	bx	lr
		p_ssc->SSC_RCMR = 0;
  40148a:	6101      	str	r1, [r0, #16]
	if (p_rx_data_frame == NULL) {
  40148c:	2a00      	cmp	r2, #0
  40148e:	d1e1      	bne.n	401454 <ssc_set_receiver+0x30>
		p_ssc->SSC_RFMR = 0;
  401490:	6142      	str	r2, [r0, #20]
}
  401492:	bcf0      	pop	{r4, r5, r6, r7}
  401494:	4770      	bx	lr
  401496:	bf00      	nop

00401498 <ssc_set_transmitter>:
 * \param p_tx_clk_opt Pointer to the transmitter clock configuration structure.
 * \param p_tx_data_frame Pointer to the transmitter data frame configuration structure.
 */
void ssc_set_transmitter(Ssc *p_ssc, clock_opt_t *p_tx_clk_opt,
		data_frame_opt_t *p_tx_data_frame)
{
  401498:	b4f0      	push	{r4, r5, r6, r7}
	if (p_tx_clk_opt == NULL) {
  40149a:	2900      	cmp	r1, #0
  40149c:	d02f      	beq.n	4014fe <ssc_set_transmitter+0x66>
		p_ssc->SSC_TCMR = 0;
	} else {
		p_ssc->SSC_TCMR |= p_tx_clk_opt->ul_cks |
  40149e:	6984      	ldr	r4, [r0, #24]
  4014a0:	68cf      	ldr	r7, [r1, #12]
  4014a2:	698e      	ldr	r6, [r1, #24]
  4014a4:	e891 0028 	ldmia.w	r1, {r3, r5}
  4014a8:	432b      	orrs	r3, r5
  4014aa:	688d      	ldr	r5, [r1, #8]
  4014ac:	4323      	orrs	r3, r4
				p_tx_clk_opt->ul_cko | p_tx_clk_opt->ul_cki |
				p_tx_clk_opt->ul_ckg |
				p_tx_clk_opt->ul_start_sel |
				SSC_TCMR_PERIOD(p_tx_clk_opt->ul_period) |
				SSC_TCMR_STTDLY(p_tx_clk_opt->ul_sttdly);
  4014ae:	694c      	ldr	r4, [r1, #20]
		p_ssc->SSC_TCMR |= p_tx_clk_opt->ul_cks |
  4014b0:	432b      	orrs	r3, r5
				SSC_TCMR_PERIOD(p_tx_clk_opt->ul_period) |
  4014b2:	690d      	ldr	r5, [r1, #16]
				SSC_TCMR_STTDLY(p_tx_clk_opt->ul_sttdly);
  4014b4:	0421      	lsls	r1, r4, #16
		p_ssc->SSC_TCMR |= p_tx_clk_opt->ul_cks |
  4014b6:	433b      	orrs	r3, r7
				SSC_TCMR_STTDLY(p_tx_clk_opt->ul_sttdly);
  4014b8:	f401 017f 	and.w	r1, r1, #16711680	; 0xff0000
		p_ssc->SSC_TCMR |= p_tx_clk_opt->ul_cks |
  4014bc:	4333      	orrs	r3, r6
  4014be:	ea43 6305 	orr.w	r3, r3, r5, lsl #24
  4014c2:	430b      	orrs	r3, r1
  4014c4:	6183      	str	r3, [r0, #24]
	}

	if (p_tx_data_frame == NULL) {
  4014c6:	b1ea      	cbz	r2, 401504 <ssc_set_transmitter+0x6c>
		p_ssc->SSC_TFMR = 0;
	} else {
		p_ssc->SSC_TFMR |= SSC_RFMR_DATLEN(p_tx_data_frame->ul_datlen) |
  4014c8:	6954      	ldr	r4, [r2, #20]
  4014ca:	6853      	ldr	r3, [r2, #4]
  4014cc:	6991      	ldr	r1, [r2, #24]
  4014ce:	4323      	orrs	r3, r4
  4014d0:	69c6      	ldr	r6, [r0, #28]
  4014d2:	6814      	ldr	r4, [r2, #0]
  4014d4:	430b      	orrs	r3, r1
				p_tx_data_frame->ul_msbf |
				SSC_TFMR_DATNB(p_tx_data_frame->ul_datnb) |
  4014d6:	6891      	ldr	r1, [r2, #8]
		p_ssc->SSC_TFMR |= SSC_RFMR_DATLEN(p_tx_data_frame->ul_datlen) |
  4014d8:	f004 041f 	and.w	r4, r4, #31
				SSC_TFMR_FSLEN(p_tx_data_frame->ul_fslen) |
				SSC_TFMR_FSLEN_EXT(p_tx_data_frame->ul_fslen_ext) |
  4014dc:	6915      	ldr	r5, [r2, #16]
		p_ssc->SSC_TFMR |= SSC_RFMR_DATLEN(p_tx_data_frame->ul_datlen) |
  4014de:	4333      	orrs	r3, r6
				SSC_TFMR_FSLEN(p_tx_data_frame->ul_fslen) |
  4014e0:	68d2      	ldr	r2, [r2, #12]
				SSC_TFMR_DATNB(p_tx_data_frame->ul_datnb) |
  4014e2:	0209      	lsls	r1, r1, #8
		p_ssc->SSC_TFMR |= SSC_RFMR_DATLEN(p_tx_data_frame->ul_datlen) |
  4014e4:	4323      	orrs	r3, r4
				SSC_TFMR_FSLEN(p_tx_data_frame->ul_fslen) |
  4014e6:	0412      	lsls	r2, r2, #16
				SSC_TFMR_DATNB(p_tx_data_frame->ul_datnb) |
  4014e8:	f401 6170 	and.w	r1, r1, #3840	; 0xf00
		p_ssc->SSC_TFMR |= SSC_RFMR_DATLEN(p_tx_data_frame->ul_datlen) |
  4014ec:	ea43 7305 	orr.w	r3, r3, r5, lsl #28
				SSC_TFMR_FSLEN(p_tx_data_frame->ul_fslen) |
  4014f0:	f402 2270 	and.w	r2, r2, #983040	; 0xf0000
		p_ssc->SSC_TFMR |= SSC_RFMR_DATLEN(p_tx_data_frame->ul_datlen) |
  4014f4:	430b      	orrs	r3, r1
  4014f6:	4313      	orrs	r3, r2
				p_tx_data_frame->ul_fsos |
				p_tx_data_frame->ul_fsedge;
	}
}
  4014f8:	bcf0      	pop	{r4, r5, r6, r7}
		p_ssc->SSC_TFMR |= SSC_RFMR_DATLEN(p_tx_data_frame->ul_datlen) |
  4014fa:	61c3      	str	r3, [r0, #28]
}
  4014fc:	4770      	bx	lr
		p_ssc->SSC_TCMR = 0;
  4014fe:	6181      	str	r1, [r0, #24]
	if (p_tx_data_frame == NULL) {
  401500:	2a00      	cmp	r2, #0
  401502:	d1e1      	bne.n	4014c8 <ssc_set_transmitter+0x30>
		p_ssc->SSC_TFMR = 0;
  401504:	61c2      	str	r2, [r0, #28]
}
  401506:	bcf0      	pop	{r4, r5, r6, r7}
  401508:	4770      	bx	lr
  40150a:	bf00      	nop

0040150c <ssc_disable_interrupt>:
 * \param p_ssc Pointer to an SSC instance.
 * \param ul_sources Interrupts to be enabled.
 */
void ssc_disable_interrupt(Ssc *p_ssc, uint32_t ul_sources)
{
	p_ssc->SSC_IDR = ul_sources;
  40150c:	6481      	str	r1, [r0, #72]	; 0x48
  40150e:	4770      	bx	lr

00401510 <twihs_master_init>:
 * \param p_opt Options for initializing the TWIHS module (see \ref twihs_options_t).
 *
 * \return TWIHS_SUCCESS if initialization is complete, error code otherwise.
 */
uint32_t twihs_master_init(Twihs *p_twihs, const twihs_options_t *p_opt)
{
  401510:	b4f0      	push	{r4, r5, r6, r7}
	uint32_t status = TWIHS_SUCCESS;

	/* Disable TWIHS interrupts */
	p_twihs->TWIHS_IDR = ~0UL;
  401512:	f04f 33ff 	mov.w	r3, #4294967295
 * \param p_twihs Pointer to a TWIHS instance.
 */
void twihs_reset(Twihs *p_twihs)
{
	/* Set SWRST bit to reset TWIHS peripheral */
	p_twihs->TWIHS_CR = TWIHS_CR_SWRST;
  401516:	2680      	movs	r6, #128	; 0x80
	p_twihs->TWIHS_CR = TWIHS_CR_MSEN;
  401518:	2204      	movs	r2, #4
	p_twihs->TWIHS_CR = TWIHS_CR_MSDIS;
  40151a:	2508      	movs	r5, #8
	p_twihs->TWIHS_CR = TWIHS_CR_SVDIS;
  40151c:	2420      	movs	r4, #32
	p_twihs->TWIHS_IDR = ~0UL;
  40151e:	6283      	str	r3, [r0, #40]	; 0x28
	if (ul_speed > I2C_FAST_MODE_SPEED) {
  401520:	4b2f      	ldr	r3, [pc, #188]	; (4015e0 <twihs_master_init+0xd0>)
	p_twihs->TWIHS_SR;
  401522:	6a07      	ldr	r7, [r0, #32]
	p_twihs->TWIHS_CR = TWIHS_CR_SWRST;
  401524:	6006      	str	r6, [r0, #0]
	p_twihs->TWIHS_RHR;
  401526:	6b06      	ldr	r6, [r0, #48]	; 0x30
	p_twihs->TWIHS_CR = TWIHS_CR_MSDIS;
  401528:	6005      	str	r5, [r0, #0]
	p_twihs->TWIHS_CR = TWIHS_CR_SVDIS;
  40152a:	6004      	str	r4, [r0, #0]
	p_twihs->TWIHS_CR = TWIHS_CR_MSEN;
  40152c:	6002      	str	r2, [r0, #0]
	if (twihs_set_speed(p_twihs, p_opt->speed, p_opt->master_clk) == FAIL) {
  40152e:	684a      	ldr	r2, [r1, #4]
	if (ul_speed > I2C_FAST_MODE_SPEED) {
  401530:	429a      	cmp	r2, r3
  401532:	d84d      	bhi.n	4015d0 <twihs_master_init+0xc0>
	if (ul_speed > LOW_LEVEL_TIME_LIMIT) {
  401534:	4c2b      	ldr	r4, [pc, #172]	; (4015e4 <twihs_master_init+0xd4>)
	if (twihs_set_speed(p_twihs, p_opt->speed, p_opt->master_clk) == FAIL) {
  401536:	680b      	ldr	r3, [r1, #0]
	if (ul_speed > LOW_LEVEL_TIME_LIMIT) {
  401538:	42a2      	cmp	r2, r4
  40153a:	d92e      	bls.n	40159a <twihs_master_init+0x8a>
		chdiv = ul_mck / ((ul_speed + (ul_speed - LOW_LEVEL_TIME_LIMIT)) * TWIHS_CLK_DIVIDER) - TWIHS_CLK_CALC_ARGU;
  40153c:	4c2a      	ldr	r4, [pc, #168]	; (4015e8 <twihs_master_init+0xd8>)
		cldiv = ul_mck / (LOW_LEVEL_TIME_LIMIT * TWIHS_CLK_DIVIDER) - TWIHS_CLK_CALC_ARGU;
  40153e:	492b      	ldr	r1, [pc, #172]	; (4015ec <twihs_master_init+0xdc>)
		chdiv = ul_mck / ((ul_speed + (ul_speed - LOW_LEVEL_TIME_LIMIT)) * TWIHS_CLK_DIVIDER) - TWIHS_CLK_CALC_ARGU;
  401540:	4414      	add	r4, r2
		cldiv = ul_mck / (LOW_LEVEL_TIME_LIMIT * TWIHS_CLK_DIVIDER) - TWIHS_CLK_CALC_ARGU;
  401542:	fba1 2103 	umull	r2, r1, r1, r3
		chdiv = ul_mck / ((ul_speed + (ul_speed - LOW_LEVEL_TIME_LIMIT)) * TWIHS_CLK_DIVIDER) - TWIHS_CLK_CALC_ARGU;
  401546:	00a4      	lsls	r4, r4, #2
		cldiv = ul_mck / (LOW_LEVEL_TIME_LIMIT * TWIHS_CLK_DIVIDER) - TWIHS_CLK_CALC_ARGU;
  401548:	0b89      	lsrs	r1, r1, #14
		chdiv = ul_mck / ((ul_speed + (ul_speed - LOW_LEVEL_TIME_LIMIT)) * TWIHS_CLK_DIVIDER) - TWIHS_CLK_CALC_ARGU;
  40154a:	fbb3 f3f4 	udiv	r3, r3, r4
		cldiv = ul_mck / (LOW_LEVEL_TIME_LIMIT * TWIHS_CLK_DIVIDER) - TWIHS_CLK_CALC_ARGU;
  40154e:	3903      	subs	r1, #3
		chdiv = ul_mck / ((ul_speed + (ul_speed - LOW_LEVEL_TIME_LIMIT)) * TWIHS_CLK_DIVIDER) - TWIHS_CLK_CALC_ARGU;
  401550:	3b03      	subs	r3, #3
		while ((cldiv > TWIHS_CLK_DIV_MAX) && (ckdiv < TWIHS_CLK_DIV_MIN)) {
  401552:	29ff      	cmp	r1, #255	; 0xff
  401554:	d940      	bls.n	4015d8 <twihs_master_init+0xc8>
  401556:	2200      	movs	r2, #0
  401558:	e000      	b.n	40155c <twihs_master_init+0x4c>
  40155a:	b13c      	cbz	r4, 40156c <twihs_master_init+0x5c>
			ckdiv++;
  40155c:	3201      	adds	r2, #1
			cldiv /= TWIHS_CLK_DIVIDER;
  40155e:	0849      	lsrs	r1, r1, #1
		while ((cldiv > TWIHS_CLK_DIV_MAX) && (ckdiv < TWIHS_CLK_DIV_MIN)) {
  401560:	2a06      	cmp	r2, #6
  401562:	bf8c      	ite	hi
  401564:	2400      	movhi	r4, #0
  401566:	2401      	movls	r4, #1
  401568:	29ff      	cmp	r1, #255	; 0xff
  40156a:	d8f6      	bhi.n	40155a <twihs_master_init+0x4a>
		while ((chdiv > TWIHS_CLK_DIV_MAX) && (ckdiv < TWIHS_CLK_DIV_MIN)) {
  40156c:	2bff      	cmp	r3, #255	; 0xff
  40156e:	d907      	bls.n	401580 <twihs_master_init+0x70>
  401570:	b914      	cbnz	r4, 401578 <twihs_master_init+0x68>
  401572:	e005      	b.n	401580 <twihs_master_init+0x70>
  401574:	2a06      	cmp	r2, #6
  401576:	d803      	bhi.n	401580 <twihs_master_init+0x70>
			chdiv /= TWIHS_CLK_DIVIDER;
  401578:	085b      	lsrs	r3, r3, #1
			ckdiv++;
  40157a:	3201      	adds	r2, #1
		while ((chdiv > TWIHS_CLK_DIV_MAX) && (ckdiv < TWIHS_CLK_DIV_MIN)) {
  40157c:	2bff      	cmp	r3, #255	; 0xff
  40157e:	d8f9      	bhi.n	401574 <twihs_master_init+0x64>
				TWIHS_CWGR_CLDIV(cldiv) | TWIHS_CWGR_CHDIV(chdiv) |
  401580:	021b      	lsls	r3, r3, #8
	uint32_t status = TWIHS_SUCCESS;
  401582:	2400      	movs	r4, #0
				TWIHS_CWGR_CKDIV(ckdiv);
  401584:	0412      	lsls	r2, r2, #16
				TWIHS_CWGR_CLDIV(cldiv) | TWIHS_CWGR_CHDIV(chdiv) |
  401586:	b29b      	uxth	r3, r3
				TWIHS_CWGR_CKDIV(ckdiv);
  401588:	f402 22e0 	and.w	r2, r2, #458752	; 0x70000
				TWIHS_CWGR_CLDIV(cldiv) | TWIHS_CWGR_CHDIV(chdiv) |
  40158c:	b2c9      	uxtb	r1, r1
  40158e:	4313      	orrs	r3, r2
  401590:	430b      	orrs	r3, r1
		p_twihs->TWIHS_CWGR =
  401592:	6103      	str	r3, [r0, #16]
}
  401594:	4620      	mov	r0, r4
  401596:	bcf0      	pop	{r4, r5, r6, r7}
  401598:	4770      	bx	lr
		c_lh_div = ul_mck / (ul_speed * TWIHS_CLK_DIVIDER) - TWIHS_CLK_CALC_ARGU;
  40159a:	0052      	lsls	r2, r2, #1
  40159c:	fbb3 f3f2 	udiv	r3, r3, r2
  4015a0:	3b03      	subs	r3, #3
		while ((c_lh_div > TWIHS_CLK_DIV_MAX) && (ckdiv < TWIHS_CLK_DIV_MIN)) {
  4015a2:	2200      	movs	r2, #0
  4015a4:	2bff      	cmp	r3, #255	; 0xff
  4015a6:	d802      	bhi.n	4015ae <twihs_master_init+0x9e>
  4015a8:	e008      	b.n	4015bc <twihs_master_init+0xac>
  4015aa:	2a06      	cmp	r2, #6
  4015ac:	d803      	bhi.n	4015b6 <twihs_master_init+0xa6>
			c_lh_div /= TWIHS_CLK_DIVIDER;
  4015ae:	085b      	lsrs	r3, r3, #1
			ckdiv++;
  4015b0:	3201      	adds	r2, #1
		while ((c_lh_div > TWIHS_CLK_DIV_MAX) && (ckdiv < TWIHS_CLK_DIV_MIN)) {
  4015b2:	2bff      	cmp	r3, #255	; 0xff
  4015b4:	d8f9      	bhi.n	4015aa <twihs_master_init+0x9a>
  4015b6:	0412      	lsls	r2, r2, #16
  4015b8:	f402 22e0 	and.w	r2, r2, #458752	; 0x70000
				TWIHS_CWGR_CLDIV(c_lh_div) | TWIHS_CWGR_CHDIV(c_lh_div) |
  4015bc:	0219      	lsls	r1, r3, #8
	uint32_t status = TWIHS_SUCCESS;
  4015be:	2400      	movs	r4, #0
				TWIHS_CWGR_CLDIV(c_lh_div) | TWIHS_CWGR_CHDIV(c_lh_div) |
  4015c0:	b2db      	uxtb	r3, r3
  4015c2:	b289      	uxth	r1, r1
  4015c4:	4313      	orrs	r3, r2
  4015c6:	430b      	orrs	r3, r1
		p_twihs->TWIHS_CWGR =
  4015c8:	6103      	str	r3, [r0, #16]
}
  4015ca:	4620      	mov	r0, r4
  4015cc:	bcf0      	pop	{r4, r5, r6, r7}
  4015ce:	4770      	bx	lr
		status = TWIHS_INVALID_ARGUMENT;
  4015d0:	2401      	movs	r4, #1
}
  4015d2:	4620      	mov	r0, r4
  4015d4:	bcf0      	pop	{r4, r5, r6, r7}
  4015d6:	4770      	bx	lr
		while ((cldiv > TWIHS_CLK_DIV_MAX) && (ckdiv < TWIHS_CLK_DIV_MIN)) {
  4015d8:	2401      	movs	r4, #1
	uint32_t ckdiv = 0;
  4015da:	2200      	movs	r2, #0
  4015dc:	e7c6      	b.n	40156c <twihs_master_init+0x5c>
  4015de:	bf00      	nop
  4015e0:	00061a80 	.word	0x00061a80
  4015e4:	0005dc00 	.word	0x0005dc00
  4015e8:	3ffd1200 	.word	0x3ffd1200
  4015ec:	057619f1 	.word	0x057619f1

004015f0 <twihs_master_read>:
	uint32_t status, cnt = p_packet->length;
  4015f0:	68ca      	ldr	r2, [r1, #12]
	if (cnt == 0) {
  4015f2:	2a00      	cmp	r2, #0
  4015f4:	d053      	beq.n	40169e <twihs_master_read+0xae>
{
  4015f6:	b470      	push	{r4, r5, r6}
	p_twihs->TWIHS_MMR = 0;
  4015f8:	2600      	movs	r6, #0
	uint8_t *buffer = p_packet->buffer;
  4015fa:	688c      	ldr	r4, [r1, #8]
	p_twihs->TWIHS_MMR = 0;
  4015fc:	6046      	str	r6, [r0, #4]
			((p_packet->addr_length << TWIHS_MMR_IADRSZ_Pos) &
  4015fe:	684b      	ldr	r3, [r1, #4]
	p_twihs->TWIHS_MMR = TWIHS_MMR_MREAD | TWIHS_MMR_DADR(p_packet->chip) |
  401600:	7c0d      	ldrb	r5, [r1, #16]
			((p_packet->addr_length << TWIHS_MMR_IADRSZ_Pos) &
  401602:	021b      	lsls	r3, r3, #8
	p_twihs->TWIHS_MMR = TWIHS_MMR_MREAD | TWIHS_MMR_DADR(p_packet->chip) |
  401604:	042d      	lsls	r5, r5, #16
			((p_packet->addr_length << TWIHS_MMR_IADRSZ_Pos) &
  401606:	f403 7340 	and.w	r3, r3, #768	; 0x300
	p_twihs->TWIHS_MMR = TWIHS_MMR_MREAD | TWIHS_MMR_DADR(p_packet->chip) |
  40160a:	f405 05fe 	and.w	r5, r5, #8323072	; 0x7f0000
  40160e:	f443 5380 	orr.w	r3, r3, #4096	; 0x1000
  401612:	432b      	orrs	r3, r5
  401614:	6043      	str	r3, [r0, #4]
	p_twihs->TWIHS_IADR = 0;
  401616:	60c6      	str	r6, [r0, #12]
	p_twihs->TWIHS_IADR = twihs_mk_addr(p_packet->addr, p_packet->addr_length);
  401618:	684b      	ldr	r3, [r1, #4]
	if (len == 0)
  40161a:	b99b      	cbnz	r3, 401644 <twihs_master_read+0x54>
		return 0;
  40161c:	461d      	mov	r5, r3
	p_twihs->TWIHS_CR = TWIHS_CR_START;
  40161e:	2301      	movs	r3, #1
	p_twihs->TWIHS_IADR = twihs_mk_addr(p_packet->addr, p_packet->addr_length);
  401620:	60c5      	str	r5, [r0, #12]
	p_twihs->TWIHS_CR = TWIHS_CR_START;
  401622:	6003      	str	r3, [r0, #0]
		status = p_twihs->TWIHS_SR;
  401624:	6a03      	ldr	r3, [r0, #32]
		if (status & TWIHS_SR_NACK) {
  401626:	05d9      	lsls	r1, r3, #23
  401628:	d41f      	bmi.n	40166a <twihs_master_read+0x7a>
  40162a:	2a01      	cmp	r2, #1
  40162c:	d020      	beq.n	401670 <twihs_master_read+0x80>
  40162e:	f247 5130 	movw	r1, #30000	; 0x7530
		if (!(status & TWIHS_SR_RXRDY)) {
  401632:	079e      	lsls	r6, r3, #30
  401634:	d412      	bmi.n	40165c <twihs_master_read+0x6c>
		status = p_twihs->TWIHS_SR;
  401636:	6a03      	ldr	r3, [r0, #32]
		if (status & TWIHS_SR_NACK) {
  401638:	05dd      	lsls	r5, r3, #23
  40163a:	d416      	bmi.n	40166a <twihs_master_read+0x7a>
		if (!timeout--) {
  40163c:	3901      	subs	r1, #1
  40163e:	d1f8      	bne.n	401632 <twihs_master_read+0x42>
			return TWIHS_ERROR_TIMEOUT;
  401640:	2009      	movs	r0, #9
  401642:	e02a      	b.n	40169a <twihs_master_read+0xaa>
	if (len > 1) {
  401644:	2b01      	cmp	r3, #1
	val = addr[0];
  401646:	780d      	ldrb	r5, [r1, #0]
	if (len > 1) {
  401648:	dde9      	ble.n	40161e <twihs_master_read+0x2e>
		val |= addr[1];
  40164a:	784e      	ldrb	r6, [r1, #1]
	if (len > 2) {
  40164c:	2b02      	cmp	r3, #2
		val |= addr[1];
  40164e:	ea46 2505 	orr.w	r5, r6, r5, lsl #8
	if (len > 2) {
  401652:	d0e4      	beq.n	40161e <twihs_master_read+0x2e>
		val |= addr[2];
  401654:	788b      	ldrb	r3, [r1, #2]
  401656:	ea43 2505 	orr.w	r5, r3, r5, lsl #8
  40165a:	e7e0      	b.n	40161e <twihs_master_read+0x2e>
		*buffer++ = p_twihs->TWIHS_RHR;
  40165c:	6b03      	ldr	r3, [r0, #48]	; 0x30
		cnt--;
  40165e:	3a01      	subs	r2, #1
		*buffer++ = p_twihs->TWIHS_RHR;
  401660:	f804 3b01 	strb.w	r3, [r4], #1
		status = p_twihs->TWIHS_SR;
  401664:	6a03      	ldr	r3, [r0, #32]
		if (status & TWIHS_SR_NACK) {
  401666:	05d9      	lsls	r1, r3, #23
  401668:	d5df      	bpl.n	40162a <twihs_master_read+0x3a>
			return TWIHS_RECEIVE_NACK;
  40166a:	2005      	movs	r0, #5
}
  40166c:	bc70      	pop	{r4, r5, r6}
  40166e:	4770      	bx	lr
			p_twihs->TWIHS_CR = TWIHS_CR_STOP;
  401670:	2102      	movs	r1, #2
		if (!(status & TWIHS_SR_RXRDY)) {
  401672:	079d      	lsls	r5, r3, #30
		if (status & TWIHS_SR_NACK) {
  401674:	f247 5230 	movw	r2, #30000	; 0x7530
			p_twihs->TWIHS_CR = TWIHS_CR_STOP;
  401678:	6001      	str	r1, [r0, #0]
		if (!(status & TWIHS_SR_RXRDY)) {
  40167a:	d407      	bmi.n	40168c <twihs_master_read+0x9c>
		status = p_twihs->TWIHS_SR;
  40167c:	6a03      	ldr	r3, [r0, #32]
		if (status & TWIHS_SR_NACK) {
  40167e:	05de      	lsls	r6, r3, #23
  401680:	d4f3      	bmi.n	40166a <twihs_master_read+0x7a>
		if (!timeout--) {
  401682:	3a01      	subs	r2, #1
  401684:	d0dc      	beq.n	401640 <twihs_master_read+0x50>
		if (!(status & TWIHS_SR_RXRDY)) {
  401686:	079d      	lsls	r5, r3, #30
			p_twihs->TWIHS_CR = TWIHS_CR_STOP;
  401688:	6001      	str	r1, [r0, #0]
		if (!(status & TWIHS_SR_RXRDY)) {
  40168a:	d5f7      	bpl.n	40167c <twihs_master_read+0x8c>
		*buffer++ = p_twihs->TWIHS_RHR;
  40168c:	6b03      	ldr	r3, [r0, #48]	; 0x30
  40168e:	7023      	strb	r3, [r4, #0]
	while (!(p_twihs->TWIHS_SR & TWIHS_SR_TXCOMP)) {
  401690:	6a03      	ldr	r3, [r0, #32]
  401692:	07db      	lsls	r3, r3, #31
  401694:	d5fc      	bpl.n	401690 <twihs_master_read+0xa0>
	p_twihs->TWIHS_SR;
  401696:	6a03      	ldr	r3, [r0, #32]
	return TWIHS_SUCCESS;
  401698:	2000      	movs	r0, #0
}
  40169a:	bc70      	pop	{r4, r5, r6}
  40169c:	4770      	bx	lr
		return TWIHS_INVALID_ARGUMENT;
  40169e:	2001      	movs	r0, #1
  4016a0:	4770      	bx	lr
  4016a2:	bf00      	nop

004016a4 <twihs_master_write>:
{
  4016a4:	4603      	mov	r3, r0
	uint32_t status, cnt = p_packet->length;
  4016a6:	68c8      	ldr	r0, [r1, #12]
	if (cnt == 0) {
  4016a8:	2800      	cmp	r0, #0
  4016aa:	d034      	beq.n	401716 <twihs_master_write+0x72>
{
  4016ac:	b470      	push	{r4, r5, r6}
	p_twihs->TWIHS_MMR = 0;
  4016ae:	2600      	movs	r6, #0
	uint8_t *buffer = p_packet->buffer;
  4016b0:	688c      	ldr	r4, [r1, #8]
	p_twihs->TWIHS_MMR = 0;
  4016b2:	605e      	str	r6, [r3, #4]
	p_twihs->TWIHS_MMR = TWIHS_MMR_DADR(p_packet->chip) |
  4016b4:	7c0a      	ldrb	r2, [r1, #16]
			((p_packet->addr_length << TWIHS_MMR_IADRSZ_Pos) &
  4016b6:	684d      	ldr	r5, [r1, #4]
	p_twihs->TWIHS_MMR = TWIHS_MMR_DADR(p_packet->chip) |
  4016b8:	0412      	lsls	r2, r2, #16
			((p_packet->addr_length << TWIHS_MMR_IADRSZ_Pos) &
  4016ba:	022d      	lsls	r5, r5, #8
	p_twihs->TWIHS_MMR = TWIHS_MMR_DADR(p_packet->chip) |
  4016bc:	f402 02fe 	and.w	r2, r2, #8323072	; 0x7f0000
			((p_packet->addr_length << TWIHS_MMR_IADRSZ_Pos) &
  4016c0:	f405 7540 	and.w	r5, r5, #768	; 0x300
	p_twihs->TWIHS_MMR = TWIHS_MMR_DADR(p_packet->chip) |
  4016c4:	432a      	orrs	r2, r5
  4016c6:	605a      	str	r2, [r3, #4]
	p_twihs->TWIHS_IADR = 0;
  4016c8:	60de      	str	r6, [r3, #12]
	p_twihs->TWIHS_IADR = twihs_mk_addr(p_packet->addr, p_packet->addr_length);
  4016ca:	684a      	ldr	r2, [r1, #4]
	if (len == 0)
  4016cc:	b98a      	cbnz	r2, 4016f2 <twihs_master_write+0x4e>
		return 0;
  4016ce:	4615      	mov	r5, r2
	p_twihs->TWIHS_IADR = twihs_mk_addr(p_packet->addr, p_packet->addr_length);
  4016d0:	60dd      	str	r5, [r3, #12]
		status = p_twihs->TWIHS_SR;
  4016d2:	6a1a      	ldr	r2, [r3, #32]
		if (status & TWIHS_SR_NACK) {
  4016d4:	05d6      	lsls	r6, r2, #23
  4016d6:	d409      	bmi.n	4016ec <twihs_master_write+0x48>
		if (!(status & TWIHS_SR_TXRDY)) {
  4016d8:	0755      	lsls	r5, r2, #29
  4016da:	d5fa      	bpl.n	4016d2 <twihs_master_write+0x2e>
		p_twihs->TWIHS_THR = *buffer++;
  4016dc:	f814 2b01 	ldrb.w	r2, [r4], #1
	while (cnt > 0) {
  4016e0:	3801      	subs	r0, #1
		p_twihs->TWIHS_THR = *buffer++;
  4016e2:	635a      	str	r2, [r3, #52]	; 0x34
	while (cnt > 0) {
  4016e4:	d013      	beq.n	40170e <twihs_master_write+0x6a>
		status = p_twihs->TWIHS_SR;
  4016e6:	6a1a      	ldr	r2, [r3, #32]
		if (status & TWIHS_SR_NACK) {
  4016e8:	05d6      	lsls	r6, r2, #23
  4016ea:	d5f5      	bpl.n	4016d8 <twihs_master_write+0x34>
			return TWIHS_RECEIVE_NACK;
  4016ec:	2005      	movs	r0, #5
}
  4016ee:	bc70      	pop	{r4, r5, r6}
  4016f0:	4770      	bx	lr
	if (len > 1) {
  4016f2:	2a01      	cmp	r2, #1
	val = addr[0];
  4016f4:	780d      	ldrb	r5, [r1, #0]
	if (len > 1) {
  4016f6:	ddeb      	ble.n	4016d0 <twihs_master_write+0x2c>
		val |= addr[1];
  4016f8:	784e      	ldrb	r6, [r1, #1]
	if (len > 2) {
  4016fa:	2a02      	cmp	r2, #2
		val |= addr[1];
  4016fc:	ea46 2505 	orr.w	r5, r6, r5, lsl #8
	if (len > 2) {
  401700:	d0e6      	beq.n	4016d0 <twihs_master_write+0x2c>
		val |= addr[2];
  401702:	788a      	ldrb	r2, [r1, #2]
  401704:	ea42 2505 	orr.w	r5, r2, r5, lsl #8
  401708:	e7e2      	b.n	4016d0 <twihs_master_write+0x2c>
		if (status & TWIHS_SR_TXRDY) {
  40170a:	0751      	lsls	r1, r2, #29
  40170c:	d405      	bmi.n	40171a <twihs_master_write+0x76>
		status = p_twihs->TWIHS_SR;
  40170e:	6a1a      	ldr	r2, [r3, #32]
		if (status & TWIHS_SR_NACK) {
  401710:	05d4      	lsls	r4, r2, #23
  401712:	d4eb      	bmi.n	4016ec <twihs_master_write+0x48>
  401714:	e7f9      	b.n	40170a <twihs_master_write+0x66>
		return TWIHS_INVALID_ARGUMENT;
  401716:	2001      	movs	r0, #1
  401718:	4770      	bx	lr
	p_twihs->TWIHS_CR = TWIHS_CR_STOP;
  40171a:	2202      	movs	r2, #2
  40171c:	601a      	str	r2, [r3, #0]
	while (!(p_twihs->TWIHS_SR & TWIHS_SR_TXCOMP)) {
  40171e:	6a1a      	ldr	r2, [r3, #32]
  401720:	07d2      	lsls	r2, r2, #31
  401722:	d5fc      	bpl.n	40171e <twihs_master_write+0x7a>
}
  401724:	bc70      	pop	{r4, r5, r6}
  401726:	4770      	bx	lr

00401728 <usart_init_rs232>:
 * \retval 0 on success.
 * \retval 1 on failure.
 */
uint32_t usart_init_rs232(Usart *p_usart,
		const sam_usart_opt_t *p_usart_opt, uint32_t ul_mck)
{
  401728:	b5f0      	push	{r4, r5, r6, r7, lr}
  40172a:	4603      	mov	r3, r0
 *
 * \param p_usart Pointer to a USART instance.
 */
void usart_disable_writeprotect(Usart *p_usart)
{
	p_usart->US_WPMR = US_WPMR_WPKEY_PASSWD;
  40172c:	4c24      	ldr	r4, [pc, #144]	; (4017c0 <usart_init_rs232+0x98>)
	p_usart->US_MR = 0;
  40172e:	2000      	movs	r0, #0
	p_usart->US_CR = US_CR_RSTTX | US_CR_TXDIS;
  401730:	f04f 0e88 	mov.w	lr, #136	; 0x88
	p_usart->US_WPMR = US_WPMR_WPKEY_PASSWD;
  401734:	f8c3 40e4 	str.w	r4, [r3, #228]	; 0xe4
	p_usart->US_CR = US_CR_RSTRX | US_CR_RXDIS;
  401738:	2724      	movs	r7, #36	; 0x24
	p_usart->US_CR = US_CR_RSTSTA;
  40173a:	f44f 7680 	mov.w	r6, #256	; 0x100
	p_usart->US_CR = US_CR_RTSDIS;
  40173e:	f44f 2500 	mov.w	r5, #524288	; 0x80000
	ul_reg_val = 0;
  401742:	4c20      	ldr	r4, [pc, #128]	; (4017c4 <usart_init_rs232+0x9c>)
	p_usart->US_MR = 0;
  401744:	6058      	str	r0, [r3, #4]
	ul_reg_val = 0;
  401746:	6020      	str	r0, [r4, #0]
	p_usart->US_RTOR = 0;
  401748:	6258      	str	r0, [r3, #36]	; 0x24
	p_usart->US_TTGR = 0;
  40174a:	6298      	str	r0, [r3, #40]	; 0x28
	p_usart->US_CR = US_CR_RSTTX | US_CR_TXDIS;
  40174c:	f8c3 e000 	str.w	lr, [r3]
	p_usart->US_CR = US_CR_RSTRX | US_CR_RXDIS;
  401750:	601f      	str	r7, [r3, #0]
	p_usart->US_CR = US_CR_RSTSTA;
  401752:	601e      	str	r6, [r3, #0]
	p_usart->US_CR = US_CR_RTSDIS;
  401754:	601d      	str	r5, [r3, #0]
	if (!p_usart_opt || usart_set_async_baudrate(p_usart,
  401756:	b361      	cbz	r1, 4017b2 <usart_init_rs232+0x8a>
  401758:	6808      	ldr	r0, [r1, #0]
	if (ul_mck >= HIGH_FRQ_SAMPLE_DIV * baudrate) {
  40175a:	0105      	lsls	r5, r0, #4
  40175c:	42aa      	cmp	r2, r5
  40175e:	d31c      	bcc.n	40179a <usart_init_rs232+0x72>
	cd_fp = (8 * ul_mck + (over * baudrate) / 2) / (over * baudrate);
  401760:	0868      	lsrs	r0, r5, #1
	if (cd < MIN_CD_VALUE || cd > MAX_CD_VALUE) {
  401762:	f64f 76fe 	movw	r6, #65534	; 0xfffe
	cd_fp = (8 * ul_mck + (over * baudrate) / 2) / (over * baudrate);
  401766:	eb00 02c2 	add.w	r2, r0, r2, lsl #3
  40176a:	fbb2 f2f5 	udiv	r2, r2, r5
	cd = cd_fp >> 3;
  40176e:	08d5      	lsrs	r5, r2, #3
	if (cd < MIN_CD_VALUE || cd > MAX_CD_VALUE) {
  401770:	1e68      	subs	r0, r5, #1
  401772:	42b0      	cmp	r0, r6
  401774:	d81d      	bhi.n	4017b2 <usart_init_rs232+0x8a>
	p_usart->US_BRGR = (cd << US_BRGR_CD_Pos) | (fp << US_BRGR_FP_Pos);
  401776:	0412      	lsls	r2, r2, #16
	p_usart->US_MR |= ul_reg_val;
  401778:	2000      	movs	r0, #0
	p_usart->US_BRGR = (cd << US_BRGR_CD_Pos) | (fp << US_BRGR_FP_Pos);
  40177a:	f402 22e0 	and.w	r2, r2, #458752	; 0x70000
  40177e:	432a      	orrs	r2, r5
  401780:	621a      	str	r2, [r3, #32]
	ul_reg_val |= p_usart_opt->char_length | p_usart_opt->parity_type |
  401782:	684d      	ldr	r5, [r1, #4]
  401784:	688a      	ldr	r2, [r1, #8]
  401786:	690f      	ldr	r7, [r1, #16]
  401788:	432a      	orrs	r2, r5
			p_usart_opt->channel_mode | p_usart_opt->stop_bits;
  40178a:	68ce      	ldr	r6, [r1, #12]
	p_usart->US_MR |= ul_reg_val;
  40178c:	6859      	ldr	r1, [r3, #4]
	ul_reg_val |= p_usart_opt->char_length | p_usart_opt->parity_type |
  40178e:	433a      	orrs	r2, r7
			p_usart_opt->channel_mode | p_usart_opt->stop_bits;
  401790:	4332      	orrs	r2, r6
	p_usart->US_MR |= ul_reg_val;
  401792:	4311      	orrs	r1, r2
	ul_reg_val |= p_usart_opt->char_length | p_usart_opt->parity_type |
  401794:	6022      	str	r2, [r4, #0]
	p_usart->US_MR |= ul_reg_val;
  401796:	6059      	str	r1, [r3, #4]
  401798:	bdf0      	pop	{r4, r5, r6, r7, pc}
	cd_fp = (8 * ul_mck + (over * baudrate) / 2) / (over * baudrate);
  40179a:	00c0      	lsls	r0, r0, #3
	if (cd < MIN_CD_VALUE || cd > MAX_CD_VALUE) {
  40179c:	f64f 76fe 	movw	r6, #65534	; 0xfffe
	cd_fp = (8 * ul_mck + (over * baudrate) / 2) / (over * baudrate);
  4017a0:	00d2      	lsls	r2, r2, #3
  4017a2:	eb02 0250 	add.w	r2, r2, r0, lsr #1
  4017a6:	fbb2 f2f0 	udiv	r2, r2, r0
	cd = cd_fp >> 3;
  4017aa:	08d5      	lsrs	r5, r2, #3
	if (cd < MIN_CD_VALUE || cd > MAX_CD_VALUE) {
  4017ac:	1e68      	subs	r0, r5, #1
  4017ae:	42b0      	cmp	r0, r6
  4017b0:	d901      	bls.n	4017b6 <usart_init_rs232+0x8e>
		return 1;
  4017b2:	2001      	movs	r0, #1
  4017b4:	bdf0      	pop	{r4, r5, r6, r7, pc}
		p_usart->US_MR |= US_MR_OVER;
  4017b6:	6858      	ldr	r0, [r3, #4]
  4017b8:	f440 2000 	orr.w	r0, r0, #524288	; 0x80000
  4017bc:	6058      	str	r0, [r3, #4]
  4017be:	e7da      	b.n	401776 <usart_init_rs232+0x4e>
  4017c0:	55534100 	.word	0x55534100
  4017c4:	2041c05c 	.word	0x2041c05c

004017c8 <usart_enable_tx>:
	p_usart->US_CR = US_CR_TXEN;
  4017c8:	2340      	movs	r3, #64	; 0x40
  4017ca:	6003      	str	r3, [r0, #0]
  4017cc:	4770      	bx	lr
  4017ce:	bf00      	nop

004017d0 <usart_enable_rx>:
	p_usart->US_CR = US_CR_RXEN;
  4017d0:	2310      	movs	r3, #16
  4017d2:	6003      	str	r3, [r0, #0]
  4017d4:	4770      	bx	lr
  4017d6:	bf00      	nop

004017d8 <usart_enable_interrupt>:
	p_usart->US_IER = ul_sources;
  4017d8:	6081      	str	r1, [r0, #8]
  4017da:	4770      	bx	lr

004017dc <usart_get_status>:
	return p_usart->US_CSR;
  4017dc:	6940      	ldr	r0, [r0, #20]
}
  4017de:	4770      	bx	lr

004017e0 <usart_read>:
	if (!(p_usart->US_CSR & US_CSR_RXRDY)) {
  4017e0:	6943      	ldr	r3, [r0, #20]
  4017e2:	07db      	lsls	r3, r3, #31
  4017e4:	d505      	bpl.n	4017f2 <usart_read+0x12>
	*c = p_usart->US_RHR & US_RHR_RXCHR_Msk;
  4017e6:	6983      	ldr	r3, [r0, #24]
	return 0;
  4017e8:	2000      	movs	r0, #0
	*c = p_usart->US_RHR & US_RHR_RXCHR_Msk;
  4017ea:	f3c3 0308 	ubfx	r3, r3, #0, #9
  4017ee:	600b      	str	r3, [r1, #0]
	return 0;
  4017f0:	4770      	bx	lr
		return 1;
  4017f2:	2001      	movs	r0, #1
}
  4017f4:	4770      	bx	lr
  4017f6:	bf00      	nop

004017f8 <xdmac_configure_transfer>:
	return xdmac->XDMAC_CHID[channel_num].XDMAC_CIS;
  4017f8:	eb00 1181 	add.w	r1, r0, r1, lsl #6
	Assert(xdmac);
	Assert(channel_num < XDMACCHID_NUMBER);
	Assert(cfg);
	
	xdmac_channel_get_interrupt_status( xdmac, channel_num);
	xdmac_channel_set_source_addr(xdmac, channel_num, cfg->mbr_sa);
  4017fc:	6853      	ldr	r3, [r2, #4]
  4017fe:	6dc8      	ldr	r0, [r1, #92]	; 0x5c
	xdmac->XDMAC_CHID[channel_num].XDMAC_CSA = src_addr;
  401800:	660b      	str	r3, [r1, #96]	; 0x60
	xdmac_channel_set_destination_addr(xdmac, channel_num, cfg->mbr_da);
  401802:	6893      	ldr	r3, [r2, #8]
	xdmac->XDMAC_CHID[channel_num].XDMAC_CDA = dst_addr;
  401804:	664b      	str	r3, [r1, #100]	; 0x64
 */
static inline void xdmac_channel_set_microblock_control(Xdmac *xdmac, uint32_t channel_num, uint32_t ublen)
{
	Assert(xdmac);
	Assert(channel_num < XDMACCHID_NUMBER);
	xdmac->XDMAC_CHID[channel_num].XDMAC_CUBC = XDMAC_CUBC_UBLEN(ublen);
  401806:	6813      	ldr	r3, [r2, #0]
  401808:	f023 437f 	bic.w	r3, r3, #4278190080	; 0xff000000
  40180c:	670b      	str	r3, [r1, #112]	; 0x70
 */
static inline void xdmac_channel_set_block_control(Xdmac *xdmac, uint32_t channel_num, uint32_t blen)
{
	Assert(xdmac);
	Assert(channel_num < XDMACCHID_NUMBER);
	xdmac->XDMAC_CHID[channel_num].XDMAC_CBC = XDMAC_CBC_BLEN(blen);
  40180e:	6913      	ldr	r3, [r2, #16]
  401810:	f3c3 030b 	ubfx	r3, r3, #0, #12
  401814:	674b      	str	r3, [r1, #116]	; 0x74
	xdmac_channel_set_microblock_control(xdmac, channel_num, cfg->mbr_ubc);
	xdmac_channel_set_block_control(xdmac, channel_num, cfg->mbr_bc);
	xdmac_channel_set_datastride_mempattern(xdmac, channel_num, cfg->mbr_ds);
  401816:	6953      	ldr	r3, [r2, #20]
 */
static inline void xdmac_channel_set_datastride_mempattern(Xdmac *xdmac, uint32_t channel_num, uint32_t dds_msp)
{
	Assert(xdmac);
	Assert(channel_num < XDMACCHID_NUMBER);
	xdmac->XDMAC_CHID[channel_num].XDMAC_CDS_MSP = dds_msp;
  401818:	67cb      	str	r3, [r1, #124]	; 0x7c
static inline void xdmac_channel_set_source_microblock_stride(Xdmac *xdmac,
		uint32_t channel_num, uint32_t subs)
{
	Assert(xdmac);
	Assert(channel_num < XDMACCHID_NUMBER);
	xdmac->XDMAC_CHID[channel_num].XDMAC_CSUS = XDMAC_CSUS_SUBS(subs);
  40181a:	6993      	ldr	r3, [r2, #24]
  40181c:	f023 437f 	bic.w	r3, r3, #4278190080	; 0xff000000
  401820:	f8c1 3080 	str.w	r3, [r1, #128]	; 0x80
static inline void xdmac_channel_set_destination_microblock_stride(Xdmac *xdmac,
		uint32_t channel_num, uint32_t dubs)
{
	Assert(xdmac);
	Assert(channel_num < XDMACCHID_NUMBER);
	xdmac->XDMAC_CHID[channel_num].XDMAC_CDUS = XDMAC_CDUS_DUBS(dubs);
  401824:	69d3      	ldr	r3, [r2, #28]
  401826:	f023 437f 	bic.w	r3, r3, #4278190080	; 0xff000000
  40182a:	f8c1 3084 	str.w	r3, [r1, #132]	; 0x84
	xdmac_channel_set_source_microblock_stride(xdmac, channel_num, cfg->mbr_sus);
	xdmac_channel_set_destination_microblock_stride(xdmac, channel_num, cfg->mbr_dus);
	xdmac_channel_set_config(xdmac, channel_num, cfg->mbr_cfg );
  40182e:	68d3      	ldr	r3, [r2, #12]
	xdmac->XDMAC_CHID[channel_num].XDMAC_CC = config;
  401830:	678b      	str	r3, [r1, #120]	; 0x78
  401832:	4770      	bx	lr

00401834 <sysclk_init>:
	pmc_disable_udpck();
}
#endif // CONFIG_USBCLK_SOURCE

void sysclk_init(void)
{
  401834:	b570      	push	{r4, r5, r6, lr}
	struct pll_config pllcfg;

	/* Set flash wait state to max in case the below clock switching. */
	system_init_flash(CHIP_FREQ_CPU_MAX);
  401836:	4810      	ldr	r0, [pc, #64]	; (401878 <sysclk_init+0x44>)
  401838:	4d10      	ldr	r5, [pc, #64]	; (40187c <sysclk_init+0x48>)
  40183a:	47a8      	blx	r5
	case OSC_MAINCK_8M_RC:
		pmc_switch_mainck_to_fastrc(CKGR_MOR_MOSCRCF_8_MHz);
		break;

	case OSC_MAINCK_12M_RC:
		pmc_switch_mainck_to_fastrc(CKGR_MOR_MOSCRCF_12_MHz);
  40183c:	2020      	movs	r0, #32
  40183e:	4b10      	ldr	r3, [pc, #64]	; (401880 <sysclk_init+0x4c>)
  401840:	4c10      	ldr	r4, [pc, #64]	; (401884 <sysclk_init+0x50>)
  401842:	4798      	blx	r3
	case OSC_MAINCK_4M_RC:
	case OSC_MAINCK_8M_RC:
	case OSC_MAINCK_12M_RC:
	case OSC_MAINCK_XTAL:
	case OSC_MAINCK_BYPASS:
		return pmc_osc_is_ready_mainck();
  401844:	47a0      	blx	r4
 *
 * \param id A number identifying the oscillator to wait for.
 */
static inline void osc_wait_ready(uint8_t id)
{
	while (!osc_is_ready(id)) {
  401846:	2800      	cmp	r0, #0
  401848:	d0fc      	beq.n	401844 <sysclk_init+0x10>
static inline void pll_enable(const struct pll_config *p_cfg, uint32_t ul_pll_id)
{
	Assert(ul_pll_id < NR_PLLS);

	if (ul_pll_id == PLLA_ID) {
		pmc_disable_pllack(); // Always stop PLL first!
  40184a:	4b0f      	ldr	r3, [pc, #60]	; (401888 <sysclk_init+0x54>)
  40184c:	4798      	blx	r3
  40184e:	4c0f      	ldr	r4, [pc, #60]	; (40188c <sysclk_init+0x58>)
		PMC->CKGR_PLLAR = CKGR_PLLAR_ONE | p_cfg->ctrl;
  401850:	4b0f      	ldr	r3, [pc, #60]	; (401890 <sysclk_init+0x5c>)
  401852:	4a10      	ldr	r2, [pc, #64]	; (401894 <sysclk_init+0x60>)
  401854:	629a      	str	r2, [r3, #40]	; 0x28
static inline uint32_t pll_is_locked(uint32_t ul_pll_id)
{
	Assert(ul_pll_id < NR_PLLS);

	if (ul_pll_id == PLLA_ID) {
	return pmc_is_locked_pllack();
  401856:	47a0      	blx	r4
 */
static inline int pll_wait_for_lock(unsigned int pll_id)
{
	Assert(pll_id < NR_PLLS);

	while (!pll_is_locked(pll_id)) {
  401858:	2800      	cmp	r0, #0
  40185a:	d0fc      	beq.n	401856 <sysclk_init+0x22>
	else if (CONFIG_SYSCLK_SOURCE == SYSCLK_SRC_PLLACK) {
		pll_enable_source(CONFIG_PLL0_SOURCE);
		pll_config_defaults(&pllcfg, 0);
		pll_enable(&pllcfg, 0);
		pll_wait_for_lock(0);
		pmc_mck_set_division(CONFIG_SYSCLK_DIV);
  40185c:	2002      	movs	r0, #2
  40185e:	4b0e      	ldr	r3, [pc, #56]	; (401898 <sysclk_init+0x64>)
  401860:	4798      	blx	r3
		pmc_switch_mck_to_pllack(CONFIG_SYSCLK_PRES);
  401862:	4b0e      	ldr	r3, [pc, #56]	; (40189c <sysclk_init+0x68>)
  401864:	2000      	movs	r0, #0
  401866:	4798      	blx	r3
		pll_wait_for_lock(1);
		pmc_mck_set_division(CONFIG_SYSCLK_DIV);
		pmc_switch_mck_to_upllck(CONFIG_SYSCLK_PRES);
	}
	/* Update the SystemFrequency variable */
	SystemCoreClockUpdate();
  401868:	4b0d      	ldr	r3, [pc, #52]	; (4018a0 <sysclk_init+0x6c>)
  40186a:	4798      	blx	r3

	/* Set a flash wait state depending on the new cpu frequency */
	system_init_flash(sysclk_get_cpu_hz());
  40186c:	462b      	mov	r3, r5
  40186e:	4802      	ldr	r0, [pc, #8]	; (401878 <sysclk_init+0x44>)

#if (defined CONFIG_SYSCLK_DEFAULT_RETURNS_SLOW_OSC)
	/* Signal that the internal frequencies are setup */
	sysclk_initialized = 1;
#endif
}
  401870:	e8bd 4070 	ldmia.w	sp!, {r4, r5, r6, lr}
	system_init_flash(sysclk_get_cpu_hz());
  401874:	4718      	bx	r3
  401876:	bf00      	nop
  401878:	11e1a300 	.word	0x11e1a300
  40187c:	004025e9 	.word	0x004025e9
  401880:	00402301 	.word	0x00402301
  401884:	0040234d 	.word	0x0040234d
  401888:	0040235d 	.word	0x0040235d
  40188c:	0040236d 	.word	0x0040236d
  401890:	400e0600 	.word	0x400e0600
  401894:	20183f01 	.word	0x20183f01
  401898:	0040227d 	.word	0x0040227d
  40189c:	004022ad 	.word	0x004022ad
  4018a0:	00402501 	.word	0x00402501

004018a4 <board_init>:

void board_init(void)
{
#ifndef CONF_BOARD_KEEP_WATCHDOG_AT_INIT
	/* Disable the watchdog */
	WDT->WDT_MR = WDT_MR_WDDIS;
  4018a4:	4ba4      	ldr	r3, [pc, #656]	; (401b38 <board_init+0x294>)
  4018a6:	f44f 4200 	mov.w	r2, #32768	; 0x8000
{
  4018aa:	e92d 47f0 	stmdb	sp!, {r4, r5, r6, r7, r8, r9, sl, lr}
	WDT->WDT_MR = WDT_MR_WDDIS;
  4018ae:	605a      	str	r2, [r3, #4]
    This function ensures the apparent order of the explicit memory operations before
    and after the instruction, without ensuring their completion.
 */
__attribute__( ( always_inline ) ) __STATIC_INLINE void __DMB(void)
{
  __ASM volatile ("dmb");
  4018b0:	f3bf 8f5f 	dmb	sy
		mpu_cal_mpu_region_size(ITCM_END_ADDRESS - ITCM_START_ADDRESS) |
  4018b4:	f8df 82f4 	ldr.w	r8, [pc, #756]	; 401bac <board_init+0x308>
	dw_region_attr =
  4018b8:	4fa0      	ldr	r7, [pc, #640]	; (401b3c <board_init+0x298>)
		mpu_cal_mpu_region_size(ITCM_END_ADDRESS - ITCM_START_ADDRESS) |
  4018ba:	4ea1      	ldr	r6, [pc, #644]	; (401b40 <board_init+0x29c>)
  4018bc:	4640      	mov	r0, r8
	mpu_set_region( dw_region_base_addr, dw_region_attr);
  4018be:	4da1      	ldr	r5, [pc, #644]	; (401b44 <board_init+0x2a0>)
		mpu_cal_mpu_region_size(ITCM_END_ADDRESS - ITCM_START_ADDRESS) |
  4018c0:	47b0      	blx	r6
	mpu_set_region( dw_region_base_addr, dw_region_attr);
  4018c2:	ea40 0107 	orr.w	r1, r0, r7
  4018c6:	2011      	movs	r0, #17
  4018c8:	47a8      	blx	r5
		mpu_cal_mpu_region_size(IFLASH_END_ADDRESS - IFLASH_START_ADDRESS) |
  4018ca:	489f      	ldr	r0, [pc, #636]	; (401b48 <board_init+0x2a4>)
  4018cc:	47b0      	blx	r6
	mpu_set_region( dw_region_base_addr, dw_region_attr);
  4018ce:	499f      	ldr	r1, [pc, #636]	; (401b4c <board_init+0x2a8>)
	dw_region_attr =
  4018d0:	4c9f      	ldr	r4, [pc, #636]	; (401b50 <board_init+0x2ac>)
	mpu_set_region( dw_region_base_addr, dw_region_attr);
  4018d2:	4301      	orrs	r1, r0
  4018d4:	489f      	ldr	r0, [pc, #636]	; (401b54 <board_init+0x2b0>)
  4018d6:	47a8      	blx	r5
		mpu_cal_mpu_region_size(DTCM_END_ADDRESS - DTCM_START_ADDRESS) |
  4018d8:	4640      	mov	r0, r8
  4018da:	47b0      	blx	r6
	mpu_set_region( dw_region_base_addr, dw_region_attr);
  4018dc:	ea40 0107 	orr.w	r1, r0, r7
  4018e0:	489d      	ldr	r0, [pc, #628]	; (401b58 <board_init+0x2b4>)
  4018e2:	47a8      	blx	r5
		mpu_cal_mpu_region_size(SRAM_FIRST_END_ADDRESS - SRAM_FIRST_START_ADDRESS)
  4018e4:	489d      	ldr	r0, [pc, #628]	; (401b5c <board_init+0x2b8>)
  4018e6:	47b0      	blx	r6
	mpu_set_region( dw_region_base_addr, dw_region_attr);
  4018e8:	ea40 0104 	orr.w	r1, r0, r4
  4018ec:	489c      	ldr	r0, [pc, #624]	; (401b60 <board_init+0x2bc>)
  4018ee:	47a8      	blx	r5
		mpu_cal_mpu_region_size(SRAM_SECOND_END_ADDRESS - SRAM_SECOND_START_ADDRESS) |
  4018f0:	489c      	ldr	r0, [pc, #624]	; (401b64 <board_init+0x2c0>)
  4018f2:	47b0      	blx	r6
	mpu_set_region( dw_region_base_addr, dw_region_attr);
  4018f4:	ea40 0104 	orr.w	r1, r0, r4
  4018f8:	489b      	ldr	r0, [pc, #620]	; (401b68 <board_init+0x2c4>)
  4018fa:	47a8      	blx	r5
		mpu_cal_mpu_region_size(PERIPHERALS_END_ADDRESS - PERIPHERALS_START_ADDRESS)
  4018fc:	f06f 4060 	mvn.w	r0, #3758096384	; 0xe0000000
  401900:	47b0      	blx	r6
	mpu_set_region( dw_region_base_addr, dw_region_attr);
  401902:	499a      	ldr	r1, [pc, #616]	; (401b6c <board_init+0x2c8>)
	SCB->SHCSR |= (SCB_SHCSR_MEMFAULTENA_Msk | SCB_SHCSR_BUSFAULTENA_Msk
  401904:	4c9a      	ldr	r4, [pc, #616]	; (401b70 <board_init+0x2cc>)
	mpu_set_region( dw_region_base_addr, dw_region_attr);
  401906:	4301      	orrs	r1, r0
  401908:	489a      	ldr	r0, [pc, #616]	; (401b74 <board_init+0x2d0>)
  40190a:	47a8      	blx	r5
		mpu_cal_mpu_region_size(EXT_EBI_END_ADDRESS - EXT_EBI_START_ADDRESS) |
  40190c:	f06f 4070 	mvn.w	r0, #4026531840	; 0xf0000000
  401910:	47b0      	blx	r6
	mpu_set_region( dw_region_base_addr, dw_region_attr);
  401912:	4999      	ldr	r1, [pc, #612]	; (401b78 <board_init+0x2d4>)
  401914:	4301      	orrs	r1, r0
  401916:	4899      	ldr	r0, [pc, #612]	; (401b7c <board_init+0x2d8>)
  401918:	47a8      	blx	r5
	SCB->SHCSR |= (SCB_SHCSR_MEMFAULTENA_Msk | SCB_SHCSR_BUSFAULTENA_Msk
  40191a:	6a63      	ldr	r3, [r4, #36]	; 0x24
	mpu_enable( MPU_ENABLE | MPU_PRIVDEFENA);
  40191c:	2005      	movs	r0, #5
  40191e:	4a98      	ldr	r2, [pc, #608]	; (401b80 <board_init+0x2dc>)
	SCB->SHCSR |= (SCB_SHCSR_MEMFAULTENA_Msk | SCB_SHCSR_BUSFAULTENA_Msk
  401920:	f443 23e0 	orr.w	r3, r3, #458752	; 0x70000
  401924:	6263      	str	r3, [r4, #36]	; 0x24
	mpu_enable( MPU_ENABLE | MPU_PRIVDEFENA);
  401926:	4790      	blx	r2
  __ASM volatile ("dsb");
  401928:	f3bf 8f4f 	dsb	sy
  __ASM volatile ("isb");
  40192c:	f3bf 8f6f 	isb	sy
  __ASM volatile ("dsb");
  401930:	f3bf 8f4f 	dsb	sy
  __ASM volatile ("isb");
  401934:	f3bf 8f6f 	isb	sy
__STATIC_INLINE void SCB_EnableICache(void)
{
  #if (__ICACHE_PRESENT == 1)
    __DSB();
    __ISB();
    SCB->ICIALLU = 0;                       // invalidate I-Cache
  401938:	f04f 0900 	mov.w	r9, #0
  40193c:	f8c4 9250 	str.w	r9, [r4, #592]	; 0x250
    SCB->CCR |=  SCB_CCR_IC_Msk;            // enable I-Cache
  401940:	6963      	ldr	r3, [r4, #20]
  401942:	f443 3300 	orr.w	r3, r3, #131072	; 0x20000
  401946:	6163      	str	r3, [r4, #20]
  __ASM volatile ("dsb");
  401948:	f3bf 8f4f 	dsb	sy
  __ASM volatile ("isb");
  40194c:	f3bf 8f6f 	isb	sy
		*dst++ = *src++;
	}
#endif
#else
	/* TCM Configuration */
	EFC->EEFC_FCR = (EEFC_FCR_FKEY_PASSWD | EEFC_FCR_FCMD_CGPB 
  401950:	4b8c      	ldr	r3, [pc, #560]	; (401b84 <board_init+0x2e0>)
  401952:	498d      	ldr	r1, [pc, #564]	; (401b88 <board_init+0x2e4>)
					| EEFC_FCR_FARG(8));
	EFC->EEFC_FCR = (EEFC_FCR_FKEY_PASSWD | EEFC_FCR_FCMD_CGPB 
  401954:	4a8d      	ldr	r2, [pc, #564]	; (401b8c <board_init+0x2e8>)
	EFC->EEFC_FCR = (EEFC_FCR_FKEY_PASSWD | EEFC_FCR_FCMD_CGPB 
  401956:	6059      	str	r1, [r3, #4]
	EFC->EEFC_FCR = (EEFC_FCR_FKEY_PASSWD | EEFC_FCR_FCMD_CGPB 
  401958:	605a      	str	r2, [r3, #4]
  __ASM volatile ("dsb");
  40195a:	f3bf 8f4f 	dsb	sy
  __ASM volatile ("isb");
  40195e:	f3bf 8f6f 	isb	sy
	SCB->ITCMCR &= ~(uint32_t)(1UL);
  401962:	f8d4 3290 	ldr.w	r3, [r4, #656]	; 0x290
  401966:	f023 0301 	bic.w	r3, r3, #1
  40196a:	f8c4 3290 	str.w	r3, [r4, #656]	; 0x290
	SCB->DTCMCR &= ~(uint32_t)SCB_DTCMCR_EN_Msk;
  40196e:	f8d4 3294 	ldr.w	r3, [r4, #660]	; 0x294
  401972:	f023 0301 	bic.w	r3, r3, #1
  401976:	f8c4 3294 	str.w	r3, [r4, #660]	; 0x294
  __ASM volatile ("dsb");
  40197a:	f3bf 8f4f 	dsb	sy
  __ASM volatile ("isb");
  40197e:	f3bf 8f6f 	isb	sy
  401982:	4c83      	ldr	r4, [pc, #524]	; (401b90 <board_init+0x2ec>)
  401984:	200a      	movs	r0, #10
  401986:	47a0      	blx	r4
  401988:	200b      	movs	r0, #11
  40198a:	47a0      	blx	r4
  40198c:	200c      	movs	r0, #12
  40198e:	47a0      	blx	r4
  401990:	2010      	movs	r0, #16
  401992:	47a0      	blx	r4
  401994:	2011      	movs	r0, #17
  401996:	47a0      	blx	r4
		enum ioport_direction dir)
{
	Pio *base = arch_ioport_pin_to_base(pin);

	if (dir == IOPORT_DIR_OUTPUT) {
		base->PIO_OER = arch_ioport_pin_to_mask(pin);
  401998:	f44f 7500 	mov.w	r5, #512	; 0x200
  40199c:	4c7d      	ldr	r4, [pc, #500]	; (401b94 <board_init+0x2f0>)
  40199e:	f44f 0300 	mov.w	r3, #8388608	; 0x800000
  4019a2:	4f7d      	ldr	r7, [pc, #500]	; (401b98 <board_init+0x2f4>)
		base->PIO_PUDR = mask;
  4019a4:	f44f 1100 	mov.w	r1, #2097152	; 0x200000
		base->PIO_OER = arch_ioport_pin_to_mask(pin);
  4019a8:	6123      	str	r3, [r4, #16]
		base->PIO_PUDR = mask;
  4019aa:	2610      	movs	r6, #16
	} else if (dir == IOPORT_DIR_INPUT) {
		base->PIO_ODR = arch_ioport_pin_to_mask(pin);
	}

	base->PIO_OWER = arch_ioport_pin_to_mask(pin);
  4019ac:	f8c4 30a0 	str.w	r3, [r4, #160]	; 0xa0
		base->PIO_PUDR = mask;
  4019b0:	f04f 0e08 	mov.w	lr, #8
		bool level)
{
	Pio *base = arch_ioport_pin_to_base(pin);

	if (level) {
		base->PIO_SODR = arch_ioport_pin_to_mask(pin);
  4019b4:	6323      	str	r3, [r4, #48]	; 0x30
	ioport_set_pin_mode(SD_MMC_0_CD_GPIO, SD_MMC_0_CD_FLAGS);
#endif

#ifdef CONF_BOARD_ILI9488
	/**LCD pin configure on EBI*/
	pio_configure(PIN_EBI_RESET_PIO, PIN_EBI_RESET_TYPE, PIN_EBI_RESET_MASK, PIN_EBI_RESET_ATTRI);
  4019b6:	4638      	mov	r0, r7
		base->PIO_OER = arch_ioport_pin_to_mask(pin);
  4019b8:	613d      	str	r5, [r7, #16]
  4019ba:	464b      	mov	r3, r9
	base->PIO_OWER = arch_ioport_pin_to_mask(pin);
  4019bc:	f8c7 50a0 	str.w	r5, [r7, #160]	; 0xa0
  4019c0:	f44f 5200 	mov.w	r2, #8192	; 0x2000
		base->PIO_SODR = arch_ioport_pin_to_mask(pin);
  4019c4:	633d      	str	r5, [r7, #48]	; 0x30
		base->PIO_ODR = arch_ioport_pin_to_mask(pin);
  4019c6:	6165      	str	r5, [r4, #20]
	base->PIO_OWER = arch_ioport_pin_to_mask(pin);
  4019c8:	f8c4 50a0 	str.w	r5, [r4, #160]	; 0xa0
		base->PIO_PUER = mask;
  4019cc:	6665      	str	r5, [r4, #100]	; 0x64
		base->PIO_PPDDR = mask;
  4019ce:	f8c4 5090 	str.w	r5, [r4, #144]	; 0x90
		base->PIO_MDDR = mask;
  4019d2:	6565      	str	r5, [r4, #84]	; 0x54
		base->PIO_IFER = mask;
  4019d4:	6225      	str	r5, [r4, #32]
		base->PIO_IFSCER = mask;
  4019d6:	f8c4 5084 	str.w	r5, [r4, #132]	; 0x84
		base->PIO_ABCDSR[0] &= ~mask;
  4019da:	f8d4 c070 	ldr.w	ip, [r4, #112]	; 0x70
	MATRIX->CCFG_SYSIO |= CCFG_SYSIO_SYSIO4;
  4019de:	f8df 81d0 	ldr.w	r8, [pc, #464]	; 401bb0 <board_init+0x30c>
  4019e2:	f42c 7c00 	bic.w	ip, ip, #512	; 0x200
  4019e6:	f8c4 c070 	str.w	ip, [r4, #112]	; 0x70
		base->PIO_ABCDSR[1] &= ~mask;
  4019ea:	f8d4 c074 	ldr.w	ip, [r4, #116]	; 0x74
  4019ee:	f42c 7c00 	bic.w	ip, ip, #512	; 0x200
  4019f2:	f8c4 c074 	str.w	ip, [r4, #116]	; 0x74
	case IOPORT_SENSE_FALLING:
		base->PIO_ESR = mask;
		base->PIO_FELLSR = mask;
		break;
	case IOPORT_SENSE_RISING:
		base->PIO_ESR = mask;
  4019f6:	f8c4 50c0 	str.w	r5, [r4, #192]	; 0xc0
		base->PIO_REHLSR = mask;
  4019fa:	f8c4 50d4 	str.w	r5, [r4, #212]	; 0xd4
		break;
	default:
		base->PIO_AIMDR = mask;
		return;
	}
	base->PIO_AIMER = mask;
  4019fe:	f8c4 50b0 	str.w	r5, [r4, #176]	; 0xb0
		base->PIO_PUDR = mask;
  401a02:	6621      	str	r1, [r4, #96]	; 0x60
		base->PIO_PPDDR = mask;
  401a04:	f8c4 1090 	str.w	r1, [r4, #144]	; 0x90
		base->PIO_MDDR = mask;
  401a08:	6561      	str	r1, [r4, #84]	; 0x54
		base->PIO_IFDR = mask;
  401a0a:	6261      	str	r1, [r4, #36]	; 0x24
		base->PIO_IFSCDR = mask;
  401a0c:	f8c4 1080 	str.w	r1, [r4, #128]	; 0x80
		base->PIO_ABCDSR[0] &= ~mask;
  401a10:	f8d4 c070 	ldr.w	ip, [r4, #112]	; 0x70
  401a14:	f42c 1c00 	bic.w	ip, ip, #2097152	; 0x200000
  401a18:	f8c4 c070 	str.w	ip, [r4, #112]	; 0x70
		base->PIO_ABCDSR[1] &= ~mask;
  401a1c:	f8d4 c074 	ldr.w	ip, [r4, #116]	; 0x74
  401a20:	f42c 1c00 	bic.w	ip, ip, #2097152	; 0x200000
  401a24:	f8c4 c074 	str.w	ip, [r4, #116]	; 0x74
	arch_ioport_port_to_base(port)->PIO_PDR = mask;
  401a28:	6061      	str	r1, [r4, #4]
  401a2a:	f8d8 1114 	ldr.w	r1, [r8, #276]	; 0x114
  401a2e:	ea41 0c06 	orr.w	ip, r1, r6
		base->PIO_PUDR = mask;
  401a32:	495a      	ldr	r1, [pc, #360]	; (401b9c <board_init+0x2f8>)
  401a34:	f8c8 c114 	str.w	ip, [r8, #276]	; 0x114
  401a38:	660e      	str	r6, [r1, #96]	; 0x60
		base->PIO_PPDDR = mask;
  401a3a:	f8c1 6090 	str.w	r6, [r1, #144]	; 0x90
		base->PIO_MDDR = mask;
  401a3e:	654e      	str	r6, [r1, #84]	; 0x54
		base->PIO_IFDR = mask;
  401a40:	624e      	str	r6, [r1, #36]	; 0x24
		base->PIO_IFSCDR = mask;
  401a42:	f8c1 6080 	str.w	r6, [r1, #128]	; 0x80
		base->PIO_ABCDSR[0] |= mask;
  401a46:	f8d1 c070 	ldr.w	ip, [r1, #112]	; 0x70
	pio_configure(PIN_EBI_RESET_PIO, PIN_EBI_RESET_TYPE, PIN_EBI_RESET_MASK, PIN_EBI_RESET_ATTRI);
  401a4a:	f8df 8168 	ldr.w	r8, [pc, #360]	; 401bb4 <board_init+0x310>
  401a4e:	ea4c 0c06 	orr.w	ip, ip, r6
  401a52:	f8c1 c070 	str.w	ip, [r1, #112]	; 0x70
		base->PIO_ABCDSR[1] |= mask;
  401a56:	f8d1 c074 	ldr.w	ip, [r1, #116]	; 0x74
  401a5a:	ea4c 0c06 	orr.w	ip, ip, r6
  401a5e:	f8c1 c074 	str.w	ip, [r1, #116]	; 0x74
	arch_ioport_port_to_base(port)->PIO_PDR = mask;
  401a62:	604e      	str	r6, [r1, #4]
  401a64:	f04f 5160 	mov.w	r1, #939524096	; 0x38000000
		base->PIO_PUDR = mask;
  401a68:	f8c4 e060 	str.w	lr, [r4, #96]	; 0x60
		base->PIO_PPDDR = mask;
  401a6c:	f8c4 e090 	str.w	lr, [r4, #144]	; 0x90
		base->PIO_MDDR = mask;
  401a70:	f8c4 e054 	str.w	lr, [r4, #84]	; 0x54
		base->PIO_IFDR = mask;
  401a74:	f8c4 e024 	str.w	lr, [r4, #36]	; 0x24
		base->PIO_IFSCDR = mask;
  401a78:	f8c4 e080 	str.w	lr, [r4, #128]	; 0x80
		base->PIO_ABCDSR[0] &= ~mask;
  401a7c:	f8d4 c070 	ldr.w	ip, [r4, #112]	; 0x70
  401a80:	f02c 0c08 	bic.w	ip, ip, #8
  401a84:	f8c4 c070 	str.w	ip, [r4, #112]	; 0x70
		base->PIO_ABCDSR[1] &= ~mask;
  401a88:	f8d4 c074 	ldr.w	ip, [r4, #116]	; 0x74
  401a8c:	f02c 0c08 	bic.w	ip, ip, #8
  401a90:	f8c4 c074 	str.w	ip, [r4, #116]	; 0x74
	arch_ioport_port_to_base(port)->PIO_PDR = mask;
  401a94:	f8c4 e004 	str.w	lr, [r4, #4]
		base->PIO_PUDR = mask;
  401a98:	6626      	str	r6, [r4, #96]	; 0x60
		base->PIO_PPDDR = mask;
  401a9a:	f8c4 6090 	str.w	r6, [r4, #144]	; 0x90
		base->PIO_MDDR = mask;
  401a9e:	6566      	str	r6, [r4, #84]	; 0x54
		base->PIO_IFDR = mask;
  401aa0:	6266      	str	r6, [r4, #36]	; 0x24
		base->PIO_IFSCDR = mask;
  401aa2:	f8c4 6080 	str.w	r6, [r4, #128]	; 0x80
		base->PIO_ABCDSR[0] &= ~mask;
  401aa6:	f8d4 e070 	ldr.w	lr, [r4, #112]	; 0x70
  401aaa:	f02e 0e10 	bic.w	lr, lr, #16
  401aae:	f8c4 e070 	str.w	lr, [r4, #112]	; 0x70
		base->PIO_ABCDSR[1] &= ~mask;
  401ab2:	f8d4 e074 	ldr.w	lr, [r4, #116]	; 0x74
  401ab6:	f02e 0e10 	bic.w	lr, lr, #16
  401aba:	f8c4 e074 	str.w	lr, [r4, #116]	; 0x74
	arch_ioport_port_to_base(port)->PIO_PDR = mask;
  401abe:	6066      	str	r6, [r4, #4]
  401ac0:	47c0      	blx	r8
	pio_configure(PIN_EBI_CDS_PIO, PIN_EBI_CDS_TYPE, PIN_EBI_CDS_MASK, PIN_EBI_CDS_ATTRI);
  401ac2:	464b      	mov	r3, r9
  401ac4:	4638      	mov	r0, r7
  401ac6:	f04f 4280 	mov.w	r2, #1073741824	; 0x40000000
  401aca:	f04f 5160 	mov.w	r1, #939524096	; 0x38000000
  401ace:	47c0      	blx	r8
	pio_configure(PIN_EBI_DATAL_PIO, PIN_EBI_DATAL_TYPE, PIN_EBI_DATAL_MASK, PIN_EBI_DATAL_ATTRI);
  401ad0:	4638      	mov	r0, r7
  401ad2:	2301      	movs	r3, #1
  401ad4:	22ff      	movs	r2, #255	; 0xff
  401ad6:	f04f 6100 	mov.w	r1, #134217728	; 0x8000000
  401ada:	47c0      	blx	r8
	pio_configure(PIN_EBI_DATAH_0_PIO, PIN_EBI_DATAH_0_TYPE, PIN_EBI_DATAH_0_MASK, PIN_EBI_DATAH_0_ATTRI);
  401adc:	2301      	movs	r3, #1
  401ade:	223f      	movs	r2, #63	; 0x3f
  401ae0:	f04f 6100 	mov.w	r1, #134217728	; 0x8000000
  401ae4:	482e      	ldr	r0, [pc, #184]	; (401ba0 <board_init+0x2fc>)
  401ae6:	47c0      	blx	r8
	pio_configure(PIN_EBI_DATAH_1_PIO, PIN_EBI_DATAH_1_TYPE, PIN_EBI_DATAH_1_MASK, PIN_EBI_DATAH_1_ATTRI);
  401ae8:	4620      	mov	r0, r4
  401aea:	2301      	movs	r3, #1
  401aec:	f44f 32c0 	mov.w	r2, #98304	; 0x18000
  401af0:	f04f 6100 	mov.w	r1, #134217728	; 0x8000000
  401af4:	47c0      	blx	r8
	pio_configure(PIN_EBI_NWE_PIO, PIN_EBI_NWE_TYPE, PIN_EBI_NWE_MASK, PIN_EBI_NWE_ATTRI);
  401af6:	4638      	mov	r0, r7
  401af8:	2301      	movs	r3, #1
  401afa:	f44f 7280 	mov.w	r2, #256	; 0x100
  401afe:	f04f 6100 	mov.w	r1, #134217728	; 0x8000000
  401b02:	47c0      	blx	r8
	pio_configure(PIN_EBI_NRD_PIO, PIN_EBI_NRD_TYPE, PIN_EBI_NRD_MASK, PIN_EBI_NRD_ATTRI);
  401b04:	4638      	mov	r0, r7
  401b06:	2301      	movs	r3, #1
  401b08:	f44f 6200 	mov.w	r2, #2048	; 0x800
  401b0c:	f04f 6100 	mov.w	r1, #134217728	; 0x8000000
  401b10:	47c0      	blx	r8
	pio_configure(PIN_EBI_CS_PIO, PIN_EBI_CS_TYPE, PIN_EBI_CS_MASK, PIN_EBI_CS_ATTRI);
  401b12:	2301      	movs	r3, #1
  401b14:	f44f 2200 	mov.w	r2, #524288	; 0x80000
  401b18:	f04f 6100 	mov.w	r1, #134217728	; 0x8000000
  401b1c:	4821      	ldr	r0, [pc, #132]	; (401ba4 <board_init+0x300>)
  401b1e:	47c0      	blx	r8
	pio_configure(PIN_EBI_BACKLIGHT_PIO, PIN_EBI_BACKLIGHT_TYPE, PIN_EBI_BACKLIGHT_MASK, PIN_EBI_BACKLIGHT_ATTRI);
  401b20:	464b      	mov	r3, r9
  401b22:	462a      	mov	r2, r5
  401b24:	4638      	mov	r0, r7
  401b26:	f04f 5180 	mov.w	r1, #268435456	; 0x10000000
  401b2a:	47c0      	blx	r8
	pio_set(PIN_EBI_BACKLIGHT_PIO, PIN_EBI_BACKLIGHT_MASK);
  401b2c:	4629      	mov	r1, r5
  401b2e:	4638      	mov	r0, r7
  401b30:	4b1d      	ldr	r3, [pc, #116]	; (401ba8 <board_init+0x304>)
	pio_configure_pin(ISI_PCK_PIO, ISI_PCK_FLAGS);
	pio_configure_pin(ISI_PCK0_PIO, ISI_PCK0_FLAGS);
	pio_configure_pin(OV_PWD_GPIO, OV_PWD_FLAGS);
	pio_configure_pin(OV_RST_GPIO, OV_RST_FLAGS);
#endif
}
  401b32:	e8bd 47f0 	ldmia.w	sp!, {r4, r5, r6, r7, r8, r9, sl, lr}
	pio_set(PIN_EBI_BACKLIGHT_PIO, PIN_EBI_BACKLIGHT_MASK);
  401b36:	4718      	bx	r3
  401b38:	400e1850 	.word	0x400e1850
  401b3c:	01000001 	.word	0x01000001
  401b40:	00401bd1 	.word	0x00401bd1
  401b44:	00401bc5 	.word	0x00401bc5
  401b48:	001fffff 	.word	0x001fffff
  401b4c:	06230001 	.word	0x06230001
  401b50:	03230001 	.word	0x03230001
  401b54:	00400012 	.word	0x00400012
  401b58:	20000013 	.word	0x20000013
  401b5c:	0003ffff 	.word	0x0003ffff
  401b60:	20400014 	.word	0x20400014
  401b64:	0001ffff 	.word	0x0001ffff
  401b68:	20440015 	.word	0x20440015
  401b6c:	13010001 	.word	0x13010001
  401b70:	e000ed00 	.word	0xe000ed00
  401b74:	40000016 	.word	0x40000016
  401b78:	03000001 	.word	0x03000001
  401b7c:	60000017 	.word	0x60000017
  401b80:	00401bb9 	.word	0x00401bb9
  401b84:	400e0c00 	.word	0x400e0c00
  401b88:	5a00080c 	.word	0x5a00080c
  401b8c:	5a00070c 	.word	0x5a00070c
  401b90:	0040237d 	.word	0x0040237d
  401b94:	400e0e00 	.word	0x400e0e00
  401b98:	400e1200 	.word	0x400e1200
  401b9c:	400e1000 	.word	0x400e1000
  401ba0:	400e1600 	.word	0x400e1600
  401ba4:	400e1400 	.word	0x400e1400
  401ba8:	00401bf5 	.word	0x00401bf5
  401bac:	003fffff 	.word	0x003fffff
  401bb0:	40088000 	.word	0x40088000
  401bb4:	00401bf9 	.word	0x00401bf9

00401bb8 <mpu_enable>:
 *
 * \param dwMPUEnable  Enable/Disable the memory region.
 */
void mpu_enable(uint32_t dw_mpu_enable)
{
	MPU->CTRL = dw_mpu_enable ;
  401bb8:	4b01      	ldr	r3, [pc, #4]	; (401bc0 <mpu_enable+0x8>)
  401bba:	6058      	str	r0, [r3, #4]
  401bbc:	4770      	bx	lr
  401bbe:	bf00      	nop
  401bc0:	e000ed90 	.word	0xe000ed90

00401bc4 <mpu_set_region>:
 * \param dwRegionBaseAddr  Memory region base address.
 * \param dwRegionAttr  Memory region attributes.
 */
void mpu_set_region(uint32_t dw_region_base_addr, uint32_t dw_region_attr)
{
	MPU->RBAR = dw_region_base_addr;
  401bc4:	4b01      	ldr	r3, [pc, #4]	; (401bcc <mpu_set_region+0x8>)
  401bc6:	60d8      	str	r0, [r3, #12]
	MPU->RASR = dw_region_attr;
  401bc8:	6119      	str	r1, [r3, #16]
  401bca:	4770      	bx	lr
  401bcc:	e000ed90 	.word	0xe000ed90

00401bd0 <mpu_cal_mpu_region_size>:
{
	uint32_t dwRegionSize = 32;
	uint32_t dwReturnValue = 4;

	while( dwReturnValue < 31 ) {
		if( dw_actual_size_in_bytes <= dwRegionSize ) {
  401bd0:	2820      	cmp	r0, #32
  401bd2:	d90d      	bls.n	401bf0 <mpu_cal_mpu_region_size+0x20>
  401bd4:	2240      	movs	r2, #64	; 0x40
  401bd6:	2305      	movs	r3, #5
  401bd8:	e002      	b.n	401be0 <mpu_cal_mpu_region_size+0x10>
			break;
		} else {
			dwReturnValue++;
  401bda:	3301      	adds	r3, #1
	while( dwReturnValue < 31 ) {
  401bdc:	2b1f      	cmp	r3, #31
  401bde:	d005      	beq.n	401bec <mpu_cal_mpu_region_size+0x1c>
		if( dw_actual_size_in_bytes <= dwRegionSize ) {
  401be0:	4290      	cmp	r0, r2
		}
		dwRegionSize <<= 1;
  401be2:	ea4f 0242 	mov.w	r2, r2, lsl #1
		if( dw_actual_size_in_bytes <= dwRegionSize ) {
  401be6:	d8f8      	bhi.n	401bda <mpu_cal_mpu_region_size+0xa>
  401be8:	0058      	lsls	r0, r3, #1
  401bea:	4770      	bx	lr
  401bec:	203e      	movs	r0, #62	; 0x3e
  401bee:	4770      	bx	lr
  401bf0:	2008      	movs	r0, #8
	}

	return ( dwReturnValue << 1 );
}
  401bf2:	4770      	bx	lr

00401bf4 <pio_set>:
  401bf4:	6301      	str	r1, [r0, #48]	; 0x30
  401bf6:	4770      	bx	lr

00401bf8 <pio_configure>:
 */
uint32_t pio_configure(Pio *p_pio, const pio_type_t ul_type,
		const uint32_t ul_mask, const uint32_t ul_attribute)
{
	/* Configure pins */
	switch (ul_type) {
  401bf8:	f1b1 5f00 	cmp.w	r1, #536870912	; 0x20000000
{
  401bfc:	b430      	push	{r4, r5}
	switch (ul_type) {
  401bfe:	d03b      	beq.n	401c78 <pio_configure+0x80>
  401c00:	d931      	bls.n	401c66 <pio_configure+0x6e>
  401c02:	f1b1 5f40 	cmp.w	r1, #805306368	; 0x30000000
  401c06:	d01b      	beq.n	401c40 <pio_configure+0x48>
  401c08:	f1b1 5f60 	cmp.w	r1, #939524096	; 0x38000000
  401c0c:	d018      	beq.n	401c40 <pio_configure+0x48>
  401c0e:	f1b1 5f20 	cmp.w	r1, #671088640	; 0x28000000
  401c12:	d003      	beq.n	401c1c <pio_configure+0x24>
				(ul_attribute & PIO_OPENDRAIN) ? 1 : 0,
				(ul_attribute & PIO_PULLUP) ? 1 : 0);
		break;

	default:
		return 0;
  401c14:	2300      	movs	r3, #0
	}

	return 1;
}
  401c16:	bc30      	pop	{r4, r5}
  401c18:	4618      	mov	r0, r3
  401c1a:	4770      	bx	lr
	if (ul_pull_up_enable) {
  401c1c:	07dd      	lsls	r5, r3, #31
 * \param p_pio Pointer to a PIO instance.
 * \param ul_mask Interrupt sources bit map.
 */
void pio_disable_interrupt(Pio *p_pio, const uint32_t ul_mask)
{
	p_pio->PIO_IDR = ul_mask;
  401c1e:	6442      	str	r2, [r0, #68]	; 0x44
	if (ul_pull_up_enable) {
  401c20:	d448      	bmi.n	401cb4 <pio_configure+0xbc>
	if (ul_attribute & (PIO_DEGLITCH | PIO_DEBOUNCE)) {
  401c22:	f013 0f0a 	tst.w	r3, #10
		p_pio->PIO_PUDR = ul_mask;
  401c26:	6602      	str	r2, [r0, #96]	; 0x60
	if (ul_attribute & (PIO_DEGLITCH | PIO_DEBOUNCE)) {
  401c28:	d048      	beq.n	401cbc <pio_configure+0xc4>
	if (ul_attribute & PIO_DEGLITCH) {
  401c2a:	079c      	lsls	r4, r3, #30
		p_pio->PIO_IFER = ul_mask;
  401c2c:	6202      	str	r2, [r0, #32]
	if (ul_attribute & PIO_DEGLITCH) {
  401c2e:	d548      	bpl.n	401cc2 <pio_configure+0xca>
		p_pio->PIO_IFSCDR = ul_mask;
  401c30:	f8c0 2080 	str.w	r2, [r0, #128]	; 0x80
	return 1;
  401c34:	2301      	movs	r3, #1
	p_pio->PIO_ODR = ul_mask;
  401c36:	6142      	str	r2, [r0, #20]
	p_pio->PIO_PER = ul_mask;
  401c38:	6002      	str	r2, [r0, #0]
}
  401c3a:	4618      	mov	r0, r3
  401c3c:	bc30      	pop	{r4, r5}
  401c3e:	4770      	bx	lr
				(ul_attribute & PIO_OPENDRAIN) ? 1 : 0,
  401c40:	f003 0404 	and.w	r4, r3, #4
	if (ul_pull_up_enable) {
  401c44:	07db      	lsls	r3, r3, #31
	p_pio->PIO_IDR = ul_mask;
  401c46:	6442      	str	r2, [r0, #68]	; 0x44
	if (ul_pull_up_enable) {
  401c48:	d52f      	bpl.n	401caa <pio_configure+0xb2>
		p_pio->PIO_PUER = ul_mask;
  401c4a:	6642      	str	r2, [r0, #100]	; 0x64
	if (ul_multidrive_enable) {
  401c4c:	2c00      	cmp	r4, #0
  401c4e:	d02f      	beq.n	401cb0 <pio_configure+0xb8>
		p_pio->PIO_MDER = ul_mask;
  401c50:	6502      	str	r2, [r0, #80]	; 0x50
	if (ul_default_level) {
  401c52:	f1b1 5f60 	cmp.w	r1, #939524096	; 0x38000000
  401c56:	d04e      	beq.n	401cf6 <pio_configure+0xfe>
		p_pio->PIO_CODR = ul_mask;
  401c58:	6342      	str	r2, [r0, #52]	; 0x34
	return 1;
  401c5a:	2301      	movs	r3, #1
	p_pio->PIO_OER = ul_mask;
  401c5c:	6102      	str	r2, [r0, #16]
	p_pio->PIO_PER = ul_mask;
  401c5e:	6002      	str	r2, [r0, #0]
}
  401c60:	4618      	mov	r0, r3
  401c62:	bc30      	pop	{r4, r5}
  401c64:	4770      	bx	lr
	switch (ul_type) {
  401c66:	f1b1 5f80 	cmp.w	r1, #268435456	; 0x10000000
  401c6a:	d005      	beq.n	401c78 <pio_configure+0x80>
  401c6c:	f1b1 5fc0 	cmp.w	r1, #402653184	; 0x18000000
  401c70:	d002      	beq.n	401c78 <pio_configure+0x80>
  401c72:	f1b1 6f00 	cmp.w	r1, #134217728	; 0x8000000
  401c76:	d1cd      	bne.n	401c14 <pio_configure+0x1c>
	switch (ul_type) {
  401c78:	f1b1 5f80 	cmp.w	r1, #268435456	; 0x10000000
	p_pio->PIO_IDR = ul_mask;
  401c7c:	6442      	str	r2, [r0, #68]	; 0x44
	switch (ul_type) {
  401c7e:	d03c      	beq.n	401cfa <pio_configure+0x102>
  401c80:	d924      	bls.n	401ccc <pio_configure+0xd4>
  401c82:	f1b1 5fc0 	cmp.w	r1, #402653184	; 0x18000000
  401c86:	d042      	beq.n	401d0e <pio_configure+0x116>
  401c88:	f1b1 5f00 	cmp.w	r1, #536870912	; 0x20000000
  401c8c:	d105      	bne.n	401c9a <pio_configure+0xa2>
		ul_sr = p_pio->PIO_ABCDSR[0];
  401c8e:	6f01      	ldr	r1, [r0, #112]	; 0x70
		p_pio->PIO_ABCDSR[0] = (ul_mask | ul_sr);
  401c90:	4311      	orrs	r1, r2
  401c92:	6701      	str	r1, [r0, #112]	; 0x70
		ul_sr = p_pio->PIO_ABCDSR[1];
  401c94:	6f41      	ldr	r1, [r0, #116]	; 0x74
		p_pio->PIO_ABCDSR[1] = (ul_mask | ul_sr);
  401c96:	4311      	orrs	r1, r2
  401c98:	6741      	str	r1, [r0, #116]	; 0x74
	if (ul_pull_up_enable) {
  401c9a:	07db      	lsls	r3, r3, #31
	p_pio->PIO_PDR = ul_mask;
  401c9c:	6042      	str	r2, [r0, #4]
	if (ul_pull_up_enable) {
  401c9e:	d525      	bpl.n	401cec <pio_configure+0xf4>
	return 1;
  401ca0:	2301      	movs	r3, #1
		p_pio->PIO_PUER = ul_mask;
  401ca2:	6642      	str	r2, [r0, #100]	; 0x64
}
  401ca4:	4618      	mov	r0, r3
  401ca6:	bc30      	pop	{r4, r5}
  401ca8:	4770      	bx	lr
		p_pio->PIO_PUDR = ul_mask;
  401caa:	6602      	str	r2, [r0, #96]	; 0x60
	if (ul_multidrive_enable) {
  401cac:	2c00      	cmp	r4, #0
  401cae:	d1cf      	bne.n	401c50 <pio_configure+0x58>
		p_pio->PIO_MDDR = ul_mask;
  401cb0:	6542      	str	r2, [r0, #84]	; 0x54
  401cb2:	e7ce      	b.n	401c52 <pio_configure+0x5a>
	if (ul_attribute & (PIO_DEGLITCH | PIO_DEBOUNCE)) {
  401cb4:	f013 0f0a 	tst.w	r3, #10
		p_pio->PIO_PUER = ul_mask;
  401cb8:	6642      	str	r2, [r0, #100]	; 0x64
	if (ul_attribute & (PIO_DEGLITCH | PIO_DEBOUNCE)) {
  401cba:	d1b6      	bne.n	401c2a <pio_configure+0x32>
	if (ul_attribute & PIO_DEGLITCH) {
  401cbc:	079c      	lsls	r4, r3, #30
		p_pio->PIO_IFDR = ul_mask;
  401cbe:	6242      	str	r2, [r0, #36]	; 0x24
	if (ul_attribute & PIO_DEGLITCH) {
  401cc0:	d4b6      	bmi.n	401c30 <pio_configure+0x38>
		if (ul_attribute & PIO_DEBOUNCE) {
  401cc2:	0719      	lsls	r1, r3, #28
  401cc4:	d5b6      	bpl.n	401c34 <pio_configure+0x3c>
			p_pio->PIO_IFSCER = ul_mask;
  401cc6:	f8c0 2084 	str.w	r2, [r0, #132]	; 0x84
  401cca:	e7b3      	b.n	401c34 <pio_configure+0x3c>
	switch (ul_type) {
  401ccc:	f1b1 6f00 	cmp.w	r1, #134217728	; 0x8000000
  401cd0:	d1e3      	bne.n	401c9a <pio_configure+0xa2>
		ul_sr = p_pio->PIO_ABCDSR[0];
  401cd2:	6f04      	ldr	r4, [r0, #112]	; 0x70
		p_pio->PIO_ABCDSR[0] &= (~ul_mask & ul_sr);
  401cd4:	43d1      	mvns	r1, r2
  401cd6:	6f05      	ldr	r5, [r0, #112]	; 0x70
  401cd8:	402c      	ands	r4, r5
  401cda:	460d      	mov	r5, r1
  401cdc:	400c      	ands	r4, r1
  401cde:	6704      	str	r4, [r0, #112]	; 0x70
		ul_sr = p_pio->PIO_ABCDSR[1];
  401ce0:	6f41      	ldr	r1, [r0, #116]	; 0x74
		p_pio->PIO_ABCDSR[1] &= (~ul_mask & ul_sr);
  401ce2:	6f44      	ldr	r4, [r0, #116]	; 0x74
  401ce4:	4021      	ands	r1, r4
  401ce6:	4029      	ands	r1, r5
  401ce8:	6741      	str	r1, [r0, #116]	; 0x74
  401cea:	e7d6      	b.n	401c9a <pio_configure+0xa2>
	return 1;
  401cec:	2301      	movs	r3, #1
		p_pio->PIO_PUDR = ul_mask;
  401cee:	6602      	str	r2, [r0, #96]	; 0x60
}
  401cf0:	4618      	mov	r0, r3
  401cf2:	bc30      	pop	{r4, r5}
  401cf4:	4770      	bx	lr
		p_pio->PIO_SODR = ul_mask;
  401cf6:	6302      	str	r2, [r0, #48]	; 0x30
  401cf8:	e7af      	b.n	401c5a <pio_configure+0x62>
		ul_sr = p_pio->PIO_ABCDSR[0];
  401cfa:	6f01      	ldr	r1, [r0, #112]	; 0x70
		p_pio->PIO_ABCDSR[0] = (ul_mask | ul_sr);
  401cfc:	4311      	orrs	r1, r2
  401cfe:	6701      	str	r1, [r0, #112]	; 0x70
		ul_sr = p_pio->PIO_ABCDSR[1];
  401d00:	6f41      	ldr	r1, [r0, #116]	; 0x74
		p_pio->PIO_ABCDSR[1] &= (~ul_mask & ul_sr);
  401d02:	6f44      	ldr	r4, [r0, #116]	; 0x74
  401d04:	4021      	ands	r1, r4
  401d06:	ea21 0102 	bic.w	r1, r1, r2
  401d0a:	6741      	str	r1, [r0, #116]	; 0x74
  401d0c:	e7c5      	b.n	401c9a <pio_configure+0xa2>
		ul_sr = p_pio->PIO_ABCDSR[0];
  401d0e:	6f01      	ldr	r1, [r0, #112]	; 0x70
		p_pio->PIO_ABCDSR[0] &= (~ul_mask & ul_sr);
  401d10:	6f04      	ldr	r4, [r0, #112]	; 0x70
  401d12:	4021      	ands	r1, r4
  401d14:	ea21 0102 	bic.w	r1, r1, r2
  401d18:	6701      	str	r1, [r0, #112]	; 0x70
		ul_sr = p_pio->PIO_ABCDSR[1];
  401d1a:	6f41      	ldr	r1, [r0, #116]	; 0x74
		p_pio->PIO_ABCDSR[1] = (ul_mask | ul_sr);
  401d1c:	4311      	orrs	r1, r2
  401d1e:	6741      	str	r1, [r0, #116]	; 0x74
  401d20:	e7bb      	b.n	401c9a <pio_configure+0xa2>
  401d22:	bf00      	nop

00401d24 <pio_get_interrupt_status>:
 *
 * \return The interrupt status value.
 */
uint32_t pio_get_interrupt_status(const Pio *p_pio)
{
	return p_pio->PIO_ISR;
  401d24:	6cc0      	ldr	r0, [r0, #76]	; 0x4c
}
  401d26:	4770      	bx	lr

00401d28 <pio_get_interrupt_mask>:
 *
 * \return The interrupt mask value.
 */
uint32_t pio_get_interrupt_mask(const Pio *p_pio)
{
	return p_pio->PIO_IMR;
  401d28:	6c80      	ldr	r0, [r0, #72]	; 0x48
}
  401d2a:	4770      	bx	lr

00401d2c <pio_configure_pin>:
		p_pio = PIOC;
	} else {
		p_pio = (Pio *)((uint32_t)PIOA + (PIO_DELTA * (ul_pin >> 5)));
	}
#else
	p_pio = (Pio *)((uint32_t)PIOA + (PIO_DELTA * (ul_pin >> 5)));
  401d2c:	4b53      	ldr	r3, [pc, #332]	; (401e7c <pio_configure_pin+0x150>)
	switch (ul_flags & PIO_TYPE_Msk) {
  401d2e:	f001 42f0 	and.w	r2, r1, #2013265920	; 0x78000000
	p_pio = (Pio *)((uint32_t)PIOA + (PIO_DELTA * (ul_pin >> 5)));
  401d32:	eb03 1350 	add.w	r3, r3, r0, lsr #5
	switch (ul_flags & PIO_TYPE_Msk) {
  401d36:	f1b2 5f00 	cmp.w	r2, #536870912	; 0x20000000
{
  401d3a:	b470      	push	{r4, r5, r6}
	p_pio = (Pio *)((uint32_t)PIOA + (PIO_DELTA * (ul_pin >> 5)));
  401d3c:	ea4f 2343 	mov.w	r3, r3, lsl #9
	switch (ul_flags & PIO_TYPE_Msk) {
  401d40:	d06d      	beq.n	401e1e <pio_configure_pin+0xf2>
  401d42:	d80b      	bhi.n	401d5c <pio_configure_pin+0x30>
  401d44:	f1b2 5f80 	cmp.w	r2, #268435456	; 0x10000000
  401d48:	d027      	beq.n	401d9a <pio_configure_pin+0x6e>
  401d4a:	f1b2 5fc0 	cmp.w	r2, #402653184	; 0x18000000
  401d4e:	d052      	beq.n	401df6 <pio_configure_pin+0xca>
  401d50:	f1b2 6f00 	cmp.w	r2, #134217728	; 0x8000000
  401d54:	d038      	beq.n	401dc8 <pio_configure_pin+0x9c>
		return 0;
  401d56:	2000      	movs	r0, #0
}
  401d58:	bc70      	pop	{r4, r5, r6}
  401d5a:	4770      	bx	lr
	switch (ul_flags & PIO_TYPE_Msk) {
  401d5c:	f1b2 5f40 	cmp.w	r2, #805306368	; 0x30000000
  401d60:	d066      	beq.n	401e30 <pio_configure_pin+0x104>
  401d62:	f1b2 5f60 	cmp.w	r2, #939524096	; 0x38000000
  401d66:	d063      	beq.n	401e30 <pio_configure_pin+0x104>
  401d68:	f1b2 5f20 	cmp.w	r2, #671088640	; 0x28000000
  401d6c:	d1f3      	bne.n	401d56 <pio_configure_pin+0x2a>
		pio_set_input(p_pio, (1 << (ul_pin & 0x1F)), ul_flags);
  401d6e:	f000 001f 	and.w	r0, r0, #31
  401d72:	2201      	movs	r2, #1
	if (ul_pull_up_enable) {
  401d74:	07cd      	lsls	r5, r1, #31
		pio_set_input(p_pio, (1 << (ul_pin & 0x1F)), ul_flags);
  401d76:	fa02 f200 	lsl.w	r2, r2, r0
	p_pio->PIO_IDR = ul_mask;
  401d7a:	645a      	str	r2, [r3, #68]	; 0x44
	if (ul_pull_up_enable) {
  401d7c:	d573      	bpl.n	401e66 <pio_configure_pin+0x13a>
		p_pio->PIO_PUER = ul_mask;
  401d7e:	665a      	str	r2, [r3, #100]	; 0x64
	if (ul_attribute & (PIO_DEGLITCH | PIO_DEBOUNCE)) {
  401d80:	f011 0f0a 	tst.w	r1, #10
  401d84:	d06d      	beq.n	401e62 <pio_configure_pin+0x136>
		p_pio->PIO_IFER = ul_mask;
  401d86:	621a      	str	r2, [r3, #32]
	if (ul_attribute & PIO_DEGLITCH) {
  401d88:	078c      	lsls	r4, r1, #30
  401d8a:	d56e      	bpl.n	401e6a <pio_configure_pin+0x13e>
		p_pio->PIO_IFSCDR = ul_mask;
  401d8c:	f8c3 2080 	str.w	r2, [r3, #128]	; 0x80
	p_pio->PIO_ODR = ul_mask;
  401d90:	615a      	str	r2, [r3, #20]
	return 1;
  401d92:	2001      	movs	r0, #1
	p_pio->PIO_PER = ul_mask;
  401d94:	601a      	str	r2, [r3, #0]
}
  401d96:	bc70      	pop	{r4, r5, r6}
  401d98:	4770      	bx	lr
		pio_set_peripheral(p_pio, PIO_PERIPH_B, (1 << (ul_pin & 0x1F)));
  401d9a:	f000 021f 	and.w	r2, r0, #31
  401d9e:	2001      	movs	r0, #1
	if (ul_pull_up_enable) {
  401da0:	07c9      	lsls	r1, r1, #31
		pio_set_peripheral(p_pio, PIO_PERIPH_B, (1 << (ul_pin & 0x1F)));
  401da2:	fa00 f202 	lsl.w	r2, r0, r2
	p_pio->PIO_IDR = ul_mask;
  401da6:	645a      	str	r2, [r3, #68]	; 0x44
		ul_sr = p_pio->PIO_ABCDSR[0];
  401da8:	6f1c      	ldr	r4, [r3, #112]	; 0x70
		p_pio->PIO_ABCDSR[0] = (ul_mask | ul_sr);
  401daa:	ea44 0402 	orr.w	r4, r4, r2
  401dae:	671c      	str	r4, [r3, #112]	; 0x70
		ul_sr = p_pio->PIO_ABCDSR[1];
  401db0:	6f5c      	ldr	r4, [r3, #116]	; 0x74
		p_pio->PIO_ABCDSR[1] &= (~ul_mask & ul_sr);
  401db2:	6f5d      	ldr	r5, [r3, #116]	; 0x74
  401db4:	ea04 0405 	and.w	r4, r4, r5
  401db8:	ea24 0402 	bic.w	r4, r4, r2
  401dbc:	675c      	str	r4, [r3, #116]	; 0x74
	p_pio->PIO_PDR = ul_mask;
  401dbe:	605a      	str	r2, [r3, #4]
	if (ul_pull_up_enable) {
  401dc0:	d516      	bpl.n	401df0 <pio_configure_pin+0xc4>
		p_pio->PIO_PUER = ul_mask;
  401dc2:	665a      	str	r2, [r3, #100]	; 0x64
}
  401dc4:	bc70      	pop	{r4, r5, r6}
  401dc6:	4770      	bx	lr
		pio_set_peripheral(p_pio, PIO_PERIPH_A, (1 << (ul_pin & 0x1F)));
  401dc8:	f000 021f 	and.w	r2, r0, #31
  401dcc:	2001      	movs	r0, #1
  401dce:	fa00 f202 	lsl.w	r2, r0, r2
	p_pio->PIO_IDR = ul_mask;
  401dd2:	645a      	str	r2, [r3, #68]	; 0x44
		p_pio->PIO_ABCDSR[0] &= (~ul_mask & ul_sr);
  401dd4:	43d6      	mvns	r6, r2
		ul_sr = p_pio->PIO_ABCDSR[0];
  401dd6:	6f1d      	ldr	r5, [r3, #112]	; 0x70
		p_pio->PIO_ABCDSR[0] &= (~ul_mask & ul_sr);
  401dd8:	6f1c      	ldr	r4, [r3, #112]	; 0x70
  401dda:	4025      	ands	r5, r4
  401ddc:	4035      	ands	r5, r6
  401dde:	671d      	str	r5, [r3, #112]	; 0x70
		ul_sr = p_pio->PIO_ABCDSR[1];
  401de0:	6f5c      	ldr	r4, [r3, #116]	; 0x74
		p_pio->PIO_ABCDSR[1] &= (~ul_mask & ul_sr);
  401de2:	6f5d      	ldr	r5, [r3, #116]	; 0x74
  401de4:	402c      	ands	r4, r5
  401de6:	4034      	ands	r4, r6
  401de8:	675c      	str	r4, [r3, #116]	; 0x74
	if (ul_pull_up_enable) {
  401dea:	07cc      	lsls	r4, r1, #31
	p_pio->PIO_PDR = ul_mask;
  401dec:	605a      	str	r2, [r3, #4]
	if (ul_pull_up_enable) {
  401dee:	d4e8      	bmi.n	401dc2 <pio_configure_pin+0x96>
		p_pio->PIO_PUDR = ul_mask;
  401df0:	661a      	str	r2, [r3, #96]	; 0x60
}
  401df2:	bc70      	pop	{r4, r5, r6}
  401df4:	4770      	bx	lr
		pio_set_peripheral(p_pio, PIO_PERIPH_C, (1 << (ul_pin & 0x1F)));
  401df6:	f000 021f 	and.w	r2, r0, #31
  401dfa:	2001      	movs	r0, #1
  401dfc:	fa00 f202 	lsl.w	r2, r0, r2
	p_pio->PIO_IDR = ul_mask;
  401e00:	645a      	str	r2, [r3, #68]	; 0x44
		ul_sr = p_pio->PIO_ABCDSR[0];
  401e02:	6f1c      	ldr	r4, [r3, #112]	; 0x70
		p_pio->PIO_ABCDSR[0] &= (~ul_mask & ul_sr);
  401e04:	6f1d      	ldr	r5, [r3, #112]	; 0x70
  401e06:	402c      	ands	r4, r5
  401e08:	ea24 0402 	bic.w	r4, r4, r2
		p_pio->PIO_ABCDSR[0] = (ul_mask | ul_sr);
  401e0c:	671c      	str	r4, [r3, #112]	; 0x70
	if (ul_pull_up_enable) {
  401e0e:	07ce      	lsls	r6, r1, #31
		ul_sr = p_pio->PIO_ABCDSR[1];
  401e10:	6f5c      	ldr	r4, [r3, #116]	; 0x74
		p_pio->PIO_ABCDSR[1] = (ul_mask | ul_sr);
  401e12:	ea44 0402 	orr.w	r4, r4, r2
  401e16:	675c      	str	r4, [r3, #116]	; 0x74
	p_pio->PIO_PDR = ul_mask;
  401e18:	605a      	str	r2, [r3, #4]
	if (ul_pull_up_enable) {
  401e1a:	d5e9      	bpl.n	401df0 <pio_configure_pin+0xc4>
  401e1c:	e7d1      	b.n	401dc2 <pio_configure_pin+0x96>
		pio_set_peripheral(p_pio, PIO_PERIPH_D, (1 << (ul_pin & 0x1F)));
  401e1e:	f000 021f 	and.w	r2, r0, #31
  401e22:	2001      	movs	r0, #1
  401e24:	fa00 f202 	lsl.w	r2, r0, r2
	p_pio->PIO_IDR = ul_mask;
  401e28:	645a      	str	r2, [r3, #68]	; 0x44
		ul_sr = p_pio->PIO_ABCDSR[0];
  401e2a:	6f1c      	ldr	r4, [r3, #112]	; 0x70
		p_pio->PIO_ABCDSR[0] = (ul_mask | ul_sr);
  401e2c:	4314      	orrs	r4, r2
  401e2e:	e7ed      	b.n	401e0c <pio_configure_pin+0xe0>
		pio_set_output(p_pio, (1 << (ul_pin & 0x1F)),
  401e30:	f000 001f 	and.w	r0, r0, #31
  401e34:	2201      	movs	r2, #1
				((ul_flags & PIO_TYPE_PIO_OUTPUT_1)
  401e36:	f001 5460 	and.w	r4, r1, #939524096	; 0x38000000
				(ul_flags & PIO_OPENDRAIN) ? 1 : 0,
  401e3a:	f001 0504 	and.w	r5, r1, #4
		pio_set_output(p_pio, (1 << (ul_pin & 0x1F)),
  401e3e:	4082      	lsls	r2, r0
	if (ul_pull_up_enable) {
  401e40:	07c9      	lsls	r1, r1, #31
	p_pio->PIO_IDR = ul_mask;
  401e42:	645a      	str	r2, [r3, #68]	; 0x44
	if (ul_pull_up_enable) {
  401e44:	d50b      	bpl.n	401e5e <pio_configure_pin+0x132>
		p_pio->PIO_PUER = ul_mask;
  401e46:	665a      	str	r2, [r3, #100]	; 0x64
	if (ul_multidrive_enable) {
  401e48:	b1a5      	cbz	r5, 401e74 <pio_configure_pin+0x148>
		p_pio->PIO_MDER = ul_mask;
  401e4a:	651a      	str	r2, [r3, #80]	; 0x50
	if (ul_default_level) {
  401e4c:	f1b4 5f60 	cmp.w	r4, #939524096	; 0x38000000
  401e50:	d012      	beq.n	401e78 <pio_configure_pin+0x14c>
		p_pio->PIO_CODR = ul_mask;
  401e52:	635a      	str	r2, [r3, #52]	; 0x34
	p_pio->PIO_OER = ul_mask;
  401e54:	611a      	str	r2, [r3, #16]
	return 1;
  401e56:	2001      	movs	r0, #1
	p_pio->PIO_PER = ul_mask;
  401e58:	601a      	str	r2, [r3, #0]
}
  401e5a:	bc70      	pop	{r4, r5, r6}
  401e5c:	4770      	bx	lr
		p_pio->PIO_PUDR = ul_mask;
  401e5e:	661a      	str	r2, [r3, #96]	; 0x60
  401e60:	e7f2      	b.n	401e48 <pio_configure_pin+0x11c>
		p_pio->PIO_IFDR = ul_mask;
  401e62:	625a      	str	r2, [r3, #36]	; 0x24
  401e64:	e790      	b.n	401d88 <pio_configure_pin+0x5c>
		p_pio->PIO_PUDR = ul_mask;
  401e66:	661a      	str	r2, [r3, #96]	; 0x60
  401e68:	e78a      	b.n	401d80 <pio_configure_pin+0x54>
		if (ul_attribute & PIO_DEBOUNCE) {
  401e6a:	0708      	lsls	r0, r1, #28
  401e6c:	d590      	bpl.n	401d90 <pio_configure_pin+0x64>
			p_pio->PIO_IFSCER = ul_mask;
  401e6e:	f8c3 2084 	str.w	r2, [r3, #132]	; 0x84
  401e72:	e78d      	b.n	401d90 <pio_configure_pin+0x64>
		p_pio->PIO_MDDR = ul_mask;
  401e74:	655a      	str	r2, [r3, #84]	; 0x54
  401e76:	e7e9      	b.n	401e4c <pio_configure_pin+0x120>
		p_pio->PIO_SODR = ul_mask;
  401e78:	631a      	str	r2, [r3, #48]	; 0x30
  401e7a:	e7eb      	b.n	401e54 <pio_configure_pin+0x128>
  401e7c:	00200707 	.word	0x00200707

00401e80 <PIOA_Handler>:
/**
 * \brief Parallel IO Controller A interrupt handler.
 * Redefined PIOA interrupt handler for NVIC interrupt table.
 */
void PIOA_Handler(void)
{
  401e80:	b570      	push	{r4, r5, r6, lr}
	status = pio_get_interrupt_status(p_pio);
  401e82:	4b2e      	ldr	r3, [pc, #184]	; (401f3c <PIOA_Handler+0xbc>)
  401e84:	482e      	ldr	r0, [pc, #184]	; (401f40 <PIOA_Handler+0xc0>)
  401e86:	4798      	blx	r3
  401e88:	4605      	mov	r5, r0
	status &= pio_get_interrupt_mask(p_pio);
  401e8a:	4b2e      	ldr	r3, [pc, #184]	; (401f44 <PIOA_Handler+0xc4>)
  401e8c:	482c      	ldr	r0, [pc, #176]	; (401f40 <PIOA_Handler+0xc0>)
  401e8e:	4798      	blx	r3
	if (status != 0) {
  401e90:	4005      	ands	r5, r0
  401e92:	d015      	beq.n	401ec0 <PIOA_Handler+0x40>
			if (gs_interrupt_sources[i].id == ul_id) {
  401e94:	4c2c      	ldr	r4, [pc, #176]	; (401f48 <PIOA_Handler+0xc8>)
  401e96:	6820      	ldr	r0, [r4, #0]
  401e98:	280a      	cmp	r0, #10
  401e9a:	d019      	beq.n	401ed0 <PIOA_Handler+0x50>
  401e9c:	6920      	ldr	r0, [r4, #16]
  401e9e:	280a      	cmp	r0, #10
  401ea0:	d01f      	beq.n	401ee2 <PIOA_Handler+0x62>
  401ea2:	6a20      	ldr	r0, [r4, #32]
  401ea4:	280a      	cmp	r0, #10
  401ea6:	d025      	beq.n	401ef4 <PIOA_Handler+0x74>
  401ea8:	6b20      	ldr	r0, [r4, #48]	; 0x30
  401eaa:	280a      	cmp	r0, #10
  401eac:	d02b      	beq.n	401f06 <PIOA_Handler+0x86>
  401eae:	6c20      	ldr	r0, [r4, #64]	; 0x40
  401eb0:	280a      	cmp	r0, #10
  401eb2:	d031      	beq.n	401f18 <PIOA_Handler+0x98>
  401eb4:	6d20      	ldr	r0, [r4, #80]	; 0x50
  401eb6:	280a      	cmp	r0, #10
  401eb8:	d037      	beq.n	401f2a <PIOA_Handler+0xaa>
  401eba:	6e20      	ldr	r0, [r4, #96]	; 0x60
  401ebc:	280a      	cmp	r0, #10
  401ebe:	d000      	beq.n	401ec2 <PIOA_Handler+0x42>
  401ec0:	bd70      	pop	{r4, r5, r6, pc}
				if ((status & gs_interrupt_sources[i].mask) != 0) {
  401ec2:	6e61      	ldr	r1, [r4, #100]	; 0x64
  401ec4:	4229      	tst	r1, r5
  401ec6:	d0fb      	beq.n	401ec0 <PIOA_Handler+0x40>
					gs_interrupt_sources[i].handler(gs_interrupt_sources[i].id,
  401ec8:	6ee3      	ldr	r3, [r4, #108]	; 0x6c
	pio_handler_process(PIOA, ID_PIOA);
}
  401eca:	e8bd 4070 	ldmia.w	sp!, {r4, r5, r6, lr}
					gs_interrupt_sources[i].handler(gs_interrupt_sources[i].id,
  401ece:	4718      	bx	r3
				if ((status & gs_interrupt_sources[i].mask) != 0) {
  401ed0:	6861      	ldr	r1, [r4, #4]
  401ed2:	420d      	tst	r5, r1
  401ed4:	d0e2      	beq.n	401e9c <PIOA_Handler+0x1c>
					gs_interrupt_sources[i].handler(gs_interrupt_sources[i].id,
  401ed6:	68e3      	ldr	r3, [r4, #12]
  401ed8:	4798      	blx	r3
					status &= ~(gs_interrupt_sources[i].mask);
  401eda:	6863      	ldr	r3, [r4, #4]
		while (status != 0) {
  401edc:	439d      	bics	r5, r3
  401ede:	d0ef      	beq.n	401ec0 <PIOA_Handler+0x40>
  401ee0:	e7dc      	b.n	401e9c <PIOA_Handler+0x1c>
				if ((status & gs_interrupt_sources[i].mask) != 0) {
  401ee2:	6961      	ldr	r1, [r4, #20]
  401ee4:	4229      	tst	r1, r5
  401ee6:	d0dc      	beq.n	401ea2 <PIOA_Handler+0x22>
					gs_interrupt_sources[i].handler(gs_interrupt_sources[i].id,
  401ee8:	69e3      	ldr	r3, [r4, #28]
  401eea:	4798      	blx	r3
					status &= ~(gs_interrupt_sources[i].mask);
  401eec:	6963      	ldr	r3, [r4, #20]
		while (status != 0) {
  401eee:	439d      	bics	r5, r3
  401ef0:	d0e6      	beq.n	401ec0 <PIOA_Handler+0x40>
  401ef2:	e7d6      	b.n	401ea2 <PIOA_Handler+0x22>
				if ((status & gs_interrupt_sources[i].mask) != 0) {
  401ef4:	6a61      	ldr	r1, [r4, #36]	; 0x24
  401ef6:	4229      	tst	r1, r5
  401ef8:	d0d6      	beq.n	401ea8 <PIOA_Handler+0x28>
					gs_interrupt_sources[i].handler(gs_interrupt_sources[i].id,
  401efa:	6ae3      	ldr	r3, [r4, #44]	; 0x2c
  401efc:	4798      	blx	r3
					status &= ~(gs_interrupt_sources[i].mask);
  401efe:	6a63      	ldr	r3, [r4, #36]	; 0x24
		while (status != 0) {
  401f00:	439d      	bics	r5, r3
  401f02:	d0dd      	beq.n	401ec0 <PIOA_Handler+0x40>
  401f04:	e7d0      	b.n	401ea8 <PIOA_Handler+0x28>
				if ((status & gs_interrupt_sources[i].mask) != 0) {
  401f06:	6b61      	ldr	r1, [r4, #52]	; 0x34
  401f08:	4229      	tst	r1, r5
  401f0a:	d0d0      	beq.n	401eae <PIOA_Handler+0x2e>
					gs_interrupt_sources[i].handler(gs_interrupt_sources[i].id,
  401f0c:	6be3      	ldr	r3, [r4, #60]	; 0x3c
  401f0e:	4798      	blx	r3
					status &= ~(gs_interrupt_sources[i].mask);
  401f10:	6b63      	ldr	r3, [r4, #52]	; 0x34
		while (status != 0) {
  401f12:	439d      	bics	r5, r3
  401f14:	d0d4      	beq.n	401ec0 <PIOA_Handler+0x40>
  401f16:	e7ca      	b.n	401eae <PIOA_Handler+0x2e>
				if ((status & gs_interrupt_sources[i].mask) != 0) {
  401f18:	6c61      	ldr	r1, [r4, #68]	; 0x44
  401f1a:	4229      	tst	r1, r5
  401f1c:	d0ca      	beq.n	401eb4 <PIOA_Handler+0x34>
					gs_interrupt_sources[i].handler(gs_interrupt_sources[i].id,
  401f1e:	6ce3      	ldr	r3, [r4, #76]	; 0x4c
  401f20:	4798      	blx	r3
					status &= ~(gs_interrupt_sources[i].mask);
  401f22:	6c63      	ldr	r3, [r4, #68]	; 0x44
		while (status != 0) {
  401f24:	439d      	bics	r5, r3
  401f26:	d0cb      	beq.n	401ec0 <PIOA_Handler+0x40>
  401f28:	e7c4      	b.n	401eb4 <PIOA_Handler+0x34>
				if ((status & gs_interrupt_sources[i].mask) != 0) {
  401f2a:	6d61      	ldr	r1, [r4, #84]	; 0x54
  401f2c:	4229      	tst	r1, r5
  401f2e:	d0c4      	beq.n	401eba <PIOA_Handler+0x3a>
					gs_interrupt_sources[i].handler(gs_interrupt_sources[i].id,
  401f30:	6de3      	ldr	r3, [r4, #92]	; 0x5c
  401f32:	4798      	blx	r3
					status &= ~(gs_interrupt_sources[i].mask);
  401f34:	6d63      	ldr	r3, [r4, #84]	; 0x54
		while (status != 0) {
  401f36:	439d      	bics	r5, r3
  401f38:	d0c2      	beq.n	401ec0 <PIOA_Handler+0x40>
  401f3a:	e7be      	b.n	401eba <PIOA_Handler+0x3a>
  401f3c:	00401d25 	.word	0x00401d25
  401f40:	400e0e00 	.word	0x400e0e00
  401f44:	00401d29 	.word	0x00401d29
  401f48:	2041c060 	.word	0x2041c060

00401f4c <PIOB_Handler>:
/**
 * \brief Parallel IO Controller B interrupt handler
 * Redefined PIOB interrupt handler for NVIC interrupt table.
 */
void PIOB_Handler(void)
{
  401f4c:	b570      	push	{r4, r5, r6, lr}
	status = pio_get_interrupt_status(p_pio);
  401f4e:	4b2e      	ldr	r3, [pc, #184]	; (402008 <PIOB_Handler+0xbc>)
  401f50:	482e      	ldr	r0, [pc, #184]	; (40200c <PIOB_Handler+0xc0>)
  401f52:	4798      	blx	r3
  401f54:	4605      	mov	r5, r0
	status &= pio_get_interrupt_mask(p_pio);
  401f56:	4b2e      	ldr	r3, [pc, #184]	; (402010 <PIOB_Handler+0xc4>)
  401f58:	482c      	ldr	r0, [pc, #176]	; (40200c <PIOB_Handler+0xc0>)
  401f5a:	4798      	blx	r3
	if (status != 0) {
  401f5c:	4005      	ands	r5, r0
  401f5e:	d015      	beq.n	401f8c <PIOB_Handler+0x40>
			if (gs_interrupt_sources[i].id == ul_id) {
  401f60:	4c2c      	ldr	r4, [pc, #176]	; (402014 <PIOB_Handler+0xc8>)
  401f62:	6820      	ldr	r0, [r4, #0]
  401f64:	280b      	cmp	r0, #11
  401f66:	d019      	beq.n	401f9c <PIOB_Handler+0x50>
  401f68:	6920      	ldr	r0, [r4, #16]
  401f6a:	280b      	cmp	r0, #11
  401f6c:	d01f      	beq.n	401fae <PIOB_Handler+0x62>
  401f6e:	6a20      	ldr	r0, [r4, #32]
  401f70:	280b      	cmp	r0, #11
  401f72:	d025      	beq.n	401fc0 <PIOB_Handler+0x74>
  401f74:	6b20      	ldr	r0, [r4, #48]	; 0x30
  401f76:	280b      	cmp	r0, #11
  401f78:	d02b      	beq.n	401fd2 <PIOB_Handler+0x86>
  401f7a:	6c20      	ldr	r0, [r4, #64]	; 0x40
  401f7c:	280b      	cmp	r0, #11
  401f7e:	d031      	beq.n	401fe4 <PIOB_Handler+0x98>
  401f80:	6d20      	ldr	r0, [r4, #80]	; 0x50
  401f82:	280b      	cmp	r0, #11
  401f84:	d037      	beq.n	401ff6 <PIOB_Handler+0xaa>
  401f86:	6e20      	ldr	r0, [r4, #96]	; 0x60
  401f88:	280b      	cmp	r0, #11
  401f8a:	d000      	beq.n	401f8e <PIOB_Handler+0x42>
  401f8c:	bd70      	pop	{r4, r5, r6, pc}
				if ((status & gs_interrupt_sources[i].mask) != 0) {
  401f8e:	6e61      	ldr	r1, [r4, #100]	; 0x64
  401f90:	4229      	tst	r1, r5
  401f92:	d0fb      	beq.n	401f8c <PIOB_Handler+0x40>
					gs_interrupt_sources[i].handler(gs_interrupt_sources[i].id,
  401f94:	6ee3      	ldr	r3, [r4, #108]	; 0x6c
    pio_handler_process(PIOB, ID_PIOB);
}
  401f96:	e8bd 4070 	ldmia.w	sp!, {r4, r5, r6, lr}
					gs_interrupt_sources[i].handler(gs_interrupt_sources[i].id,
  401f9a:	4718      	bx	r3
				if ((status & gs_interrupt_sources[i].mask) != 0) {
  401f9c:	6861      	ldr	r1, [r4, #4]
  401f9e:	420d      	tst	r5, r1
  401fa0:	d0e2      	beq.n	401f68 <PIOB_Handler+0x1c>
					gs_interrupt_sources[i].handler(gs_interrupt_sources[i].id,
  401fa2:	68e3      	ldr	r3, [r4, #12]
  401fa4:	4798      	blx	r3
					status &= ~(gs_interrupt_sources[i].mask);
  401fa6:	6863      	ldr	r3, [r4, #4]
		while (status != 0) {
  401fa8:	439d      	bics	r5, r3
  401faa:	d0ef      	beq.n	401f8c <PIOB_Handler+0x40>
  401fac:	e7dc      	b.n	401f68 <PIOB_Handler+0x1c>
				if ((status & gs_interrupt_sources[i].mask) != 0) {
  401fae:	6961      	ldr	r1, [r4, #20]
  401fb0:	4229      	tst	r1, r5
  401fb2:	d0dc      	beq.n	401f6e <PIOB_Handler+0x22>
					gs_interrupt_sources[i].handler(gs_interrupt_sources[i].id,
  401fb4:	69e3      	ldr	r3, [r4, #28]
  401fb6:	4798      	blx	r3
					status &= ~(gs_interrupt_sources[i].mask);
  401fb8:	6963      	ldr	r3, [r4, #20]
		while (status != 0) {
  401fba:	439d      	bics	r5, r3
  401fbc:	d0e6      	beq.n	401f8c <PIOB_Handler+0x40>
  401fbe:	e7d6      	b.n	401f6e <PIOB_Handler+0x22>
				if ((status & gs_interrupt_sources[i].mask) != 0) {
  401fc0:	6a61      	ldr	r1, [r4, #36]	; 0x24
  401fc2:	4229      	tst	r1, r5
  401fc4:	d0d6      	beq.n	401f74 <PIOB_Handler+0x28>
					gs_interrupt_sources[i].handler(gs_interrupt_sources[i].id,
  401fc6:	6ae3      	ldr	r3, [r4, #44]	; 0x2c
  401fc8:	4798      	blx	r3
					status &= ~(gs_interrupt_sources[i].mask);
  401fca:	6a63      	ldr	r3, [r4, #36]	; 0x24
		while (status != 0) {
  401fcc:	439d      	bics	r5, r3
  401fce:	d0dd      	beq.n	401f8c <PIOB_Handler+0x40>
  401fd0:	e7d0      	b.n	401f74 <PIOB_Handler+0x28>
				if ((status & gs_interrupt_sources[i].mask) != 0) {
  401fd2:	6b61      	ldr	r1, [r4, #52]	; 0x34
  401fd4:	4229      	tst	r1, r5
  401fd6:	d0d0      	beq.n	401f7a <PIOB_Handler+0x2e>
					gs_interrupt_sources[i].handler(gs_interrupt_sources[i].id,
  401fd8:	6be3      	ldr	r3, [r4, #60]	; 0x3c
  401fda:	4798      	blx	r3
					status &= ~(gs_interrupt_sources[i].mask);
  401fdc:	6b63      	ldr	r3, [r4, #52]	; 0x34
		while (status != 0) {
  401fde:	439d      	bics	r5, r3
  401fe0:	d0d4      	beq.n	401f8c <PIOB_Handler+0x40>
  401fe2:	e7ca      	b.n	401f7a <PIOB_Handler+0x2e>
				if ((status & gs_interrupt_sources[i].mask) != 0) {
  401fe4:	6c61      	ldr	r1, [r4, #68]	; 0x44
  401fe6:	4229      	tst	r1, r5
  401fe8:	d0ca      	beq.n	401f80 <PIOB_Handler+0x34>
					gs_interrupt_sources[i].handler(gs_interrupt_sources[i].id,
  401fea:	6ce3      	ldr	r3, [r4, #76]	; 0x4c
  401fec:	4798      	blx	r3
					status &= ~(gs_interrupt_sources[i].mask);
  401fee:	6c63      	ldr	r3, [r4, #68]	; 0x44
		while (status != 0) {
  401ff0:	439d      	bics	r5, r3
  401ff2:	d0cb      	beq.n	401f8c <PIOB_Handler+0x40>
  401ff4:	e7c4      	b.n	401f80 <PIOB_Handler+0x34>
				if ((status & gs_interrupt_sources[i].mask) != 0) {
  401ff6:	6d61      	ldr	r1, [r4, #84]	; 0x54
  401ff8:	4229      	tst	r1, r5
  401ffa:	d0c4      	beq.n	401f86 <PIOB_Handler+0x3a>
					gs_interrupt_sources[i].handler(gs_interrupt_sources[i].id,
  401ffc:	6de3      	ldr	r3, [r4, #92]	; 0x5c
  401ffe:	4798      	blx	r3
					status &= ~(gs_interrupt_sources[i].mask);
  402000:	6d63      	ldr	r3, [r4, #84]	; 0x54
		while (status != 0) {
  402002:	439d      	bics	r5, r3
  402004:	d0c2      	beq.n	401f8c <PIOB_Handler+0x40>
  402006:	e7be      	b.n	401f86 <PIOB_Handler+0x3a>
  402008:	00401d25 	.word	0x00401d25
  40200c:	400e1000 	.word	0x400e1000
  402010:	00401d29 	.word	0x00401d29
  402014:	2041c060 	.word	0x2041c060

00402018 <PIOC_Handler>:
/**
 * \brief Parallel IO Controller C interrupt handler.
 * Redefined PIOC interrupt handler for NVIC interrupt table.
 */
void PIOC_Handler(void)
{
  402018:	b570      	push	{r4, r5, r6, lr}
	status = pio_get_interrupt_status(p_pio);
  40201a:	4b2e      	ldr	r3, [pc, #184]	; (4020d4 <PIOC_Handler+0xbc>)
  40201c:	482e      	ldr	r0, [pc, #184]	; (4020d8 <PIOC_Handler+0xc0>)
  40201e:	4798      	blx	r3
  402020:	4605      	mov	r5, r0
	status &= pio_get_interrupt_mask(p_pio);
  402022:	4b2e      	ldr	r3, [pc, #184]	; (4020dc <PIOC_Handler+0xc4>)
  402024:	482c      	ldr	r0, [pc, #176]	; (4020d8 <PIOC_Handler+0xc0>)
  402026:	4798      	blx	r3
	if (status != 0) {
  402028:	4005      	ands	r5, r0
  40202a:	d015      	beq.n	402058 <PIOC_Handler+0x40>
			if (gs_interrupt_sources[i].id == ul_id) {
  40202c:	4c2c      	ldr	r4, [pc, #176]	; (4020e0 <PIOC_Handler+0xc8>)
  40202e:	6820      	ldr	r0, [r4, #0]
  402030:	280c      	cmp	r0, #12
  402032:	d019      	beq.n	402068 <PIOC_Handler+0x50>
  402034:	6920      	ldr	r0, [r4, #16]
  402036:	280c      	cmp	r0, #12
  402038:	d01f      	beq.n	40207a <PIOC_Handler+0x62>
  40203a:	6a20      	ldr	r0, [r4, #32]
  40203c:	280c      	cmp	r0, #12
  40203e:	d025      	beq.n	40208c <PIOC_Handler+0x74>
  402040:	6b20      	ldr	r0, [r4, #48]	; 0x30
  402042:	280c      	cmp	r0, #12
  402044:	d02b      	beq.n	40209e <PIOC_Handler+0x86>
  402046:	6c20      	ldr	r0, [r4, #64]	; 0x40
  402048:	280c      	cmp	r0, #12
  40204a:	d031      	beq.n	4020b0 <PIOC_Handler+0x98>
  40204c:	6d20      	ldr	r0, [r4, #80]	; 0x50
  40204e:	280c      	cmp	r0, #12
  402050:	d037      	beq.n	4020c2 <PIOC_Handler+0xaa>
  402052:	6e20      	ldr	r0, [r4, #96]	; 0x60
  402054:	280c      	cmp	r0, #12
  402056:	d000      	beq.n	40205a <PIOC_Handler+0x42>
  402058:	bd70      	pop	{r4, r5, r6, pc}
				if ((status & gs_interrupt_sources[i].mask) != 0) {
  40205a:	6e61      	ldr	r1, [r4, #100]	; 0x64
  40205c:	4229      	tst	r1, r5
  40205e:	d0fb      	beq.n	402058 <PIOC_Handler+0x40>
					gs_interrupt_sources[i].handler(gs_interrupt_sources[i].id,
  402060:	6ee3      	ldr	r3, [r4, #108]	; 0x6c
	pio_handler_process(PIOC, ID_PIOC);
}
  402062:	e8bd 4070 	ldmia.w	sp!, {r4, r5, r6, lr}
					gs_interrupt_sources[i].handler(gs_interrupt_sources[i].id,
  402066:	4718      	bx	r3
				if ((status & gs_interrupt_sources[i].mask) != 0) {
  402068:	6861      	ldr	r1, [r4, #4]
  40206a:	420d      	tst	r5, r1
  40206c:	d0e2      	beq.n	402034 <PIOC_Handler+0x1c>
					gs_interrupt_sources[i].handler(gs_interrupt_sources[i].id,
  40206e:	68e3      	ldr	r3, [r4, #12]
  402070:	4798      	blx	r3
					status &= ~(gs_interrupt_sources[i].mask);
  402072:	6863      	ldr	r3, [r4, #4]
		while (status != 0) {
  402074:	439d      	bics	r5, r3
  402076:	d0ef      	beq.n	402058 <PIOC_Handler+0x40>
  402078:	e7dc      	b.n	402034 <PIOC_Handler+0x1c>
				if ((status & gs_interrupt_sources[i].mask) != 0) {
  40207a:	6961      	ldr	r1, [r4, #20]
  40207c:	4229      	tst	r1, r5
  40207e:	d0dc      	beq.n	40203a <PIOC_Handler+0x22>
					gs_interrupt_sources[i].handler(gs_interrupt_sources[i].id,
  402080:	69e3      	ldr	r3, [r4, #28]
  402082:	4798      	blx	r3
					status &= ~(gs_interrupt_sources[i].mask);
  402084:	6963      	ldr	r3, [r4, #20]
		while (status != 0) {
  402086:	439d      	bics	r5, r3
  402088:	d0e6      	beq.n	402058 <PIOC_Handler+0x40>
  40208a:	e7d6      	b.n	40203a <PIOC_Handler+0x22>
				if ((status & gs_interrupt_sources[i].mask) != 0) {
  40208c:	6a61      	ldr	r1, [r4, #36]	; 0x24
  40208e:	4229      	tst	r1, r5
  402090:	d0d6      	beq.n	402040 <PIOC_Handler+0x28>
					gs_interrupt_sources[i].handler(gs_interrupt_sources[i].id,
  402092:	6ae3      	ldr	r3, [r4, #44]	; 0x2c
  402094:	4798      	blx	r3
					status &= ~(gs_interrupt_sources[i].mask);
  402096:	6a63      	ldr	r3, [r4, #36]	; 0x24
		while (status != 0) {
  402098:	439d      	bics	r5, r3
  40209a:	d0dd      	beq.n	402058 <PIOC_Handler+0x40>
  40209c:	e7d0      	b.n	402040 <PIOC_Handler+0x28>
				if ((status & gs_interrupt_sources[i].mask) != 0) {
  40209e:	6b61      	ldr	r1, [r4, #52]	; 0x34
  4020a0:	4229      	tst	r1, r5
  4020a2:	d0d0      	beq.n	402046 <PIOC_Handler+0x2e>
					gs_interrupt_sources[i].handler(gs_interrupt_sources[i].id,
  4020a4:	6be3      	ldr	r3, [r4, #60]	; 0x3c
  4020a6:	4798      	blx	r3
					status &= ~(gs_interrupt_sources[i].mask);
  4020a8:	6b63      	ldr	r3, [r4, #52]	; 0x34
		while (status != 0) {
  4020aa:	439d      	bics	r5, r3
  4020ac:	d0d4      	beq.n	402058 <PIOC_Handler+0x40>
  4020ae:	e7ca      	b.n	402046 <PIOC_Handler+0x2e>
				if ((status & gs_interrupt_sources[i].mask) != 0) {
  4020b0:	6c61      	ldr	r1, [r4, #68]	; 0x44
  4020b2:	4229      	tst	r1, r5
  4020b4:	d0ca      	beq.n	40204c <PIOC_Handler+0x34>
					gs_interrupt_sources[i].handler(gs_interrupt_sources[i].id,
  4020b6:	6ce3      	ldr	r3, [r4, #76]	; 0x4c
  4020b8:	4798      	blx	r3
					status &= ~(gs_interrupt_sources[i].mask);
  4020ba:	6c63      	ldr	r3, [r4, #68]	; 0x44
		while (status != 0) {
  4020bc:	439d      	bics	r5, r3
  4020be:	d0cb      	beq.n	402058 <PIOC_Handler+0x40>
  4020c0:	e7c4      	b.n	40204c <PIOC_Handler+0x34>
				if ((status & gs_interrupt_sources[i].mask) != 0) {
  4020c2:	6d61      	ldr	r1, [r4, #84]	; 0x54
  4020c4:	4229      	tst	r1, r5
  4020c6:	d0c4      	beq.n	402052 <PIOC_Handler+0x3a>
					gs_interrupt_sources[i].handler(gs_interrupt_sources[i].id,
  4020c8:	6de3      	ldr	r3, [r4, #92]	; 0x5c
  4020ca:	4798      	blx	r3
					status &= ~(gs_interrupt_sources[i].mask);
  4020cc:	6d63      	ldr	r3, [r4, #84]	; 0x54
		while (status != 0) {
  4020ce:	439d      	bics	r5, r3
  4020d0:	d0c2      	beq.n	402058 <PIOC_Handler+0x40>
  4020d2:	e7be      	b.n	402052 <PIOC_Handler+0x3a>
  4020d4:	00401d25 	.word	0x00401d25
  4020d8:	400e1200 	.word	0x400e1200
  4020dc:	00401d29 	.word	0x00401d29
  4020e0:	2041c060 	.word	0x2041c060

004020e4 <PIOD_Handler>:
/**
 * \brief Parallel IO Controller D interrupt handler.
 * Redefined PIOD interrupt handler for NVIC interrupt table.
 */
void PIOD_Handler(void)
{
  4020e4:	b570      	push	{r4, r5, r6, lr}
	status = pio_get_interrupt_status(p_pio);
  4020e6:	4b2e      	ldr	r3, [pc, #184]	; (4021a0 <PIOD_Handler+0xbc>)
  4020e8:	482e      	ldr	r0, [pc, #184]	; (4021a4 <PIOD_Handler+0xc0>)
  4020ea:	4798      	blx	r3
  4020ec:	4605      	mov	r5, r0
	status &= pio_get_interrupt_mask(p_pio);
  4020ee:	4b2e      	ldr	r3, [pc, #184]	; (4021a8 <PIOD_Handler+0xc4>)
  4020f0:	482c      	ldr	r0, [pc, #176]	; (4021a4 <PIOD_Handler+0xc0>)
  4020f2:	4798      	blx	r3
	if (status != 0) {
  4020f4:	4005      	ands	r5, r0
  4020f6:	d015      	beq.n	402124 <PIOD_Handler+0x40>
			if (gs_interrupt_sources[i].id == ul_id) {
  4020f8:	4c2c      	ldr	r4, [pc, #176]	; (4021ac <PIOD_Handler+0xc8>)
  4020fa:	6820      	ldr	r0, [r4, #0]
  4020fc:	2810      	cmp	r0, #16
  4020fe:	d019      	beq.n	402134 <PIOD_Handler+0x50>
  402100:	6920      	ldr	r0, [r4, #16]
  402102:	2810      	cmp	r0, #16
  402104:	d01f      	beq.n	402146 <PIOD_Handler+0x62>
  402106:	6a20      	ldr	r0, [r4, #32]
  402108:	2810      	cmp	r0, #16
  40210a:	d025      	beq.n	402158 <PIOD_Handler+0x74>
  40210c:	6b20      	ldr	r0, [r4, #48]	; 0x30
  40210e:	2810      	cmp	r0, #16
  402110:	d02b      	beq.n	40216a <PIOD_Handler+0x86>
  402112:	6c20      	ldr	r0, [r4, #64]	; 0x40
  402114:	2810      	cmp	r0, #16
  402116:	d031      	beq.n	40217c <PIOD_Handler+0x98>
  402118:	6d20      	ldr	r0, [r4, #80]	; 0x50
  40211a:	2810      	cmp	r0, #16
  40211c:	d037      	beq.n	40218e <PIOD_Handler+0xaa>
  40211e:	6e20      	ldr	r0, [r4, #96]	; 0x60
  402120:	2810      	cmp	r0, #16
  402122:	d000      	beq.n	402126 <PIOD_Handler+0x42>
  402124:	bd70      	pop	{r4, r5, r6, pc}
				if ((status & gs_interrupt_sources[i].mask) != 0) {
  402126:	6e61      	ldr	r1, [r4, #100]	; 0x64
  402128:	4229      	tst	r1, r5
  40212a:	d0fb      	beq.n	402124 <PIOD_Handler+0x40>
					gs_interrupt_sources[i].handler(gs_interrupt_sources[i].id,
  40212c:	6ee3      	ldr	r3, [r4, #108]	; 0x6c
	pio_handler_process(PIOD, ID_PIOD);
}
  40212e:	e8bd 4070 	ldmia.w	sp!, {r4, r5, r6, lr}
					gs_interrupt_sources[i].handler(gs_interrupt_sources[i].id,
  402132:	4718      	bx	r3
				if ((status & gs_interrupt_sources[i].mask) != 0) {
  402134:	6861      	ldr	r1, [r4, #4]
  402136:	420d      	tst	r5, r1
  402138:	d0e2      	beq.n	402100 <PIOD_Handler+0x1c>
					gs_interrupt_sources[i].handler(gs_interrupt_sources[i].id,
  40213a:	68e3      	ldr	r3, [r4, #12]
  40213c:	4798      	blx	r3
					status &= ~(gs_interrupt_sources[i].mask);
  40213e:	6863      	ldr	r3, [r4, #4]
		while (status != 0) {
  402140:	439d      	bics	r5, r3
  402142:	d0ef      	beq.n	402124 <PIOD_Handler+0x40>
  402144:	e7dc      	b.n	402100 <PIOD_Handler+0x1c>
				if ((status & gs_interrupt_sources[i].mask) != 0) {
  402146:	6961      	ldr	r1, [r4, #20]
  402148:	4229      	tst	r1, r5
  40214a:	d0dc      	beq.n	402106 <PIOD_Handler+0x22>
					gs_interrupt_sources[i].handler(gs_interrupt_sources[i].id,
  40214c:	69e3      	ldr	r3, [r4, #28]
  40214e:	4798      	blx	r3
					status &= ~(gs_interrupt_sources[i].mask);
  402150:	6963      	ldr	r3, [r4, #20]
		while (status != 0) {
  402152:	439d      	bics	r5, r3
  402154:	d0e6      	beq.n	402124 <PIOD_Handler+0x40>
  402156:	e7d6      	b.n	402106 <PIOD_Handler+0x22>
				if ((status & gs_interrupt_sources[i].mask) != 0) {
  402158:	6a61      	ldr	r1, [r4, #36]	; 0x24
  40215a:	4229      	tst	r1, r5
  40215c:	d0d6      	beq.n	40210c <PIOD_Handler+0x28>
					gs_interrupt_sources[i].handler(gs_interrupt_sources[i].id,
  40215e:	6ae3      	ldr	r3, [r4, #44]	; 0x2c
  402160:	4798      	blx	r3
					status &= ~(gs_interrupt_sources[i].mask);
  402162:	6a63      	ldr	r3, [r4, #36]	; 0x24
		while (status != 0) {
  402164:	439d      	bics	r5, r3
  402166:	d0dd      	beq.n	402124 <PIOD_Handler+0x40>
  402168:	e7d0      	b.n	40210c <PIOD_Handler+0x28>
				if ((status & gs_interrupt_sources[i].mask) != 0) {
  40216a:	6b61      	ldr	r1, [r4, #52]	; 0x34
  40216c:	4229      	tst	r1, r5
  40216e:	d0d0      	beq.n	402112 <PIOD_Handler+0x2e>
					gs_interrupt_sources[i].handler(gs_interrupt_sources[i].id,
  402170:	6be3      	ldr	r3, [r4, #60]	; 0x3c
  402172:	4798      	blx	r3
					status &= ~(gs_interrupt_sources[i].mask);
  402174:	6b63      	ldr	r3, [r4, #52]	; 0x34
		while (status != 0) {
  402176:	439d      	bics	r5, r3
  402178:	d0d4      	beq.n	402124 <PIOD_Handler+0x40>
  40217a:	e7ca      	b.n	402112 <PIOD_Handler+0x2e>
				if ((status & gs_interrupt_sources[i].mask) != 0) {
  40217c:	6c61      	ldr	r1, [r4, #68]	; 0x44
  40217e:	4229      	tst	r1, r5
  402180:	d0ca      	beq.n	402118 <PIOD_Handler+0x34>
					gs_interrupt_sources[i].handler(gs_interrupt_sources[i].id,
  402182:	6ce3      	ldr	r3, [r4, #76]	; 0x4c
  402184:	4798      	blx	r3
					status &= ~(gs_interrupt_sources[i].mask);
  402186:	6c63      	ldr	r3, [r4, #68]	; 0x44
		while (status != 0) {
  402188:	439d      	bics	r5, r3
  40218a:	d0cb      	beq.n	402124 <PIOD_Handler+0x40>
  40218c:	e7c4      	b.n	402118 <PIOD_Handler+0x34>
				if ((status & gs_interrupt_sources[i].mask) != 0) {
  40218e:	6d61      	ldr	r1, [r4, #84]	; 0x54
  402190:	4229      	tst	r1, r5
  402192:	d0c4      	beq.n	40211e <PIOD_Handler+0x3a>
					gs_interrupt_sources[i].handler(gs_interrupt_sources[i].id,
  402194:	6de3      	ldr	r3, [r4, #92]	; 0x5c
  402196:	4798      	blx	r3
					status &= ~(gs_interrupt_sources[i].mask);
  402198:	6d63      	ldr	r3, [r4, #84]	; 0x54
		while (status != 0) {
  40219a:	439d      	bics	r5, r3
  40219c:	d0c2      	beq.n	402124 <PIOD_Handler+0x40>
  40219e:	e7be      	b.n	40211e <PIOD_Handler+0x3a>
  4021a0:	00401d25 	.word	0x00401d25
  4021a4:	400e1400 	.word	0x400e1400
  4021a8:	00401d29 	.word	0x00401d29
  4021ac:	2041c060 	.word	0x2041c060

004021b0 <PIOE_Handler>:
/**
 * \brief Parallel IO Controller E interrupt handler.
 * Redefined PIOE interrupt handler for NVIC interrupt table.
 */
void PIOE_Handler(void)
{
  4021b0:	b570      	push	{r4, r5, r6, lr}
	status = pio_get_interrupt_status(p_pio);
  4021b2:	4b2e      	ldr	r3, [pc, #184]	; (40226c <PIOE_Handler+0xbc>)
  4021b4:	482e      	ldr	r0, [pc, #184]	; (402270 <PIOE_Handler+0xc0>)
  4021b6:	4798      	blx	r3
  4021b8:	4605      	mov	r5, r0
	status &= pio_get_interrupt_mask(p_pio);
  4021ba:	4b2e      	ldr	r3, [pc, #184]	; (402274 <PIOE_Handler+0xc4>)
  4021bc:	482c      	ldr	r0, [pc, #176]	; (402270 <PIOE_Handler+0xc0>)
  4021be:	4798      	blx	r3
	if (status != 0) {
  4021c0:	4005      	ands	r5, r0
  4021c2:	d015      	beq.n	4021f0 <PIOE_Handler+0x40>
			if (gs_interrupt_sources[i].id == ul_id) {
  4021c4:	4c2c      	ldr	r4, [pc, #176]	; (402278 <PIOE_Handler+0xc8>)
  4021c6:	6820      	ldr	r0, [r4, #0]
  4021c8:	2811      	cmp	r0, #17
  4021ca:	d019      	beq.n	402200 <PIOE_Handler+0x50>
  4021cc:	6920      	ldr	r0, [r4, #16]
  4021ce:	2811      	cmp	r0, #17
  4021d0:	d01f      	beq.n	402212 <PIOE_Handler+0x62>
  4021d2:	6a20      	ldr	r0, [r4, #32]
  4021d4:	2811      	cmp	r0, #17
  4021d6:	d025      	beq.n	402224 <PIOE_Handler+0x74>
  4021d8:	6b20      	ldr	r0, [r4, #48]	; 0x30
  4021da:	2811      	cmp	r0, #17
  4021dc:	d02b      	beq.n	402236 <PIOE_Handler+0x86>
  4021de:	6c20      	ldr	r0, [r4, #64]	; 0x40
  4021e0:	2811      	cmp	r0, #17
  4021e2:	d031      	beq.n	402248 <PIOE_Handler+0x98>
  4021e4:	6d20      	ldr	r0, [r4, #80]	; 0x50
  4021e6:	2811      	cmp	r0, #17
  4021e8:	d037      	beq.n	40225a <PIOE_Handler+0xaa>
  4021ea:	6e20      	ldr	r0, [r4, #96]	; 0x60
  4021ec:	2811      	cmp	r0, #17
  4021ee:	d000      	beq.n	4021f2 <PIOE_Handler+0x42>
  4021f0:	bd70      	pop	{r4, r5, r6, pc}
				if ((status & gs_interrupt_sources[i].mask) != 0) {
  4021f2:	6e61      	ldr	r1, [r4, #100]	; 0x64
  4021f4:	4229      	tst	r1, r5
  4021f6:	d0fb      	beq.n	4021f0 <PIOE_Handler+0x40>
					gs_interrupt_sources[i].handler(gs_interrupt_sources[i].id,
  4021f8:	6ee3      	ldr	r3, [r4, #108]	; 0x6c
	pio_handler_process(PIOE, ID_PIOE);
}
  4021fa:	e8bd 4070 	ldmia.w	sp!, {r4, r5, r6, lr}
					gs_interrupt_sources[i].handler(gs_interrupt_sources[i].id,
  4021fe:	4718      	bx	r3
				if ((status & gs_interrupt_sources[i].mask) != 0) {
  402200:	6861      	ldr	r1, [r4, #4]
  402202:	420d      	tst	r5, r1
  402204:	d0e2      	beq.n	4021cc <PIOE_Handler+0x1c>
					gs_interrupt_sources[i].handler(gs_interrupt_sources[i].id,
  402206:	68e3      	ldr	r3, [r4, #12]
  402208:	4798      	blx	r3
					status &= ~(gs_interrupt_sources[i].mask);
  40220a:	6863      	ldr	r3, [r4, #4]
		while (status != 0) {
  40220c:	439d      	bics	r5, r3
  40220e:	d0ef      	beq.n	4021f0 <PIOE_Handler+0x40>
  402210:	e7dc      	b.n	4021cc <PIOE_Handler+0x1c>
				if ((status & gs_interrupt_sources[i].mask) != 0) {
  402212:	6961      	ldr	r1, [r4, #20]
  402214:	4229      	tst	r1, r5
  402216:	d0dc      	beq.n	4021d2 <PIOE_Handler+0x22>
					gs_interrupt_sources[i].handler(gs_interrupt_sources[i].id,
  402218:	69e3      	ldr	r3, [r4, #28]
  40221a:	4798      	blx	r3
					status &= ~(gs_interrupt_sources[i].mask);
  40221c:	6963      	ldr	r3, [r4, #20]
		while (status != 0) {
  40221e:	439d      	bics	r5, r3
  402220:	d0e6      	beq.n	4021f0 <PIOE_Handler+0x40>
  402222:	e7d6      	b.n	4021d2 <PIOE_Handler+0x22>
				if ((status & gs_interrupt_sources[i].mask) != 0) {
  402224:	6a61      	ldr	r1, [r4, #36]	; 0x24
  402226:	4229      	tst	r1, r5
  402228:	d0d6      	beq.n	4021d8 <PIOE_Handler+0x28>
					gs_interrupt_sources[i].handler(gs_interrupt_sources[i].id,
  40222a:	6ae3      	ldr	r3, [r4, #44]	; 0x2c
  40222c:	4798      	blx	r3
					status &= ~(gs_interrupt_sources[i].mask);
  40222e:	6a63      	ldr	r3, [r4, #36]	; 0x24
		while (status != 0) {
  402230:	439d      	bics	r5, r3
  402232:	d0dd      	beq.n	4021f0 <PIOE_Handler+0x40>
  402234:	e7d0      	b.n	4021d8 <PIOE_Handler+0x28>
				if ((status & gs_interrupt_sources[i].mask) != 0) {
  402236:	6b61      	ldr	r1, [r4, #52]	; 0x34
  402238:	4229      	tst	r1, r5
  40223a:	d0d0      	beq.n	4021de <PIOE_Handler+0x2e>
					gs_interrupt_sources[i].handler(gs_interrupt_sources[i].id,
  40223c:	6be3      	ldr	r3, [r4, #60]	; 0x3c
  40223e:	4798      	blx	r3
					status &= ~(gs_interrupt_sources[i].mask);
  402240:	6b63      	ldr	r3, [r4, #52]	; 0x34
		while (status != 0) {
  402242:	439d      	bics	r5, r3
  402244:	d0d4      	beq.n	4021f0 <PIOE_Handler+0x40>
  402246:	e7ca      	b.n	4021de <PIOE_Handler+0x2e>
				if ((status & gs_interrupt_sources[i].mask) != 0) {
  402248:	6c61      	ldr	r1, [r4, #68]	; 0x44
  40224a:	4229      	tst	r1, r5
  40224c:	d0ca      	beq.n	4021e4 <PIOE_Handler+0x34>
					gs_interrupt_sources[i].handler(gs_interrupt_sources[i].id,
  40224e:	6ce3      	ldr	r3, [r4, #76]	; 0x4c
  402250:	4798      	blx	r3
					status &= ~(gs_interrupt_sources[i].mask);
  402252:	6c63      	ldr	r3, [r4, #68]	; 0x44
		while (status != 0) {
  402254:	439d      	bics	r5, r3
  402256:	d0cb      	beq.n	4021f0 <PIOE_Handler+0x40>
  402258:	e7c4      	b.n	4021e4 <PIOE_Handler+0x34>
				if ((status & gs_interrupt_sources[i].mask) != 0) {
  40225a:	6d61      	ldr	r1, [r4, #84]	; 0x54
  40225c:	4229      	tst	r1, r5
  40225e:	d0c4      	beq.n	4021ea <PIOE_Handler+0x3a>
					gs_interrupt_sources[i].handler(gs_interrupt_sources[i].id,
  402260:	6de3      	ldr	r3, [r4, #92]	; 0x5c
  402262:	4798      	blx	r3
					status &= ~(gs_interrupt_sources[i].mask);
  402264:	6d63      	ldr	r3, [r4, #84]	; 0x54
		while (status != 0) {
  402266:	439d      	bics	r5, r3
  402268:	d0c2      	beq.n	4021f0 <PIOE_Handler+0x40>
  40226a:	e7be      	b.n	4021ea <PIOE_Handler+0x3a>
  40226c:	00401d25 	.word	0x00401d25
  402270:	400e1600 	.word	0x400e1600
  402274:	00401d29 	.word	0x00401d29
  402278:	2041c060 	.word	0x2041c060

0040227c <pmc_mck_set_division>:
 * \brief Set the division of the MCK.
 *
 * \param ul_div Division value.
 */
void pmc_mck_set_division(uint32_t ul_div)
{
  40227c:	3802      	subs	r0, #2
  40227e:	2802      	cmp	r0, #2
  402280:	d80d      	bhi.n	40229e <pmc_mck_set_division+0x22>
  402282:	4b08      	ldr	r3, [pc, #32]	; (4022a4 <pmc_mck_set_division+0x28>)
  402284:	f853 0020 	ldr.w	r0, [r3, r0, lsl #2]
		default:
			ul_div = PMC_MCKR_MDIV_EQ_PCK;
			break;
	}
	PMC->PMC_MCKR =
			(PMC->PMC_MCKR & (~PMC_MCKR_MDIV_Msk)) | ul_div;
  402288:	4907      	ldr	r1, [pc, #28]	; (4022a8 <pmc_mck_set_division+0x2c>)
  40228a:	6b0b      	ldr	r3, [r1, #48]	; 0x30
	while (!(PMC->PMC_SR & PMC_SR_MCKRDY));
  40228c:	460a      	mov	r2, r1
			(PMC->PMC_MCKR & (~PMC_MCKR_MDIV_Msk)) | ul_div;
  40228e:	f423 7340 	bic.w	r3, r3, #768	; 0x300
  402292:	4303      	orrs	r3, r0
	PMC->PMC_MCKR =
  402294:	630b      	str	r3, [r1, #48]	; 0x30
	while (!(PMC->PMC_SR & PMC_SR_MCKRDY));
  402296:	6e93      	ldr	r3, [r2, #104]	; 0x68
  402298:	071b      	lsls	r3, r3, #28
  40229a:	d5fc      	bpl.n	402296 <pmc_mck_set_division+0x1a>
}
  40229c:	4770      	bx	lr
{
  40229e:	2000      	movs	r0, #0
  4022a0:	e7f2      	b.n	402288 <pmc_mck_set_division+0xc>
  4022a2:	bf00      	nop
  4022a4:	004062ac 	.word	0x004062ac
  4022a8:	400e0600 	.word	0x400e0600

004022ac <pmc_switch_mck_to_pllack>:
 */
uint32_t pmc_switch_mck_to_pllack(uint32_t ul_pres)
{
	uint32_t ul_timeout;

	PMC->PMC_MCKR = (PMC->PMC_MCKR & (~PMC_MCKR_PRES_Msk)) | ul_pres;
  4022ac:	4913      	ldr	r1, [pc, #76]	; (4022fc <pmc_switch_mck_to_pllack+0x50>)
  4022ae:	6b0b      	ldr	r3, [r1, #48]	; 0x30
  4022b0:	f023 0370 	bic.w	r3, r3, #112	; 0x70
  4022b4:	4318      	orrs	r0, r3
  4022b6:	6308      	str	r0, [r1, #48]	; 0x30
	for (ul_timeout = PMC_TIMEOUT; !(PMC->PMC_SR & PMC_SR_MCKRDY);
  4022b8:	6e8b      	ldr	r3, [r1, #104]	; 0x68
  4022ba:	0718      	lsls	r0, r3, #28
  4022bc:	d407      	bmi.n	4022ce <pmc_switch_mck_to_pllack+0x22>
  4022be:	f44f 6300 	mov.w	r3, #2048	; 0x800
  4022c2:	e001      	b.n	4022c8 <pmc_switch_mck_to_pllack+0x1c>
			--ul_timeout) {
		if (ul_timeout == 0) {
  4022c4:	3b01      	subs	r3, #1
  4022c6:	d016      	beq.n	4022f6 <pmc_switch_mck_to_pllack+0x4a>
	for (ul_timeout = PMC_TIMEOUT; !(PMC->PMC_SR & PMC_SR_MCKRDY);
  4022c8:	6e8a      	ldr	r2, [r1, #104]	; 0x68
  4022ca:	0712      	lsls	r2, r2, #28
  4022cc:	d5fa      	bpl.n	4022c4 <pmc_switch_mck_to_pllack+0x18>
			return 1;
		}
	}

	PMC->PMC_MCKR = (PMC->PMC_MCKR & (~PMC_MCKR_CSS_Msk)) |
  4022ce:	490b      	ldr	r1, [pc, #44]	; (4022fc <pmc_switch_mck_to_pllack+0x50>)
  4022d0:	6b0b      	ldr	r3, [r1, #48]	; 0x30
  4022d2:	f023 0303 	bic.w	r3, r3, #3
  4022d6:	f043 0302 	orr.w	r3, r3, #2
  4022da:	630b      	str	r3, [r1, #48]	; 0x30
			PMC_MCKR_CSS_PLLA_CLK;

	for (ul_timeout = PMC_TIMEOUT; !(PMC->PMC_SR & PMC_SR_MCKRDY);
  4022dc:	6e8b      	ldr	r3, [r1, #104]	; 0x68
  4022de:	0718      	lsls	r0, r3, #28
  4022e0:	d407      	bmi.n	4022f2 <pmc_switch_mck_to_pllack+0x46>
  4022e2:	f44f 6300 	mov.w	r3, #2048	; 0x800
  4022e6:	e001      	b.n	4022ec <pmc_switch_mck_to_pllack+0x40>
			--ul_timeout) {
		if (ul_timeout == 0) {
  4022e8:	3b01      	subs	r3, #1
  4022ea:	d004      	beq.n	4022f6 <pmc_switch_mck_to_pllack+0x4a>
	for (ul_timeout = PMC_TIMEOUT; !(PMC->PMC_SR & PMC_SR_MCKRDY);
  4022ec:	6e8a      	ldr	r2, [r1, #104]	; 0x68
  4022ee:	0712      	lsls	r2, r2, #28
  4022f0:	d5fa      	bpl.n	4022e8 <pmc_switch_mck_to_pllack+0x3c>
			return 1;
		}
	}

	return 0;
  4022f2:	2000      	movs	r0, #0
}
  4022f4:	4770      	bx	lr
			return 1;
  4022f6:	2001      	movs	r0, #1
  4022f8:	4770      	bx	lr
  4022fa:	bf00      	nop
  4022fc:	400e0600 	.word	0x400e0600

00402300 <pmc_switch_mainck_to_fastrc>:
 * \retval 2 Invalid frequency.
 */
void pmc_switch_mainck_to_fastrc(uint32_t ul_moscrcf)
{
	/* Enable Fast RC oscillator but DO NOT switch to RC now */
	PMC->CKGR_MOR |= (CKGR_MOR_KEY_PASSWD | CKGR_MOR_MOSCRCEN);
  402300:	4a0e      	ldr	r2, [pc, #56]	; (40233c <pmc_switch_mainck_to_fastrc+0x3c>)
{
  402302:	b410      	push	{r4}
	PMC->CKGR_MOR |= (CKGR_MOR_KEY_PASSWD | CKGR_MOR_MOSCRCEN);
  402304:	4c0e      	ldr	r4, [pc, #56]	; (402340 <pmc_switch_mainck_to_fastrc+0x40>)

	/* Wait the Fast RC to stabilize */
	while (!(PMC->PMC_SR & PMC_SR_MOSCRCS));
  402306:	4611      	mov	r1, r2
	PMC->CKGR_MOR |= (CKGR_MOR_KEY_PASSWD | CKGR_MOR_MOSCRCEN);
  402308:	6a13      	ldr	r3, [r2, #32]
  40230a:	431c      	orrs	r4, r3
  40230c:	6214      	str	r4, [r2, #32]
	while (!(PMC->PMC_SR & PMC_SR_MOSCRCS));
  40230e:	6e8b      	ldr	r3, [r1, #104]	; 0x68
  402310:	039a      	lsls	r2, r3, #14
  402312:	d5fc      	bpl.n	40230e <pmc_switch_mainck_to_fastrc+0xe>

	/* Change Fast RC oscillator frequency */
	PMC->CKGR_MOR = (PMC->CKGR_MOR & ~CKGR_MOR_MOSCRCF_Msk) |
  402314:	6a0c      	ldr	r4, [r1, #32]
  402316:	4b0b      	ldr	r3, [pc, #44]	; (402344 <pmc_switch_mainck_to_fastrc+0x44>)
			CKGR_MOR_KEY_PASSWD | ul_moscrcf;

	/* Wait the Fast RC to stabilize */
	while (!(PMC->PMC_SR & PMC_SR_MOSCRCS));
  402318:	4a08      	ldr	r2, [pc, #32]	; (40233c <pmc_switch_mainck_to_fastrc+0x3c>)
	PMC->CKGR_MOR = (PMC->CKGR_MOR & ~CKGR_MOR_MOSCRCF_Msk) |
  40231a:	4023      	ands	r3, r4
			CKGR_MOR_KEY_PASSWD | ul_moscrcf;
  40231c:	f443 135c 	orr.w	r3, r3, #3604480	; 0x370000
  402320:	4318      	orrs	r0, r3
	PMC->CKGR_MOR = (PMC->CKGR_MOR & ~CKGR_MOR_MOSCRCF_Msk) |
  402322:	6208      	str	r0, [r1, #32]
	while (!(PMC->PMC_SR & PMC_SR_MOSCRCS));
  402324:	6e93      	ldr	r3, [r2, #104]	; 0x68
  402326:	039b      	lsls	r3, r3, #14
  402328:	d5fc      	bpl.n	402324 <pmc_switch_mainck_to_fastrc+0x24>

	/* Switch to Fast RC */
	PMC->CKGR_MOR = (PMC->CKGR_MOR & ~CKGR_MOR_MOSCSEL) |
  40232a:	6a11      	ldr	r1, [r2, #32]
  40232c:	4b06      	ldr	r3, [pc, #24]	; (402348 <pmc_switch_mainck_to_fastrc+0x48>)
  40232e:	400b      	ands	r3, r1
  402330:	f443 135c 	orr.w	r3, r3, #3604480	; 0x370000
  402334:	6213      	str	r3, [r2, #32]
			CKGR_MOR_KEY_PASSWD;
}
  402336:	f85d 4b04 	ldr.w	r4, [sp], #4
  40233a:	4770      	bx	lr
  40233c:	400e0600 	.word	0x400e0600
  402340:	00370008 	.word	0x00370008
  402344:	ffc8ff8f 	.word	0xffc8ff8f
  402348:	fec8ffff 	.word	0xfec8ffff

0040234c <pmc_osc_is_ready_mainck>:
 * \retval 1 Xtal is ready.
 * \retval 0 Xtal is not ready.
 */
uint32_t pmc_osc_is_ready_mainck(void)
{
	return PMC->PMC_SR & PMC_SR_MOSCSELS;
  40234c:	4b02      	ldr	r3, [pc, #8]	; (402358 <pmc_osc_is_ready_mainck+0xc>)
  40234e:	6e98      	ldr	r0, [r3, #104]	; 0x68
}
  402350:	f400 3080 	and.w	r0, r0, #65536	; 0x10000
  402354:	4770      	bx	lr
  402356:	bf00      	nop
  402358:	400e0600 	.word	0x400e0600

0040235c <pmc_disable_pllack>:
void pmc_disable_pllack(void)
{
#if (SAM4C || SAM4CM || SAM4CP || SAMG)
	PMC->CKGR_PLLAR = CKGR_PLLAR_MULA(0);
#else
	PMC->CKGR_PLLAR = CKGR_PLLAR_ONE | CKGR_PLLAR_MULA(0);
  40235c:	4b02      	ldr	r3, [pc, #8]	; (402368 <pmc_disable_pllack+0xc>)
  40235e:	f04f 5200 	mov.w	r2, #536870912	; 0x20000000
  402362:	629a      	str	r2, [r3, #40]	; 0x28
  402364:	4770      	bx	lr
  402366:	bf00      	nop
  402368:	400e0600 	.word	0x400e0600

0040236c <pmc_is_locked_pllack>:
 * \retval 0 Not locked.
 * \retval 1 Locked.
 */
uint32_t pmc_is_locked_pllack(void)
{
	return (PMC->PMC_SR & PMC_SR_LOCKA);
  40236c:	4b02      	ldr	r3, [pc, #8]	; (402378 <pmc_is_locked_pllack+0xc>)
  40236e:	6e98      	ldr	r0, [r3, #104]	; 0x68
}
  402370:	f000 0002 	and.w	r0, r0, #2
  402374:	4770      	bx	lr
  402376:	bf00      	nop
  402378:	400e0600 	.word	0x400e0600

0040237c <pmc_enable_periph_clk>:
 * \retval 0 Success.
 * \retval 1 Invalid parameter.
 */
uint32_t pmc_enable_periph_clk(uint32_t ul_id)
{
	if (ul_id > MAX_PERIPH_ID) {
  40237c:	283f      	cmp	r0, #63	; 0x3f
  40237e:	d81a      	bhi.n	4023b6 <pmc_enable_periph_clk+0x3a>
		return 1;
	}

	if (ul_id < 32) {
  402380:	281f      	cmp	r0, #31
  402382:	d80a      	bhi.n	40239a <pmc_enable_periph_clk+0x1e>
		if ((PMC->PMC_PCSR0 & (1u << ul_id)) != (1u << ul_id)) {
  402384:	2301      	movs	r3, #1
  402386:	4a0e      	ldr	r2, [pc, #56]	; (4023c0 <pmc_enable_periph_clk+0x44>)
  402388:	fa03 f000 	lsl.w	r0, r3, r0
  40238c:	6991      	ldr	r1, [r2, #24]
  40238e:	ea30 0301 	bics.w	r3, r0, r1
  402392:	d012      	beq.n	4023ba <pmc_enable_periph_clk+0x3e>
			PMC->PMC_PCER0 = 1 << ul_id;
  402394:	6110      	str	r0, [r2, #16]
			PMC->PMC_PCER1 = 1 << ul_id;
		}
#endif
	}

	return 0;
  402396:	2000      	movs	r0, #0
  402398:	4770      	bx	lr
		if ((PMC->PMC_PCSR1 & (1u << ul_id)) != (1u << ul_id)) {
  40239a:	2301      	movs	r3, #1
		ul_id -= 32;
  40239c:	3820      	subs	r0, #32
		if ((PMC->PMC_PCSR1 & (1u << ul_id)) != (1u << ul_id)) {
  40239e:	4a08      	ldr	r2, [pc, #32]	; (4023c0 <pmc_enable_periph_clk+0x44>)
  4023a0:	fa03 f000 	lsl.w	r0, r3, r0
  4023a4:	f8d2 3108 	ldr.w	r3, [r2, #264]	; 0x108
  4023a8:	ea30 0303 	bics.w	r3, r0, r3
  4023ac:	d005      	beq.n	4023ba <pmc_enable_periph_clk+0x3e>
			PMC->PMC_PCER1 = 1 << ul_id;
  4023ae:	f8c2 0100 	str.w	r0, [r2, #256]	; 0x100
	return 0;
  4023b2:	2000      	movs	r0, #0
  4023b4:	4770      	bx	lr
		return 1;
  4023b6:	2001      	movs	r0, #1
  4023b8:	4770      	bx	lr
	return 0;
  4023ba:	2000      	movs	r0, #0
}
  4023bc:	4770      	bx	lr
  4023be:	bf00      	nop
  4023c0:	400e0600 	.word	0x400e0600

004023c4 <pmc_pck_set_prescaler>:
 *
 * \param ul_id Peripheral ID.
 * \param ul_pres Prescaler value.
 */
void pmc_pck_set_prescaler(uint32_t ul_id, uint32_t ul_pres)
{
  4023c4:	4b0b      	ldr	r3, [pc, #44]	; (4023f4 <pmc_pck_set_prescaler+0x30>)
  4023c6:	f44f 7280 	mov.w	r2, #256	; 0x100
  4023ca:	b410      	push	{r4}
  4023cc:	eb03 0480 	add.w	r4, r3, r0, lsl #2
  4023d0:	fa02 f000 	lsl.w	r0, r2, r0
	PMC->PMC_PCK[ul_id] =
			(PMC->PMC_PCK[ul_id] & ~PMC_PCK_PRES_Msk) | ul_pres;
  4023d4:	6c22      	ldr	r2, [r4, #64]	; 0x40
  4023d6:	f422 627f 	bic.w	r2, r2, #4080	; 0xff0
  4023da:	4311      	orrs	r1, r2
	PMC->PMC_PCK[ul_id] =
  4023dc:	6421      	str	r1, [r4, #64]	; 0x40
	while ((PMC->PMC_SCER & (PMC_SCER_PCK0 << ul_id))
  4023de:	e002      	b.n	4023e6 <pmc_pck_set_prescaler+0x22>
			&& !(PMC->PMC_SR & (PMC_SR_PCKRDY0 << ul_id)));
  4023e0:	6e9a      	ldr	r2, [r3, #104]	; 0x68
  4023e2:	4202      	tst	r2, r0
  4023e4:	d102      	bne.n	4023ec <pmc_pck_set_prescaler+0x28>
	while ((PMC->PMC_SCER & (PMC_SCER_PCK0 << ul_id))
  4023e6:	681a      	ldr	r2, [r3, #0]
  4023e8:	4202      	tst	r2, r0
  4023ea:	d1f9      	bne.n	4023e0 <pmc_pck_set_prescaler+0x1c>
}
  4023ec:	f85d 4b04 	ldr.w	r4, [sp], #4
  4023f0:	4770      	bx	lr
  4023f2:	bf00      	nop
  4023f4:	400e0600 	.word	0x400e0600

004023f8 <pmc_pck_set_source>:
 *
 * \param ul_id Peripheral ID.
 * \param ul_source Source selection value.
 */
void pmc_pck_set_source(uint32_t ul_id, uint32_t ul_source)
{
  4023f8:	4b0b      	ldr	r3, [pc, #44]	; (402428 <pmc_pck_set_source+0x30>)
  4023fa:	f44f 7280 	mov.w	r2, #256	; 0x100
  4023fe:	b410      	push	{r4}
  402400:	eb03 0480 	add.w	r4, r3, r0, lsl #2
  402404:	fa02 f000 	lsl.w	r0, r2, r0
	PMC->PMC_PCK[ul_id] =
			(PMC->PMC_PCK[ul_id] & ~PMC_PCK_CSS_Msk) | ul_source;
  402408:	6c22      	ldr	r2, [r4, #64]	; 0x40
  40240a:	f022 0207 	bic.w	r2, r2, #7
  40240e:	4311      	orrs	r1, r2
	PMC->PMC_PCK[ul_id] =
  402410:	6421      	str	r1, [r4, #64]	; 0x40
	while ((PMC->PMC_SCER & (PMC_SCER_PCK0 << ul_id))
  402412:	e002      	b.n	40241a <pmc_pck_set_source+0x22>
			&& !(PMC->PMC_SR & (PMC_SR_PCKRDY0 << ul_id)));
  402414:	6e9a      	ldr	r2, [r3, #104]	; 0x68
  402416:	4202      	tst	r2, r0
  402418:	d102      	bne.n	402420 <pmc_pck_set_source+0x28>
	while ((PMC->PMC_SCER & (PMC_SCER_PCK0 << ul_id))
  40241a:	681a      	ldr	r2, [r3, #0]
  40241c:	4202      	tst	r2, r0
  40241e:	d1f9      	bne.n	402414 <pmc_pck_set_source+0x1c>
}
  402420:	f85d 4b04 	ldr.w	r4, [sp], #4
  402424:	4770      	bx	lr
  402426:	bf00      	nop
  402428:	400e0600 	.word	0x400e0600

0040242c <pmc_enable_pck>:
 *
 * \param ul_id Id of the programmable clock.
 */
void pmc_enable_pck(uint32_t ul_id)
{
	PMC->PMC_SCER = PMC_SCER_PCK0 << ul_id;
  40242c:	f44f 7380 	mov.w	r3, #256	; 0x100
  402430:	4a02      	ldr	r2, [pc, #8]	; (40243c <pmc_enable_pck+0x10>)
  402432:	fa03 f000 	lsl.w	r0, r3, r0
  402436:	6010      	str	r0, [r2, #0]
  402438:	4770      	bx	lr
  40243a:	bf00      	nop
  40243c:	400e0600 	.word	0x400e0600

00402440 <Dummy_Handler>:

/**
 * \brief Default interrupt handler for unused IRQs.
 */
void Dummy_Handler(void)
{
  402440:	e7fe      	b.n	402440 <Dummy_Handler>
  402442:	bf00      	nop

00402444 <Dummy_Handler2>:
	while (1) {
	}
}

void Dummy_Handler2(void)
{
  402444:	e7fe      	b.n	402444 <Dummy_Handler2>
  402446:	bf00      	nop

00402448 <Reset_Handler>:
        if (pSrc != pDest) {
  402448:	4920      	ldr	r1, [pc, #128]	; (4024cc <Reset_Handler+0x84>)
  40244a:	4821      	ldr	r0, [pc, #132]	; (4024d0 <Reset_Handler+0x88>)
  40244c:	4281      	cmp	r1, r0
{
  40244e:	b510      	push	{r4, lr}
  402450:	b082      	sub	sp, #8
        if (pSrc != pDest) {
  402452:	d009      	beq.n	402468 <Reset_Handler+0x20>
                for (; pDest < &_erelocate;) {
  402454:	4b1f      	ldr	r3, [pc, #124]	; (4024d4 <Reset_Handler+0x8c>)
  402456:	4298      	cmp	r0, r3
  402458:	d206      	bcs.n	402468 <Reset_Handler+0x20>
                        *pDest++ = *pSrc++;
  40245a:	43c2      	mvns	r2, r0
  40245c:	4c1e      	ldr	r4, [pc, #120]	; (4024d8 <Reset_Handler+0x90>)
  40245e:	441a      	add	r2, r3
  402460:	f022 0203 	bic.w	r2, r2, #3
  402464:	3204      	adds	r2, #4
  402466:	47a0      	blx	r4
        for (pDest = &_szero; pDest < &_ezero;) {
  402468:	481c      	ldr	r0, [pc, #112]	; (4024dc <Reset_Handler+0x94>)
  40246a:	4b1d      	ldr	r3, [pc, #116]	; (4024e0 <Reset_Handler+0x98>)
  40246c:	4298      	cmp	r0, r3
  40246e:	d207      	bcs.n	402480 <Reset_Handler+0x38>
                *pDest++ = 0;
  402470:	43c2      	mvns	r2, r0
  402472:	2100      	movs	r1, #0
  402474:	4c1b      	ldr	r4, [pc, #108]	; (4024e4 <Reset_Handler+0x9c>)
  402476:	441a      	add	r2, r3
  402478:	f022 0203 	bic.w	r2, r2, #3
  40247c:	3204      	adds	r2, #4
  40247e:	47a0      	blx	r4
        SCB->VTOR = ((uint32_t) pSrc & SCB_VTOR_TBLOFF_Msk);
  402480:	4b19      	ldr	r3, [pc, #100]	; (4024e8 <Reset_Handler+0xa0>)
  402482:	4a1a      	ldr	r2, [pc, #104]	; (4024ec <Reset_Handler+0xa4>)
  402484:	f023 037f 	bic.w	r3, r3, #127	; 0x7f
  402488:	6093      	str	r3, [r2, #8]
 */
__attribute__( ( always_inline ) ) __STATIC_INLINE uint32_t __get_PRIMASK(void)
{
  uint32_t result;

  __ASM volatile ("MRS %0, primask" : "=r" (result) );
  40248a:	f3ef 8310 	mrs	r3, PRIMASK
static volatile uint32_t cpu_irq_critical_section_counter;
static volatile bool     cpu_irq_prev_interrupt_state;

static inline irqflags_t cpu_irq_save(void)
{
	volatile irqflags_t flags = cpu_irq_is_enabled();
  40248e:	fab3 f383 	clz	r3, r3
  402492:	095b      	lsrs	r3, r3, #5
  402494:	9301      	str	r3, [sp, #4]
  __ASM volatile ("cpsid i" : : : "memory");
  402496:	b672      	cpsid	i
  __ASM volatile ("dmb");
  402498:	f3bf 8f5f 	dmb	sy
	cpu_irq_disable();
  40249c:	4a14      	ldr	r2, [pc, #80]	; (4024f0 <Reset_Handler+0xa8>)
  40249e:	2300      	movs	r3, #0
 */
__always_inline static void fpu_enable(void)
{
	irqflags_t flags;
	flags = cpu_irq_save();
	REG_CPACR |=  (0xFu << 20);
  4024a0:	4914      	ldr	r1, [pc, #80]	; (4024f4 <Reset_Handler+0xac>)
  4024a2:	7013      	strb	r3, [r2, #0]
	return flags;
  4024a4:	9801      	ldr	r0, [sp, #4]
  4024a6:	680b      	ldr	r3, [r1, #0]
  4024a8:	f443 0370 	orr.w	r3, r3, #15728640	; 0xf00000
  4024ac:	600b      	str	r3, [r1, #0]
  __ASM volatile ("dsb");
  4024ae:	f3bf 8f4f 	dsb	sy
  __ASM volatile ("isb");
  4024b2:	f3bf 8f6f 	isb	sy
	return (flags);
}

static inline void cpu_irq_restore(irqflags_t flags)
{
	if (cpu_irq_is_enabled_flags(flags))
  4024b6:	b120      	cbz	r0, 4024c2 <Reset_Handler+0x7a>
		cpu_irq_enable();
  4024b8:	2301      	movs	r3, #1
  4024ba:	7013      	strb	r3, [r2, #0]
  __ASM volatile ("dmb");
  4024bc:	f3bf 8f5f 	dmb	sy
  __ASM volatile ("cpsie i" : : : "memory");
  4024c0:	b662      	cpsie	i
        __libc_init_array();
  4024c2:	4b0d      	ldr	r3, [pc, #52]	; (4024f8 <Reset_Handler+0xb0>)
  4024c4:	4798      	blx	r3
        main();
  4024c6:	4b0d      	ldr	r3, [pc, #52]	; (4024fc <Reset_Handler+0xb4>)
  4024c8:	4798      	blx	r3
  4024ca:	e7fe      	b.n	4024ca <Reset_Handler+0x82>
  4024cc:	00406e50 	.word	0x00406e50
  4024d0:	20400000 	.word	0x20400000
  4024d4:	20400a10 	.word	0x20400a10
  4024d8:	00403aa1 	.word	0x00403aa1
  4024dc:	20404000 	.word	0x20404000
  4024e0:	2045a8e8 	.word	0x2045a8e8
  4024e4:	00403bd5 	.word	0x00403bd5
  4024e8:	00400000 	.word	0x00400000
  4024ec:	e000ed00 	.word	0xe000ed00
  4024f0:	20400028 	.word	0x20400028
  4024f4:	e000ed88 	.word	0xe000ed88
  4024f8:	004034b9 	.word	0x004034b9
  4024fc:	0040297d 	.word	0x0040297d

00402500 <SystemCoreClockUpdate>:
}

void SystemCoreClockUpdate( void )
{
  /* Determine clock frequency according to clock register values */
  switch (PMC->PMC_MCKR & (uint32_t) PMC_MCKR_CSS_Msk)
  402500:	4a32      	ldr	r2, [pc, #200]	; (4025cc <SystemCoreClockUpdate+0xcc>)
  402502:	6b13      	ldr	r3, [r2, #48]	; 0x30
  402504:	f003 0303 	and.w	r3, r3, #3
  402508:	2b01      	cmp	r3, #1
  40250a:	d03c      	beq.n	402586 <SystemCoreClockUpdate+0x86>
  40250c:	d325      	bcc.n	40255a <SystemCoreClockUpdate+0x5a>
  40250e:	2b02      	cmp	r3, #2
  402510:	d00d      	beq.n	40252e <SystemCoreClockUpdate+0x2e>
  402512:	482f      	ldr	r0, [pc, #188]	; (4025d0 <SystemCoreClockUpdate+0xd0>)
  402514:	6803      	ldr	r3, [r0, #0]

    default:
    break;
  }

  if ( (PMC->PMC_MCKR & PMC_MCKR_PRES_Msk) == PMC_MCKR_PRES_CLK_3 )
  402516:	492d      	ldr	r1, [pc, #180]	; (4025cc <SystemCoreClockUpdate+0xcc>)
  402518:	6b0a      	ldr	r2, [r1, #48]	; 0x30
  40251a:	f002 0270 	and.w	r2, r2, #112	; 0x70
  40251e:	2a70      	cmp	r2, #112	; 0x70
  402520:	d02b      	beq.n	40257a <SystemCoreClockUpdate+0x7a>
  {
    SystemCoreClock /= 3U;
  }
  else
  {
    SystemCoreClock >>= ((PMC->PMC_MCKR & PMC_MCKR_PRES_Msk) >> PMC_MCKR_PRES_Pos);
  402522:	6b0a      	ldr	r2, [r1, #48]	; 0x30
  402524:	f3c2 1202 	ubfx	r2, r2, #4, #3
  402528:	40d3      	lsrs	r3, r2
  40252a:	6003      	str	r3, [r0, #0]
  40252c:	4770      	bx	lr
      if ( PMC->CKGR_MOR & CKGR_MOR_MOSCSEL )
  40252e:	6a13      	ldr	r3, [r2, #32]
        SystemCoreClock = CHIP_FREQ_XTAL_12M ;
  402530:	4827      	ldr	r0, [pc, #156]	; (4025d0 <SystemCoreClockUpdate+0xd0>)
      if ( PMC->CKGR_MOR & CKGR_MOR_MOSCSEL )
  402532:	01db      	lsls	r3, r3, #7
  402534:	d53a      	bpl.n	4025ac <SystemCoreClockUpdate+0xac>
            SystemCoreClock *= 3U;
  402536:	4b27      	ldr	r3, [pc, #156]	; (4025d4 <SystemCoreClockUpdate+0xd4>)
  402538:	6003      	str	r3, [r0, #0]
      if ( (uint32_t) (PMC->PMC_MCKR & (uint32_t) PMC_MCKR_CSS_Msk) == PMC_MCKR_CSS_PLLA_CLK )
  40253a:	4924      	ldr	r1, [pc, #144]	; (4025cc <SystemCoreClockUpdate+0xcc>)
  40253c:	6b0a      	ldr	r2, [r1, #48]	; 0x30
  40253e:	f002 0203 	and.w	r2, r2, #3
  402542:	2a02      	cmp	r2, #2
  402544:	d1e7      	bne.n	402516 <SystemCoreClockUpdate+0x16>
        SystemCoreClock *= ((((PMC->CKGR_PLLAR) & CKGR_PLLAR_MULA_Msk) >> CKGR_PLLAR_MULA_Pos) + 1U);
  402546:	6a8a      	ldr	r2, [r1, #40]	; 0x28
        SystemCoreClock /= ((((PMC->CKGR_PLLAR) & CKGR_PLLAR_DIVA_Msk) >> CKGR_PLLAR_DIVA_Pos));
  402548:	6a89      	ldr	r1, [r1, #40]	; 0x28
        SystemCoreClock *= ((((PMC->CKGR_PLLAR) & CKGR_PLLAR_MULA_Msk) >> CKGR_PLLAR_MULA_Pos) + 1U);
  40254a:	f3c2 420a 	ubfx	r2, r2, #16, #11
        SystemCoreClock /= ((((PMC->CKGR_PLLAR) & CKGR_PLLAR_DIVA_Msk) >> CKGR_PLLAR_DIVA_Pos));
  40254e:	b2c9      	uxtb	r1, r1
        SystemCoreClock *= ((((PMC->CKGR_PLLAR) & CKGR_PLLAR_MULA_Msk) >> CKGR_PLLAR_MULA_Pos) + 1U);
  402550:	fb02 3303 	mla	r3, r2, r3, r3
        SystemCoreClock /= ((((PMC->CKGR_PLLAR) & CKGR_PLLAR_DIVA_Msk) >> CKGR_PLLAR_DIVA_Pos));
  402554:	fbb3 f3f1 	udiv	r3, r3, r1
  402558:	e7dd      	b.n	402516 <SystemCoreClockUpdate+0x16>
      if ( SUPC->SUPC_SR & SUPC_SR_OSCSEL )
  40255a:	4b1f      	ldr	r3, [pc, #124]	; (4025d8 <SystemCoreClockUpdate+0xd8>)
  if ( (PMC->PMC_MCKR & PMC_MCKR_PRES_Msk) == PMC_MCKR_PRES_CLK_3 )
  40255c:	491b      	ldr	r1, [pc, #108]	; (4025cc <SystemCoreClockUpdate+0xcc>)
      if ( SUPC->SUPC_SR & SUPC_SR_OSCSEL )
  40255e:	695b      	ldr	r3, [r3, #20]
  if ( (PMC->PMC_MCKR & PMC_MCKR_PRES_Msk) == PMC_MCKR_PRES_CLK_3 )
  402560:	6b0a      	ldr	r2, [r1, #48]	; 0x30
      if ( SUPC->SUPC_SR & SUPC_SR_OSCSEL )
  402562:	f013 0f80 	tst.w	r3, #128	; 0x80
  402566:	481a      	ldr	r0, [pc, #104]	; (4025d0 <SystemCoreClockUpdate+0xd0>)
  if ( (PMC->PMC_MCKR & PMC_MCKR_PRES_Msk) == PMC_MCKR_PRES_CLK_3 )
  402568:	f002 0270 	and.w	r2, r2, #112	; 0x70
      if ( SUPC->SUPC_SR & SUPC_SR_OSCSEL )
  40256c:	bf14      	ite	ne
  40256e:	f44f 4300 	movne.w	r3, #32768	; 0x8000
  402572:	f44f 43fa 	moveq.w	r3, #32000	; 0x7d00
  if ( (PMC->PMC_MCKR & PMC_MCKR_PRES_Msk) == PMC_MCKR_PRES_CLK_3 )
  402576:	2a70      	cmp	r2, #112	; 0x70
  402578:	d1d3      	bne.n	402522 <SystemCoreClockUpdate+0x22>
    SystemCoreClock /= 3U;
  40257a:	4a18      	ldr	r2, [pc, #96]	; (4025dc <SystemCoreClockUpdate+0xdc>)
  40257c:	fba2 2303 	umull	r2, r3, r2, r3
  402580:	085b      	lsrs	r3, r3, #1
  402582:	6003      	str	r3, [r0, #0]
  402584:	4770      	bx	lr
      if ( PMC->CKGR_MOR & CKGR_MOR_MOSCSEL )
  402586:	6a13      	ldr	r3, [r2, #32]
  402588:	01d9      	lsls	r1, r3, #7
  40258a:	d40c      	bmi.n	4025a6 <SystemCoreClockUpdate+0xa6>
        SystemCoreClock = CHIP_FREQ_MAINCK_RC_4MHZ;
  40258c:	4810      	ldr	r0, [pc, #64]	; (4025d0 <SystemCoreClockUpdate+0xd0>)
  40258e:	4914      	ldr	r1, [pc, #80]	; (4025e0 <SystemCoreClockUpdate+0xe0>)
  402590:	6001      	str	r1, [r0, #0]
        switch ( PMC->CKGR_MOR & CKGR_MOR_MOSCRCF_Msk )
  402592:	6a12      	ldr	r2, [r2, #32]
  402594:	f002 0270 	and.w	r2, r2, #112	; 0x70
  402598:	2a10      	cmp	r2, #16
  40259a:	d011      	beq.n	4025c0 <SystemCoreClockUpdate+0xc0>
  40259c:	4b0d      	ldr	r3, [pc, #52]	; (4025d4 <SystemCoreClockUpdate+0xd4>)
  40259e:	2a20      	cmp	r2, #32
  4025a0:	bf18      	it	ne
  4025a2:	460b      	movne	r3, r1
  4025a4:	e7b7      	b.n	402516 <SystemCoreClockUpdate+0x16>
  4025a6:	4b0b      	ldr	r3, [pc, #44]	; (4025d4 <SystemCoreClockUpdate+0xd4>)
  4025a8:	4809      	ldr	r0, [pc, #36]	; (4025d0 <SystemCoreClockUpdate+0xd0>)
  4025aa:	e7b4      	b.n	402516 <SystemCoreClockUpdate+0x16>
        SystemCoreClock = CHIP_FREQ_MAINCK_RC_4MHZ;
  4025ac:	4b0c      	ldr	r3, [pc, #48]	; (4025e0 <SystemCoreClockUpdate+0xe0>)
  4025ae:	6003      	str	r3, [r0, #0]
        switch ( PMC->CKGR_MOR & CKGR_MOR_MOSCRCF_Msk )
  4025b0:	6a12      	ldr	r2, [r2, #32]
  4025b2:	f002 0270 	and.w	r2, r2, #112	; 0x70
  4025b6:	2a10      	cmp	r2, #16
  4025b8:	d004      	beq.n	4025c4 <SystemCoreClockUpdate+0xc4>
  4025ba:	2a20      	cmp	r2, #32
  4025bc:	d0bb      	beq.n	402536 <SystemCoreClockUpdate+0x36>
  4025be:	e7bc      	b.n	40253a <SystemCoreClockUpdate+0x3a>
        switch ( PMC->CKGR_MOR & CKGR_MOR_MOSCRCF_Msk )
  4025c0:	4b08      	ldr	r3, [pc, #32]	; (4025e4 <SystemCoreClockUpdate+0xe4>)
  4025c2:	e7a8      	b.n	402516 <SystemCoreClockUpdate+0x16>
            SystemCoreClock *= 2U;
  4025c4:	4b07      	ldr	r3, [pc, #28]	; (4025e4 <SystemCoreClockUpdate+0xe4>)
  4025c6:	6003      	str	r3, [r0, #0]
          break;
  4025c8:	e7b7      	b.n	40253a <SystemCoreClockUpdate+0x3a>
  4025ca:	bf00      	nop
  4025cc:	400e0600 	.word	0x400e0600
  4025d0:	2040002c 	.word	0x2040002c
  4025d4:	00b71b00 	.word	0x00b71b00
  4025d8:	400e1810 	.word	0x400e1810
  4025dc:	aaaaaaab 	.word	0xaaaaaaab
  4025e0:	003d0900 	.word	0x003d0900
  4025e4:	007a1200 	.word	0x007a1200

004025e8 <system_init_flash>:
 * Initialize flash.
 */
void system_init_flash( uint32_t ul_clk )
{
  /* Set FWS for embedded Flash access according to operating frequency */
  if ( ul_clk < CHIP_FREQ_FWS_0 )
  4025e8:	4b16      	ldr	r3, [pc, #88]	; (402644 <system_init_flash+0x5c>)
  4025ea:	4298      	cmp	r0, r3
  4025ec:	d917      	bls.n	40261e <system_init_flash+0x36>
  {
    EFC->EEFC_FMR = EEFC_FMR_FWS(0)|EEFC_FMR_CLOE;
  }
  else
  {
    if (ul_clk < CHIP_FREQ_FWS_1)
  4025ee:	4b16      	ldr	r3, [pc, #88]	; (402648 <system_init_flash+0x60>)
  4025f0:	4298      	cmp	r0, r3
  4025f2:	d910      	bls.n	402616 <system_init_flash+0x2e>
    {
      EFC->EEFC_FMR = EEFC_FMR_FWS(1)|EEFC_FMR_CLOE;
    }
    else
    {
      if (ul_clk < CHIP_FREQ_FWS_2)
  4025f4:	4b15      	ldr	r3, [pc, #84]	; (40264c <system_init_flash+0x64>)
  4025f6:	4298      	cmp	r0, r3
  4025f8:	d91a      	bls.n	402630 <system_init_flash+0x48>
      {
        EFC->EEFC_FMR = EEFC_FMR_FWS(2)|EEFC_FMR_CLOE;
      }
      else
      {
        if ( ul_clk < CHIP_FREQ_FWS_3 )
  4025fa:	4b15      	ldr	r3, [pc, #84]	; (402650 <system_init_flash+0x68>)
  4025fc:	4298      	cmp	r0, r3
  4025fe:	d913      	bls.n	402628 <system_init_flash+0x40>
        {
          EFC->EEFC_FMR = EEFC_FMR_FWS(3)|EEFC_FMR_CLOE;
        }
        else
        {
          if ( ul_clk < CHIP_FREQ_FWS_4 )
  402600:	4b14      	ldr	r3, [pc, #80]	; (402654 <system_init_flash+0x6c>)
  402602:	4298      	cmp	r0, r3
  402604:	d918      	bls.n	402638 <system_init_flash+0x50>
          {
            EFC->EEFC_FMR = EEFC_FMR_FWS(4)|EEFC_FMR_CLOE;
          }
          else
          {
            if ( ul_clk < CHIP_FREQ_FWS_5 )
  402606:	4b14      	ldr	r3, [pc, #80]	; (402658 <system_init_flash+0x70>)
  402608:	4298      	cmp	r0, r3
            {
              EFC->EEFC_FMR = EEFC_FMR_FWS(5)|EEFC_FMR_CLOE;
  40260a:	4b14      	ldr	r3, [pc, #80]	; (40265c <system_init_flash+0x74>)
  40260c:	bf94      	ite	ls
  40260e:	4a14      	ldrls	r2, [pc, #80]	; (402660 <system_init_flash+0x78>)
            }
            else
            {
              EFC->EEFC_FMR = EEFC_FMR_FWS(6)|EEFC_FMR_CLOE;
  402610:	4a14      	ldrhi	r2, [pc, #80]	; (402664 <system_init_flash+0x7c>)
  402612:	601a      	str	r2, [r3, #0]
  402614:	4770      	bx	lr
      EFC->EEFC_FMR = EEFC_FMR_FWS(1)|EEFC_FMR_CLOE;
  402616:	4b11      	ldr	r3, [pc, #68]	; (40265c <system_init_flash+0x74>)
  402618:	4a13      	ldr	r2, [pc, #76]	; (402668 <system_init_flash+0x80>)
  40261a:	601a      	str	r2, [r3, #0]
  40261c:	4770      	bx	lr
    EFC->EEFC_FMR = EEFC_FMR_FWS(0)|EEFC_FMR_CLOE;
  40261e:	4b0f      	ldr	r3, [pc, #60]	; (40265c <system_init_flash+0x74>)
  402620:	f04f 6280 	mov.w	r2, #67108864	; 0x4000000
  402624:	601a      	str	r2, [r3, #0]
  402626:	4770      	bx	lr
          EFC->EEFC_FMR = EEFC_FMR_FWS(3)|EEFC_FMR_CLOE;
  402628:	4b0c      	ldr	r3, [pc, #48]	; (40265c <system_init_flash+0x74>)
  40262a:	4a10      	ldr	r2, [pc, #64]	; (40266c <system_init_flash+0x84>)
  40262c:	601a      	str	r2, [r3, #0]
  40262e:	4770      	bx	lr
        EFC->EEFC_FMR = EEFC_FMR_FWS(2)|EEFC_FMR_CLOE;
  402630:	4b0a      	ldr	r3, [pc, #40]	; (40265c <system_init_flash+0x74>)
  402632:	4a0f      	ldr	r2, [pc, #60]	; (402670 <system_init_flash+0x88>)
  402634:	601a      	str	r2, [r3, #0]
  402636:	4770      	bx	lr
            EFC->EEFC_FMR = EEFC_FMR_FWS(4)|EEFC_FMR_CLOE;
  402638:	4b08      	ldr	r3, [pc, #32]	; (40265c <system_init_flash+0x74>)
  40263a:	f04f 2204 	mov.w	r2, #67109888	; 0x4000400
  40263e:	601a      	str	r2, [r3, #0]
  402640:	4770      	bx	lr
  402642:	bf00      	nop
  402644:	015ef3bf 	.word	0x015ef3bf
  402648:	02bde77f 	.word	0x02bde77f
  40264c:	041cdb3f 	.word	0x041cdb3f
  402650:	057bceff 	.word	0x057bceff
  402654:	06dac2bf 	.word	0x06dac2bf
  402658:	0839b67f 	.word	0x0839b67f
  40265c:	400e0c00 	.word	0x400e0c00
  402660:	04000500 	.word	0x04000500
  402664:	04000600 	.word	0x04000600
  402668:	04000100 	.word	0x04000100
  40266c:	04000300 	.word	0x04000300
  402670:	04000200 	.word	0x04000200

00402674 <_sbrk>:
{
	static unsigned char *heap = NULL;
	unsigned char *prev_heap;
	int ramend = (int)&__ram_end__;

	if (heap == NULL) {
  402674:	4a0d      	ldr	r2, [pc, #52]	; (4026ac <_sbrk+0x38>)
	int ramend = (int)&__ram_end__;
  402676:	490e      	ldr	r1, [pc, #56]	; (4026b0 <_sbrk+0x3c>)
	if (heap == NULL) {
  402678:	6813      	ldr	r3, [r2, #0]
  40267a:	b143      	cbz	r3, 40268e <_sbrk+0x1a>
		heap = (unsigned char *)&_end;
	}
	prev_heap = heap;

	if (((int)prev_heap + incr) > ramend) {
  40267c:	4418      	add	r0, r3
  40267e:	4281      	cmp	r1, r0
  402680:	db02      	blt.n	402688 <_sbrk+0x14>
		return (caddr_t) -1;	
	}

	heap += incr;
  402682:	6010      	str	r0, [r2, #0]

	return (caddr_t) prev_heap;
  402684:	4618      	mov	r0, r3
  402686:	4770      	bx	lr
		return (caddr_t) -1;	
  402688:	f04f 30ff 	mov.w	r0, #4294967295
  40268c:	4770      	bx	lr
{
  40268e:	b410      	push	{r4}
		heap = (unsigned char *)&_end;
  402690:	4c08      	ldr	r4, [pc, #32]	; (4026b4 <_sbrk+0x40>)
	if (((int)prev_heap + incr) > ramend) {
  402692:	4420      	add	r0, r4
		heap = (unsigned char *)&_end;
  402694:	6014      	str	r4, [r2, #0]
	if (((int)prev_heap + incr) > ramend) {
  402696:	4281      	cmp	r1, r0
  402698:	db04      	blt.n	4026a4 <_sbrk+0x30>
	heap += incr;
  40269a:	6010      	str	r0, [r2, #0]
	return (caddr_t) prev_heap;
  40269c:	4620      	mov	r0, r4
}
  40269e:	f85d 4b04 	ldr.w	r4, [sp], #4
  4026a2:	4770      	bx	lr
		return (caddr_t) -1;	
  4026a4:	f04f 30ff 	mov.w	r0, #4294967295
  4026a8:	e7f9      	b.n	40269e <_sbrk+0x2a>
  4026aa:	bf00      	nop
  4026ac:	2041c0d0 	.word	0x2041c0d0
  4026b0:	2045fffc 	.word	0x2045fffc
  4026b4:	2045cae8 	.word	0x2045cae8

004026b8 <_close>:
}

extern int _close(int file)
{
	return -1;
}
  4026b8:	f04f 30ff 	mov.w	r0, #4294967295
  4026bc:	4770      	bx	lr
  4026be:	bf00      	nop

004026c0 <_fstat>:

extern int _fstat(int file, struct stat *st)
{
	st->st_mode = S_IFCHR;
  4026c0:	f44f 5300 	mov.w	r3, #8192	; 0x2000

	return 0;
}
  4026c4:	2000      	movs	r0, #0
	st->st_mode = S_IFCHR;
  4026c6:	604b      	str	r3, [r1, #4]
}
  4026c8:	4770      	bx	lr
  4026ca:	bf00      	nop

004026cc <_isatty>:

extern int _isatty(int file)
{
	return 1;
}
  4026cc:	2001      	movs	r0, #1
  4026ce:	4770      	bx	lr

004026d0 <_lseek>:

extern int _lseek(int file, int ptr, int dir)
{
	return 0;
}
  4026d0:	2000      	movs	r0, #0
  4026d2:	4770      	bx	lr

004026d4 <USART1_Handler>:
volatile bool waiting_for_chorus_volume = false;
volatile float chorus_volume = 0.8f;

volatile bool autotune = true; 
void USART_SERIAL_ISR_HANDLER(void)
{
  4026d4:	b5f0      	push	{r4, r5, r6, r7, lr}
	uint32_t dw_status = usart_get_status(USART_SERIAL);
  4026d6:	4b8a      	ldr	r3, [pc, #552]	; (402900 <USART1_Handler+0x22c>)
{
  4026d8:	b083      	sub	sp, #12
	uint32_t dw_status = usart_get_status(USART_SERIAL);
  4026da:	488a      	ldr	r0, [pc, #552]	; (402904 <USART1_Handler+0x230>)
  4026dc:	4798      	blx	r3
	if (dw_status & US_CSR_RXRDY) {
  4026de:	07c3      	lsls	r3, r0, #31
  4026e0:	d401      	bmi.n	4026e6 <USART1_Handler+0x12>
			harmony_list_read = harmony_list_fill;		
			harmony_list_fill = temp; 
			harmony_idx = 0; 
		}
	}
}
  4026e2:	b003      	add	sp, #12
  4026e4:	bdf0      	pop	{r4, r5, r6, r7, pc}
		usart_read(USART_SERIAL, &received_byte);
  4026e6:	4b88      	ldr	r3, [pc, #544]	; (402908 <USART1_Handler+0x234>)
  4026e8:	a901      	add	r1, sp, #4
  4026ea:	4886      	ldr	r0, [pc, #536]	; (402904 <USART1_Handler+0x230>)
  4026ec:	4798      	blx	r3
		if (waiting_for_harm_volume)
  4026ee:	4a87      	ldr	r2, [pc, #540]	; (40290c <USART1_Handler+0x238>)
  4026f0:	7813      	ldrb	r3, [r2, #0]
  4026f2:	f003 00ff 	and.w	r0, r3, #255	; 0xff
  4026f6:	b98b      	cbnz	r3, 40271c <USART1_Handler+0x48>
		else if (waiting_for_master_volume)
  4026f8:	4985      	ldr	r1, [pc, #532]	; (402910 <USART1_Handler+0x23c>)
  4026fa:	780b      	ldrb	r3, [r1, #0]
  4026fc:	f003 04ff 	and.w	r4, r3, #255	; 0xff
  402700:	b1db      	cbz	r3, 40273a <USART1_Handler+0x66>
			master_volume = (float)received_byte / 127.0f;
  402702:	eddd 7a01 	vldr	s15, [sp, #4]
  402706:	ed9f 7a83 	vldr	s14, [pc, #524]	; 402914 <USART1_Handler+0x240>
  40270a:	eef8 7a67 	vcvt.f32.u32	s15, s15
  40270e:	4b82      	ldr	r3, [pc, #520]	; (402918 <USART1_Handler+0x244>)
  402710:	ee67 7a87 	vmul.f32	s15, s15, s14
  402714:	edc3 7a00 	vstr	s15, [r3]
			waiting_for_master_volume = false;
  402718:	7008      	strb	r0, [r1, #0]
  40271a:	e7e2      	b.n	4026e2 <USART1_Handler+0xe>
			harm_volume = (float)received_byte / 127.0f; 
  40271c:	eddd 7a01 	vldr	s15, [sp, #4]
			waiting_for_harm_volume = false; 
  402720:	2300      	movs	r3, #0
			harm_volume = (float)received_byte / 127.0f; 
  402722:	ed9f 7a7c 	vldr	s14, [pc, #496]	; 402914 <USART1_Handler+0x240>
  402726:	eef8 7a67 	vcvt.f32.u32	s15, s15
  40272a:	497c      	ldr	r1, [pc, #496]	; (40291c <USART1_Handler+0x248>)
  40272c:	ee67 7a87 	vmul.f32	s15, s15, s14
  402730:	edc1 7a00 	vstr	s15, [r1]
			waiting_for_harm_volume = false; 
  402734:	7013      	strb	r3, [r2, #0]
}
  402736:	b003      	add	sp, #12
  402738:	bdf0      	pop	{r4, r5, r6, r7, pc}
		else if (waiting_for_dry_volume)
  40273a:	4879      	ldr	r0, [pc, #484]	; (402920 <USART1_Handler+0x24c>)
  40273c:	7803      	ldrb	r3, [r0, #0]
  40273e:	f003 05ff 	and.w	r5, r3, #255	; 0xff
  402742:	b94b      	cbnz	r3, 402758 <USART1_Handler+0x84>
		else if (waiting_for_pitch_bend)
  402744:	4c77      	ldr	r4, [pc, #476]	; (402924 <USART1_Handler+0x250>)
  402746:	7823      	ldrb	r3, [r4, #0]
  402748:	f003 06ff 	and.w	r6, r3, #255	; 0xff
  40274c:	b18b      	cbz	r3, 402772 <USART1_Handler+0x9e>
			pitch_bend = received_byte;
  40274e:	9a01      	ldr	r2, [sp, #4]
  402750:	4b75      	ldr	r3, [pc, #468]	; (402928 <USART1_Handler+0x254>)
  402752:	601a      	str	r2, [r3, #0]
			waiting_for_pitch_bend = false;
  402754:	7025      	strb	r5, [r4, #0]
  402756:	e7c4      	b.n	4026e2 <USART1_Handler+0xe>
			dry_volume = (float)received_byte / 127.0f;
  402758:	eddd 7a01 	vldr	s15, [sp, #4]
  40275c:	ed9f 7a6d 	vldr	s14, [pc, #436]	; 402914 <USART1_Handler+0x240>
  402760:	eef8 7a67 	vcvt.f32.u32	s15, s15
  402764:	4b71      	ldr	r3, [pc, #452]	; (40292c <USART1_Handler+0x258>)
  402766:	ee67 7a87 	vmul.f32	s15, s15, s14
  40276a:	edc3 7a00 	vstr	s15, [r3]
			waiting_for_dry_volume = false;
  40276e:	7004      	strb	r4, [r0, #0]
  402770:	e7b7      	b.n	4026e2 <USART1_Handler+0xe>
		else if (waiting_for_reverb_volume)
  402772:	4d6f      	ldr	r5, [pc, #444]	; (402930 <USART1_Handler+0x25c>)
  402774:	782b      	ldrb	r3, [r5, #0]
  402776:	f003 07ff 	and.w	r7, r3, #255	; 0xff
  40277a:	b163      	cbz	r3, 402796 <USART1_Handler+0xc2>
			reverb_volume = (float)received_byte / 127.0f;;
  40277c:	eddd 7a01 	vldr	s15, [sp, #4]
  402780:	ed9f 7a64 	vldr	s14, [pc, #400]	; 402914 <USART1_Handler+0x240>
  402784:	eef8 7a67 	vcvt.f32.u32	s15, s15
  402788:	4b6a      	ldr	r3, [pc, #424]	; (402934 <USART1_Handler+0x260>)
  40278a:	ee67 7a87 	vmul.f32	s15, s15, s14
  40278e:	edc3 7a00 	vstr	s15, [r3]
			waiting_for_reverb_volume = false;
  402792:	702e      	strb	r6, [r5, #0]
  402794:	e7a5      	b.n	4026e2 <USART1_Handler+0xe>
		else if (waiting_for_delay_volume)
  402796:	4e68      	ldr	r6, [pc, #416]	; (402938 <USART1_Handler+0x264>)
  402798:	7833      	ldrb	r3, [r6, #0]
  40279a:	f003 0eff 	and.w	lr, r3, #255	; 0xff
  40279e:	b163      	cbz	r3, 4027ba <USART1_Handler+0xe6>
			delay_volume = 0.7f * (float)received_byte / 127.0f;
  4027a0:	eddd 7a01 	vldr	s15, [sp, #4]
  4027a4:	ed9f 7a65 	vldr	s14, [pc, #404]	; 40293c <USART1_Handler+0x268>
  4027a8:	eef8 7a67 	vcvt.f32.u32	s15, s15
  4027ac:	4b64      	ldr	r3, [pc, #400]	; (402940 <USART1_Handler+0x26c>)
  4027ae:	ee67 7a87 	vmul.f32	s15, s15, s14
  4027b2:	edc3 7a00 	vstr	s15, [r3]
			waiting_for_delay_volume = false;
  4027b6:	7037      	strb	r7, [r6, #0]
  4027b8:	e793      	b.n	4026e2 <USART1_Handler+0xe>
		else if (waiting_for_delay_speed)
  4027ba:	4f62      	ldr	r7, [pc, #392]	; (402944 <USART1_Handler+0x270>)
  4027bc:	783b      	ldrb	r3, [r7, #0]
  4027be:	f003 0cff 	and.w	ip, r3, #255	; 0xff
  4027c2:	b18b      	cbz	r3, 4027e8 <USART1_Handler+0x114>
			delay_speed = 16200 - 14000 * (float)received_byte / 127.0f;
  4027c4:	eddd 7a01 	vldr	s15, [sp, #4]
  4027c8:	eddf 6a5f 	vldr	s13, [pc, #380]	; 402948 <USART1_Handler+0x274>
  4027cc:	eeb8 7a67 	vcvt.f32.u32	s14, s15
  4027d0:	eddf 7a5e 	vldr	s15, [pc, #376]	; 40294c <USART1_Handler+0x278>
  4027d4:	4b5e      	ldr	r3, [pc, #376]	; (402950 <USART1_Handler+0x27c>)
  4027d6:	eee7 7a66 	vfms.f32	s15, s14, s13
  4027da:	eefc 7ae7 	vcvt.u32.f32	s15, s15
  4027de:	edc3 7a00 	vstr	s15, [r3]
			waiting_for_delay_speed = false;
  4027e2:	f887 e000 	strb.w	lr, [r7]
  4027e6:	e77c      	b.n	4026e2 <USART1_Handler+0xe>
		else if (waiting_for_delay_feedback)
  4027e8:	f8df e188 	ldr.w	lr, [pc, #392]	; 402974 <USART1_Handler+0x2a0>
  4027ec:	f89e 3000 	ldrb.w	r3, [lr]
  4027f0:	b16b      	cbz	r3, 40280e <USART1_Handler+0x13a>
			delay_feedback = (float)received_byte / 127.0f;
  4027f2:	eddd 7a01 	vldr	s15, [sp, #4]
  4027f6:	ed9f 7a47 	vldr	s14, [pc, #284]	; 402914 <USART1_Handler+0x240>
  4027fa:	eef8 7a67 	vcvt.f32.u32	s15, s15
  4027fe:	4b55      	ldr	r3, [pc, #340]	; (402954 <USART1_Handler+0x280>)
  402800:	ee67 7a87 	vmul.f32	s15, s15, s14
  402804:	edc3 7a00 	vstr	s15, [r3]
			waiting_for_delay_feedback = false;
  402808:	f88e c000 	strb.w	ip, [lr]
  40280c:	e769      	b.n	4026e2 <USART1_Handler+0xe>
		else if (waiting_for_chorus_volume)
  40280e:	f8df c168 	ldr.w	ip, [pc, #360]	; 402978 <USART1_Handler+0x2a4>
  402812:	f89c 3000 	ldrb.w	r3, [ip]
  402816:	b173      	cbz	r3, 402836 <USART1_Handler+0x162>
			chorus_volume = (float)received_byte / 127.0f;;
  402818:	eddd 7a01 	vldr	s15, [sp, #4]
			waiting_for_chorus_volume = false;
  40281c:	2300      	movs	r3, #0
			chorus_volume = (float)received_byte / 127.0f;;
  40281e:	ed9f 7a3d 	vldr	s14, [pc, #244]	; 402914 <USART1_Handler+0x240>
  402822:	eef8 7a67 	vcvt.f32.u32	s15, s15
  402826:	4a4c      	ldr	r2, [pc, #304]	; (402958 <USART1_Handler+0x284>)
  402828:	ee67 7a87 	vmul.f32	s15, s15, s14
  40282c:	edc2 7a00 	vstr	s15, [r2]
			waiting_for_chorus_volume = false;
  402830:	f88c 3000 	strb.w	r3, [ip]
  402834:	e755      	b.n	4026e2 <USART1_Handler+0xe>
		else if (received_byte == HARMONY_VOLUME_FLAG) 
  402836:	9b01      	ldr	r3, [sp, #4]
  402838:	2bff      	cmp	r3, #255	; 0xff
  40283a:	d02a      	beq.n	402892 <USART1_Handler+0x1be>
		else if (received_byte == DRY_VOLUME_FLAG)
  40283c:	2bf7      	cmp	r3, #247	; 0xf7
  40283e:	d02b      	beq.n	402898 <USART1_Handler+0x1c4>
		else if (received_byte == MASTER_VOLUME_FLAG)
  402840:	2bfe      	cmp	r3, #254	; 0xfe
  402842:	d02c      	beq.n	40289e <USART1_Handler+0x1ca>
		else if (received_byte == PITCH_BEND_FLAG)
  402844:	2bfd      	cmp	r3, #253	; 0xfd
  402846:	d030      	beq.n	4028aa <USART1_Handler+0x1d6>
		else if (received_byte == REVERB_VOLUME_FLAG)
  402848:	2bfb      	cmp	r3, #251	; 0xfb
  40284a:	d02b      	beq.n	4028a4 <USART1_Handler+0x1d0>
		else if (received_byte == DELAY_VOLUME_FLAG)
  40284c:	2bf6      	cmp	r3, #246	; 0xf6
  40284e:	d053      	beq.n	4028f8 <USART1_Handler+0x224>
		else if (received_byte == DELAY_SPEED_FLAG)
  402850:	2bf8      	cmp	r3, #248	; 0xf8
  402852:	d04e      	beq.n	4028f2 <USART1_Handler+0x21e>
		else if (received_byte == DELAY_FEEDBACK_FLAG)
  402854:	2bf9      	cmp	r3, #249	; 0xf9
  402856:	d048      	beq.n	4028ea <USART1_Handler+0x216>
		else if (received_byte == CHORUS_VOLUME_FLAG)
  402858:	2bfa      	cmp	r3, #250	; 0xfa
  40285a:	d042      	beq.n	4028e2 <USART1_Handler+0x20e>
		else if (received_byte == AUTOTUNE_FLAG)
  40285c:	2bfc      	cmp	r3, #252	; 0xfc
  40285e:	d03a      	beq.n	4028d6 <USART1_Handler+0x202>
		else if (received_byte != 0 && harmony_idx < MAX_NUM_SHIFTS)
  402860:	4a3e      	ldr	r2, [pc, #248]	; (40295c <USART1_Handler+0x288>)
  402862:	b32b      	cbz	r3, 4028b0 <USART1_Handler+0x1dc>
  402864:	6811      	ldr	r1, [r2, #0]
  402866:	290a      	cmp	r1, #10
  402868:	d822      	bhi.n	4028b0 <USART1_Handler+0x1dc>
			harmony_list_fill[harmony_idx].freq = midi_note_frequencies[received_byte]; 
  40286a:	4c3d      	ldr	r4, [pc, #244]	; (402960 <USART1_Handler+0x28c>)
  40286c:	483d      	ldr	r0, [pc, #244]	; (402964 <USART1_Handler+0x290>)
  40286e:	6815      	ldr	r5, [r2, #0]
  402870:	6821      	ldr	r1, [r4, #0]
  402872:	eb00 0383 	add.w	r3, r0, r3, lsl #2
  402876:	eb01 01c5 	add.w	r1, r1, r5, lsl #3
  40287a:	681b      	ldr	r3, [r3, #0]
  40287c:	600b      	str	r3, [r1, #0]
			harmony_list_fill[harmony_idx].idx = received_byte; 
  40287e:	6810      	ldr	r0, [r2, #0]
  402880:	6823      	ldr	r3, [r4, #0]
  402882:	9901      	ldr	r1, [sp, #4]
  402884:	eb03 03c0 	add.w	r3, r3, r0, lsl #3
  402888:	6059      	str	r1, [r3, #4]
			harmony_idx++;
  40288a:	6813      	ldr	r3, [r2, #0]
  40288c:	3301      	adds	r3, #1
  40288e:	6013      	str	r3, [r2, #0]
  402890:	e727      	b.n	4026e2 <USART1_Handler+0xe>
			waiting_for_harm_volume = true; 
  402892:	2301      	movs	r3, #1
  402894:	7013      	strb	r3, [r2, #0]
  402896:	e724      	b.n	4026e2 <USART1_Handler+0xe>
			waiting_for_dry_volume = true;
  402898:	2301      	movs	r3, #1
  40289a:	7003      	strb	r3, [r0, #0]
  40289c:	e721      	b.n	4026e2 <USART1_Handler+0xe>
			waiting_for_master_volume = true;
  40289e:	2301      	movs	r3, #1
  4028a0:	700b      	strb	r3, [r1, #0]
  4028a2:	e71e      	b.n	4026e2 <USART1_Handler+0xe>
			waiting_for_reverb_volume = true;
  4028a4:	2301      	movs	r3, #1
  4028a6:	702b      	strb	r3, [r5, #0]
  4028a8:	e71b      	b.n	4026e2 <USART1_Handler+0xe>
			waiting_for_pitch_bend = true;
  4028aa:	2301      	movs	r3, #1
  4028ac:	7023      	strb	r3, [r4, #0]
  4028ae:	e718      	b.n	4026e2 <USART1_Handler+0xe>
			harmony_list_fill[harmony_idx].freq = END_OF_SHIFTS; 
  4028b0:	492b      	ldr	r1, [pc, #172]	; (402960 <USART1_Handler+0x28c>)
			harmony_list_fill[harmony_idx].idx = 0; // dont care 
  4028b2:	2000      	movs	r0, #0
			harmony_list_fill[harmony_idx].freq = END_OF_SHIFTS; 
  4028b4:	6816      	ldr	r6, [r2, #0]
  4028b6:	680b      	ldr	r3, [r1, #0]
  4028b8:	4d2b      	ldr	r5, [pc, #172]	; (402968 <USART1_Handler+0x294>)
  4028ba:	eb03 03c6 	add.w	r3, r3, r6, lsl #3
			harmony_t *temp = (harmony_t *)harmony_list_read; 
  4028be:	4c2b      	ldr	r4, [pc, #172]	; (40296c <USART1_Handler+0x298>)
			harmony_list_fill[harmony_idx].freq = END_OF_SHIFTS; 
  4028c0:	601d      	str	r5, [r3, #0]
			harmony_list_fill[harmony_idx].idx = 0; // dont care 
  4028c2:	680d      	ldr	r5, [r1, #0]
  4028c4:	6813      	ldr	r3, [r2, #0]
			harmony_t *temp = (harmony_t *)harmony_list_read; 
  4028c6:	6826      	ldr	r6, [r4, #0]
			harmony_list_fill[harmony_idx].idx = 0; // dont care 
  4028c8:	eb05 03c3 	add.w	r3, r5, r3, lsl #3
			harmony_list_read = harmony_list_fill;		
  4028cc:	6025      	str	r5, [r4, #0]
			harmony_list_fill = temp; 
  4028ce:	600e      	str	r6, [r1, #0]
			harmony_list_fill[harmony_idx].idx = 0; // dont care 
  4028d0:	6058      	str	r0, [r3, #4]
			harmony_idx = 0; 
  4028d2:	6010      	str	r0, [r2, #0]
}
  4028d4:	e705      	b.n	4026e2 <USART1_Handler+0xe>
			autotune = !autotune; 
  4028d6:	4a26      	ldr	r2, [pc, #152]	; (402970 <USART1_Handler+0x29c>)
  4028d8:	7813      	ldrb	r3, [r2, #0]
  4028da:	f083 0301 	eor.w	r3, r3, #1
  4028de:	7013      	strb	r3, [r2, #0]
  4028e0:	e6ff      	b.n	4026e2 <USART1_Handler+0xe>
			waiting_for_chorus_volume = true;
  4028e2:	2301      	movs	r3, #1
  4028e4:	f88c 3000 	strb.w	r3, [ip]
  4028e8:	e6fb      	b.n	4026e2 <USART1_Handler+0xe>
			waiting_for_delay_feedback = true;
  4028ea:	2301      	movs	r3, #1
  4028ec:	f88e 3000 	strb.w	r3, [lr]
  4028f0:	e6f7      	b.n	4026e2 <USART1_Handler+0xe>
			waiting_for_delay_speed = true;
  4028f2:	2301      	movs	r3, #1
  4028f4:	703b      	strb	r3, [r7, #0]
  4028f6:	e6f4      	b.n	4026e2 <USART1_Handler+0xe>
			waiting_for_delay_volume = true;
  4028f8:	2301      	movs	r3, #1
  4028fa:	7033      	strb	r3, [r6, #0]
  4028fc:	e6f1      	b.n	4026e2 <USART1_Handler+0xe>
  4028fe:	bf00      	nop
  402900:	004017dd 	.word	0x004017dd
  402904:	40028000 	.word	0x40028000
  402908:	004017e1 	.word	0x004017e1
  40290c:	20441405 	.word	0x20441405
  402910:	20441406 	.word	0x20441406
  402914:	3c010204 	.word	0x3c010204
  402918:	20400054 	.word	0x20400054
  40291c:	20400048 	.word	0x20400048
  402920:	20441404 	.word	0x20441404
  402924:	20441407 	.word	0x20441407
  402928:	20400058 	.word	0x20400058
  40292c:	20400044 	.word	0x20400044
  402930:	20441408 	.word	0x20441408
  402934:	2040005c 	.word	0x2040005c
  402938:	20441403 	.word	0x20441403
  40293c:	3bb49c6c 	.word	0x3bb49c6c
  402940:	20400040 	.word	0x20400040
  402944:	20441402 	.word	0x20441402
  402948:	42dc78f2 	.word	0x42dc78f2
  40294c:	467d2000 	.word	0x467d2000
  402950:	2040003c 	.word	0x2040003c
  402954:	20400038 	.word	0x20400038
  402958:	20400034 	.word	0x20400034
  40295c:	20440000 	.word	0x20440000
  402960:	2040004c 	.word	0x2040004c
  402964:	004062b8 	.word	0x004062b8
  402968:	bf800000 	.word	0xbf800000
  40296c:	20400050 	.word	0x20400050
  402970:	20400030 	.word	0x20400030
  402974:	20441401 	.word	0x20441401
  402978:	20441400 	.word	0x20441400

0040297c <main>:
// uncomment to communicate to pc console over uart for debug 
//#define USING_CONSOLE
volatile uint32_t delay; 

int main(void)
{
  40297c:	e92d 4ff0 	stmdb	sp!, {r4, r5, r6, r7, r8, r9, sl, fp, lr}
	sysclk_init();
  402980:	4b7b      	ldr	r3, [pc, #492]	; (402b70 <main+0x1f4>)
{
  402982:	ed2d 8b08 	vpush	{d8-d11}
  402986:	b097      	sub	sp, #92	; 0x5c
	sysclk_init();
  402988:	4798      	blx	r3
	board_init();
  40298a:	4b7a      	ldr	r3, [pc, #488]	; (402b74 <main+0x1f8>)
  40298c:	4798      	blx	r3
  __ASM volatile ("dsb");
  40298e:	f3bf 8f4f 	dsb	sy
  __ASM volatile ("isb");
  402992:	f3bf 8f6f 	isb	sy
__STATIC_INLINE void SCB_DisableICache(void)
{
  #if (__ICACHE_PRESENT == 1)
    __DSB();
    __ISB();
    SCB->CCR &= ~SCB_CCR_IC_Msk;            // disable I-Cache
  402996:	4b78      	ldr	r3, [pc, #480]	; (402b78 <main+0x1fc>)
    SCB->ICIALLU = 0;                       // invalidate I-Cache
  402998:	2400      	movs	r4, #0
    SCB->CCR &= ~SCB_CCR_IC_Msk;            // disable I-Cache
  40299a:	695a      	ldr	r2, [r3, #20]
  40299c:	f422 3200 	bic.w	r2, r2, #131072	; 0x20000
  4029a0:	615a      	str	r2, [r3, #20]
    SCB->ICIALLU = 0;                       // invalidate I-Cache
  4029a2:	f8c3 4250 	str.w	r4, [r3, #592]	; 0x250
  __ASM volatile ("dsb");
  4029a6:	f3bf 8f4f 	dsb	sy
  __ASM volatile ("isb");
  4029aa:	f3bf 8f6f 	isb	sy
  __ASM volatile ("dsb");
  4029ae:	f3bf 8f4f 	dsb	sy
  __ASM volatile ("isb");
  4029b2:	f3bf 8f6f 	isb	sy
    SCB->ICIALLU = 0;                       // invalidate I-Cache
  4029b6:	f8c3 4250 	str.w	r4, [r3, #592]	; 0x250
    SCB->CCR |=  SCB_CCR_IC_Msk;            // enable I-Cache
  4029ba:	695a      	ldr	r2, [r3, #20]
  4029bc:	f442 3200 	orr.w	r2, r2, #131072	; 0x20000
  4029c0:	615a      	str	r2, [r3, #20]
  __ASM volatile ("dsb");
  4029c2:	f3bf 8f4f 	dsb	sy
  __ASM volatile ("isb");
  4029c6:	f3bf 8f6f 	isb	sy
 	SCB_DisableICache(); 
// 	lcd_init(); 
 	SCB_EnableICache();
	audio_init();
  4029ca:	4b6c      	ldr	r3, [pc, #432]	; (402b7c <main+0x200>)
	uart_settings.ul_baudrate = opt->baudrate;
	uart_settings.ul_mode = opt->paritytype;
#endif

	sam_usart_opt_t usart_settings;
	usart_settings.baudrate = opt->baudrate;
  4029cc:	f44f 35e1 	mov.w	r5, #115200	; 0x1c200
  4029d0:	4798      	blx	r3
#ifdef USING_CONSOLE
	configure_console();
#endif 
	PSOLA_init(); 
  4029d2:	4b6b      	ldr	r3, [pc, #428]	; (402b80 <main+0x204>)
  4029d4:	4798      	blx	r3
	usart_settings.char_length = opt->charlength;
  4029d6:	21c0      	movs	r1, #192	; 0xc0
	usart_settings.parity_type = opt->paritytype;
  4029d8:	f44f 6200 	mov.w	r2, #2048	; 0x800
  4029dc:	4b69      	ldr	r3, [pc, #420]	; (402b84 <main+0x208>)
  4029de:	200e      	movs	r0, #14
	usart_settings.baudrate = opt->baudrate;
  4029e0:	950a      	str	r5, [sp, #40]	; 0x28
	usart_settings.char_length = opt->charlength;
  4029e2:	910b      	str	r1, [sp, #44]	; 0x2c
  4029e4:	f06f 0501 	mvn.w	r5, #1
	usart_settings.parity_type = opt->paritytype;
  4029e8:	920c      	str	r2, [sp, #48]	; 0x30
  NVIC->ICPR[((uint32_t)(IRQn) >> 5)] = (1 << ((uint32_t)(IRQn) & 0x1F)); /* Clear pending interrupt */
  4029ea:	f44f 4980 	mov.w	r9, #16384	; 0x4000
	usart_settings.stop_bits= opt->stopbits;
  4029ee:	940d      	str	r4, [sp, #52]	; 0x34
  4029f0:	462e      	mov	r6, r5
	usart_settings.channel_mode= US_MR_CHMODE_NORMAL;
  4029f2:	940e      	str	r4, [sp, #56]	; 0x38
    NVIC->IP[(uint32_t)(IRQn)]            = ((priority << (8 - __NVIC_PRIO_BITS)) & 0xff); } /* set Priority for device specific Interrupts  */
  4029f4:	f04f 0840 	mov.w	r8, #64	; 0x40
	uint32_t num_of_shifts = 0; 
	uint32_t circ_buf_idx = 0; 
	float closest_note = 0; 
	float desired_pitch; 
	uint32_t in_pitch_idx = 0; 
	uint32_t sin_cnt = 0; 
  4029f8:	9404      	str	r4, [sp, #16]
	harmony_shifts[0] = NO_SHIFT;
  4029fa:	f04f 5b7e 	mov.w	fp, #1065353216	; 0x3f800000
	uint32_t circ_buf_idx = 0; 
  4029fe:	9402      	str	r4, [sp, #8]
  402a00:	4798      	blx	r3
		flexcom_set_opmode(FLEXCOM1, FLEXCOM_USART);
#else
		sysclk_enable_peripheral_clock(ID_USART1);
#endif
		/* Configure USART */
		usart_init_rs232(p_usart, &usart_settings,
  402a02:	4a61      	ldr	r2, [pc, #388]	; (402b88 <main+0x20c>)
  402a04:	a90a      	add	r1, sp, #40	; 0x28
  402a06:	4b61      	ldr	r3, [pc, #388]	; (402b8c <main+0x210>)
  402a08:	4861      	ldr	r0, [pc, #388]	; (402b90 <main+0x214>)
  402a0a:	4798      	blx	r3
		/* Configure USART */
		usart_init_rs232(p_usart, &usart_settings,
				sysclk_get_peripheral_bus_hz(p_usart));
#endif
		/* Enable the receiver and transmitter. */
		usart_enable_tx(p_usart);
  402a0c:	4f61      	ldr	r7, [pc, #388]	; (402b94 <main+0x218>)
  402a0e:	4860      	ldr	r0, [pc, #384]	; (402b90 <main+0x214>)
  402a10:	47b8      	blx	r7
		usart_enable_rx(p_usart);
  402a12:	4d61      	ldr	r5, [pc, #388]	; (402b98 <main+0x21c>)
  402a14:	485e      	ldr	r0, [pc, #376]	; (402b90 <main+0x214>)
  402a16:	47a8      	blx	r5
	usart_enable_tx(USART_SERIAL);
  402a18:	485d      	ldr	r0, [pc, #372]	; (402b90 <main+0x214>)
  402a1a:	47b8      	blx	r7
	usart_enable_rx(USART_SERIAL);
  402a1c:	485c      	ldr	r0, [pc, #368]	; (402b90 <main+0x214>)
  402a1e:	4f5f      	ldr	r7, [pc, #380]	; (402b9c <main+0x220>)
  402a20:	47a8      	blx	r5
	usart_enable_interrupt(USART_SERIAL, US_IER_RXRDY); 
  402a22:	2101      	movs	r1, #1
  402a24:	485a      	ldr	r0, [pc, #360]	; (402b90 <main+0x214>)
  402a26:	4b5e      	ldr	r3, [pc, #376]	; (402ba0 <main+0x224>)
		harmony_list_a[i].freq = 0.0f; harmony_list_b[i].freq = 0.0f; 
  402a28:	2500      	movs	r5, #0
	usart_enable_interrupt(USART_SERIAL, US_IER_RXRDY); 
  402a2a:	4798      	blx	r3
  402a2c:	1bf6      	subs	r6, r6, r7
		harmony_list_a[i].freq = 0.0f; harmony_list_b[i].freq = 0.0f; 
  402a2e:	f8df e1a8 	ldr.w	lr, [pc, #424]	; 402bd8 <main+0x25c>
	uint32_t chorus_delay; 
	uint32_t wet_idx = 0; 
	arm_fill_f32(0.0f, wet_circ_buffer, CIRC_BUF_SIZE); 
  402a32:	464a      	mov	r2, r9
		harmony_list_a[i].freq = 0.0f; harmony_list_b[i].freq = 0.0f; 
  402a34:	4b5b      	ldr	r3, [pc, #364]	; (402ba4 <main+0x228>)
	arm_fill_f32(0.0f, wet_circ_buffer, CIRC_BUF_SIZE); 
  402a36:	4628      	mov	r0, r5
  402a38:	f8df c1a0 	ldr.w	ip, [pc, #416]	; 402bdc <main+0x260>
	harmony_shifts[1] = END_OF_SHIFTS; 
  402a3c:	f8df a1a0 	ldr.w	sl, [pc, #416]	; 402be0 <main+0x264>
  402a40:	f88c 830e 	strb.w	r8, [ip, #782]	; 0x30e
	arm_fill_f32(0.0f, wet_circ_buffer, CIRC_BUF_SIZE); 
  402a44:	4958      	ldr	r1, [pc, #352]	; (402ba8 <main+0x22c>)
  NVIC->ICPR[((uint32_t)(IRQn) >> 5)] = (1 << ((uint32_t)(IRQn) & 0x1F)); /* Clear pending interrupt */
  402a46:	f8cc 9180 	str.w	r9, [ip, #384]	; 0x180
  402a4a:	9607      	str	r6, [sp, #28]
  NVIC->ISER[(uint32_t)((int32_t)IRQn) >> 5] = (uint32_t)(1 << ((uint32_t)((int32_t)IRQn) & (uint32_t)0x1F)); /* enable interrupt */
  402a4c:	f8cc 9000 	str.w	r9, [ip]
		harmony_list_a[i].freq = 0.0f; harmony_list_b[i].freq = 0.0f; 
  402a50:	f8ce 5000 	str.w	r5, [lr]
  402a54:	601d      	str	r5, [r3, #0]
		harmony_list_a[i].idx = 0.0f; harmony_list_b[i].idx = 0.0f; 
  402a56:	f8ce 4004 	str.w	r4, [lr, #4]
  402a5a:	605c      	str	r4, [r3, #4]
		harmony_list_a[i].freq = 0.0f; harmony_list_b[i].freq = 0.0f; 
  402a5c:	f8ce 5008 	str.w	r5, [lr, #8]
  402a60:	609d      	str	r5, [r3, #8]
		harmony_list_a[i].idx = 0.0f; harmony_list_b[i].idx = 0.0f; 
  402a62:	f8ce 400c 	str.w	r4, [lr, #12]
  402a66:	60dc      	str	r4, [r3, #12]
		harmony_list_a[i].freq = 0.0f; harmony_list_b[i].freq = 0.0f; 
  402a68:	f8ce 5010 	str.w	r5, [lr, #16]
  402a6c:	611d      	str	r5, [r3, #16]
		harmony_list_a[i].idx = 0.0f; harmony_list_b[i].idx = 0.0f; 
  402a6e:	f8ce 4014 	str.w	r4, [lr, #20]
  402a72:	615c      	str	r4, [r3, #20]
		harmony_list_a[i].freq = 0.0f; harmony_list_b[i].freq = 0.0f; 
  402a74:	f8ce 5018 	str.w	r5, [lr, #24]
  402a78:	619d      	str	r5, [r3, #24]
		harmony_list_a[i].idx = 0.0f; harmony_list_b[i].idx = 0.0f; 
  402a7a:	f8ce 401c 	str.w	r4, [lr, #28]
  402a7e:	61dc      	str	r4, [r3, #28]
		harmony_list_a[i].freq = 0.0f; harmony_list_b[i].freq = 0.0f; 
  402a80:	f8ce 5020 	str.w	r5, [lr, #32]
  402a84:	621d      	str	r5, [r3, #32]
		harmony_list_a[i].idx = 0.0f; harmony_list_b[i].idx = 0.0f; 
  402a86:	f8ce 4024 	str.w	r4, [lr, #36]	; 0x24
  402a8a:	625c      	str	r4, [r3, #36]	; 0x24
		harmony_list_a[i].freq = 0.0f; harmony_list_b[i].freq = 0.0f; 
  402a8c:	f8ce 5028 	str.w	r5, [lr, #40]	; 0x28
  402a90:	629d      	str	r5, [r3, #40]	; 0x28
		harmony_list_a[i].idx = 0.0f; harmony_list_b[i].idx = 0.0f; 
  402a92:	f8ce 402c 	str.w	r4, [lr, #44]	; 0x2c
  402a96:	62dc      	str	r4, [r3, #44]	; 0x2c
		harmony_list_a[i].freq = 0.0f; harmony_list_b[i].freq = 0.0f; 
  402a98:	f8ce 5030 	str.w	r5, [lr, #48]	; 0x30
  402a9c:	631d      	str	r5, [r3, #48]	; 0x30
		harmony_list_a[i].idx = 0.0f; harmony_list_b[i].idx = 0.0f; 
  402a9e:	f8ce 4034 	str.w	r4, [lr, #52]	; 0x34
  402aa2:	635c      	str	r4, [r3, #52]	; 0x34
		harmony_list_a[i].freq = 0.0f; harmony_list_b[i].freq = 0.0f; 
  402aa4:	f8ce 5038 	str.w	r5, [lr, #56]	; 0x38
  402aa8:	639d      	str	r5, [r3, #56]	; 0x38
		harmony_list_a[i].idx = 0.0f; harmony_list_b[i].idx = 0.0f; 
  402aaa:	f8ce 403c 	str.w	r4, [lr, #60]	; 0x3c
  402aae:	63dc      	str	r4, [r3, #60]	; 0x3c
		harmony_list_a[i].freq = 0.0f; harmony_list_b[i].freq = 0.0f; 
  402ab0:	f8ce 5040 	str.w	r5, [lr, #64]	; 0x40
  402ab4:	641d      	str	r5, [r3, #64]	; 0x40
		harmony_list_a[i].idx = 0.0f; harmony_list_b[i].idx = 0.0f; 
  402ab6:	f8ce 4044 	str.w	r4, [lr, #68]	; 0x44
  402aba:	645c      	str	r4, [r3, #68]	; 0x44
		harmony_list_a[i].freq = 0.0f; harmony_list_b[i].freq = 0.0f; 
  402abc:	f8ce 5048 	str.w	r5, [lr, #72]	; 0x48
  402ac0:	649d      	str	r5, [r3, #72]	; 0x48
		harmony_list_a[i].idx = 0.0f; harmony_list_b[i].idx = 0.0f; 
  402ac2:	f8ce 404c 	str.w	r4, [lr, #76]	; 0x4c
  402ac6:	64dc      	str	r4, [r3, #76]	; 0x4c
		harmony_list_a[i].freq = 0.0f; harmony_list_b[i].freq = 0.0f; 
  402ac8:	f8ce 5050 	str.w	r5, [lr, #80]	; 0x50
  402acc:	651d      	str	r5, [r3, #80]	; 0x50
		harmony_list_a[i].idx = 0.0f; harmony_list_b[i].idx = 0.0f; 
  402ace:	f8ce 4054 	str.w	r4, [lr, #84]	; 0x54
  402ad2:	655c      	str	r4, [r3, #84]	; 0x54
	arm_fill_f32(0.0f, wet_circ_buffer, CIRC_BUF_SIZE); 
  402ad4:	4b35      	ldr	r3, [pc, #212]	; (402bac <main+0x230>)
	harmony_shifts[0] = NO_SHIFT;
  402ad6:	f8cd b028 	str.w	fp, [sp, #40]	; 0x28
	harmony_shifts[1] = END_OF_SHIFTS; 
  402ada:	f8cd a02c 	str.w	sl, [sp, #44]	; 0x2c
	harmony_shifts[MAX_NUM_SHIFTS] = END_OF_SHIFTS; // should never change 
  402ade:	f8cd a054 	str.w	sl, [sp, #84]	; 0x54
	arm_fill_f32(0.0f, wet_circ_buffer, CIRC_BUF_SIZE); 
  402ae2:	4798      	blx	r3
	arm_fill_f32(0.0f, dry_circ_buffer, CIRC_BUF_SIZE);
  402ae4:	464a      	mov	r2, r9
  402ae6:	4628      	mov	r0, r5
  402ae8:	4931      	ldr	r1, [pc, #196]	; (402bb0 <main+0x234>)
  402aea:	4b30      	ldr	r3, [pc, #192]	; (402bac <main+0x230>)
  402aec:	4798      	blx	r3
	arm_fill_f32(0.0f, delay_circ_buffer, CIRC_BUF_SIZE);
  402aee:	464a      	mov	r2, r9
  402af0:	4628      	mov	r0, r5
  402af2:	4930      	ldr	r1, [pc, #192]	; (402bb4 <main+0x238>)
  402af4:	4b2d      	ldr	r3, [pc, #180]	; (402bac <main+0x230>)
  402af6:	4798      	blx	r3
  402af8:	4d2d      	ldr	r5, [pc, #180]	; (402bb0 <main+0x234>)
  402afa:	f8df 90b8 	ldr.w	r9, [pc, #184]	; 402bb4 <main+0x238>
  402afe:	4f2e      	ldr	r7, [pc, #184]	; (402bb8 <main+0x23c>)
  402b00:	eddf aa2e 	vldr	s21, [pc, #184]	; 402bbc <main+0x240>
			
			// get pitch 
			inputPitch = computeWaveletPitch((float  *)processBuffer);
			if (inputPitch < MINIMUM_PITCH) 
				inputPitch = MINIMUM_PITCH; 
			oneOverInputPitch = 1.0f / inputPitch;
  402b04:	ed9f ba2e 	vldr	s22, [pc, #184]	; 402bc0 <main+0x244>
						if (pitch_bend != 64)
							bend_pitch(&desired_pitch, harmony_list_read[i].idx, (uint32_t)pitch_bend);
							
						pitch_shift = 1.0f - (inputPitch-desired_pitch)*oneOverInputPitch;
						
						if (pitch_shift > 0.1f && pitch_shift < 6.0f) // range check 
  402b08:	eddf ba2e 	vldr	s23, [pc, #184]	; 402bc4 <main+0x248>
  402b0c:	f8dd 8008 	ldr.w	r8, [sp, #8]
		if (dataReceived)
  402b10:	4b2d      	ldr	r3, [pc, #180]	; (402bc8 <main+0x24c>)
  402b12:	781b      	ldrb	r3, [r3, #0]
  402b14:	2b00      	cmp	r3, #0
  402b16:	d0fb      	beq.n	402b10 <main+0x194>
			inputPitch = computeWaveletPitch((float  *)processBuffer);
  402b18:	4a2c      	ldr	r2, [pc, #176]	; (402bcc <main+0x250>)
			dataReceived = false; 
  402b1a:	2300      	movs	r3, #0
			oneOverInputPitch = 1.0f / inputPitch;
  402b1c:	eddf 8a2c 	vldr	s17, [pc, #176]	; 402bd0 <main+0x254>
			inputPitch = computeWaveletPitch((float  *)processBuffer);
  402b20:	6810      	ldr	r0, [r2, #0]
			dataReceived = false; 
  402b22:	4a29      	ldr	r2, [pc, #164]	; (402bc8 <main+0x24c>)
  402b24:	7013      	strb	r3, [r2, #0]
			inputPitch = computeWaveletPitch((float  *)processBuffer);
  402b26:	4b2b      	ldr	r3, [pc, #172]	; (402bd4 <main+0x258>)
  402b28:	4798      	blx	r3
			oneOverInputPitch = 1.0f / inputPitch;
  402b2a:	eeb7 7a00 	vmov.f32	s14, #112	; 0x3f800000  1.0
  402b2e:	ee07 0a90 	vmov	s15, r0
	uint32_t lo = 12; // lowest at C0
  402b32:	220c      	movs	r2, #12
	uint32_t hi = 127;
  402b34:	207f      	movs	r0, #127	; 0x7f
  402b36:	fe87 8aaa 	vmaxnm.f32	s16, s15, s21
			oneOverInputPitch = 1.0f / inputPitch;
  402b3a:	ee87 9a08 	vdiv.f32	s18, s14, s16
  402b3e:	eef0 7a4b 	vmov.f32	s15, s22
		d2 = Abs(midi_note_frequencies[mid+1] - frequency);
  402b42:	ee77 7ac8 	vsub.f32	s15, s15, s16
		mid = (hi + lo) >> 1;
  402b46:	1813      	adds	r3, r2, r0
		d1 = Abs(midi_note_frequencies[mid] - frequency);
  402b48:	ee38 7ac8 	vsub.f32	s14, s17, s16
		mid = (hi + lo) >> 1;
  402b4c:	085b      	lsrs	r3, r3, #1
		d2 = Abs(midi_note_frequencies[mid+1] - frequency);
  402b4e:	eef0 7ae7 	vabs.f32	s15, s15
		d1 = Abs(midi_note_frequencies[mid] - frequency);
  402b52:	eeb0 7ac7 	vabs.f32	s14, s14
		d2 = Abs(midi_note_frequencies[mid+1] - frequency);
  402b56:	1c59      	adds	r1, r3, #1
  402b58:	eefc 7ae7 	vcvt.u32.f32	s15, s15
		d1 = Abs(midi_note_frequencies[mid] - frequency);
  402b5c:	eebc 7ac7 	vcvt.u32.f32	s14, s14
		if (d2 <= d1)
  402b60:	ee17 6a90 	vmov	r6, s15
  402b64:	ee17 4a10 	vmov	r4, s14
  402b68:	42b4      	cmp	r4, r6
  402b6a:	d25a      	bcs.n	402c22 <main+0x2a6>
  402b6c:	e138      	b.n	402de0 <main+0x464>
  402b6e:	bf00      	nop
  402b70:	00401835 	.word	0x00401835
  402b74:	004018a5 	.word	0x004018a5
  402b78:	e000ed00 	.word	0xe000ed00
  402b7c:	00400379 	.word	0x00400379
  402b80:	00400d09 	.word	0x00400d09
  402b84:	0040237d 	.word	0x0040237d
  402b88:	08f0d180 	.word	0x08f0d180
  402b8c:	00401729 	.word	0x00401729
  402b90:	40028000 	.word	0x40028000
  402b94:	004017c9 	.word	0x004017c9
  402b98:	004017d1 	.word	0x004017d1
  402b9c:	20440400 	.word	0x20440400
  402ba0:	004017d9 	.word	0x004017d9
  402ba4:	2045a80c 	.word	0x2045a80c
  402ba8:	20444000 	.word	0x20444000
  402bac:	0040311d 	.word	0x0040311d
  402bb0:	20430000 	.word	0x20430000
  402bb4:	20420000 	.word	0x20420000
  402bb8:	20400014 	.word	0x20400014
  402bbc:	42c80000 	.word	0x42c80000
  402bc0:	43e914fe 	.word	0x43e914fe
  402bc4:	bf666666 	.word	0xbf666666
  402bc8:	2040401c 	.word	0x2040401c
  402bcc:	2040001c 	.word	0x2040001c
  402bd0:	43dc0000 	.word	0x43dc0000
  402bd4:	004005d1 	.word	0x004005d1
  402bd8:	2045a868 	.word	0x2045a868
  402bdc:	e000e100 	.word	0xe000e100
  402be0:	bf800000 	.word	0xbf800000
		d2 = Abs(midi_note_frequencies[mid+1] - frequency);
  402be4:	1c5c      	adds	r4, r3, #1
		d1 = Abs(midi_note_frequencies[mid] - frequency);
  402be6:	4a86      	ldr	r2, [pc, #536]	; (402e00 <main+0x484>)
		d2 = Abs(midi_note_frequencies[mid+1] - frequency);
  402be8:	4e85      	ldr	r6, [pc, #532]	; (402e00 <main+0x484>)
		d1 = Abs(midi_note_frequencies[mid] - frequency);
  402bea:	eb02 0283 	add.w	r2, r2, r3, lsl #2
		d2 = Abs(midi_note_frequencies[mid+1] - frequency);
  402bee:	eb06 0684 	add.w	r6, r6, r4, lsl #2
		d1 = Abs(midi_note_frequencies[mid] - frequency);
  402bf2:	edd2 8a00 	vldr	s17, [r2]
		d2 = Abs(midi_note_frequencies[mid+1] - frequency);
  402bf6:	edd6 7a00 	vldr	s15, [r6]
		d1 = Abs(midi_note_frequencies[mid] - frequency);
  402bfa:	ee38 7ac8 	vsub.f32	s14, s17, s16
		d2 = Abs(midi_note_frequencies[mid+1] - frequency);
  402bfe:	ee77 7ac8 	vsub.f32	s15, s15, s16
		d1 = Abs(midi_note_frequencies[mid] - frequency);
  402c02:	eeb0 7ac7 	vabs.f32	s14, s14
		d2 = Abs(midi_note_frequencies[mid+1] - frequency);
  402c06:	eef0 7ae7 	vabs.f32	s15, s15
		d1 = Abs(midi_note_frequencies[mid] - frequency);
  402c0a:	eebc 7ac7 	vcvt.u32.f32	s14, s14
		d2 = Abs(midi_note_frequencies[mid+1] - frequency);
  402c0e:	eefc 7ae7 	vcvt.u32.f32	s15, s15
		if (d2 <= d1)
  402c12:	ee17 2a10 	vmov	r2, s14
  402c16:	ee17 6a90 	vmov	r6, s15
  402c1a:	42b2      	cmp	r2, r6
  402c1c:	f0c0 80e1 	bcc.w	402de2 <main+0x466>
		d2 = Abs(midi_note_frequencies[mid+1] - frequency);
  402c20:	4621      	mov	r1, r4
		mid = (hi + lo) >> 1;
  402c22:	180b      	adds	r3, r1, r0
	while (lo < hi)
  402c24:	4281      	cmp	r1, r0
		mid = (hi + lo) >> 1;
  402c26:	ea4f 0353 	mov.w	r3, r3, lsr #1
	while (lo < hi)
  402c2a:	d3db      	bcc.n	402be4 <main+0x268>
  402c2c:	4b74      	ldr	r3, [pc, #464]	; (402e00 <main+0x484>)
  402c2e:	eb03 0380 	add.w	r3, r3, r0, lsl #2
  402c32:	edd3 8a00 	vldr	s17, [r3]
			if (autotune)
  402c36:	4b73      	ldr	r3, [pc, #460]	; (402e04 <main+0x488>)
  402c38:	781a      	ldrb	r2, [r3, #0]
			if (pitch_bend < 56 || pitch_bend > 72) // higher bounds for noise affecting pitch bend wheel 
  402c3a:	4b73      	ldr	r3, [pc, #460]	; (402e08 <main+0x48c>)
				desired_pitch = closest_note;
  402c3c:	2a00      	cmp	r2, #0
			if (pitch_bend < 56 || pitch_bend > 72) // higher bounds for noise affecting pitch bend wheel 
  402c3e:	681b      	ldr	r3, [r3, #0]
				desired_pitch = closest_note;
  402c40:	bf14      	ite	ne
  402c42:	eef0 7a68 	vmovne.f32	s15, s17
  402c46:	eef0 7a48 	vmoveq.f32	s15, s16
			if (pitch_bend < 56 || pitch_bend > 72) // higher bounds for noise affecting pitch bend wheel 
  402c4a:	2b37      	cmp	r3, #55	; 0x37
  402c4c:	d903      	bls.n	402c56 <main+0x2da>
  402c4e:	4b6e      	ldr	r3, [pc, #440]	; (402e08 <main+0x48c>)
  402c50:	681b      	ldr	r3, [r3, #0]
  402c52:	2b48      	cmp	r3, #72	; 0x48
  402c54:	d91e      	bls.n	402c94 <main+0x318>
				bend_pitch(&desired_pitch, in_pitch_idx, (uint32_t)pitch_bend);
  402c56:	4b6c      	ldr	r3, [pc, #432]	; (402e08 <main+0x48c>)
  402c58:	681b      	ldr	r3, [r3, #0]
	if (pitch_idx < 0 || pitch_idx > 127 || bend < 0 || bend > 127)
  402c5a:	2b7f      	cmp	r3, #127	; 0x7f
  402c5c:	d81a      	bhi.n	402c94 <main+0x318>
	if (pitch_bend > 64)
  402c5e:	4b6a      	ldr	r3, [pc, #424]	; (402e08 <main+0x48c>)
  402c60:	681b      	ldr	r3, [r3, #0]
  402c62:	2b40      	cmp	r3, #64	; 0x40
		*pitch += (((float)pitch_bend - 63.0f) * ONE_OVER_64) * bend_difference;
  402c64:	4b68      	ldr	r3, [pc, #416]	; (402e08 <main+0x48c>)
  402c66:	edd3 6a00 	vldr	s13, [r3]
		bend_difference = midi_note_frequencies[pitch_idx+2] - midi_note_frequencies[pitch_idx];
  402c6a:	4b65      	ldr	r3, [pc, #404]	; (402e00 <main+0x484>)
  402c6c:	eb03 0080 	add.w	r0, r3, r0, lsl #2
	if (pitch_bend > 64)
  402c70:	f200 820d 	bhi.w	40308e <main+0x712>
		*pitch += (((float)pitch_bend - 64.0f) * ONE_OVER_64) * bend_difference;
  402c74:	eef8 6a66 	vcvt.f32.u32	s13, s13
  402c78:	ed9f 6a64 	vldr	s12, [pc, #400]	; 402e0c <main+0x490>
  402c7c:	ed9f 7a64 	vldr	s14, [pc, #400]	; 402e10 <main+0x494>
		bend_difference = midi_note_frequencies[pitch_idx] - midi_note_frequencies[pitch_idx-2];
  402c80:	ed50 5a02 	vldr	s11, [r0, #-8]
		*pitch += (((float)pitch_bend - 64.0f) * ONE_OVER_64) * bend_difference;
  402c84:	ee76 6ac6 	vsub.f32	s13, s13, s12
		bend_difference = midi_note_frequencies[pitch_idx] - midi_note_frequencies[pitch_idx-2];
  402c88:	ee38 6ae5 	vsub.f32	s12, s17, s11
		*pitch += (((float)pitch_bend - 64.0f) * ONE_OVER_64) * bend_difference;
  402c8c:	ee26 7a87 	vmul.f32	s14, s13, s14
  402c90:	eee6 7a07 	vfma.f32	s15, s12, s14
			pitch_shift = 1.0f - (inputPitch-desired_pitch)*oneOverInputPitch;
  402c94:	eef7 9a00 	vmov.f32	s19, #112	; 0x3f800000  1.0
			arm_power_f32((float  *)processBuffer, WIN_SIZE>>2, &power);
  402c98:	4b5e      	ldr	r3, [pc, #376]	; (402e14 <main+0x498>)
			pitch_shift = 1.0f - (inputPitch-desired_pitch)*oneOverInputPitch;
  402c9a:	ee77 7ac8 	vsub.f32	s15, s15, s16
			arm_power_f32((float  *)processBuffer, WIN_SIZE>>2, &power);
  402c9e:	aa09      	add	r2, sp, #36	; 0x24
  402ca0:	6818      	ldr	r0, [r3, #0]
  402ca2:	f44f 7180 	mov.w	r1, #256	; 0x100
			pitch_shift = 1.0f - (inputPitch-desired_pitch)*oneOverInputPitch;
  402ca6:	eeb0 7a69 	vmov.f32	s14, s19
			arm_power_f32((float  *)processBuffer, WIN_SIZE>>2, &power);
  402caa:	4b5b      	ldr	r3, [pc, #364]	; (402e18 <main+0x49c>)
			pitch_shift = 1.0f - (inputPitch-desired_pitch)*oneOverInputPitch;
  402cac:	eea9 7a27 	vfma.f32	s14, s18, s15
			harmony_shifts[0] = pitch_shift ;
  402cb0:	ed8d 7a0a 	vstr	s14, [sp, #40]	; 0x28
			arm_power_f32((float  *)processBuffer, WIN_SIZE>>2, &power);
  402cb4:	4798      	blx	r3
			if (inputPitch > MINIMUM_PITCH && power > POWER_THRESHOLD)
  402cb6:	eeb4 8aea 	vcmpe.f32	s16, s21
  402cba:	eef1 fa10 	vmrs	APSR_nzcv, fpscr
  402cbe:	f340 80b3 	ble.w	402e28 <main+0x4ac>
  402cc2:	eddf 7a56 	vldr	s15, [pc, #344]	; 402e1c <main+0x4a0>
  402cc6:	ed9d 7a09 	vldr	s14, [sp, #36]	; 0x24
  402cca:	eeb4 7ae7 	vcmpe.f32	s14, s15
  402cce:	eef1 fa10 	vmrs	APSR_nzcv, fpscr
  402cd2:	f340 80a9 	ble.w	402e28 <main+0x4ac>
				while(harmony_list_read[i].freq > 1.0f && i < MAX_NUM_SHIFTS-1)
  402cd6:	4b52      	ldr	r3, [pc, #328]	; (402e20 <main+0x4a4>)
  402cd8:	681b      	ldr	r3, [r3, #0]
  402cda:	edd3 7a00 	vldr	s15, [r3]
  402cde:	eef4 7ae9 	vcmpe.f32	s15, s19
  402ce2:	eef1 fa10 	vmrs	APSR_nzcv, fpscr
  402ce6:	f340 81ca 	ble.w	40307e <main+0x702>
						if (pitch_shift > 0.1f && pitch_shift < 6.0f) // range check 
  402cea:	eef1 6a04 	vmov.f32	s13, #20	; 0x40a00000  5.0
				while(harmony_list_read[i].freq > 1.0f && i < MAX_NUM_SHIFTS-1)
  402cee:	2001      	movs	r0, #1
					if (Abs(harmony_list_read[i].freq - closest_note) > 1.0f) // don't harmonies input pitch twice 
  402cf0:	eeb0 7a69 	vmov.f32	s14, s19
				while(harmony_list_read[i].freq > 1.0f && i < MAX_NUM_SHIFTS-1)
  402cf4:	2200      	movs	r2, #0
		*pitch += (((float)pitch_bend - 64.0f) * ONE_OVER_64) * bend_difference;
  402cf6:	ed9f 4a45 	vldr	s8, [pc, #276]	; 402e0c <main+0x490>
  402cfa:	ed9f 5a45 	vldr	s10, [pc, #276]	; 402e10 <main+0x494>
		*pitch += (((float)pitch_bend - 63.0f) * ONE_OVER_64) * bend_difference;
  402cfe:	eddf 4a49 	vldr	s9, [pc, #292]	; 402e24 <main+0x4a8>
  402d02:	e02e      	b.n	402d62 <main+0x3e6>
		*pitch += (((float)pitch_bend - 64.0f) * ONE_OVER_64) * bend_difference;
  402d04:	ee36 6a44 	vsub.f32	s12, s12, s8
		bend_difference = midi_note_frequencies[pitch_idx] - midi_note_frequencies[pitch_idx-2];
  402d08:	edd4 3a00 	vldr	s7, [r4]
  402d0c:	ed54 5a02 	vldr	s11, [r4, #-8]
		*pitch += (((float)pitch_bend - 64.0f) * ONE_OVER_64) * bend_difference;
  402d10:	ee26 6a05 	vmul.f32	s12, s12, s10
		bend_difference = midi_note_frequencies[pitch_idx] - midi_note_frequencies[pitch_idx-2];
  402d14:	ee73 5ae5 	vsub.f32	s11, s7, s11
		*pitch += (((float)pitch_bend - 64.0f) * ONE_OVER_64) * bend_difference;
  402d18:	eee6 7a25 	vfma.f32	s15, s12, s11
						pitch_shift = 1.0f - (inputPitch-desired_pitch)*oneOverInputPitch;
  402d1c:	ee77 7ac8 	vsub.f32	s15, s15, s16
  402d20:	ee67 7a89 	vmul.f32	s15, s15, s18
						if (pitch_shift > 0.1f && pitch_shift < 6.0f) // range check 
  402d24:	eef4 7a6b 	vcmp.f32	s15, s23
  402d28:	eef1 fa10 	vmrs	APSR_nzcv, fpscr
  402d2c:	dd0c      	ble.n	402d48 <main+0x3cc>
  402d2e:	eef4 7a66 	vcmp.f32	s15, s13
  402d32:	eef1 fa10 	vmrs	APSR_nzcv, fpscr
  402d36:	d507      	bpl.n	402d48 <main+0x3cc>
							harmony_shifts[num_of_shifts++] = pitch_shift;
  402d38:	a916      	add	r1, sp, #88	; 0x58
						pitch_shift = 1.0f - (inputPitch-desired_pitch)*oneOverInputPitch;
  402d3a:	ee77 7a87 	vadd.f32	s15, s15, s14
							harmony_shifts[num_of_shifts++] = pitch_shift;
  402d3e:	eb01 0180 	add.w	r1, r1, r0, lsl #2
  402d42:	3001      	adds	r0, #1
  402d44:	ed41 7a0c 	vstr	s15, [r1, #-48]	; 0xffffffd0
				while(harmony_list_read[i].freq > 1.0f && i < MAX_NUM_SHIFTS-1)
  402d48:	3308      	adds	r3, #8
  402d4a:	edd3 7a00 	vldr	s15, [r3]
					}
					i++; 
  402d4e:	3201      	adds	r2, #1
				while(harmony_list_read[i].freq > 1.0f && i < MAX_NUM_SHIFTS-1)
  402d50:	eef4 7a47 	vcmp.f32	s15, s14
  402d54:	eef1 fa10 	vmrs	APSR_nzcv, fpscr
  402d58:	f340 8192 	ble.w	403080 <main+0x704>
  402d5c:	2a0a      	cmp	r2, #10
  402d5e:	f000 818f 	beq.w	403080 <main+0x704>
					if (Abs(harmony_list_read[i].freq - closest_note) > 1.0f) // don't harmonies input pitch twice 
  402d62:	edd3 7a00 	vldr	s15, [r3]
  402d66:	ee77 7ae8 	vsub.f32	s15, s15, s17
  402d6a:	eef5 7ac0 	vcmpe.f32	s15, #0.0
  402d6e:	edd3 7a00 	vldr	s15, [r3]
  402d72:	eef1 fa10 	vmrs	APSR_nzcv, fpscr
  402d76:	bf4c      	ite	mi
  402d78:	ee78 7ae7 	vsubmi.f32	s15, s17, s15
  402d7c:	ee77 7ae8 	vsubpl.f32	s15, s15, s17
  402d80:	eef4 7ac7 	vcmpe.f32	s15, s14
  402d84:	eef1 fa10 	vmrs	APSR_nzcv, fpscr
  402d88:	bfcc      	ite	gt
  402d8a:	2101      	movgt	r1, #1
  402d8c:	2100      	movle	r1, #0
  402d8e:	2900      	cmp	r1, #0
  402d90:	d0da      	beq.n	402d48 <main+0x3cc>
						if (pitch_bend != 64)
  402d92:	491d      	ldr	r1, [pc, #116]	; (402e08 <main+0x48c>)
						desired_pitch = harmony_list_read[i].freq; 
  402d94:	edd3 7a00 	vldr	s15, [r3]
						if (pitch_bend != 64)
  402d98:	6809      	ldr	r1, [r1, #0]
  402d9a:	2940      	cmp	r1, #64	; 0x40
  402d9c:	d0be      	beq.n	402d1c <main+0x3a0>
							bend_pitch(&desired_pitch, harmony_list_read[i].idx, (uint32_t)pitch_bend);
  402d9e:	6859      	ldr	r1, [r3, #4]
  402da0:	4c19      	ldr	r4, [pc, #100]	; (402e08 <main+0x48c>)
	if (pitch_idx < 0 || pitch_idx > 127 || bend < 0 || bend > 127)
  402da2:	297f      	cmp	r1, #127	; 0x7f
							bend_pitch(&desired_pitch, harmony_list_read[i].idx, (uint32_t)pitch_bend);
  402da4:	6824      	ldr	r4, [r4, #0]
	if (pitch_idx < 0 || pitch_idx > 127 || bend < 0 || bend > 127)
  402da6:	d8b9      	bhi.n	402d1c <main+0x3a0>
  402da8:	2c7f      	cmp	r4, #127	; 0x7f
  402daa:	d8b7      	bhi.n	402d1c <main+0x3a0>
	if (pitch_bend > 64)
  402dac:	4c16      	ldr	r4, [pc, #88]	; (402e08 <main+0x48c>)
  402dae:	6824      	ldr	r4, [r4, #0]
  402db0:	2c40      	cmp	r4, #64	; 0x40
		*pitch += (((float)pitch_bend - 63.0f) * ONE_OVER_64) * bend_difference;
  402db2:	4c15      	ldr	r4, [pc, #84]	; (402e08 <main+0x48c>)
  402db4:	ed94 6a00 	vldr	s12, [r4]
		bend_difference = midi_note_frequencies[pitch_idx+2] - midi_note_frequencies[pitch_idx];
  402db8:	4c11      	ldr	r4, [pc, #68]	; (402e00 <main+0x484>)
		*pitch += (((float)pitch_bend - 63.0f) * ONE_OVER_64) * bend_difference;
  402dba:	eeb8 6a46 	vcvt.f32.u32	s12, s12
		bend_difference = midi_note_frequencies[pitch_idx+2] - midi_note_frequencies[pitch_idx];
  402dbe:	eb04 0481 	add.w	r4, r4, r1, lsl #2
  402dc2:	4621      	mov	r1, r4
	if (pitch_bend > 64)
  402dc4:	d99e      	bls.n	402d04 <main+0x388>
		*pitch += (((float)pitch_bend - 63.0f) * ONE_OVER_64) * bend_difference;
  402dc6:	ee36 6a64 	vsub.f32	s12, s12, s9
		bend_difference = midi_note_frequencies[pitch_idx+2] - midi_note_frequencies[pitch_idx];
  402dca:	edd4 3a02 	vldr	s7, [r4, #8]
  402dce:	edd4 5a00 	vldr	s11, [r4]
		*pitch += (((float)pitch_bend - 63.0f) * ONE_OVER_64) * bend_difference;
  402dd2:	ee26 6a05 	vmul.f32	s12, s12, s10
		bend_difference = midi_note_frequencies[pitch_idx+2] - midi_note_frequencies[pitch_idx];
  402dd6:	ee73 5ae5 	vsub.f32	s11, s7, s11
		*pitch += (((float)pitch_bend - 63.0f) * ONE_OVER_64) * bend_difference;
  402dda:	eee6 7a25 	vfma.f32	s15, s12, s11
  402dde:	e79d      	b.n	402d1c <main+0x3a0>
		if (d2 <= d1)
  402de0:	4611      	mov	r1, r2
	while (lo < hi)
  402de2:	428b      	cmp	r3, r1
  402de4:	f240 8164 	bls.w	4030b0 <main+0x734>
  402de8:	185c      	adds	r4, r3, r1
  402dea:	4618      	mov	r0, r3
  402dec:	460a      	mov	r2, r1
  402dee:	4904      	ldr	r1, [pc, #16]	; (402e00 <main+0x484>)
  402df0:	0863      	lsrs	r3, r4, #1
  402df2:	eb01 0183 	add.w	r1, r1, r3, lsl #2
  402df6:	edd1 8a00 	vldr	s17, [r1]
  402dfa:	edd1 7a01 	vldr	s15, [r1, #4]
  402dfe:	e6a0      	b.n	402b42 <main+0x1c6>
  402e00:	004062b8 	.word	0x004062b8
  402e04:	20400030 	.word	0x20400030
  402e08:	20400058 	.word	0x20400058
  402e0c:	42800000 	.word	0x42800000
  402e10:	3c800000 	.word	0x3c800000
  402e14:	2040001c 	.word	0x2040001c
  402e18:	004031a1 	.word	0x004031a1
  402e1c:	358637bd 	.word	0x358637bd
  402e20:	20400050 	.word	0x20400050
  402e24:	427c0000 	.word	0x427c0000
				harmony_shifts[num_of_shifts] = END_OF_SHIFTS; 
			} 
			else 
			{
				// only do autotune 
				harmony_shifts[1] = END_OF_SHIFTS; 	
  402e28:	4ba2      	ldr	r3, [pc, #648]	; (4030b4 <main+0x738>)
  402e2a:	930b      	str	r3, [sp, #44]	; 0x2c
				num_of_shifts = 1; 
			}
			
			// return pitch shifted data from previous samples block  
			create_harmonies((float  *)processBuffer, mixed_buffer, inputPitch, harmony_shifts, (float)harm_volume, (float)dry_volume); 
  402e2c:	4ba2      	ldr	r3, [pc, #648]	; (4030b8 <main+0x73c>)
  402e2e:	4aa3      	ldr	r2, [pc, #652]	; (4030bc <main+0x740>)
  402e30:	6819      	ldr	r1, [r3, #0]
  402e32:	ab0a      	add	r3, sp, #40	; 0x28
  402e34:	6814      	ldr	r4, [r2, #0]
  402e36:	ee18 2a10 	vmov	r2, s16
  402e3a:	48a1      	ldr	r0, [pc, #644]	; (4030c0 <main+0x744>)
  402e3c:	f8df a284 	ldr.w	sl, [pc, #644]	; 4030c4 <main+0x748>
  402e40:	6800      	ldr	r0, [r0, #0]
  402e42:	9100      	str	r1, [sp, #0]
  402e44:	9401      	str	r4, [sp, #4]
  402e46:	499f      	ldr	r1, [pc, #636]	; (4030c4 <main+0x748>)
  402e48:	4c9f      	ldr	r4, [pc, #636]	; (4030c8 <main+0x74c>)
  402e4a:	47a0      	blx	r4
  402e4c:	4642      	mov	r2, r8
			
			// save dry audio 
			for (i = 0; i < WIN_SIZE; i++)
			{
				dry_circ_buffer[circ_buf_idx++ & CIRC_MASK] = mixed_buffer[i];
  402e4e:	f3c2 030d 	ubfx	r3, r2, #0, #14
  402e52:	f85a 1b04 	ldr.w	r1, [sl], #4
  402e56:	3201      	adds	r2, #1
  402e58:	eb05 0383 	add.w	r3, r5, r3, lsl #2
  402e5c:	6019      	str	r1, [r3, #0]
			for (i = 0; i < WIN_SIZE; i++)
  402e5e:	4b9b      	ldr	r3, [pc, #620]	; (4030cc <main+0x750>)
  402e60:	459a      	cmp	sl, r3
  402e62:	d1f4      	bne.n	402e4e <main+0x4d2>
			}
			

			// wet audio 
			uint32_t curr_dry_idx = circ_buf_idx - (uint32_t)WIN_SIZE;
  402e64:	4e97      	ldr	r6, [pc, #604]	; (4030c4 <main+0x748>)
  402e66:	f508 6380 	add.w	r3, r8, #1024	; 0x400
  402e6a:	4644      	mov	r4, r8
				delay_circ_buffer[curr_dry_idx & CIRC_MASK] = mixed_buffer[i] + delay_feedback * delay_circ_buffer[(curr_wet_idx - delay_speed)  & CIRC_MASK];	
				wet_circ_buffer[curr_wet_idx & CIRC_MASK] += delay_volume * delay_circ_buffer[curr_dry_idx & CIRC_MASK];
				
				
				// reverb
				wet_circ_buffer[curr_wet_idx & CIRC_MASK] += reverb_volume *  
  402e6c:	f8cd 8014 	str.w	r8, [sp, #20]
  402e70:	f8cd a018 	str.w	sl, [sp, #24]
  402e74:	46b2      	mov	sl, r6
				chorus_delay = (0.014f + 0.009f *  arm_cos_f32(2.0f*(float)M_PI * (float)sin_cnt++ * n_freq)) * PSOLA_SAMPLE_RATE;
  402e76:	ed9f aa96 	vldr	s20, [pc, #600]	; 4030d0 <main+0x754>
  402e7a:	eddf 9a96 	vldr	s19, [pc, #600]	; 4030d4 <main+0x758>
  402e7e:	ed9f 9a96 	vldr	s18, [pc, #600]	; 4030d8 <main+0x75c>
  402e82:	eddf 8a96 	vldr	s17, [pc, #600]	; 4030dc <main+0x760>
				wet_circ_buffer[curr_wet_idx & CIRC_MASK] += reverb_volume *  
  402e86:	ed9f 8a96 	vldr	s16, [pc, #600]	; 4030e0 <main+0x764>
  402e8a:	f8dd 8010 	ldr.w	r8, [sp, #16]
  402e8e:	9303      	str	r3, [sp, #12]
				chorus_delay = (0.014f + 0.009f *  arm_cos_f32(2.0f*(float)M_PI * (float)sin_cnt++ * n_freq)) * PSOLA_SAMPLE_RATE;
  402e90:	ee07 8a90 	vmov	s15, r8
				wet_circ_buffer[curr_wet_idx & CIRC_MASK] = mixed_buffer[i]; 						
  402e94:	f3c4 000d 	ubfx	r0, r4, #0, #14
  402e98:	4b92      	ldr	r3, [pc, #584]	; (4030e4 <main+0x768>)
				chorus_delay = (0.014f + 0.009f *  arm_cos_f32(2.0f*(float)M_PI * (float)sin_cnt++ * n_freq)) * PSOLA_SAMPLE_RATE;
  402e9a:	f108 0801 	add.w	r8, r8, #1
  402e9e:	eef8 7a67 	vcvt.f32.u32	s15, s15
				wet_circ_buffer[curr_wet_idx & CIRC_MASK] = mixed_buffer[i]; 						
  402ea2:	ea4f 0b80 	mov.w	fp, r0, lsl #2
  402ea6:	f8cd a008 	str.w	sl, [sp, #8]
  402eaa:	eb03 060b 	add.w	r6, r3, fp
				if (sin_cnt == num_samples_in_period)
  402eae:	4b8e      	ldr	r3, [pc, #568]	; (4030e8 <main+0x76c>)
				chorus_delay = (0.014f + 0.009f *  arm_cos_f32(2.0f*(float)M_PI * (float)sin_cnt++ * n_freq)) * PSOLA_SAMPLE_RATE;
  402eb0:	ee67 7a8a 	vmul.f32	s15, s15, s20
				wet_circ_buffer[curr_wet_idx & CIRC_MASK] = mixed_buffer[i]; 						
  402eb4:	f85a eb04 	ldr.w	lr, [sl], #4
				if (sin_cnt == num_samples_in_period)
  402eb8:	4598      	cmp	r8, r3
  402eba:	bf08      	it	eq
  402ebc:	f04f 0800 	moveq.w	r8, #0
				chorus_delay = (0.014f + 0.009f *  arm_cos_f32(2.0f*(float)M_PI * (float)sin_cnt++ * n_freq)) * PSOLA_SAMPLE_RATE;
  402ec0:	4b8a      	ldr	r3, [pc, #552]	; (4030ec <main+0x770>)
				wet_circ_buffer[curr_wet_idx & CIRC_MASK] = mixed_buffer[i]; 						
  402ec2:	f8c6 e000 	str.w	lr, [r6]
				chorus_delay = (0.014f + 0.009f *  arm_cos_f32(2.0f*(float)M_PI * (float)sin_cnt++ * n_freq)) * PSOLA_SAMPLE_RATE;
  402ec6:	ee17 0a90 	vmov	r0, s15
  402eca:	4798      	blx	r3
  402ecc:	eeb0 7a49 	vmov.f32	s14, s18
  402ed0:	ee07 0a90 	vmov	s15, r0
						(dry_circ_buffer[(curr_dry_idx - 1001)  & CIRC_MASK] +
  402ed4:	f46f 737a 	mvn.w	r3, #1000	; 0x3e8
						dry_circ_buffer[(curr_dry_idx - 601)  & CIRC_MASK] + 
  402ed8:	f46f 7216 	mvn.w	r2, #600	; 0x258
						dry_circ_buffer[(curr_dry_idx - 809)  & CIRC_MASK] ); 
  402edc:	f46f 714a 	mvn.w	r1, #808	; 0x328
				chorus_delay = (0.014f + 0.009f *  arm_cos_f32(2.0f*(float)M_PI * (float)sin_cnt++ * n_freq)) * PSOLA_SAMPLE_RATE;
  402ee0:	eea7 7aa9 	vfma.f32	s14, s15, s19
						(dry_circ_buffer[(curr_dry_idx - 1001)  & CIRC_MASK] +
  402ee4:	eb04 0e03 	add.w	lr, r4, r3
						dry_circ_buffer[(curr_dry_idx - 601)  & CIRC_MASK] + 
  402ee8:	18a0      	adds	r0, r4, r2
				wet_circ_buffer[curr_wet_idx & CIRC_MASK] += chorus_volume * (0.2f* (dry_circ_buffer[(curr_dry_idx - chorus_delay)  & CIRC_MASK] +
  402eea:	4b81      	ldr	r3, [pc, #516]	; (4030f0 <main+0x774>)
						(dry_circ_buffer[(curr_dry_idx - 1001)  & CIRC_MASK] +
  402eec:	f3ce 0e0d 	ubfx	lr, lr, #0, #14
				delay_circ_buffer[curr_dry_idx & CIRC_MASK] = mixed_buffer[i] + delay_feedback * delay_circ_buffer[(curr_wet_idx - delay_speed)  & CIRC_MASK];	
  402ef0:	9a02      	ldr	r2, [sp, #8]
						dry_circ_buffer[(curr_dry_idx - 601)  & CIRC_MASK] + 
  402ef2:	f3c0 000d 	ubfx	r0, r0, #0, #14
				wet_circ_buffer[curr_wet_idx & CIRC_MASK] += chorus_volume * (0.2f* (dry_circ_buffer[(curr_dry_idx - chorus_delay)  & CIRC_MASK] +
  402ef6:	ed93 5a00 	vldr	s10, [r3]
						(dry_circ_buffer[(curr_dry_idx - 1001)  & CIRC_MASK] +
  402efa:	eb05 0e8e 	add.w	lr, r5, lr, lsl #2
				delay_circ_buffer[curr_dry_idx & CIRC_MASK] = mixed_buffer[i] + delay_feedback * delay_circ_buffer[(curr_wet_idx - delay_speed)  & CIRC_MASK];	
  402efe:	edd2 5a00 	vldr	s11, [r2]
  402f02:	4b7c      	ldr	r3, [pc, #496]	; (4030f4 <main+0x778>)
						dry_circ_buffer[(curr_dry_idx - 601)  & CIRC_MASK] + 
  402f04:	eb05 0280 	add.w	r2, r5, r0, lsl #2
				chorus_delay = (0.014f + 0.009f *  arm_cos_f32(2.0f*(float)M_PI * (float)sin_cnt++ * n_freq)) * PSOLA_SAMPLE_RATE;
  402f08:	ee27 7a28 	vmul.f32	s14, s14, s17
						(dry_circ_buffer[(curr_dry_idx - 1001)  & CIRC_MASK] +
  402f0c:	edde 6a00 	vldr	s13, [lr]
						dry_circ_buffer[(curr_dry_idx - 809)  & CIRC_MASK] ); 
  402f10:	eb04 0e01 	add.w	lr, r4, r1
						(dry_circ_buffer[(curr_dry_idx - 1001)  & CIRC_MASK] +
  402f14:	edd2 7a00 	vldr	s15, [r2]
				delay_circ_buffer[curr_dry_idx & CIRC_MASK] = mixed_buffer[i] + delay_feedback * delay_circ_buffer[(curr_wet_idx - delay_speed)  & CIRC_MASK];	
  402f18:	681a      	ldr	r2, [r3, #0]
  402f1a:	eb09 000b 	add.w	r0, r9, fp
				chorus_delay = (0.014f + 0.009f *  arm_cos_f32(2.0f*(float)M_PI * (float)sin_cnt++ * n_freq)) * PSOLA_SAMPLE_RATE;
  402f1e:	eebc 7ac7 	vcvt.u32.f32	s14, s14
						dry_circ_buffer[(curr_dry_idx - 809)  & CIRC_MASK] ); 
  402f22:	f3ce 0e0d 	ubfx	lr, lr, #0, #14
				delay_circ_buffer[curr_dry_idx & CIRC_MASK] = mixed_buffer[i] + delay_feedback * delay_circ_buffer[(curr_wet_idx - delay_speed)  & CIRC_MASK];	
  402f26:	4974      	ldr	r1, [pc, #464]	; (4030f8 <main+0x77c>)
						(dry_circ_buffer[(curr_dry_idx - 1001)  & CIRC_MASK] +
  402f28:	ee76 6aa7 	vadd.f32	s13, s13, s15
						dry_circ_buffer[(curr_dry_idx - 809)  & CIRC_MASK] ); 
  402f2c:	eb05 0e8e 	add.w	lr, r5, lr, lsl #2
				delay_circ_buffer[curr_dry_idx & CIRC_MASK] = mixed_buffer[i] + delay_feedback * delay_circ_buffer[(curr_wet_idx - delay_speed)  & CIRC_MASK];	
  402f30:	1aa2      	subs	r2, r4, r2
				chorus_delay = (0.014f + 0.009f *  arm_cos_f32(2.0f*(float)M_PI * (float)sin_cnt++ * n_freq)) * PSOLA_SAMPLE_RATE;
  402f32:	ee17 3a10 	vmov	r3, s14
				delay_circ_buffer[curr_dry_idx & CIRC_MASK] = mixed_buffer[i] + delay_feedback * delay_circ_buffer[(curr_wet_idx - delay_speed)  & CIRC_MASK];	
  402f36:	ed91 4a00 	vldr	s8, [r1]
						dry_circ_buffer[(curr_dry_idx - 601)  & CIRC_MASK] + 
  402f3a:	edde 7a00 	vldr	s15, [lr]
														dry_circ_buffer[(curr_dry_idx - 401 - chorus_delay)  & CIRC_MASK] +
  402f3e:	f46f 7ec8 	mvn.w	lr, #400	; 0x190
				wet_circ_buffer[curr_wet_idx & CIRC_MASK] += chorus_volume * (0.2f* (dry_circ_buffer[(curr_dry_idx - chorus_delay)  & CIRC_MASK] +
  402f42:	1ae3      	subs	r3, r4, r3
				wet_circ_buffer[curr_wet_idx & CIRC_MASK] += delay_volume * delay_circ_buffer[curr_dry_idx & CIRC_MASK];
  402f44:	496d      	ldr	r1, [pc, #436]	; (4030fc <main+0x780>)
				delay_circ_buffer[curr_dry_idx & CIRC_MASK] = mixed_buffer[i] + delay_feedback * delay_circ_buffer[(curr_wet_idx - delay_speed)  & CIRC_MASK];	
  402f46:	f3c2 020d 	ubfx	r2, r2, #0, #14
						dry_circ_buffer[(curr_dry_idx - 601)  & CIRC_MASK] + 
  402f4a:	ee76 6aa7 	vadd.f32	s13, s13, s15
														dry_circ_buffer[(curr_dry_idx - 199 - chorus_delay)  & CIRC_MASK] +
  402f4e:	f1a3 0cc7 	sub.w	ip, r3, #199	; 0xc7
														dry_circ_buffer[(curr_dry_idx - 401 - chorus_delay)  & CIRC_MASK] +
  402f52:	449e      	add	lr, r3
				wet_circ_buffer[curr_wet_idx & CIRC_MASK] += delay_volume * delay_circ_buffer[curr_dry_idx & CIRC_MASK];
  402f54:	edd1 4a00 	vldr	s9, [r1]
				delay_circ_buffer[curr_dry_idx & CIRC_MASK] = mixed_buffer[i] + delay_feedback * delay_circ_buffer[(curr_wet_idx - delay_speed)  & CIRC_MASK];	
  402f58:	eb09 0282 	add.w	r2, r9, r2, lsl #2
														dry_circ_buffer[(curr_dry_idx - 199 - chorus_delay)  & CIRC_MASK] +
  402f5c:	f3cc 0c0d 	ubfx	ip, ip, #0, #14
				wet_circ_buffer[curr_wet_idx & CIRC_MASK] += reverb_volume *  
  402f60:	4967      	ldr	r1, [pc, #412]	; (403100 <main+0x784>)
														dry_circ_buffer[(curr_dry_idx - 401 - chorus_delay)  & CIRC_MASK] +
  402f62:	f3ce 0e0d 	ubfx	lr, lr, #0, #14
				wet_circ_buffer[curr_wet_idx & CIRC_MASK] += chorus_volume * (0.2f* (dry_circ_buffer[(curr_dry_idx - chorus_delay)  & CIRC_MASK] +
  402f66:	ed96 6a00 	vldr	s12, [r6]
														dry_circ_buffer[(curr_dry_idx - 199 - chorus_delay)  & CIRC_MASK] +
  402f6a:	eb05 0c8c 	add.w	ip, r5, ip, lsl #2
				wet_circ_buffer[curr_wet_idx & CIRC_MASK] += reverb_volume *  
  402f6e:	ed91 3a00 	vldr	s6, [r1]
														dry_circ_buffer[(curr_dry_idx - 401 - chorus_delay)  & CIRC_MASK] +
  402f72:	eb05 0e8e 	add.w	lr, r5, lr, lsl #2
				delay_circ_buffer[curr_dry_idx & CIRC_MASK] = mixed_buffer[i] + delay_feedback * delay_circ_buffer[(curr_wet_idx - delay_speed)  & CIRC_MASK];	
  402f76:	edd2 3a00 	vldr	s7, [r2]
														dry_circ_buffer[(curr_dry_idx - 199 - chorus_delay)  & CIRC_MASK] +
  402f7a:	ed9c 7a00 	vldr	s14, [ip]
														dry_circ_buffer[(curr_dry_idx - 601 - chorus_delay)  & CIRC_MASK] +
  402f7e:	f46f 7c16 	mvn.w	ip, #600	; 0x258
				wet_circ_buffer[curr_wet_idx & CIRC_MASK] += chorus_volume * (0.2f* (dry_circ_buffer[(curr_dry_idx - chorus_delay)  & CIRC_MASK] +
  402f82:	f3c3 020d 	ubfx	r2, r3, #0, #14
				wet_circ_buffer[curr_wet_idx & CIRC_MASK] += reverb_volume *  
  402f86:	eea6 6a83 	vfma.f32	s12, s13, s6
														dry_circ_buffer[(curr_dry_idx - 199 - chorus_delay)  & CIRC_MASK] +
  402f8a:	edde 7a00 	vldr	s15, [lr]
														dry_circ_buffer[(curr_dry_idx - 601 - chorus_delay)  & CIRC_MASK] +
  402f8e:	eb03 0e0c 	add.w	lr, r3, ip
				wet_circ_buffer[curr_wet_idx & CIRC_MASK] += chorus_volume * (0.2f* (dry_circ_buffer[(curr_dry_idx - chorus_delay)  & CIRC_MASK] +
  402f92:	eb05 0282 	add.w	r2, r5, r2, lsl #2
														dry_circ_buffer[(curr_dry_idx - 809 - chorus_delay)  & CIRC_MASK]));			
  402f96:	f46f 7b4a 	mvn.w	fp, #808	; 0x328
														dry_circ_buffer[(curr_dry_idx - 199 - chorus_delay)  & CIRC_MASK] +
  402f9a:	ee77 7a27 	vadd.f32	s15, s14, s15
														dry_circ_buffer[(curr_dry_idx - 601 - chorus_delay)  & CIRC_MASK] +
  402f9e:	f3ce 0e0d 	ubfx	lr, lr, #0, #14
				delay_circ_buffer[curr_dry_idx & CIRC_MASK] = mixed_buffer[i] + delay_feedback * delay_circ_buffer[(curr_wet_idx - delay_speed)  & CIRC_MASK];	
  402fa2:	eee3 5a84 	vfma.f32	s11, s7, s8
														dry_circ_buffer[(curr_dry_idx - 199 - chorus_delay)  & CIRC_MASK] +
  402fa6:	edd2 6a00 	vldr	s13, [r2]
														dry_circ_buffer[(curr_dry_idx - 809 - chorus_delay)  & CIRC_MASK]));			
  402faa:	445b      	add	r3, fp
														dry_circ_buffer[(curr_dry_idx - 601 - chorus_delay)  & CIRC_MASK] +
  402fac:	eb05 0e8e 	add.w	lr, r5, lr, lsl #2
														dry_circ_buffer[(curr_dry_idx - 199 - chorus_delay)  & CIRC_MASK] +
  402fb0:	ee77 7aa6 	vadd.f32	s15, s15, s13
			for (i = 0; i < WIN_SIZE; i++, curr_wet_idx++, curr_dry_idx++)
  402fb4:	3401      	adds	r4, #1
														dry_circ_buffer[(curr_dry_idx - 809 - chorus_delay)  & CIRC_MASK]));			
  402fb6:	f3c3 030d 	ubfx	r3, r3, #0, #14
				wet_circ_buffer[curr_wet_idx & CIRC_MASK] += reverb_volume *  
  402fba:	eef0 6a46 	vmov.f32	s13, s12
														dry_circ_buffer[(curr_dry_idx - 401 - chorus_delay)  & CIRC_MASK] +
  402fbe:	ed9e 7a00 	vldr	s14, [lr]
				wet_circ_buffer[curr_wet_idx & CIRC_MASK] += reverb_volume *  
  402fc2:	ee25 5a08 	vmul.f32	s10, s10, s16
														dry_circ_buffer[(curr_dry_idx - 809 - chorus_delay)  & CIRC_MASK]));			
  402fc6:	eb05 0383 	add.w	r3, r5, r3, lsl #2
														dry_circ_buffer[(curr_dry_idx - 401 - chorus_delay)  & CIRC_MASK] +
  402fca:	ee37 7a87 	vadd.f32	s14, s15, s14
				delay_circ_buffer[curr_dry_idx & CIRC_MASK] = mixed_buffer[i] + delay_feedback * delay_circ_buffer[(curr_wet_idx - delay_speed)  & CIRC_MASK];	
  402fce:	edc0 5a00 	vstr	s11, [r0]
				wet_circ_buffer[curr_wet_idx & CIRC_MASK] += reverb_volume *  
  402fd2:	eee5 6aa4 	vfma.f32	s13, s11, s9
														dry_circ_buffer[(curr_dry_idx - 601 - chorus_delay)  & CIRC_MASK] +
  402fd6:	edd3 7a00 	vldr	s15, [r3]
			for (i = 0; i < WIN_SIZE; i++, curr_wet_idx++, curr_dry_idx++)
  402fda:	9b03      	ldr	r3, [sp, #12]
														dry_circ_buffer[(curr_dry_idx - 601 - chorus_delay)  & CIRC_MASK] +
  402fdc:	ee77 7a27 	vadd.f32	s15, s14, s15
			for (i = 0; i < WIN_SIZE; i++, curr_wet_idx++, curr_dry_idx++)
  402fe0:	429c      	cmp	r4, r3
				wet_circ_buffer[curr_wet_idx & CIRC_MASK] += reverb_volume *  
  402fe2:	eee7 6a85 	vfma.f32	s13, s15, s10
  402fe6:	edc6 6a00 	vstr	s13, [r6]
			for (i = 0; i < WIN_SIZE; i++, curr_wet_idx++, curr_dry_idx++)
  402fea:	f47f af51 	bne.w	402e90 <main+0x514>
  402fee:	f8df b0d4 	ldr.w	fp, [pc, #212]	; 4030c4 <main+0x748>
  402ff2:	f8cd 8010 	str.w	r8, [sp, #16]
  402ff6:	f8dd a018 	ldr.w	sl, [sp, #24]
  402ffa:	465e      	mov	r6, fp
  402ffc:	f8dd 8014 	ldr.w	r8, [sp, #20]
			}
		
			// mix wet and dry 
			for (i = 0; i < WIN_SIZE; i++, wet_idx++)
			{
				 mixed_buffer[i] = wet_circ_buffer[wet_idx & CIRC_MASK];
  403000:	f3c8 030d 	ubfx	r3, r8, #0, #14
  403004:	4a37      	ldr	r2, [pc, #220]	; (4030e4 <main+0x768>)
  403006:	f108 0801 	add.w	r8, r8, #1
  40300a:	eb02 0383 	add.w	r3, r2, r3, lsl #2
  40300e:	681b      	ldr	r3, [r3, #0]
  403010:	f846 3b04 	str.w	r3, [r6], #4
			for (i = 0; i < WIN_SIZE; i++, wet_idx++)
  403014:	4556      	cmp	r6, sl
  403016:	d1f3      	bne.n	403000 <main+0x684>
			}

			// scale output 
			arm_scale_f32(mixed_buffer, (float)INT16_MAX * master_volume * 0.5, mixed_buffer, WIN_SIZE);
  403018:	4b3a      	ldr	r3, [pc, #232]	; (403104 <main+0x788>)
  40301a:	46b3      	mov	fp, r6
  40301c:	eddf 7a3a 	vldr	s15, [pc, #232]	; 403108 <main+0x78c>
  403020:	46a0      	mov	r8, r4
  403022:	ed93 7a00 	vldr	s14, [r3]
  403026:	f44f 6380 	mov.w	r3, #1024	; 0x400
  40302a:	4a26      	ldr	r2, [pc, #152]	; (4030c4 <main+0x748>)
  40302c:	ee67 7a27 	vmul.f32	s15, s14, s15
  403030:	4e36      	ldr	r6, [pc, #216]	; (40310c <main+0x790>)
  403032:	4610      	mov	r0, r2
  403034:	ee17 1a90 	vmov	r1, s15
  403038:	47b0      	blx	r6
  40303a:	4b22      	ldr	r3, [pc, #136]	; (4030c4 <main+0x748>)
  40303c:	465e      	mov	r6, fp
  40303e:	f8dd c01c 	ldr.w	ip, [sp, #28]
  403042:	4a20      	ldr	r2, [pc, #128]	; (4030c4 <main+0x748>)
			// Sound out 
			uint32_t idx = 0; 
			for(i = 0; i < IO_BUF_SIZE; i+=2)
			{
				outBuffer[i] = (uint16_t)(int16_t)(mixed_buffer[idx++]);  
				outBuffer[i+1] = outBuffer[i]; 
  403044:	6839      	ldr	r1, [r7, #0]
  403046:	1a98      	subs	r0, r3, r2
				outBuffer[i] = (uint16_t)(int16_t)(mixed_buffer[idx++]);  
  403048:	ecf3 7a01 	vldmia	r3!, {s15}
  40304c:	eefd 7ae7 	vcvt.s32.f32	s15, s15
				outBuffer[i+1] = outBuffer[i]; 
  403050:	eb0c 0e03 	add.w	lr, ip, r3
			for(i = 0; i < IO_BUF_SIZE; i+=2)
  403054:	429e      	cmp	r6, r3
				outBuffer[i] = (uint16_t)(int16_t)(mixed_buffer[idx++]);  
  403056:	edcd 7a02 	vstr	s15, [sp, #8]
  40305a:	f8bd 2008 	ldrh.w	r2, [sp, #8]
  40305e:	520a      	strh	r2, [r1, r0]
				outBuffer[i+1] = outBuffer[i]; 
  403060:	5a0a      	ldrh	r2, [r1, r0]
  403062:	b292      	uxth	r2, r2
  403064:	f821 200e 	strh.w	r2, [r1, lr]
			for(i = 0; i < IO_BUF_SIZE; i+=2)
  403068:	d1eb      	bne.n	403042 <main+0x6c6>
			}
			
			// check if we're too slow 
			if (dataReceived)
  40306a:	4b29      	ldr	r3, [pc, #164]	; (403110 <main+0x794>)
  40306c:	4644      	mov	r4, r8
  40306e:	781b      	ldrb	r3, [r3, #0]
  403070:	f003 02ff 	and.w	r2, r3, #255	; 0xff
  403074:	b90b      	cbnz	r3, 40307a <main+0x6fe>
// 				{
// 					// taking too long ... never 
// 				}
			}
			else 
				dataReceived = false; 
  403076:	4b26      	ldr	r3, [pc, #152]	; (403110 <main+0x794>)
  403078:	701a      	strb	r2, [r3, #0]
			for (i = 0; i < WIN_SIZE; i++, curr_wet_idx++, curr_dry_idx++)
  40307a:	46a0      	mov	r8, r4
  40307c:	e548      	b.n	402b10 <main+0x194>
				while(harmony_list_read[i].freq > 1.0f && i < MAX_NUM_SHIFTS-1)
  40307e:	2001      	movs	r0, #1
				harmony_shifts[num_of_shifts] = END_OF_SHIFTS; 
  403080:	aa16      	add	r2, sp, #88	; 0x58
  403082:	4b0c      	ldr	r3, [pc, #48]	; (4030b4 <main+0x738>)
  403084:	eb02 0080 	add.w	r0, r2, r0, lsl #2
  403088:	f840 3c30 	str.w	r3, [r0, #-48]
  40308c:	e6ce      	b.n	402e2c <main+0x4b0>
		*pitch += (((float)pitch_bend - 63.0f) * ONE_OVER_64) * bend_difference;
  40308e:	eef8 6a66 	vcvt.f32.u32	s13, s13
  403092:	ed9f 6a20 	vldr	s12, [pc, #128]	; 403114 <main+0x798>
  403096:	ed9f 7a20 	vldr	s14, [pc, #128]	; 403118 <main+0x79c>
		bend_difference = midi_note_frequencies[pitch_idx+2] - midi_note_frequencies[pitch_idx];
  40309a:	edd0 5a02 	vldr	s11, [r0, #8]
		*pitch += (((float)pitch_bend - 63.0f) * ONE_OVER_64) * bend_difference;
  40309e:	ee76 6ac6 	vsub.f32	s13, s13, s12
		bend_difference = midi_note_frequencies[pitch_idx+2] - midi_note_frequencies[pitch_idx];
  4030a2:	ee35 6ae8 	vsub.f32	s12, s11, s17
		*pitch += (((float)pitch_bend - 63.0f) * ONE_OVER_64) * bend_difference;
  4030a6:	ee26 7a87 	vmul.f32	s14, s13, s14
  4030aa:	eee6 7a07 	vfma.f32	s15, s12, s14
  4030ae:	e5f1      	b.n	402c94 <main+0x318>
	while (lo < hi)
  4030b0:	4618      	mov	r0, r3
  4030b2:	e5c0      	b.n	402c36 <main+0x2ba>
  4030b4:	bf800000 	.word	0xbf800000
  4030b8:	20400048 	.word	0x20400048
  4030bc:	20400044 	.word	0x20400044
  4030c0:	2040001c 	.word	0x2040001c
  4030c4:	20440400 	.word	0x20440400
  4030c8:	00400da9 	.word	0x00400da9
  4030cc:	20441400 	.word	0x20441400
  4030d0:	38c658f9 	.word	0x38c658f9
  4030d4:	3c1374bc 	.word	0x3c1374bc
  4030d8:	3c656042 	.word	0x3c656042
  4030dc:	4735a700 	.word	0x4735a700
  4030e0:	3e4ccccd 	.word	0x3e4ccccd
  4030e4:	20444000 	.word	0x20444000
  4030e8:	00010380 	.word	0x00010380
  4030ec:	004033c5 	.word	0x004033c5
  4030f0:	20400034 	.word	0x20400034
  4030f4:	2040003c 	.word	0x2040003c
  4030f8:	20400038 	.word	0x20400038
  4030fc:	20400040 	.word	0x20400040
  403100:	2040005c 	.word	0x2040005c
  403104:	20400054 	.word	0x20400054
  403108:	467ffe00 	.word	0x467ffe00
  40310c:	0040344d 	.word	0x0040344d
  403110:	2040401c 	.word	0x2040401c
  403114:	427c0000 	.word	0x427c0000
  403118:	3c800000 	.word	0x3c800000

0040311c <arm_fill_f32>:
  40311c:	b430      	push	{r4, r5}
  40311e:	0895      	lsrs	r5, r2, #2
  403120:	d00b      	beq.n	40313a <arm_fill_f32+0x1e>
  403122:	460b      	mov	r3, r1
  403124:	462c      	mov	r4, r5
  403126:	3c01      	subs	r4, #1
  403128:	6018      	str	r0, [r3, #0]
  40312a:	6058      	str	r0, [r3, #4]
  40312c:	6098      	str	r0, [r3, #8]
  40312e:	60d8      	str	r0, [r3, #12]
  403130:	f103 0310 	add.w	r3, r3, #16
  403134:	d1f7      	bne.n	403126 <arm_fill_f32+0xa>
  403136:	eb01 1105 	add.w	r1, r1, r5, lsl #4
  40313a:	f012 0203 	ands.w	r2, r2, #3
  40313e:	d003      	beq.n	403148 <arm_fill_f32+0x2c>
  403140:	3a01      	subs	r2, #1
  403142:	f841 0b04 	str.w	r0, [r1], #4
  403146:	d1fb      	bne.n	403140 <arm_fill_f32+0x24>
  403148:	bc30      	pop	{r4, r5}
  40314a:	4770      	bx	lr

0040314c <arm_copy_f32>:
  40314c:	e92d 03f0 	stmdb	sp!, {r4, r5, r6, r7, r8, r9}
  403150:	ea5f 0992 	movs.w	r9, r2, lsr #2
  403154:	d018      	beq.n	403188 <arm_copy_f32+0x3c>
  403156:	4604      	mov	r4, r0
  403158:	460b      	mov	r3, r1
  40315a:	464d      	mov	r5, r9
  40315c:	f8d4 8000 	ldr.w	r8, [r4]
  403160:	f8d4 c004 	ldr.w	ip, [r4, #4]
  403164:	68a7      	ldr	r7, [r4, #8]
  403166:	68e6      	ldr	r6, [r4, #12]
  403168:	3d01      	subs	r5, #1
  40316a:	f8c3 8000 	str.w	r8, [r3]
  40316e:	f8c3 c004 	str.w	ip, [r3, #4]
  403172:	609f      	str	r7, [r3, #8]
  403174:	60de      	str	r6, [r3, #12]
  403176:	f104 0410 	add.w	r4, r4, #16
  40317a:	f103 0310 	add.w	r3, r3, #16
  40317e:	d1ed      	bne.n	40315c <arm_copy_f32+0x10>
  403180:	ea4f 1909 	mov.w	r9, r9, lsl #4
  403184:	4448      	add	r0, r9
  403186:	4449      	add	r1, r9
  403188:	f012 0203 	ands.w	r2, r2, #3
  40318c:	d005      	beq.n	40319a <arm_copy_f32+0x4e>
  40318e:	f850 3b04 	ldr.w	r3, [r0], #4
  403192:	3a01      	subs	r2, #1
  403194:	f841 3b04 	str.w	r3, [r1], #4
  403198:	d1f9      	bne.n	40318e <arm_copy_f32+0x42>
  40319a:	e8bd 03f0 	ldmia.w	sp!, {r4, r5, r6, r7, r8, r9}
  40319e:	4770      	bx	lr

004031a0 <arm_power_f32>:
  4031a0:	b430      	push	{r4, r5}
  4031a2:	088d      	lsrs	r5, r1, #2
  4031a4:	eddf 7a18 	vldr	s15, [pc, #96]	; 403208 <arm_power_f32+0x68>
  4031a8:	d01f      	beq.n	4031ea <arm_power_f32+0x4a>
  4031aa:	4603      	mov	r3, r0
  4031ac:	462c      	mov	r4, r5
  4031ae:	edd3 6a00 	vldr	s13, [r3]
  4031b2:	ed93 7a01 	vldr	s14, [r3, #4]
  4031b6:	ee66 6aa6 	vmul.f32	s13, s13, s13
  4031ba:	ee27 6a07 	vmul.f32	s12, s14, s14
  4031be:	ee76 7aa7 	vadd.f32	s15, s13, s15
  4031c2:	ed93 7a02 	vldr	s14, [r3, #8]
  4031c6:	ee76 7a27 	vadd.f32	s15, s12, s15
  4031ca:	ee67 6a07 	vmul.f32	s13, s14, s14
  4031ce:	ed93 7a03 	vldr	s14, [r3, #12]
  4031d2:	ee76 6aa7 	vadd.f32	s13, s13, s15
  4031d6:	ee27 7a07 	vmul.f32	s14, s14, s14
  4031da:	3c01      	subs	r4, #1
  4031dc:	f103 0310 	add.w	r3, r3, #16
  4031e0:	ee77 7a26 	vadd.f32	s15, s14, s13
  4031e4:	d1e3      	bne.n	4031ae <arm_power_f32+0xe>
  4031e6:	eb00 1005 	add.w	r0, r0, r5, lsl #4
  4031ea:	f011 0103 	ands.w	r1, r1, #3
  4031ee:	d007      	beq.n	403200 <arm_power_f32+0x60>
  4031f0:	ecb0 7a01 	vldmia	r0!, {s14}
  4031f4:	ee27 7a07 	vmul.f32	s14, s14, s14
  4031f8:	3901      	subs	r1, #1
  4031fa:	ee77 7a87 	vadd.f32	s15, s15, s14
  4031fe:	d1f7      	bne.n	4031f0 <arm_power_f32+0x50>
  403200:	edc2 7a00 	vstr	s15, [r2]
  403204:	bc30      	pop	{r4, r5}
  403206:	4770      	bx	lr
  403208:	00000000 	.word	0x00000000

0040320c <arm_min_f32>:
  40320c:	e92d 03f0 	stmdb	sp!, {r4, r5, r6, r7, r8, r9}
  403210:	f101 3cff 	add.w	ip, r1, #4294967295
  403214:	ea5f 099c 	movs.w	r9, ip, lsr #2
  403218:	f100 0704 	add.w	r7, r0, #4
  40321c:	edd0 7a00 	vldr	s15, [r0]
  403220:	d05c      	beq.n	4032dc <arm_min_f32+0xd0>
  403222:	463c      	mov	r4, r7
  403224:	464e      	mov	r6, r9
  403226:	2004      	movs	r0, #4
  403228:	2500      	movs	r5, #0
  40322a:	edd4 6a00 	vldr	s13, [r4]
  40322e:	eef4 6ae7 	vcmpe.f32	s13, s15
  403232:	eef1 fa10 	vmrs	APSR_nzcv, fpscr
  403236:	ed94 7a01 	vldr	s14, [r4, #4]
  40323a:	bf48      	it	mi
  40323c:	eef0 7a66 	vmovmi.f32	s15, s13
  403240:	eef4 7ac7 	vcmpe.f32	s15, s14
  403244:	f1a0 0803 	sub.w	r8, r0, #3
  403248:	bf48      	it	mi
  40324a:	4645      	movmi	r5, r8
  40324c:	eef1 fa10 	vmrs	APSR_nzcv, fpscr
  403250:	edd4 6a02 	vldr	s13, [r4, #8]
  403254:	bfc8      	it	gt
  403256:	eef0 7a47 	vmovgt.f32	s15, s14
  40325a:	eef4 7ae6 	vcmpe.f32	s15, s13
  40325e:	f1a0 0802 	sub.w	r8, r0, #2
  403262:	bfc8      	it	gt
  403264:	4645      	movgt	r5, r8
  403266:	eef1 fa10 	vmrs	APSR_nzcv, fpscr
  40326a:	ed94 7a03 	vldr	s14, [r4, #12]
  40326e:	bfc8      	it	gt
  403270:	eef0 7a66 	vmovgt.f32	s15, s13
  403274:	eef4 7ac7 	vcmpe.f32	s15, s14
  403278:	f100 38ff 	add.w	r8, r0, #4294967295
  40327c:	bfc8      	it	gt
  40327e:	4645      	movgt	r5, r8
  403280:	eef1 fa10 	vmrs	APSR_nzcv, fpscr
  403284:	bfc8      	it	gt
  403286:	4605      	movgt	r5, r0
  403288:	bfc8      	it	gt
  40328a:	eef0 7a47 	vmovgt.f32	s15, s14
  40328e:	3e01      	subs	r6, #1
  403290:	f104 0410 	add.w	r4, r4, #16
  403294:	f100 0004 	add.w	r0, r0, #4
  403298:	d1c7      	bne.n	40322a <arm_min_f32+0x1e>
  40329a:	eb07 1709 	add.w	r7, r7, r9, lsl #4
  40329e:	f01c 0c03 	ands.w	ip, ip, #3
  4032a2:	d01d      	beq.n	4032e0 <arm_min_f32+0xd4>
  4032a4:	ebcc 0101 	rsb	r1, ip, r1
  4032a8:	2000      	movs	r0, #0
  4032aa:	ecb7 7a01 	vldmia	r7!, {s14}
  4032ae:	eeb4 7ae7 	vcmpe.f32	s14, s15
  4032b2:	eef1 fa10 	vmrs	APSR_nzcv, fpscr
  4032b6:	bf48      	it	mi
  4032b8:	eef0 7a47 	vmovmi.f32	s15, s14
  4032bc:	eb01 0400 	add.w	r4, r1, r0
  4032c0:	f100 0001 	add.w	r0, r0, #1
  4032c4:	bf48      	it	mi
  4032c6:	4625      	movmi	r5, r4
  4032c8:	4560      	cmp	r0, ip
  4032ca:	eeb0 7a67 	vmov.f32	s14, s15
  4032ce:	d1ec      	bne.n	4032aa <arm_min_f32+0x9e>
  4032d0:	ed82 7a00 	vstr	s14, [r2]
  4032d4:	601d      	str	r5, [r3, #0]
  4032d6:	e8bd 03f0 	ldmia.w	sp!, {r4, r5, r6, r7, r8, r9}
  4032da:	4770      	bx	lr
  4032dc:	464d      	mov	r5, r9
  4032de:	e7de      	b.n	40329e <arm_min_f32+0x92>
  4032e0:	eeb0 7a67 	vmov.f32	s14, s15
  4032e4:	e7f4      	b.n	4032d0 <arm_min_f32+0xc4>
  4032e6:	bf00      	nop

004032e8 <arm_max_f32>:
  4032e8:	e92d 03f0 	stmdb	sp!, {r4, r5, r6, r7, r8, r9}
  4032ec:	f101 3cff 	add.w	ip, r1, #4294967295
  4032f0:	ea5f 099c 	movs.w	r9, ip, lsr #2
  4032f4:	f100 0704 	add.w	r7, r0, #4
  4032f8:	edd0 7a00 	vldr	s15, [r0]
  4032fc:	d05c      	beq.n	4033b8 <arm_max_f32+0xd0>
  4032fe:	463c      	mov	r4, r7
  403300:	464e      	mov	r6, r9
  403302:	2004      	movs	r0, #4
  403304:	2500      	movs	r5, #0
  403306:	edd4 6a00 	vldr	s13, [r4]
  40330a:	eef4 6ae7 	vcmpe.f32	s13, s15
  40330e:	eef1 fa10 	vmrs	APSR_nzcv, fpscr
  403312:	ed94 7a01 	vldr	s14, [r4, #4]
  403316:	bfc8      	it	gt
  403318:	eef0 7a66 	vmovgt.f32	s15, s13
  40331c:	eef4 7ac7 	vcmpe.f32	s15, s14
  403320:	f1a0 0803 	sub.w	r8, r0, #3
  403324:	bfc8      	it	gt
  403326:	4645      	movgt	r5, r8
  403328:	eef1 fa10 	vmrs	APSR_nzcv, fpscr
  40332c:	edd4 6a02 	vldr	s13, [r4, #8]
  403330:	bf48      	it	mi
  403332:	eef0 7a47 	vmovmi.f32	s15, s14
  403336:	eef4 7ae6 	vcmpe.f32	s15, s13
  40333a:	f1a0 0802 	sub.w	r8, r0, #2
  40333e:	bf48      	it	mi
  403340:	4645      	movmi	r5, r8
  403342:	eef1 fa10 	vmrs	APSR_nzcv, fpscr
  403346:	ed94 7a03 	vldr	s14, [r4, #12]
  40334a:	bf48      	it	mi
  40334c:	eef0 7a66 	vmovmi.f32	s15, s13
  403350:	eef4 7ac7 	vcmpe.f32	s15, s14
  403354:	f100 38ff 	add.w	r8, r0, #4294967295
  403358:	bf48      	it	mi
  40335a:	4645      	movmi	r5, r8
  40335c:	eef1 fa10 	vmrs	APSR_nzcv, fpscr
  403360:	bf48      	it	mi
  403362:	4605      	movmi	r5, r0
  403364:	bf48      	it	mi
  403366:	eef0 7a47 	vmovmi.f32	s15, s14
  40336a:	3e01      	subs	r6, #1
  40336c:	f104 0410 	add.w	r4, r4, #16
  403370:	f100 0004 	add.w	r0, r0, #4
  403374:	d1c7      	bne.n	403306 <arm_max_f32+0x1e>
  403376:	eb07 1709 	add.w	r7, r7, r9, lsl #4
  40337a:	f01c 0c03 	ands.w	ip, ip, #3
  40337e:	d01d      	beq.n	4033bc <arm_max_f32+0xd4>
  403380:	ebcc 0101 	rsb	r1, ip, r1
  403384:	2000      	movs	r0, #0
  403386:	ecb7 7a01 	vldmia	r7!, {s14}
  40338a:	eeb4 7ae7 	vcmpe.f32	s14, s15
  40338e:	eef1 fa10 	vmrs	APSR_nzcv, fpscr
  403392:	bfc8      	it	gt
  403394:	eef0 7a47 	vmovgt.f32	s15, s14
  403398:	eb01 0400 	add.w	r4, r1, r0
  40339c:	f100 0001 	add.w	r0, r0, #1
  4033a0:	bfc8      	it	gt
  4033a2:	4625      	movgt	r5, r4
  4033a4:	4560      	cmp	r0, ip
  4033a6:	eeb0 7a67 	vmov.f32	s14, s15
  4033aa:	d1ec      	bne.n	403386 <arm_max_f32+0x9e>
  4033ac:	ed82 7a00 	vstr	s14, [r2]
  4033b0:	601d      	str	r5, [r3, #0]
  4033b2:	e8bd 03f0 	ldmia.w	sp!, {r4, r5, r6, r7, r8, r9}
  4033b6:	4770      	bx	lr
  4033b8:	464d      	mov	r5, r9
  4033ba:	e7de      	b.n	40337a <arm_max_f32+0x92>
  4033bc:	eeb0 7a67 	vmov.f32	s14, s15
  4033c0:	e7f4      	b.n	4033ac <arm_max_f32+0xc4>
  4033c2:	bf00      	nop

004033c4 <arm_cos_f32>:
  4033c4:	eddf 7a1e 	vldr	s15, [pc, #120]	; 403440 <arm_cos_f32+0x7c>
  4033c8:	ee06 0a90 	vmov	s13, r0
  4033cc:	eeb5 7a00 	vmov.f32	s14, #80	; 0x3e800000  0.250
  4033d0:	ee66 7aa7 	vmul.f32	s15, s13, s15
  4033d4:	ee77 7a87 	vadd.f32	s15, s15, s14
  4033d8:	eef5 7ac0 	vcmpe.f32	s15, #0.0
  4033dc:	eef1 fa10 	vmrs	APSR_nzcv, fpscr
  4033e0:	eebd 7ae7 	vcvt.s32.f32	s14, s15
  4033e4:	d504      	bpl.n	4033f0 <arm_cos_f32+0x2c>
  4033e6:	ee17 3a10 	vmov	r3, s14
  4033ea:	3b01      	subs	r3, #1
  4033ec:	ee07 3a10 	vmov	s14, r3
  4033f0:	eeb8 7ac7 	vcvt.f32.s32	s14, s14
  4033f4:	eddf 6a13 	vldr	s13, [pc, #76]	; 403444 <arm_cos_f32+0x80>
  4033f8:	ee77 7ac7 	vsub.f32	s15, s15, s14
  4033fc:	ee67 7aa6 	vmul.f32	s15, s15, s13
  403400:	eefc 6ae7 	vcvt.u32.f32	s13, s15
  403404:	ee16 3a90 	vmov	r3, s13
  403408:	f3c3 0308 	ubfx	r3, r3, #0, #9
  40340c:	ee07 3a10 	vmov	s14, r3
  403410:	eef8 6a47 	vcvt.f32.u32	s13, s14
  403414:	eeb7 7a00 	vmov.f32	s14, #112	; 0x3f800000  1.0
  403418:	ee77 7ae6 	vsub.f32	s15, s15, s13
  40341c:	4a0a      	ldr	r2, [pc, #40]	; (403448 <arm_cos_f32+0x84>)
  40341e:	ee37 7a67 	vsub.f32	s14, s14, s15
  403422:	eb02 0183 	add.w	r1, r2, r3, lsl #2
  403426:	ed91 6a00 	vldr	s12, [r1]
  40342a:	edd1 6a01 	vldr	s13, [r1, #4]
  40342e:	ee27 7a06 	vmul.f32	s14, s14, s12
  403432:	ee67 7aa6 	vmul.f32	s15, s15, s13
  403436:	ee77 7a27 	vadd.f32	s15, s14, s15
  40343a:	ee17 0a90 	vmov	r0, s15
  40343e:	4770      	bx	lr
  403440:	3e22f983 	.word	0x3e22f983
  403444:	44000000 	.word	0x44000000
  403448:	004064b8 	.word	0x004064b8

0040344c <arm_scale_f32>:
  40344c:	b470      	push	{r4, r5, r6}
  40344e:	089e      	lsrs	r6, r3, #2
  403450:	ee07 1a90 	vmov	s15, r1
  403454:	d023      	beq.n	40349e <arm_scale_f32+0x52>
  403456:	4635      	mov	r5, r6
  403458:	4614      	mov	r4, r2
  40345a:	4601      	mov	r1, r0
  40345c:	edd1 5a00 	vldr	s11, [r1]
  403460:	ed91 6a01 	vldr	s12, [r1, #4]
  403464:	edd1 6a02 	vldr	s13, [r1, #8]
  403468:	ed91 7a03 	vldr	s14, [r1, #12]
  40346c:	ee65 5aa7 	vmul.f32	s11, s11, s15
  403470:	ee26 6a27 	vmul.f32	s12, s12, s15
  403474:	ee66 6aa7 	vmul.f32	s13, s13, s15
  403478:	ee27 7a27 	vmul.f32	s14, s14, s15
  40347c:	3d01      	subs	r5, #1
  40347e:	edc4 5a00 	vstr	s11, [r4]
  403482:	ed84 6a01 	vstr	s12, [r4, #4]
  403486:	edc4 6a02 	vstr	s13, [r4, #8]
  40348a:	ed84 7a03 	vstr	s14, [r4, #12]
  40348e:	f101 0110 	add.w	r1, r1, #16
  403492:	f104 0410 	add.w	r4, r4, #16
  403496:	d1e1      	bne.n	40345c <arm_scale_f32+0x10>
  403498:	0136      	lsls	r6, r6, #4
  40349a:	4430      	add	r0, r6
  40349c:	4432      	add	r2, r6
  40349e:	f013 0303 	ands.w	r3, r3, #3
  4034a2:	d007      	beq.n	4034b4 <arm_scale_f32+0x68>
  4034a4:	ecb0 7a01 	vldmia	r0!, {s14}
  4034a8:	ee27 7a27 	vmul.f32	s14, s14, s15
  4034ac:	3b01      	subs	r3, #1
  4034ae:	eca2 7a01 	vstmia	r2!, {s14}
  4034b2:	d1f7      	bne.n	4034a4 <arm_scale_f32+0x58>
  4034b4:	bc70      	pop	{r4, r5, r6}
  4034b6:	4770      	bx	lr

004034b8 <__libc_init_array>:
  4034b8:	b570      	push	{r4, r5, r6, lr}
  4034ba:	4e0f      	ldr	r6, [pc, #60]	; (4034f8 <__libc_init_array+0x40>)
  4034bc:	4d0f      	ldr	r5, [pc, #60]	; (4034fc <__libc_init_array+0x44>)
  4034be:	1b76      	subs	r6, r6, r5
  4034c0:	10b6      	asrs	r6, r6, #2
  4034c2:	bf18      	it	ne
  4034c4:	2400      	movne	r4, #0
  4034c6:	d005      	beq.n	4034d4 <__libc_init_array+0x1c>
  4034c8:	3401      	adds	r4, #1
  4034ca:	f855 3b04 	ldr.w	r3, [r5], #4
  4034ce:	4798      	blx	r3
  4034d0:	42a6      	cmp	r6, r4
  4034d2:	d1f9      	bne.n	4034c8 <__libc_init_array+0x10>
  4034d4:	4e0a      	ldr	r6, [pc, #40]	; (403500 <__libc_init_array+0x48>)
  4034d6:	4d0b      	ldr	r5, [pc, #44]	; (403504 <__libc_init_array+0x4c>)
  4034d8:	1b76      	subs	r6, r6, r5
  4034da:	f003 fca3 	bl	406e24 <_init>
  4034de:	10b6      	asrs	r6, r6, #2
  4034e0:	bf18      	it	ne
  4034e2:	2400      	movne	r4, #0
  4034e4:	d006      	beq.n	4034f4 <__libc_init_array+0x3c>
  4034e6:	3401      	adds	r4, #1
  4034e8:	f855 3b04 	ldr.w	r3, [r5], #4
  4034ec:	4798      	blx	r3
  4034ee:	42a6      	cmp	r6, r4
  4034f0:	d1f9      	bne.n	4034e6 <__libc_init_array+0x2e>
  4034f2:	bd70      	pop	{r4, r5, r6, pc}
  4034f4:	bd70      	pop	{r4, r5, r6, pc}
  4034f6:	bf00      	nop
  4034f8:	00406e30 	.word	0x00406e30
  4034fc:	00406e30 	.word	0x00406e30
  403500:	00406e38 	.word	0x00406e38
  403504:	00406e30 	.word	0x00406e30

00403508 <iprintf>:
  403508:	b40f      	push	{r0, r1, r2, r3}
  40350a:	b500      	push	{lr}
  40350c:	4907      	ldr	r1, [pc, #28]	; (40352c <iprintf+0x24>)
  40350e:	b083      	sub	sp, #12
  403510:	ab04      	add	r3, sp, #16
  403512:	6808      	ldr	r0, [r1, #0]
  403514:	f853 2b04 	ldr.w	r2, [r3], #4
  403518:	6881      	ldr	r1, [r0, #8]
  40351a:	9301      	str	r3, [sp, #4]
  40351c:	f000 fc06 	bl	403d2c <_vfiprintf_r>
  403520:	b003      	add	sp, #12
  403522:	f85d eb04 	ldr.w	lr, [sp], #4
  403526:	b004      	add	sp, #16
  403528:	4770      	bx	lr
  40352a:	bf00      	nop
  40352c:	20400060 	.word	0x20400060

00403530 <malloc>:
  403530:	4b02      	ldr	r3, [pc, #8]	; (40353c <malloc+0xc>)
  403532:	4601      	mov	r1, r0
  403534:	6818      	ldr	r0, [r3, #0]
  403536:	f000 b803 	b.w	403540 <_malloc_r>
  40353a:	bf00      	nop
  40353c:	20400060 	.word	0x20400060

00403540 <_malloc_r>:
  403540:	e92d 4ff0 	stmdb	sp!, {r4, r5, r6, r7, r8, r9, sl, fp, lr}
  403544:	f101 060b 	add.w	r6, r1, #11
  403548:	2e16      	cmp	r6, #22
  40354a:	b083      	sub	sp, #12
  40354c:	4605      	mov	r5, r0
  40354e:	f240 809e 	bls.w	40368e <_malloc_r+0x14e>
  403552:	f036 0607 	bics.w	r6, r6, #7
  403556:	f100 80bd 	bmi.w	4036d4 <_malloc_r+0x194>
  40355a:	42b1      	cmp	r1, r6
  40355c:	f200 80ba 	bhi.w	4036d4 <_malloc_r+0x194>
  403560:	f000 fb86 	bl	403c70 <__malloc_lock>
  403564:	f5b6 7ffc 	cmp.w	r6, #504	; 0x1f8
  403568:	f0c0 8293 	bcc.w	403a92 <_malloc_r+0x552>
  40356c:	0a73      	lsrs	r3, r6, #9
  40356e:	f000 80b8 	beq.w	4036e2 <_malloc_r+0x1a2>
  403572:	2b04      	cmp	r3, #4
  403574:	f200 8179 	bhi.w	40386a <_malloc_r+0x32a>
  403578:	09b3      	lsrs	r3, r6, #6
  40357a:	f103 0039 	add.w	r0, r3, #57	; 0x39
  40357e:	f103 0e38 	add.w	lr, r3, #56	; 0x38
  403582:	00c3      	lsls	r3, r0, #3
  403584:	4fbf      	ldr	r7, [pc, #764]	; (403884 <_malloc_r+0x344>)
  403586:	443b      	add	r3, r7
  403588:	f1a3 0108 	sub.w	r1, r3, #8
  40358c:	685c      	ldr	r4, [r3, #4]
  40358e:	42a1      	cmp	r1, r4
  403590:	d106      	bne.n	4035a0 <_malloc_r+0x60>
  403592:	e00c      	b.n	4035ae <_malloc_r+0x6e>
  403594:	2a00      	cmp	r2, #0
  403596:	f280 80aa 	bge.w	4036ee <_malloc_r+0x1ae>
  40359a:	68e4      	ldr	r4, [r4, #12]
  40359c:	42a1      	cmp	r1, r4
  40359e:	d006      	beq.n	4035ae <_malloc_r+0x6e>
  4035a0:	6863      	ldr	r3, [r4, #4]
  4035a2:	f023 0303 	bic.w	r3, r3, #3
  4035a6:	1b9a      	subs	r2, r3, r6
  4035a8:	2a0f      	cmp	r2, #15
  4035aa:	ddf3      	ble.n	403594 <_malloc_r+0x54>
  4035ac:	4670      	mov	r0, lr
  4035ae:	693c      	ldr	r4, [r7, #16]
  4035b0:	f8df e2e4 	ldr.w	lr, [pc, #740]	; 403898 <_malloc_r+0x358>
  4035b4:	4574      	cmp	r4, lr
  4035b6:	f000 81ab 	beq.w	403910 <_malloc_r+0x3d0>
  4035ba:	6863      	ldr	r3, [r4, #4]
  4035bc:	f023 0303 	bic.w	r3, r3, #3
  4035c0:	1b9a      	subs	r2, r3, r6
  4035c2:	2a0f      	cmp	r2, #15
  4035c4:	f300 8190 	bgt.w	4038e8 <_malloc_r+0x3a8>
  4035c8:	2a00      	cmp	r2, #0
  4035ca:	f8c7 e014 	str.w	lr, [r7, #20]
  4035ce:	f8c7 e010 	str.w	lr, [r7, #16]
  4035d2:	f280 809d 	bge.w	403710 <_malloc_r+0x1d0>
  4035d6:	f5b3 7f00 	cmp.w	r3, #512	; 0x200
  4035da:	f080 8161 	bcs.w	4038a0 <_malloc_r+0x360>
  4035de:	08db      	lsrs	r3, r3, #3
  4035e0:	f103 0c01 	add.w	ip, r3, #1
  4035e4:	1099      	asrs	r1, r3, #2
  4035e6:	687a      	ldr	r2, [r7, #4]
  4035e8:	f857 803c 	ldr.w	r8, [r7, ip, lsl #3]
  4035ec:	f8c4 8008 	str.w	r8, [r4, #8]
  4035f0:	2301      	movs	r3, #1
  4035f2:	408b      	lsls	r3, r1
  4035f4:	eb07 01cc 	add.w	r1, r7, ip, lsl #3
  4035f8:	4313      	orrs	r3, r2
  4035fa:	3908      	subs	r1, #8
  4035fc:	60e1      	str	r1, [r4, #12]
  4035fe:	607b      	str	r3, [r7, #4]
  403600:	f847 403c 	str.w	r4, [r7, ip, lsl #3]
  403604:	f8c8 400c 	str.w	r4, [r8, #12]
  403608:	1082      	asrs	r2, r0, #2
  40360a:	2401      	movs	r4, #1
  40360c:	4094      	lsls	r4, r2
  40360e:	429c      	cmp	r4, r3
  403610:	f200 808b 	bhi.w	40372a <_malloc_r+0x1ea>
  403614:	421c      	tst	r4, r3
  403616:	d106      	bne.n	403626 <_malloc_r+0xe6>
  403618:	f020 0003 	bic.w	r0, r0, #3
  40361c:	0064      	lsls	r4, r4, #1
  40361e:	421c      	tst	r4, r3
  403620:	f100 0004 	add.w	r0, r0, #4
  403624:	d0fa      	beq.n	40361c <_malloc_r+0xdc>
  403626:	eb07 09c0 	add.w	r9, r7, r0, lsl #3
  40362a:	46cc      	mov	ip, r9
  40362c:	4680      	mov	r8, r0
  40362e:	f8dc 300c 	ldr.w	r3, [ip, #12]
  403632:	459c      	cmp	ip, r3
  403634:	d107      	bne.n	403646 <_malloc_r+0x106>
  403636:	e16d      	b.n	403914 <_malloc_r+0x3d4>
  403638:	2a00      	cmp	r2, #0
  40363a:	f280 817b 	bge.w	403934 <_malloc_r+0x3f4>
  40363e:	68db      	ldr	r3, [r3, #12]
  403640:	459c      	cmp	ip, r3
  403642:	f000 8167 	beq.w	403914 <_malloc_r+0x3d4>
  403646:	6859      	ldr	r1, [r3, #4]
  403648:	f021 0103 	bic.w	r1, r1, #3
  40364c:	1b8a      	subs	r2, r1, r6
  40364e:	2a0f      	cmp	r2, #15
  403650:	ddf2      	ble.n	403638 <_malloc_r+0xf8>
  403652:	f8d3 c00c 	ldr.w	ip, [r3, #12]
  403656:	f8d3 8008 	ldr.w	r8, [r3, #8]
  40365a:	9300      	str	r3, [sp, #0]
  40365c:	199c      	adds	r4, r3, r6
  40365e:	4628      	mov	r0, r5
  403660:	f046 0601 	orr.w	r6, r6, #1
  403664:	f042 0501 	orr.w	r5, r2, #1
  403668:	605e      	str	r6, [r3, #4]
  40366a:	f8c8 c00c 	str.w	ip, [r8, #12]
  40366e:	f8cc 8008 	str.w	r8, [ip, #8]
  403672:	617c      	str	r4, [r7, #20]
  403674:	613c      	str	r4, [r7, #16]
  403676:	f8c4 e00c 	str.w	lr, [r4, #12]
  40367a:	f8c4 e008 	str.w	lr, [r4, #8]
  40367e:	6065      	str	r5, [r4, #4]
  403680:	505a      	str	r2, [r3, r1]
  403682:	f000 fafb 	bl	403c7c <__malloc_unlock>
  403686:	9b00      	ldr	r3, [sp, #0]
  403688:	f103 0408 	add.w	r4, r3, #8
  40368c:	e01e      	b.n	4036cc <_malloc_r+0x18c>
  40368e:	2910      	cmp	r1, #16
  403690:	d820      	bhi.n	4036d4 <_malloc_r+0x194>
  403692:	f000 faed 	bl	403c70 <__malloc_lock>
  403696:	2610      	movs	r6, #16
  403698:	2318      	movs	r3, #24
  40369a:	2002      	movs	r0, #2
  40369c:	4f79      	ldr	r7, [pc, #484]	; (403884 <_malloc_r+0x344>)
  40369e:	443b      	add	r3, r7
  4036a0:	f1a3 0208 	sub.w	r2, r3, #8
  4036a4:	685c      	ldr	r4, [r3, #4]
  4036a6:	4294      	cmp	r4, r2
  4036a8:	f000 813d 	beq.w	403926 <_malloc_r+0x3e6>
  4036ac:	6863      	ldr	r3, [r4, #4]
  4036ae:	68e1      	ldr	r1, [r4, #12]
  4036b0:	68a6      	ldr	r6, [r4, #8]
  4036b2:	f023 0303 	bic.w	r3, r3, #3
  4036b6:	4423      	add	r3, r4
  4036b8:	4628      	mov	r0, r5
  4036ba:	685a      	ldr	r2, [r3, #4]
  4036bc:	60f1      	str	r1, [r6, #12]
  4036be:	f042 0201 	orr.w	r2, r2, #1
  4036c2:	608e      	str	r6, [r1, #8]
  4036c4:	605a      	str	r2, [r3, #4]
  4036c6:	f000 fad9 	bl	403c7c <__malloc_unlock>
  4036ca:	3408      	adds	r4, #8
  4036cc:	4620      	mov	r0, r4
  4036ce:	b003      	add	sp, #12
  4036d0:	e8bd 8ff0 	ldmia.w	sp!, {r4, r5, r6, r7, r8, r9, sl, fp, pc}
  4036d4:	2400      	movs	r4, #0
  4036d6:	230c      	movs	r3, #12
  4036d8:	4620      	mov	r0, r4
  4036da:	602b      	str	r3, [r5, #0]
  4036dc:	b003      	add	sp, #12
  4036de:	e8bd 8ff0 	ldmia.w	sp!, {r4, r5, r6, r7, r8, r9, sl, fp, pc}
  4036e2:	2040      	movs	r0, #64	; 0x40
  4036e4:	f44f 7300 	mov.w	r3, #512	; 0x200
  4036e8:	f04f 0e3f 	mov.w	lr, #63	; 0x3f
  4036ec:	e74a      	b.n	403584 <_malloc_r+0x44>
  4036ee:	4423      	add	r3, r4
  4036f0:	68e1      	ldr	r1, [r4, #12]
  4036f2:	685a      	ldr	r2, [r3, #4]
  4036f4:	68a6      	ldr	r6, [r4, #8]
  4036f6:	f042 0201 	orr.w	r2, r2, #1
  4036fa:	60f1      	str	r1, [r6, #12]
  4036fc:	4628      	mov	r0, r5
  4036fe:	608e      	str	r6, [r1, #8]
  403700:	605a      	str	r2, [r3, #4]
  403702:	f000 fabb 	bl	403c7c <__malloc_unlock>
  403706:	3408      	adds	r4, #8
  403708:	4620      	mov	r0, r4
  40370a:	b003      	add	sp, #12
  40370c:	e8bd 8ff0 	ldmia.w	sp!, {r4, r5, r6, r7, r8, r9, sl, fp, pc}
  403710:	4423      	add	r3, r4
  403712:	4628      	mov	r0, r5
  403714:	685a      	ldr	r2, [r3, #4]
  403716:	f042 0201 	orr.w	r2, r2, #1
  40371a:	605a      	str	r2, [r3, #4]
  40371c:	f000 faae 	bl	403c7c <__malloc_unlock>
  403720:	3408      	adds	r4, #8
  403722:	4620      	mov	r0, r4
  403724:	b003      	add	sp, #12
  403726:	e8bd 8ff0 	ldmia.w	sp!, {r4, r5, r6, r7, r8, r9, sl, fp, pc}
  40372a:	68bc      	ldr	r4, [r7, #8]
  40372c:	6863      	ldr	r3, [r4, #4]
  40372e:	f023 0803 	bic.w	r8, r3, #3
  403732:	45b0      	cmp	r8, r6
  403734:	d304      	bcc.n	403740 <_malloc_r+0x200>
  403736:	eba8 0306 	sub.w	r3, r8, r6
  40373a:	2b0f      	cmp	r3, #15
  40373c:	f300 8085 	bgt.w	40384a <_malloc_r+0x30a>
  403740:	f8df 9158 	ldr.w	r9, [pc, #344]	; 40389c <_malloc_r+0x35c>
  403744:	4b50      	ldr	r3, [pc, #320]	; (403888 <_malloc_r+0x348>)
  403746:	f8d9 2000 	ldr.w	r2, [r9]
  40374a:	681b      	ldr	r3, [r3, #0]
  40374c:	3201      	adds	r2, #1
  40374e:	4433      	add	r3, r6
  403750:	eb04 0a08 	add.w	sl, r4, r8
  403754:	f000 8155 	beq.w	403a02 <_malloc_r+0x4c2>
  403758:	f503 5380 	add.w	r3, r3, #4096	; 0x1000
  40375c:	330f      	adds	r3, #15
  40375e:	f423 6b7f 	bic.w	fp, r3, #4080	; 0xff0
  403762:	f02b 0b0f 	bic.w	fp, fp, #15
  403766:	4659      	mov	r1, fp
  403768:	4628      	mov	r0, r5
  40376a:	f000 fa8d 	bl	403c88 <_sbrk_r>
  40376e:	1c41      	adds	r1, r0, #1
  403770:	4602      	mov	r2, r0
  403772:	f000 80fc 	beq.w	40396e <_malloc_r+0x42e>
  403776:	4582      	cmp	sl, r0
  403778:	f200 80f7 	bhi.w	40396a <_malloc_r+0x42a>
  40377c:	4b43      	ldr	r3, [pc, #268]	; (40388c <_malloc_r+0x34c>)
  40377e:	6819      	ldr	r1, [r3, #0]
  403780:	4459      	add	r1, fp
  403782:	6019      	str	r1, [r3, #0]
  403784:	f000 814d 	beq.w	403a22 <_malloc_r+0x4e2>
  403788:	f8d9 0000 	ldr.w	r0, [r9]
  40378c:	3001      	adds	r0, #1
  40378e:	bf1b      	ittet	ne
  403790:	eba2 0a0a 	subne.w	sl, r2, sl
  403794:	4451      	addne	r1, sl
  403796:	f8c9 2000 	streq.w	r2, [r9]
  40379a:	6019      	strne	r1, [r3, #0]
  40379c:	f012 0107 	ands.w	r1, r2, #7
  4037a0:	f000 8115 	beq.w	4039ce <_malloc_r+0x48e>
  4037a4:	f1c1 0008 	rsb	r0, r1, #8
  4037a8:	f5c1 5180 	rsb	r1, r1, #4096	; 0x1000
  4037ac:	4402      	add	r2, r0
  4037ae:	3108      	adds	r1, #8
  4037b0:	eb02 090b 	add.w	r9, r2, fp
  4037b4:	f3c9 090b 	ubfx	r9, r9, #0, #12
  4037b8:	eba1 0909 	sub.w	r9, r1, r9
  4037bc:	4649      	mov	r1, r9
  4037be:	4628      	mov	r0, r5
  4037c0:	9301      	str	r3, [sp, #4]
  4037c2:	9200      	str	r2, [sp, #0]
  4037c4:	f000 fa60 	bl	403c88 <_sbrk_r>
  4037c8:	1c43      	adds	r3, r0, #1
  4037ca:	e89d 000c 	ldmia.w	sp, {r2, r3}
  4037ce:	f000 8143 	beq.w	403a58 <_malloc_r+0x518>
  4037d2:	1a80      	subs	r0, r0, r2
  4037d4:	4448      	add	r0, r9
  4037d6:	f040 0001 	orr.w	r0, r0, #1
  4037da:	6819      	ldr	r1, [r3, #0]
  4037dc:	60ba      	str	r2, [r7, #8]
  4037de:	4449      	add	r1, r9
  4037e0:	42bc      	cmp	r4, r7
  4037e2:	6050      	str	r0, [r2, #4]
  4037e4:	6019      	str	r1, [r3, #0]
  4037e6:	d017      	beq.n	403818 <_malloc_r+0x2d8>
  4037e8:	f1b8 0f0f 	cmp.w	r8, #15
  4037ec:	f240 80fb 	bls.w	4039e6 <_malloc_r+0x4a6>
  4037f0:	6860      	ldr	r0, [r4, #4]
  4037f2:	f1a8 020c 	sub.w	r2, r8, #12
  4037f6:	f022 0207 	bic.w	r2, r2, #7
  4037fa:	eb04 0e02 	add.w	lr, r4, r2
  4037fe:	f000 0001 	and.w	r0, r0, #1
  403802:	f04f 0c05 	mov.w	ip, #5
  403806:	4310      	orrs	r0, r2
  403808:	2a0f      	cmp	r2, #15
  40380a:	6060      	str	r0, [r4, #4]
  40380c:	f8ce c004 	str.w	ip, [lr, #4]
  403810:	f8ce c008 	str.w	ip, [lr, #8]
  403814:	f200 8117 	bhi.w	403a46 <_malloc_r+0x506>
  403818:	4b1d      	ldr	r3, [pc, #116]	; (403890 <_malloc_r+0x350>)
  40381a:	68bc      	ldr	r4, [r7, #8]
  40381c:	681a      	ldr	r2, [r3, #0]
  40381e:	4291      	cmp	r1, r2
  403820:	bf88      	it	hi
  403822:	6019      	strhi	r1, [r3, #0]
  403824:	4b1b      	ldr	r3, [pc, #108]	; (403894 <_malloc_r+0x354>)
  403826:	681a      	ldr	r2, [r3, #0]
  403828:	4291      	cmp	r1, r2
  40382a:	6862      	ldr	r2, [r4, #4]
  40382c:	bf88      	it	hi
  40382e:	6019      	strhi	r1, [r3, #0]
  403830:	f022 0203 	bic.w	r2, r2, #3
  403834:	4296      	cmp	r6, r2
  403836:	eba2 0306 	sub.w	r3, r2, r6
  40383a:	d801      	bhi.n	403840 <_malloc_r+0x300>
  40383c:	2b0f      	cmp	r3, #15
  40383e:	dc04      	bgt.n	40384a <_malloc_r+0x30a>
  403840:	4628      	mov	r0, r5
  403842:	f000 fa1b 	bl	403c7c <__malloc_unlock>
  403846:	2400      	movs	r4, #0
  403848:	e740      	b.n	4036cc <_malloc_r+0x18c>
  40384a:	19a2      	adds	r2, r4, r6
  40384c:	f043 0301 	orr.w	r3, r3, #1
  403850:	f046 0601 	orr.w	r6, r6, #1
  403854:	6066      	str	r6, [r4, #4]
  403856:	4628      	mov	r0, r5
  403858:	60ba      	str	r2, [r7, #8]
  40385a:	6053      	str	r3, [r2, #4]
  40385c:	f000 fa0e 	bl	403c7c <__malloc_unlock>
  403860:	3408      	adds	r4, #8
  403862:	4620      	mov	r0, r4
  403864:	b003      	add	sp, #12
  403866:	e8bd 8ff0 	ldmia.w	sp!, {r4, r5, r6, r7, r8, r9, sl, fp, pc}
  40386a:	2b14      	cmp	r3, #20
  40386c:	d971      	bls.n	403952 <_malloc_r+0x412>
  40386e:	2b54      	cmp	r3, #84	; 0x54
  403870:	f200 80a3 	bhi.w	4039ba <_malloc_r+0x47a>
  403874:	0b33      	lsrs	r3, r6, #12
  403876:	f103 006f 	add.w	r0, r3, #111	; 0x6f
  40387a:	f103 0e6e 	add.w	lr, r3, #110	; 0x6e
  40387e:	00c3      	lsls	r3, r0, #3
  403880:	e680      	b.n	403584 <_malloc_r+0x44>
  403882:	bf00      	nop
  403884:	20400490 	.word	0x20400490
  403888:	20454030 	.word	0x20454030
  40388c:	20454000 	.word	0x20454000
  403890:	20454028 	.word	0x20454028
  403894:	2045402c 	.word	0x2045402c
  403898:	20400498 	.word	0x20400498
  40389c:	20400898 	.word	0x20400898
  4038a0:	0a5a      	lsrs	r2, r3, #9
  4038a2:	2a04      	cmp	r2, #4
  4038a4:	d95b      	bls.n	40395e <_malloc_r+0x41e>
  4038a6:	2a14      	cmp	r2, #20
  4038a8:	f200 80ae 	bhi.w	403a08 <_malloc_r+0x4c8>
  4038ac:	f102 015c 	add.w	r1, r2, #92	; 0x5c
  4038b0:	00c9      	lsls	r1, r1, #3
  4038b2:	325b      	adds	r2, #91	; 0x5b
  4038b4:	eb07 0c01 	add.w	ip, r7, r1
  4038b8:	5879      	ldr	r1, [r7, r1]
  4038ba:	f1ac 0c08 	sub.w	ip, ip, #8
  4038be:	458c      	cmp	ip, r1
  4038c0:	f000 8088 	beq.w	4039d4 <_malloc_r+0x494>
  4038c4:	684a      	ldr	r2, [r1, #4]
  4038c6:	f022 0203 	bic.w	r2, r2, #3
  4038ca:	4293      	cmp	r3, r2
  4038cc:	d273      	bcs.n	4039b6 <_malloc_r+0x476>
  4038ce:	6889      	ldr	r1, [r1, #8]
  4038d0:	458c      	cmp	ip, r1
  4038d2:	d1f7      	bne.n	4038c4 <_malloc_r+0x384>
  4038d4:	f8dc 200c 	ldr.w	r2, [ip, #12]
  4038d8:	687b      	ldr	r3, [r7, #4]
  4038da:	60e2      	str	r2, [r4, #12]
  4038dc:	f8c4 c008 	str.w	ip, [r4, #8]
  4038e0:	6094      	str	r4, [r2, #8]
  4038e2:	f8cc 400c 	str.w	r4, [ip, #12]
  4038e6:	e68f      	b.n	403608 <_malloc_r+0xc8>
  4038e8:	19a1      	adds	r1, r4, r6
  4038ea:	f046 0c01 	orr.w	ip, r6, #1
  4038ee:	f042 0601 	orr.w	r6, r2, #1
  4038f2:	f8c4 c004 	str.w	ip, [r4, #4]
  4038f6:	4628      	mov	r0, r5
  4038f8:	6179      	str	r1, [r7, #20]
  4038fa:	6139      	str	r1, [r7, #16]
  4038fc:	f8c1 e00c 	str.w	lr, [r1, #12]
  403900:	f8c1 e008 	str.w	lr, [r1, #8]
  403904:	604e      	str	r6, [r1, #4]
  403906:	50e2      	str	r2, [r4, r3]
  403908:	f000 f9b8 	bl	403c7c <__malloc_unlock>
  40390c:	3408      	adds	r4, #8
  40390e:	e6dd      	b.n	4036cc <_malloc_r+0x18c>
  403910:	687b      	ldr	r3, [r7, #4]
  403912:	e679      	b.n	403608 <_malloc_r+0xc8>
  403914:	f108 0801 	add.w	r8, r8, #1
  403918:	f018 0f03 	tst.w	r8, #3
  40391c:	f10c 0c08 	add.w	ip, ip, #8
  403920:	f47f ae85 	bne.w	40362e <_malloc_r+0xee>
  403924:	e02d      	b.n	403982 <_malloc_r+0x442>
  403926:	68dc      	ldr	r4, [r3, #12]
  403928:	42a3      	cmp	r3, r4
  40392a:	bf08      	it	eq
  40392c:	3002      	addeq	r0, #2
  40392e:	f43f ae3e 	beq.w	4035ae <_malloc_r+0x6e>
  403932:	e6bb      	b.n	4036ac <_malloc_r+0x16c>
  403934:	4419      	add	r1, r3
  403936:	461c      	mov	r4, r3
  403938:	684a      	ldr	r2, [r1, #4]
  40393a:	68db      	ldr	r3, [r3, #12]
  40393c:	f854 6f08 	ldr.w	r6, [r4, #8]!
  403940:	f042 0201 	orr.w	r2, r2, #1
  403944:	604a      	str	r2, [r1, #4]
  403946:	4628      	mov	r0, r5
  403948:	60f3      	str	r3, [r6, #12]
  40394a:	609e      	str	r6, [r3, #8]
  40394c:	f000 f996 	bl	403c7c <__malloc_unlock>
  403950:	e6bc      	b.n	4036cc <_malloc_r+0x18c>
  403952:	f103 005c 	add.w	r0, r3, #92	; 0x5c
  403956:	f103 0e5b 	add.w	lr, r3, #91	; 0x5b
  40395a:	00c3      	lsls	r3, r0, #3
  40395c:	e612      	b.n	403584 <_malloc_r+0x44>
  40395e:	099a      	lsrs	r2, r3, #6
  403960:	f102 0139 	add.w	r1, r2, #57	; 0x39
  403964:	00c9      	lsls	r1, r1, #3
  403966:	3238      	adds	r2, #56	; 0x38
  403968:	e7a4      	b.n	4038b4 <_malloc_r+0x374>
  40396a:	42bc      	cmp	r4, r7
  40396c:	d054      	beq.n	403a18 <_malloc_r+0x4d8>
  40396e:	68bc      	ldr	r4, [r7, #8]
  403970:	6862      	ldr	r2, [r4, #4]
  403972:	f022 0203 	bic.w	r2, r2, #3
  403976:	e75d      	b.n	403834 <_malloc_r+0x2f4>
  403978:	f859 3908 	ldr.w	r3, [r9], #-8
  40397c:	4599      	cmp	r9, r3
  40397e:	f040 8086 	bne.w	403a8e <_malloc_r+0x54e>
  403982:	f010 0f03 	tst.w	r0, #3
  403986:	f100 30ff 	add.w	r0, r0, #4294967295
  40398a:	d1f5      	bne.n	403978 <_malloc_r+0x438>
  40398c:	687b      	ldr	r3, [r7, #4]
  40398e:	ea23 0304 	bic.w	r3, r3, r4
  403992:	607b      	str	r3, [r7, #4]
  403994:	0064      	lsls	r4, r4, #1
  403996:	429c      	cmp	r4, r3
  403998:	f63f aec7 	bhi.w	40372a <_malloc_r+0x1ea>
  40399c:	2c00      	cmp	r4, #0
  40399e:	f43f aec4 	beq.w	40372a <_malloc_r+0x1ea>
  4039a2:	421c      	tst	r4, r3
  4039a4:	4640      	mov	r0, r8
  4039a6:	f47f ae3e 	bne.w	403626 <_malloc_r+0xe6>
  4039aa:	0064      	lsls	r4, r4, #1
  4039ac:	421c      	tst	r4, r3
  4039ae:	f100 0004 	add.w	r0, r0, #4
  4039b2:	d0fa      	beq.n	4039aa <_malloc_r+0x46a>
  4039b4:	e637      	b.n	403626 <_malloc_r+0xe6>
  4039b6:	468c      	mov	ip, r1
  4039b8:	e78c      	b.n	4038d4 <_malloc_r+0x394>
  4039ba:	f5b3 7faa 	cmp.w	r3, #340	; 0x154
  4039be:	d815      	bhi.n	4039ec <_malloc_r+0x4ac>
  4039c0:	0bf3      	lsrs	r3, r6, #15
  4039c2:	f103 0078 	add.w	r0, r3, #120	; 0x78
  4039c6:	f103 0e77 	add.w	lr, r3, #119	; 0x77
  4039ca:	00c3      	lsls	r3, r0, #3
  4039cc:	e5da      	b.n	403584 <_malloc_r+0x44>
  4039ce:	f44f 5180 	mov.w	r1, #4096	; 0x1000
  4039d2:	e6ed      	b.n	4037b0 <_malloc_r+0x270>
  4039d4:	687b      	ldr	r3, [r7, #4]
  4039d6:	1092      	asrs	r2, r2, #2
  4039d8:	2101      	movs	r1, #1
  4039da:	fa01 f202 	lsl.w	r2, r1, r2
  4039de:	4313      	orrs	r3, r2
  4039e0:	607b      	str	r3, [r7, #4]
  4039e2:	4662      	mov	r2, ip
  4039e4:	e779      	b.n	4038da <_malloc_r+0x39a>
  4039e6:	2301      	movs	r3, #1
  4039e8:	6053      	str	r3, [r2, #4]
  4039ea:	e729      	b.n	403840 <_malloc_r+0x300>
  4039ec:	f240 5254 	movw	r2, #1364	; 0x554
  4039f0:	4293      	cmp	r3, r2
  4039f2:	d822      	bhi.n	403a3a <_malloc_r+0x4fa>
  4039f4:	0cb3      	lsrs	r3, r6, #18
  4039f6:	f103 007d 	add.w	r0, r3, #125	; 0x7d
  4039fa:	f103 0e7c 	add.w	lr, r3, #124	; 0x7c
  4039fe:	00c3      	lsls	r3, r0, #3
  403a00:	e5c0      	b.n	403584 <_malloc_r+0x44>
  403a02:	f103 0b10 	add.w	fp, r3, #16
  403a06:	e6ae      	b.n	403766 <_malloc_r+0x226>
  403a08:	2a54      	cmp	r2, #84	; 0x54
  403a0a:	d829      	bhi.n	403a60 <_malloc_r+0x520>
  403a0c:	0b1a      	lsrs	r2, r3, #12
  403a0e:	f102 016f 	add.w	r1, r2, #111	; 0x6f
  403a12:	00c9      	lsls	r1, r1, #3
  403a14:	326e      	adds	r2, #110	; 0x6e
  403a16:	e74d      	b.n	4038b4 <_malloc_r+0x374>
  403a18:	4b20      	ldr	r3, [pc, #128]	; (403a9c <_malloc_r+0x55c>)
  403a1a:	6819      	ldr	r1, [r3, #0]
  403a1c:	4459      	add	r1, fp
  403a1e:	6019      	str	r1, [r3, #0]
  403a20:	e6b2      	b.n	403788 <_malloc_r+0x248>
  403a22:	f3ca 000b 	ubfx	r0, sl, #0, #12
  403a26:	2800      	cmp	r0, #0
  403a28:	f47f aeae 	bne.w	403788 <_malloc_r+0x248>
  403a2c:	eb08 030b 	add.w	r3, r8, fp
  403a30:	68ba      	ldr	r2, [r7, #8]
  403a32:	f043 0301 	orr.w	r3, r3, #1
  403a36:	6053      	str	r3, [r2, #4]
  403a38:	e6ee      	b.n	403818 <_malloc_r+0x2d8>
  403a3a:	207f      	movs	r0, #127	; 0x7f
  403a3c:	f44f 737e 	mov.w	r3, #1016	; 0x3f8
  403a40:	f04f 0e7e 	mov.w	lr, #126	; 0x7e
  403a44:	e59e      	b.n	403584 <_malloc_r+0x44>
  403a46:	f104 0108 	add.w	r1, r4, #8
  403a4a:	4628      	mov	r0, r5
  403a4c:	9300      	str	r3, [sp, #0]
  403a4e:	f001 fa89 	bl	404f64 <_free_r>
  403a52:	9b00      	ldr	r3, [sp, #0]
  403a54:	6819      	ldr	r1, [r3, #0]
  403a56:	e6df      	b.n	403818 <_malloc_r+0x2d8>
  403a58:	2001      	movs	r0, #1
  403a5a:	f04f 0900 	mov.w	r9, #0
  403a5e:	e6bc      	b.n	4037da <_malloc_r+0x29a>
  403a60:	f5b2 7faa 	cmp.w	r2, #340	; 0x154
  403a64:	d805      	bhi.n	403a72 <_malloc_r+0x532>
  403a66:	0bda      	lsrs	r2, r3, #15
  403a68:	f102 0178 	add.w	r1, r2, #120	; 0x78
  403a6c:	00c9      	lsls	r1, r1, #3
  403a6e:	3277      	adds	r2, #119	; 0x77
  403a70:	e720      	b.n	4038b4 <_malloc_r+0x374>
  403a72:	f240 5154 	movw	r1, #1364	; 0x554
  403a76:	428a      	cmp	r2, r1
  403a78:	d805      	bhi.n	403a86 <_malloc_r+0x546>
  403a7a:	0c9a      	lsrs	r2, r3, #18
  403a7c:	f102 017d 	add.w	r1, r2, #125	; 0x7d
  403a80:	00c9      	lsls	r1, r1, #3
  403a82:	327c      	adds	r2, #124	; 0x7c
  403a84:	e716      	b.n	4038b4 <_malloc_r+0x374>
  403a86:	f44f 717e 	mov.w	r1, #1016	; 0x3f8
  403a8a:	227e      	movs	r2, #126	; 0x7e
  403a8c:	e712      	b.n	4038b4 <_malloc_r+0x374>
  403a8e:	687b      	ldr	r3, [r7, #4]
  403a90:	e780      	b.n	403994 <_malloc_r+0x454>
  403a92:	08f0      	lsrs	r0, r6, #3
  403a94:	f106 0308 	add.w	r3, r6, #8
  403a98:	e600      	b.n	40369c <_malloc_r+0x15c>
  403a9a:	bf00      	nop
  403a9c:	20454000 	.word	0x20454000

00403aa0 <memcpy>:
  403aa0:	4684      	mov	ip, r0
  403aa2:	ea41 0300 	orr.w	r3, r1, r0
  403aa6:	f013 0303 	ands.w	r3, r3, #3
  403aaa:	d16d      	bne.n	403b88 <memcpy+0xe8>
  403aac:	3a40      	subs	r2, #64	; 0x40
  403aae:	d341      	bcc.n	403b34 <memcpy+0x94>
  403ab0:	f851 3b04 	ldr.w	r3, [r1], #4
  403ab4:	f840 3b04 	str.w	r3, [r0], #4
  403ab8:	f851 3b04 	ldr.w	r3, [r1], #4
  403abc:	f840 3b04 	str.w	r3, [r0], #4
  403ac0:	f851 3b04 	ldr.w	r3, [r1], #4
  403ac4:	f840 3b04 	str.w	r3, [r0], #4
  403ac8:	f851 3b04 	ldr.w	r3, [r1], #4
  403acc:	f840 3b04 	str.w	r3, [r0], #4
  403ad0:	f851 3b04 	ldr.w	r3, [r1], #4
  403ad4:	f840 3b04 	str.w	r3, [r0], #4
  403ad8:	f851 3b04 	ldr.w	r3, [r1], #4
  403adc:	f840 3b04 	str.w	r3, [r0], #4
  403ae0:	f851 3b04 	ldr.w	r3, [r1], #4
  403ae4:	f840 3b04 	str.w	r3, [r0], #4
  403ae8:	f851 3b04 	ldr.w	r3, [r1], #4
  403aec:	f840 3b04 	str.w	r3, [r0], #4
  403af0:	f851 3b04 	ldr.w	r3, [r1], #4
  403af4:	f840 3b04 	str.w	r3, [r0], #4
  403af8:	f851 3b04 	ldr.w	r3, [r1], #4
  403afc:	f840 3b04 	str.w	r3, [r0], #4
  403b00:	f851 3b04 	ldr.w	r3, [r1], #4
  403b04:	f840 3b04 	str.w	r3, [r0], #4
  403b08:	f851 3b04 	ldr.w	r3, [r1], #4
  403b0c:	f840 3b04 	str.w	r3, [r0], #4
  403b10:	f851 3b04 	ldr.w	r3, [r1], #4
  403b14:	f840 3b04 	str.w	r3, [r0], #4
  403b18:	f851 3b04 	ldr.w	r3, [r1], #4
  403b1c:	f840 3b04 	str.w	r3, [r0], #4
  403b20:	f851 3b04 	ldr.w	r3, [r1], #4
  403b24:	f840 3b04 	str.w	r3, [r0], #4
  403b28:	f851 3b04 	ldr.w	r3, [r1], #4
  403b2c:	f840 3b04 	str.w	r3, [r0], #4
  403b30:	3a40      	subs	r2, #64	; 0x40
  403b32:	d2bd      	bcs.n	403ab0 <memcpy+0x10>
  403b34:	3230      	adds	r2, #48	; 0x30
  403b36:	d311      	bcc.n	403b5c <memcpy+0xbc>
  403b38:	f851 3b04 	ldr.w	r3, [r1], #4
  403b3c:	f840 3b04 	str.w	r3, [r0], #4
  403b40:	f851 3b04 	ldr.w	r3, [r1], #4
  403b44:	f840 3b04 	str.w	r3, [r0], #4
  403b48:	f851 3b04 	ldr.w	r3, [r1], #4
  403b4c:	f840 3b04 	str.w	r3, [r0], #4
  403b50:	f851 3b04 	ldr.w	r3, [r1], #4
  403b54:	f840 3b04 	str.w	r3, [r0], #4
  403b58:	3a10      	subs	r2, #16
  403b5a:	d2ed      	bcs.n	403b38 <memcpy+0x98>
  403b5c:	320c      	adds	r2, #12
  403b5e:	d305      	bcc.n	403b6c <memcpy+0xcc>
  403b60:	f851 3b04 	ldr.w	r3, [r1], #4
  403b64:	f840 3b04 	str.w	r3, [r0], #4
  403b68:	3a04      	subs	r2, #4
  403b6a:	d2f9      	bcs.n	403b60 <memcpy+0xc0>
  403b6c:	3204      	adds	r2, #4
  403b6e:	d008      	beq.n	403b82 <memcpy+0xe2>
  403b70:	07d2      	lsls	r2, r2, #31
  403b72:	bf1c      	itt	ne
  403b74:	f811 3b01 	ldrbne.w	r3, [r1], #1
  403b78:	f800 3b01 	strbne.w	r3, [r0], #1
  403b7c:	d301      	bcc.n	403b82 <memcpy+0xe2>
  403b7e:	880b      	ldrh	r3, [r1, #0]
  403b80:	8003      	strh	r3, [r0, #0]
  403b82:	4660      	mov	r0, ip
  403b84:	4770      	bx	lr
  403b86:	bf00      	nop
  403b88:	2a08      	cmp	r2, #8
  403b8a:	d313      	bcc.n	403bb4 <memcpy+0x114>
  403b8c:	078b      	lsls	r3, r1, #30
  403b8e:	d08d      	beq.n	403aac <memcpy+0xc>
  403b90:	f010 0303 	ands.w	r3, r0, #3
  403b94:	d08a      	beq.n	403aac <memcpy+0xc>
  403b96:	f1c3 0304 	rsb	r3, r3, #4
  403b9a:	1ad2      	subs	r2, r2, r3
  403b9c:	07db      	lsls	r3, r3, #31
  403b9e:	bf1c      	itt	ne
  403ba0:	f811 3b01 	ldrbne.w	r3, [r1], #1
  403ba4:	f800 3b01 	strbne.w	r3, [r0], #1
  403ba8:	d380      	bcc.n	403aac <memcpy+0xc>
  403baa:	f831 3b02 	ldrh.w	r3, [r1], #2
  403bae:	f820 3b02 	strh.w	r3, [r0], #2
  403bb2:	e77b      	b.n	403aac <memcpy+0xc>
  403bb4:	3a04      	subs	r2, #4
  403bb6:	d3d9      	bcc.n	403b6c <memcpy+0xcc>
  403bb8:	3a01      	subs	r2, #1
  403bba:	f811 3b01 	ldrb.w	r3, [r1], #1
  403bbe:	f800 3b01 	strb.w	r3, [r0], #1
  403bc2:	d2f9      	bcs.n	403bb8 <memcpy+0x118>
  403bc4:	780b      	ldrb	r3, [r1, #0]
  403bc6:	7003      	strb	r3, [r0, #0]
  403bc8:	784b      	ldrb	r3, [r1, #1]
  403bca:	7043      	strb	r3, [r0, #1]
  403bcc:	788b      	ldrb	r3, [r1, #2]
  403bce:	7083      	strb	r3, [r0, #2]
  403bd0:	4660      	mov	r0, ip
  403bd2:	4770      	bx	lr

00403bd4 <memset>:
  403bd4:	b470      	push	{r4, r5, r6}
  403bd6:	0786      	lsls	r6, r0, #30
  403bd8:	d046      	beq.n	403c68 <memset+0x94>
  403bda:	1e54      	subs	r4, r2, #1
  403bdc:	2a00      	cmp	r2, #0
  403bde:	d041      	beq.n	403c64 <memset+0x90>
  403be0:	b2ca      	uxtb	r2, r1
  403be2:	4603      	mov	r3, r0
  403be4:	e002      	b.n	403bec <memset+0x18>
  403be6:	f114 34ff 	adds.w	r4, r4, #4294967295
  403bea:	d33b      	bcc.n	403c64 <memset+0x90>
  403bec:	f803 2b01 	strb.w	r2, [r3], #1
  403bf0:	079d      	lsls	r5, r3, #30
  403bf2:	d1f8      	bne.n	403be6 <memset+0x12>
  403bf4:	2c03      	cmp	r4, #3
  403bf6:	d92e      	bls.n	403c56 <memset+0x82>
  403bf8:	b2cd      	uxtb	r5, r1
  403bfa:	ea45 2505 	orr.w	r5, r5, r5, lsl #8
  403bfe:	2c0f      	cmp	r4, #15
  403c00:	ea45 4505 	orr.w	r5, r5, r5, lsl #16
  403c04:	d919      	bls.n	403c3a <memset+0x66>
  403c06:	f103 0210 	add.w	r2, r3, #16
  403c0a:	4626      	mov	r6, r4
  403c0c:	3e10      	subs	r6, #16
  403c0e:	2e0f      	cmp	r6, #15
  403c10:	f842 5c10 	str.w	r5, [r2, #-16]
  403c14:	f842 5c0c 	str.w	r5, [r2, #-12]
  403c18:	f842 5c08 	str.w	r5, [r2, #-8]
  403c1c:	f842 5c04 	str.w	r5, [r2, #-4]
  403c20:	f102 0210 	add.w	r2, r2, #16
  403c24:	d8f2      	bhi.n	403c0c <memset+0x38>
  403c26:	f1a4 0210 	sub.w	r2, r4, #16
  403c2a:	f022 020f 	bic.w	r2, r2, #15
  403c2e:	f004 040f 	and.w	r4, r4, #15
  403c32:	3210      	adds	r2, #16
  403c34:	2c03      	cmp	r4, #3
  403c36:	4413      	add	r3, r2
  403c38:	d90d      	bls.n	403c56 <memset+0x82>
  403c3a:	461e      	mov	r6, r3
  403c3c:	4622      	mov	r2, r4
  403c3e:	3a04      	subs	r2, #4
  403c40:	2a03      	cmp	r2, #3
  403c42:	f846 5b04 	str.w	r5, [r6], #4
  403c46:	d8fa      	bhi.n	403c3e <memset+0x6a>
  403c48:	1f22      	subs	r2, r4, #4
  403c4a:	f022 0203 	bic.w	r2, r2, #3
  403c4e:	3204      	adds	r2, #4
  403c50:	4413      	add	r3, r2
  403c52:	f004 0403 	and.w	r4, r4, #3
  403c56:	b12c      	cbz	r4, 403c64 <memset+0x90>
  403c58:	b2c9      	uxtb	r1, r1
  403c5a:	441c      	add	r4, r3
  403c5c:	f803 1b01 	strb.w	r1, [r3], #1
  403c60:	429c      	cmp	r4, r3
  403c62:	d1fb      	bne.n	403c5c <memset+0x88>
  403c64:	bc70      	pop	{r4, r5, r6}
  403c66:	4770      	bx	lr
  403c68:	4614      	mov	r4, r2
  403c6a:	4603      	mov	r3, r0
  403c6c:	e7c2      	b.n	403bf4 <memset+0x20>
  403c6e:	bf00      	nop

00403c70 <__malloc_lock>:
  403c70:	4801      	ldr	r0, [pc, #4]	; (403c78 <__malloc_lock+0x8>)
  403c72:	f001 bc11 	b.w	405498 <__retarget_lock_acquire_recursive>
  403c76:	bf00      	nop
  403c78:	2045a8d0 	.word	0x2045a8d0

00403c7c <__malloc_unlock>:
  403c7c:	4801      	ldr	r0, [pc, #4]	; (403c84 <__malloc_unlock+0x8>)
  403c7e:	f001 bc0d 	b.w	40549c <__retarget_lock_release_recursive>
  403c82:	bf00      	nop
  403c84:	2045a8d0 	.word	0x2045a8d0

00403c88 <_sbrk_r>:
  403c88:	b538      	push	{r3, r4, r5, lr}
  403c8a:	4c07      	ldr	r4, [pc, #28]	; (403ca8 <_sbrk_r+0x20>)
  403c8c:	2300      	movs	r3, #0
  403c8e:	4605      	mov	r5, r0
  403c90:	4608      	mov	r0, r1
  403c92:	6023      	str	r3, [r4, #0]
  403c94:	f7fe fcee 	bl	402674 <_sbrk>
  403c98:	1c43      	adds	r3, r0, #1
  403c9a:	d000      	beq.n	403c9e <_sbrk_r+0x16>
  403c9c:	bd38      	pop	{r3, r4, r5, pc}
  403c9e:	6823      	ldr	r3, [r4, #0]
  403ca0:	2b00      	cmp	r3, #0
  403ca2:	d0fb      	beq.n	403c9c <_sbrk_r+0x14>
  403ca4:	602b      	str	r3, [r5, #0]
  403ca6:	bd38      	pop	{r3, r4, r5, pc}
  403ca8:	2045a8e4 	.word	0x2045a8e4

00403cac <__sprint_r.part.0>:
  403cac:	e92d 4ff8 	stmdb	sp!, {r3, r4, r5, r6, r7, r8, r9, sl, fp, lr}
  403cb0:	6e4b      	ldr	r3, [r1, #100]	; 0x64
  403cb2:	049c      	lsls	r4, r3, #18
  403cb4:	4693      	mov	fp, r2
  403cb6:	d52f      	bpl.n	403d18 <__sprint_r.part.0+0x6c>
  403cb8:	6893      	ldr	r3, [r2, #8]
  403cba:	6812      	ldr	r2, [r2, #0]
  403cbc:	b353      	cbz	r3, 403d14 <__sprint_r.part.0+0x68>
  403cbe:	460e      	mov	r6, r1
  403cc0:	4607      	mov	r7, r0
  403cc2:	f102 0908 	add.w	r9, r2, #8
  403cc6:	e919 0420 	ldmdb	r9, {r5, sl}
  403cca:	ea5f 089a 	movs.w	r8, sl, lsr #2
  403cce:	d017      	beq.n	403d00 <__sprint_r.part.0+0x54>
  403cd0:	3d04      	subs	r5, #4
  403cd2:	2400      	movs	r4, #0
  403cd4:	e001      	b.n	403cda <__sprint_r.part.0+0x2e>
  403cd6:	45a0      	cmp	r8, r4
  403cd8:	d010      	beq.n	403cfc <__sprint_r.part.0+0x50>
  403cda:	4632      	mov	r2, r6
  403cdc:	f855 1f04 	ldr.w	r1, [r5, #4]!
  403ce0:	4638      	mov	r0, r7
  403ce2:	f001 f8bb 	bl	404e5c <_fputwc_r>
  403ce6:	1c43      	adds	r3, r0, #1
  403ce8:	f104 0401 	add.w	r4, r4, #1
  403cec:	d1f3      	bne.n	403cd6 <__sprint_r.part.0+0x2a>
  403cee:	2300      	movs	r3, #0
  403cf0:	f8cb 3008 	str.w	r3, [fp, #8]
  403cf4:	f8cb 3004 	str.w	r3, [fp, #4]
  403cf8:	e8bd 8ff8 	ldmia.w	sp!, {r3, r4, r5, r6, r7, r8, r9, sl, fp, pc}
  403cfc:	f8db 3008 	ldr.w	r3, [fp, #8]
  403d00:	f02a 0a03 	bic.w	sl, sl, #3
  403d04:	eba3 030a 	sub.w	r3, r3, sl
  403d08:	f8cb 3008 	str.w	r3, [fp, #8]
  403d0c:	f109 0908 	add.w	r9, r9, #8
  403d10:	2b00      	cmp	r3, #0
  403d12:	d1d8      	bne.n	403cc6 <__sprint_r.part.0+0x1a>
  403d14:	2000      	movs	r0, #0
  403d16:	e7ea      	b.n	403cee <__sprint_r.part.0+0x42>
  403d18:	f001 fa0a 	bl	405130 <__sfvwrite_r>
  403d1c:	2300      	movs	r3, #0
  403d1e:	f8cb 3008 	str.w	r3, [fp, #8]
  403d22:	f8cb 3004 	str.w	r3, [fp, #4]
  403d26:	e8bd 8ff8 	ldmia.w	sp!, {r3, r4, r5, r6, r7, r8, r9, sl, fp, pc}
  403d2a:	bf00      	nop

00403d2c <_vfiprintf_r>:
  403d2c:	e92d 4ff0 	stmdb	sp!, {r4, r5, r6, r7, r8, r9, sl, fp, lr}
  403d30:	b0ad      	sub	sp, #180	; 0xb4
  403d32:	461d      	mov	r5, r3
  403d34:	468b      	mov	fp, r1
  403d36:	4690      	mov	r8, r2
  403d38:	9307      	str	r3, [sp, #28]
  403d3a:	9006      	str	r0, [sp, #24]
  403d3c:	b118      	cbz	r0, 403d46 <_vfiprintf_r+0x1a>
  403d3e:	6b83      	ldr	r3, [r0, #56]	; 0x38
  403d40:	2b00      	cmp	r3, #0
  403d42:	f000 80f3 	beq.w	403f2c <_vfiprintf_r+0x200>
  403d46:	f8db 3064 	ldr.w	r3, [fp, #100]	; 0x64
  403d4a:	f9bb 000c 	ldrsh.w	r0, [fp, #12]
  403d4e:	07df      	lsls	r7, r3, #31
  403d50:	b281      	uxth	r1, r0
  403d52:	d402      	bmi.n	403d5a <_vfiprintf_r+0x2e>
  403d54:	058e      	lsls	r6, r1, #22
  403d56:	f140 80fc 	bpl.w	403f52 <_vfiprintf_r+0x226>
  403d5a:	048c      	lsls	r4, r1, #18
  403d5c:	d40a      	bmi.n	403d74 <_vfiprintf_r+0x48>
  403d5e:	f8db 3064 	ldr.w	r3, [fp, #100]	; 0x64
  403d62:	f440 5100 	orr.w	r1, r0, #8192	; 0x2000
  403d66:	f423 5300 	bic.w	r3, r3, #8192	; 0x2000
  403d6a:	f8ab 100c 	strh.w	r1, [fp, #12]
  403d6e:	f8cb 3064 	str.w	r3, [fp, #100]	; 0x64
  403d72:	b289      	uxth	r1, r1
  403d74:	0708      	lsls	r0, r1, #28
  403d76:	f140 80b3 	bpl.w	403ee0 <_vfiprintf_r+0x1b4>
  403d7a:	f8db 3010 	ldr.w	r3, [fp, #16]
  403d7e:	2b00      	cmp	r3, #0
  403d80:	f000 80ae 	beq.w	403ee0 <_vfiprintf_r+0x1b4>
  403d84:	f001 031a 	and.w	r3, r1, #26
  403d88:	2b0a      	cmp	r3, #10
  403d8a:	f000 80b5 	beq.w	403ef8 <_vfiprintf_r+0x1cc>
  403d8e:	2300      	movs	r3, #0
  403d90:	f10d 0970 	add.w	r9, sp, #112	; 0x70
  403d94:	930b      	str	r3, [sp, #44]	; 0x2c
  403d96:	9311      	str	r3, [sp, #68]	; 0x44
  403d98:	9310      	str	r3, [sp, #64]	; 0x40
  403d9a:	9303      	str	r3, [sp, #12]
  403d9c:	f8cd 903c 	str.w	r9, [sp, #60]	; 0x3c
  403da0:	46ca      	mov	sl, r9
  403da2:	f8cd b010 	str.w	fp, [sp, #16]
  403da6:	f898 3000 	ldrb.w	r3, [r8]
  403daa:	4644      	mov	r4, r8
  403dac:	b1fb      	cbz	r3, 403dee <_vfiprintf_r+0xc2>
  403dae:	2b25      	cmp	r3, #37	; 0x25
  403db0:	d102      	bne.n	403db8 <_vfiprintf_r+0x8c>
  403db2:	e01c      	b.n	403dee <_vfiprintf_r+0xc2>
  403db4:	2b25      	cmp	r3, #37	; 0x25
  403db6:	d003      	beq.n	403dc0 <_vfiprintf_r+0x94>
  403db8:	f814 3f01 	ldrb.w	r3, [r4, #1]!
  403dbc:	2b00      	cmp	r3, #0
  403dbe:	d1f9      	bne.n	403db4 <_vfiprintf_r+0x88>
  403dc0:	eba4 0508 	sub.w	r5, r4, r8
  403dc4:	b19d      	cbz	r5, 403dee <_vfiprintf_r+0xc2>
  403dc6:	9b10      	ldr	r3, [sp, #64]	; 0x40
  403dc8:	9a11      	ldr	r2, [sp, #68]	; 0x44
  403dca:	f8ca 8000 	str.w	r8, [sl]
  403dce:	3301      	adds	r3, #1
  403dd0:	442a      	add	r2, r5
  403dd2:	2b07      	cmp	r3, #7
  403dd4:	f8ca 5004 	str.w	r5, [sl, #4]
  403dd8:	9211      	str	r2, [sp, #68]	; 0x44
  403dda:	9310      	str	r3, [sp, #64]	; 0x40
  403ddc:	dd7a      	ble.n	403ed4 <_vfiprintf_r+0x1a8>
  403dde:	2a00      	cmp	r2, #0
  403de0:	f040 84b0 	bne.w	404744 <_vfiprintf_r+0xa18>
  403de4:	9b03      	ldr	r3, [sp, #12]
  403de6:	9210      	str	r2, [sp, #64]	; 0x40
  403de8:	442b      	add	r3, r5
  403dea:	46ca      	mov	sl, r9
  403dec:	9303      	str	r3, [sp, #12]
  403dee:	7823      	ldrb	r3, [r4, #0]
  403df0:	2b00      	cmp	r3, #0
  403df2:	f000 83e0 	beq.w	4045b6 <_vfiprintf_r+0x88a>
  403df6:	2000      	movs	r0, #0
  403df8:	f04f 0300 	mov.w	r3, #0
  403dfc:	f88d 3037 	strb.w	r3, [sp, #55]	; 0x37
  403e00:	f104 0801 	add.w	r8, r4, #1
  403e04:	7862      	ldrb	r2, [r4, #1]
  403e06:	4605      	mov	r5, r0
  403e08:	4606      	mov	r6, r0
  403e0a:	4603      	mov	r3, r0
  403e0c:	f04f 34ff 	mov.w	r4, #4294967295
  403e10:	f108 0801 	add.w	r8, r8, #1
  403e14:	f1a2 0120 	sub.w	r1, r2, #32
  403e18:	2958      	cmp	r1, #88	; 0x58
  403e1a:	f200 82de 	bhi.w	4043da <_vfiprintf_r+0x6ae>
  403e1e:	e8df f011 	tbh	[pc, r1, lsl #1]
  403e22:	0221      	.short	0x0221
  403e24:	02dc02dc 	.word	0x02dc02dc
  403e28:	02dc0229 	.word	0x02dc0229
  403e2c:	02dc02dc 	.word	0x02dc02dc
  403e30:	02dc02dc 	.word	0x02dc02dc
  403e34:	028902dc 	.word	0x028902dc
  403e38:	02dc0295 	.word	0x02dc0295
  403e3c:	02bd00a2 	.word	0x02bd00a2
  403e40:	019f02dc 	.word	0x019f02dc
  403e44:	01a401a4 	.word	0x01a401a4
  403e48:	01a401a4 	.word	0x01a401a4
  403e4c:	01a401a4 	.word	0x01a401a4
  403e50:	01a401a4 	.word	0x01a401a4
  403e54:	02dc01a4 	.word	0x02dc01a4
  403e58:	02dc02dc 	.word	0x02dc02dc
  403e5c:	02dc02dc 	.word	0x02dc02dc
  403e60:	02dc02dc 	.word	0x02dc02dc
  403e64:	02dc02dc 	.word	0x02dc02dc
  403e68:	01b202dc 	.word	0x01b202dc
  403e6c:	02dc02dc 	.word	0x02dc02dc
  403e70:	02dc02dc 	.word	0x02dc02dc
  403e74:	02dc02dc 	.word	0x02dc02dc
  403e78:	02dc02dc 	.word	0x02dc02dc
  403e7c:	02dc02dc 	.word	0x02dc02dc
  403e80:	02dc0197 	.word	0x02dc0197
  403e84:	02dc02dc 	.word	0x02dc02dc
  403e88:	02dc02dc 	.word	0x02dc02dc
  403e8c:	02dc019b 	.word	0x02dc019b
  403e90:	025302dc 	.word	0x025302dc
  403e94:	02dc02dc 	.word	0x02dc02dc
  403e98:	02dc02dc 	.word	0x02dc02dc
  403e9c:	02dc02dc 	.word	0x02dc02dc
  403ea0:	02dc02dc 	.word	0x02dc02dc
  403ea4:	02dc02dc 	.word	0x02dc02dc
  403ea8:	021b025a 	.word	0x021b025a
  403eac:	02dc02dc 	.word	0x02dc02dc
  403eb0:	026e02dc 	.word	0x026e02dc
  403eb4:	02dc021b 	.word	0x02dc021b
  403eb8:	027302dc 	.word	0x027302dc
  403ebc:	01f502dc 	.word	0x01f502dc
  403ec0:	02090182 	.word	0x02090182
  403ec4:	02dc02d7 	.word	0x02dc02d7
  403ec8:	02dc029a 	.word	0x02dc029a
  403ecc:	02dc00a7 	.word	0x02dc00a7
  403ed0:	022e02dc 	.word	0x022e02dc
  403ed4:	f10a 0a08 	add.w	sl, sl, #8
  403ed8:	9b03      	ldr	r3, [sp, #12]
  403eda:	442b      	add	r3, r5
  403edc:	9303      	str	r3, [sp, #12]
  403ede:	e786      	b.n	403dee <_vfiprintf_r+0xc2>
  403ee0:	4659      	mov	r1, fp
  403ee2:	9806      	ldr	r0, [sp, #24]
  403ee4:	f000 fdac 	bl	404a40 <__swsetup_r>
  403ee8:	bb18      	cbnz	r0, 403f32 <_vfiprintf_r+0x206>
  403eea:	f8bb 100c 	ldrh.w	r1, [fp, #12]
  403eee:	f001 031a 	and.w	r3, r1, #26
  403ef2:	2b0a      	cmp	r3, #10
  403ef4:	f47f af4b 	bne.w	403d8e <_vfiprintf_r+0x62>
  403ef8:	f9bb 300e 	ldrsh.w	r3, [fp, #14]
  403efc:	2b00      	cmp	r3, #0
  403efe:	f6ff af46 	blt.w	403d8e <_vfiprintf_r+0x62>
  403f02:	f8db 3064 	ldr.w	r3, [fp, #100]	; 0x64
  403f06:	07db      	lsls	r3, r3, #31
  403f08:	d405      	bmi.n	403f16 <_vfiprintf_r+0x1ea>
  403f0a:	058f      	lsls	r7, r1, #22
  403f0c:	d403      	bmi.n	403f16 <_vfiprintf_r+0x1ea>
  403f0e:	f8db 0058 	ldr.w	r0, [fp, #88]	; 0x58
  403f12:	f001 fac3 	bl	40549c <__retarget_lock_release_recursive>
  403f16:	462b      	mov	r3, r5
  403f18:	4642      	mov	r2, r8
  403f1a:	4659      	mov	r1, fp
  403f1c:	9806      	ldr	r0, [sp, #24]
  403f1e:	f000 fd4d 	bl	4049bc <__sbprintf>
  403f22:	9003      	str	r0, [sp, #12]
  403f24:	9803      	ldr	r0, [sp, #12]
  403f26:	b02d      	add	sp, #180	; 0xb4
  403f28:	e8bd 8ff0 	ldmia.w	sp!, {r4, r5, r6, r7, r8, r9, sl, fp, pc}
  403f2c:	f000 fef4 	bl	404d18 <__sinit>
  403f30:	e709      	b.n	403d46 <_vfiprintf_r+0x1a>
  403f32:	f8db 3064 	ldr.w	r3, [fp, #100]	; 0x64
  403f36:	07d9      	lsls	r1, r3, #31
  403f38:	d404      	bmi.n	403f44 <_vfiprintf_r+0x218>
  403f3a:	f8bb 300c 	ldrh.w	r3, [fp, #12]
  403f3e:	059a      	lsls	r2, r3, #22
  403f40:	f140 84aa 	bpl.w	404898 <_vfiprintf_r+0xb6c>
  403f44:	f04f 33ff 	mov.w	r3, #4294967295
  403f48:	9303      	str	r3, [sp, #12]
  403f4a:	9803      	ldr	r0, [sp, #12]
  403f4c:	b02d      	add	sp, #180	; 0xb4
  403f4e:	e8bd 8ff0 	ldmia.w	sp!, {r4, r5, r6, r7, r8, r9, sl, fp, pc}
  403f52:	f8db 0058 	ldr.w	r0, [fp, #88]	; 0x58
  403f56:	f001 fa9f 	bl	405498 <__retarget_lock_acquire_recursive>
  403f5a:	f9bb 000c 	ldrsh.w	r0, [fp, #12]
  403f5e:	b281      	uxth	r1, r0
  403f60:	e6fb      	b.n	403d5a <_vfiprintf_r+0x2e>
  403f62:	4276      	negs	r6, r6
  403f64:	9207      	str	r2, [sp, #28]
  403f66:	f043 0304 	orr.w	r3, r3, #4
  403f6a:	f898 2000 	ldrb.w	r2, [r8]
  403f6e:	e74f      	b.n	403e10 <_vfiprintf_r+0xe4>
  403f70:	9608      	str	r6, [sp, #32]
  403f72:	069e      	lsls	r6, r3, #26
  403f74:	f100 8450 	bmi.w	404818 <_vfiprintf_r+0xaec>
  403f78:	9907      	ldr	r1, [sp, #28]
  403f7a:	06dd      	lsls	r5, r3, #27
  403f7c:	460a      	mov	r2, r1
  403f7e:	f100 83ef 	bmi.w	404760 <_vfiprintf_r+0xa34>
  403f82:	0658      	lsls	r0, r3, #25
  403f84:	f140 83ec 	bpl.w	404760 <_vfiprintf_r+0xa34>
  403f88:	880e      	ldrh	r6, [r1, #0]
  403f8a:	3104      	adds	r1, #4
  403f8c:	2700      	movs	r7, #0
  403f8e:	2201      	movs	r2, #1
  403f90:	9107      	str	r1, [sp, #28]
  403f92:	f04f 0100 	mov.w	r1, #0
  403f96:	f88d 1037 	strb.w	r1, [sp, #55]	; 0x37
  403f9a:	2500      	movs	r5, #0
  403f9c:	1c61      	adds	r1, r4, #1
  403f9e:	f000 8116 	beq.w	4041ce <_vfiprintf_r+0x4a2>
  403fa2:	f023 0180 	bic.w	r1, r3, #128	; 0x80
  403fa6:	9102      	str	r1, [sp, #8]
  403fa8:	ea56 0107 	orrs.w	r1, r6, r7
  403fac:	f040 8114 	bne.w	4041d8 <_vfiprintf_r+0x4ac>
  403fb0:	2c00      	cmp	r4, #0
  403fb2:	f040 835c 	bne.w	40466e <_vfiprintf_r+0x942>
  403fb6:	2a00      	cmp	r2, #0
  403fb8:	f040 83b7 	bne.w	40472a <_vfiprintf_r+0x9fe>
  403fbc:	f013 0301 	ands.w	r3, r3, #1
  403fc0:	9305      	str	r3, [sp, #20]
  403fc2:	f000 8457 	beq.w	404874 <_vfiprintf_r+0xb48>
  403fc6:	f10d 0bb0 	add.w	fp, sp, #176	; 0xb0
  403fca:	2330      	movs	r3, #48	; 0x30
  403fcc:	f80b 3d41 	strb.w	r3, [fp, #-65]!
  403fd0:	9b05      	ldr	r3, [sp, #20]
  403fd2:	42a3      	cmp	r3, r4
  403fd4:	bfb8      	it	lt
  403fd6:	4623      	movlt	r3, r4
  403fd8:	9301      	str	r3, [sp, #4]
  403fda:	b10d      	cbz	r5, 403fe0 <_vfiprintf_r+0x2b4>
  403fdc:	3301      	adds	r3, #1
  403fde:	9301      	str	r3, [sp, #4]
  403fe0:	9b02      	ldr	r3, [sp, #8]
  403fe2:	f013 0302 	ands.w	r3, r3, #2
  403fe6:	9309      	str	r3, [sp, #36]	; 0x24
  403fe8:	d002      	beq.n	403ff0 <_vfiprintf_r+0x2c4>
  403fea:	9b01      	ldr	r3, [sp, #4]
  403fec:	3302      	adds	r3, #2
  403fee:	9301      	str	r3, [sp, #4]
  403ff0:	9b02      	ldr	r3, [sp, #8]
  403ff2:	f013 0384 	ands.w	r3, r3, #132	; 0x84
  403ff6:	930a      	str	r3, [sp, #40]	; 0x28
  403ff8:	f040 8217 	bne.w	40442a <_vfiprintf_r+0x6fe>
  403ffc:	9b08      	ldr	r3, [sp, #32]
  403ffe:	9a01      	ldr	r2, [sp, #4]
  404000:	1a9d      	subs	r5, r3, r2
  404002:	2d00      	cmp	r5, #0
  404004:	f340 8211 	ble.w	40442a <_vfiprintf_r+0x6fe>
  404008:	2d10      	cmp	r5, #16
  40400a:	f340 8490 	ble.w	40492e <_vfiprintf_r+0xc02>
  40400e:	9b10      	ldr	r3, [sp, #64]	; 0x40
  404010:	9a11      	ldr	r2, [sp, #68]	; 0x44
  404012:	4ec4      	ldr	r6, [pc, #784]	; (404324 <_vfiprintf_r+0x5f8>)
  404014:	46d6      	mov	lr, sl
  404016:	2710      	movs	r7, #16
  404018:	46a2      	mov	sl, r4
  40401a:	4619      	mov	r1, r3
  40401c:	9c06      	ldr	r4, [sp, #24]
  40401e:	e007      	b.n	404030 <_vfiprintf_r+0x304>
  404020:	f101 0c02 	add.w	ip, r1, #2
  404024:	f10e 0e08 	add.w	lr, lr, #8
  404028:	4601      	mov	r1, r0
  40402a:	3d10      	subs	r5, #16
  40402c:	2d10      	cmp	r5, #16
  40402e:	dd11      	ble.n	404054 <_vfiprintf_r+0x328>
  404030:	1c48      	adds	r0, r1, #1
  404032:	3210      	adds	r2, #16
  404034:	2807      	cmp	r0, #7
  404036:	9211      	str	r2, [sp, #68]	; 0x44
  404038:	e88e 00c0 	stmia.w	lr, {r6, r7}
  40403c:	9010      	str	r0, [sp, #64]	; 0x40
  40403e:	ddef      	ble.n	404020 <_vfiprintf_r+0x2f4>
  404040:	2a00      	cmp	r2, #0
  404042:	f040 81e4 	bne.w	40440e <_vfiprintf_r+0x6e2>
  404046:	3d10      	subs	r5, #16
  404048:	2d10      	cmp	r5, #16
  40404a:	4611      	mov	r1, r2
  40404c:	f04f 0c01 	mov.w	ip, #1
  404050:	46ce      	mov	lr, r9
  404052:	dced      	bgt.n	404030 <_vfiprintf_r+0x304>
  404054:	4654      	mov	r4, sl
  404056:	4661      	mov	r1, ip
  404058:	46f2      	mov	sl, lr
  40405a:	442a      	add	r2, r5
  40405c:	2907      	cmp	r1, #7
  40405e:	9211      	str	r2, [sp, #68]	; 0x44
  404060:	f8ca 6000 	str.w	r6, [sl]
  404064:	f8ca 5004 	str.w	r5, [sl, #4]
  404068:	9110      	str	r1, [sp, #64]	; 0x40
  40406a:	f300 82ec 	bgt.w	404646 <_vfiprintf_r+0x91a>
  40406e:	f89d 5037 	ldrb.w	r5, [sp, #55]	; 0x37
  404072:	f10a 0a08 	add.w	sl, sl, #8
  404076:	1c48      	adds	r0, r1, #1
  404078:	2d00      	cmp	r5, #0
  40407a:	f040 81de 	bne.w	40443a <_vfiprintf_r+0x70e>
  40407e:	9b09      	ldr	r3, [sp, #36]	; 0x24
  404080:	2b00      	cmp	r3, #0
  404082:	f000 81f8 	beq.w	404476 <_vfiprintf_r+0x74a>
  404086:	3202      	adds	r2, #2
  404088:	a90e      	add	r1, sp, #56	; 0x38
  40408a:	2302      	movs	r3, #2
  40408c:	2807      	cmp	r0, #7
  40408e:	9211      	str	r2, [sp, #68]	; 0x44
  404090:	9010      	str	r0, [sp, #64]	; 0x40
  404092:	e88a 000a 	stmia.w	sl, {r1, r3}
  404096:	f340 81ea 	ble.w	40446e <_vfiprintf_r+0x742>
  40409a:	2a00      	cmp	r2, #0
  40409c:	f040 838c 	bne.w	4047b8 <_vfiprintf_r+0xa8c>
  4040a0:	9b0a      	ldr	r3, [sp, #40]	; 0x28
  4040a2:	2b80      	cmp	r3, #128	; 0x80
  4040a4:	f04f 0001 	mov.w	r0, #1
  4040a8:	4611      	mov	r1, r2
  4040aa:	46ca      	mov	sl, r9
  4040ac:	f040 81e7 	bne.w	40447e <_vfiprintf_r+0x752>
  4040b0:	9b08      	ldr	r3, [sp, #32]
  4040b2:	9d01      	ldr	r5, [sp, #4]
  4040b4:	1b5e      	subs	r6, r3, r5
  4040b6:	2e00      	cmp	r6, #0
  4040b8:	f340 81e1 	ble.w	40447e <_vfiprintf_r+0x752>
  4040bc:	2e10      	cmp	r6, #16
  4040be:	4d9a      	ldr	r5, [pc, #616]	; (404328 <_vfiprintf_r+0x5fc>)
  4040c0:	f340 8450 	ble.w	404964 <_vfiprintf_r+0xc38>
  4040c4:	46d4      	mov	ip, sl
  4040c6:	2710      	movs	r7, #16
  4040c8:	46a2      	mov	sl, r4
  4040ca:	9c06      	ldr	r4, [sp, #24]
  4040cc:	e007      	b.n	4040de <_vfiprintf_r+0x3b2>
  4040ce:	f101 0e02 	add.w	lr, r1, #2
  4040d2:	f10c 0c08 	add.w	ip, ip, #8
  4040d6:	4601      	mov	r1, r0
  4040d8:	3e10      	subs	r6, #16
  4040da:	2e10      	cmp	r6, #16
  4040dc:	dd11      	ble.n	404102 <_vfiprintf_r+0x3d6>
  4040de:	1c48      	adds	r0, r1, #1
  4040e0:	3210      	adds	r2, #16
  4040e2:	2807      	cmp	r0, #7
  4040e4:	9211      	str	r2, [sp, #68]	; 0x44
  4040e6:	e88c 00a0 	stmia.w	ip, {r5, r7}
  4040ea:	9010      	str	r0, [sp, #64]	; 0x40
  4040ec:	ddef      	ble.n	4040ce <_vfiprintf_r+0x3a2>
  4040ee:	2a00      	cmp	r2, #0
  4040f0:	f040 829d 	bne.w	40462e <_vfiprintf_r+0x902>
  4040f4:	3e10      	subs	r6, #16
  4040f6:	2e10      	cmp	r6, #16
  4040f8:	f04f 0e01 	mov.w	lr, #1
  4040fc:	4611      	mov	r1, r2
  4040fe:	46cc      	mov	ip, r9
  404100:	dced      	bgt.n	4040de <_vfiprintf_r+0x3b2>
  404102:	4654      	mov	r4, sl
  404104:	46e2      	mov	sl, ip
  404106:	4432      	add	r2, r6
  404108:	f1be 0f07 	cmp.w	lr, #7
  40410c:	9211      	str	r2, [sp, #68]	; 0x44
  40410e:	e88a 0060 	stmia.w	sl, {r5, r6}
  404112:	f8cd e040 	str.w	lr, [sp, #64]	; 0x40
  404116:	f300 8369 	bgt.w	4047ec <_vfiprintf_r+0xac0>
  40411a:	f10a 0a08 	add.w	sl, sl, #8
  40411e:	f10e 0001 	add.w	r0, lr, #1
  404122:	4671      	mov	r1, lr
  404124:	e1ab      	b.n	40447e <_vfiprintf_r+0x752>
  404126:	9608      	str	r6, [sp, #32]
  404128:	f013 0220 	ands.w	r2, r3, #32
  40412c:	f040 838c 	bne.w	404848 <_vfiprintf_r+0xb1c>
  404130:	f013 0110 	ands.w	r1, r3, #16
  404134:	f040 831a 	bne.w	40476c <_vfiprintf_r+0xa40>
  404138:	f013 0240 	ands.w	r2, r3, #64	; 0x40
  40413c:	f000 8316 	beq.w	40476c <_vfiprintf_r+0xa40>
  404140:	9807      	ldr	r0, [sp, #28]
  404142:	460a      	mov	r2, r1
  404144:	4601      	mov	r1, r0
  404146:	3104      	adds	r1, #4
  404148:	8806      	ldrh	r6, [r0, #0]
  40414a:	9107      	str	r1, [sp, #28]
  40414c:	2700      	movs	r7, #0
  40414e:	e720      	b.n	403f92 <_vfiprintf_r+0x266>
  404150:	9608      	str	r6, [sp, #32]
  404152:	f043 0310 	orr.w	r3, r3, #16
  404156:	e7e7      	b.n	404128 <_vfiprintf_r+0x3fc>
  404158:	9608      	str	r6, [sp, #32]
  40415a:	f043 0310 	orr.w	r3, r3, #16
  40415e:	e708      	b.n	403f72 <_vfiprintf_r+0x246>
  404160:	f043 0380 	orr.w	r3, r3, #128	; 0x80
  404164:	f898 2000 	ldrb.w	r2, [r8]
  404168:	e652      	b.n	403e10 <_vfiprintf_r+0xe4>
  40416a:	f1a2 0130 	sub.w	r1, r2, #48	; 0x30
  40416e:	2600      	movs	r6, #0
  404170:	f818 2b01 	ldrb.w	r2, [r8], #1
  404174:	eb06 0686 	add.w	r6, r6, r6, lsl #2
  404178:	eb01 0646 	add.w	r6, r1, r6, lsl #1
  40417c:	f1a2 0130 	sub.w	r1, r2, #48	; 0x30
  404180:	2909      	cmp	r1, #9
  404182:	d9f5      	bls.n	404170 <_vfiprintf_r+0x444>
  404184:	e646      	b.n	403e14 <_vfiprintf_r+0xe8>
  404186:	9608      	str	r6, [sp, #32]
  404188:	2800      	cmp	r0, #0
  40418a:	f040 8408 	bne.w	40499e <_vfiprintf_r+0xc72>
  40418e:	f043 0310 	orr.w	r3, r3, #16
  404192:	069e      	lsls	r6, r3, #26
  404194:	f100 834c 	bmi.w	404830 <_vfiprintf_r+0xb04>
  404198:	06dd      	lsls	r5, r3, #27
  40419a:	f100 82f3 	bmi.w	404784 <_vfiprintf_r+0xa58>
  40419e:	0658      	lsls	r0, r3, #25
  4041a0:	f140 82f0 	bpl.w	404784 <_vfiprintf_r+0xa58>
  4041a4:	9d07      	ldr	r5, [sp, #28]
  4041a6:	f9b5 6000 	ldrsh.w	r6, [r5]
  4041aa:	462a      	mov	r2, r5
  4041ac:	17f7      	asrs	r7, r6, #31
  4041ae:	3204      	adds	r2, #4
  4041b0:	4630      	mov	r0, r6
  4041b2:	4639      	mov	r1, r7
  4041b4:	9207      	str	r2, [sp, #28]
  4041b6:	2800      	cmp	r0, #0
  4041b8:	f171 0200 	sbcs.w	r2, r1, #0
  4041bc:	f2c0 835d 	blt.w	40487a <_vfiprintf_r+0xb4e>
  4041c0:	1c61      	adds	r1, r4, #1
  4041c2:	f89d 5037 	ldrb.w	r5, [sp, #55]	; 0x37
  4041c6:	f04f 0201 	mov.w	r2, #1
  4041ca:	f47f aeea 	bne.w	403fa2 <_vfiprintf_r+0x276>
  4041ce:	ea56 0107 	orrs.w	r1, r6, r7
  4041d2:	f000 824d 	beq.w	404670 <_vfiprintf_r+0x944>
  4041d6:	9302      	str	r3, [sp, #8]
  4041d8:	2a01      	cmp	r2, #1
  4041da:	f000 828c 	beq.w	4046f6 <_vfiprintf_r+0x9ca>
  4041de:	2a02      	cmp	r2, #2
  4041e0:	f040 825c 	bne.w	40469c <_vfiprintf_r+0x970>
  4041e4:	980b      	ldr	r0, [sp, #44]	; 0x2c
  4041e6:	46cb      	mov	fp, r9
  4041e8:	0933      	lsrs	r3, r6, #4
  4041ea:	f006 010f 	and.w	r1, r6, #15
  4041ee:	ea43 7307 	orr.w	r3, r3, r7, lsl #28
  4041f2:	093a      	lsrs	r2, r7, #4
  4041f4:	461e      	mov	r6, r3
  4041f6:	4617      	mov	r7, r2
  4041f8:	5c43      	ldrb	r3, [r0, r1]
  4041fa:	f80b 3d01 	strb.w	r3, [fp, #-1]!
  4041fe:	ea56 0307 	orrs.w	r3, r6, r7
  404202:	d1f1      	bne.n	4041e8 <_vfiprintf_r+0x4bc>
  404204:	eba9 030b 	sub.w	r3, r9, fp
  404208:	9305      	str	r3, [sp, #20]
  40420a:	e6e1      	b.n	403fd0 <_vfiprintf_r+0x2a4>
  40420c:	2800      	cmp	r0, #0
  40420e:	f040 83c0 	bne.w	404992 <_vfiprintf_r+0xc66>
  404212:	0699      	lsls	r1, r3, #26
  404214:	f100 8367 	bmi.w	4048e6 <_vfiprintf_r+0xbba>
  404218:	06da      	lsls	r2, r3, #27
  40421a:	f100 80f1 	bmi.w	404400 <_vfiprintf_r+0x6d4>
  40421e:	065b      	lsls	r3, r3, #25
  404220:	f140 80ee 	bpl.w	404400 <_vfiprintf_r+0x6d4>
  404224:	9a07      	ldr	r2, [sp, #28]
  404226:	6813      	ldr	r3, [r2, #0]
  404228:	3204      	adds	r2, #4
  40422a:	9207      	str	r2, [sp, #28]
  40422c:	f8bd 200c 	ldrh.w	r2, [sp, #12]
  404230:	801a      	strh	r2, [r3, #0]
  404232:	e5b8      	b.n	403da6 <_vfiprintf_r+0x7a>
  404234:	9807      	ldr	r0, [sp, #28]
  404236:	4a3d      	ldr	r2, [pc, #244]	; (40432c <_vfiprintf_r+0x600>)
  404238:	9608      	str	r6, [sp, #32]
  40423a:	920b      	str	r2, [sp, #44]	; 0x2c
  40423c:	6806      	ldr	r6, [r0, #0]
  40423e:	2278      	movs	r2, #120	; 0x78
  404240:	2130      	movs	r1, #48	; 0x30
  404242:	3004      	adds	r0, #4
  404244:	f88d 2039 	strb.w	r2, [sp, #57]	; 0x39
  404248:	f043 0302 	orr.w	r3, r3, #2
  40424c:	9007      	str	r0, [sp, #28]
  40424e:	2700      	movs	r7, #0
  404250:	f88d 1038 	strb.w	r1, [sp, #56]	; 0x38
  404254:	2202      	movs	r2, #2
  404256:	e69c      	b.n	403f92 <_vfiprintf_r+0x266>
  404258:	9608      	str	r6, [sp, #32]
  40425a:	2800      	cmp	r0, #0
  40425c:	d099      	beq.n	404192 <_vfiprintf_r+0x466>
  40425e:	f88d 5037 	strb.w	r5, [sp, #55]	; 0x37
  404262:	e796      	b.n	404192 <_vfiprintf_r+0x466>
  404264:	f898 2000 	ldrb.w	r2, [r8]
  404268:	2d00      	cmp	r5, #0
  40426a:	f47f add1 	bne.w	403e10 <_vfiprintf_r+0xe4>
  40426e:	2001      	movs	r0, #1
  404270:	2520      	movs	r5, #32
  404272:	e5cd      	b.n	403e10 <_vfiprintf_r+0xe4>
  404274:	f043 0301 	orr.w	r3, r3, #1
  404278:	f898 2000 	ldrb.w	r2, [r8]
  40427c:	e5c8      	b.n	403e10 <_vfiprintf_r+0xe4>
  40427e:	9608      	str	r6, [sp, #32]
  404280:	2800      	cmp	r0, #0
  404282:	f040 8393 	bne.w	4049ac <_vfiprintf_r+0xc80>
  404286:	4929      	ldr	r1, [pc, #164]	; (40432c <_vfiprintf_r+0x600>)
  404288:	910b      	str	r1, [sp, #44]	; 0x2c
  40428a:	069f      	lsls	r7, r3, #26
  40428c:	f100 82e8 	bmi.w	404860 <_vfiprintf_r+0xb34>
  404290:	9807      	ldr	r0, [sp, #28]
  404292:	06de      	lsls	r6, r3, #27
  404294:	4601      	mov	r1, r0
  404296:	f100 8270 	bmi.w	40477a <_vfiprintf_r+0xa4e>
  40429a:	065d      	lsls	r5, r3, #25
  40429c:	f140 826d 	bpl.w	40477a <_vfiprintf_r+0xa4e>
  4042a0:	3104      	adds	r1, #4
  4042a2:	8806      	ldrh	r6, [r0, #0]
  4042a4:	9107      	str	r1, [sp, #28]
  4042a6:	2700      	movs	r7, #0
  4042a8:	07d8      	lsls	r0, r3, #31
  4042aa:	f140 8222 	bpl.w	4046f2 <_vfiprintf_r+0x9c6>
  4042ae:	ea56 0107 	orrs.w	r1, r6, r7
  4042b2:	f000 821e 	beq.w	4046f2 <_vfiprintf_r+0x9c6>
  4042b6:	2130      	movs	r1, #48	; 0x30
  4042b8:	f88d 2039 	strb.w	r2, [sp, #57]	; 0x39
  4042bc:	f043 0302 	orr.w	r3, r3, #2
  4042c0:	f88d 1038 	strb.w	r1, [sp, #56]	; 0x38
  4042c4:	2202      	movs	r2, #2
  4042c6:	e664      	b.n	403f92 <_vfiprintf_r+0x266>
  4042c8:	9608      	str	r6, [sp, #32]
  4042ca:	2800      	cmp	r0, #0
  4042cc:	f040 836b 	bne.w	4049a6 <_vfiprintf_r+0xc7a>
  4042d0:	4917      	ldr	r1, [pc, #92]	; (404330 <_vfiprintf_r+0x604>)
  4042d2:	910b      	str	r1, [sp, #44]	; 0x2c
  4042d4:	e7d9      	b.n	40428a <_vfiprintf_r+0x55e>
  4042d6:	9907      	ldr	r1, [sp, #28]
  4042d8:	9608      	str	r6, [sp, #32]
  4042da:	680a      	ldr	r2, [r1, #0]
  4042dc:	f88d 2048 	strb.w	r2, [sp, #72]	; 0x48
  4042e0:	f04f 0000 	mov.w	r0, #0
  4042e4:	460a      	mov	r2, r1
  4042e6:	f88d 0037 	strb.w	r0, [sp, #55]	; 0x37
  4042ea:	3204      	adds	r2, #4
  4042ec:	2001      	movs	r0, #1
  4042ee:	9001      	str	r0, [sp, #4]
  4042f0:	9207      	str	r2, [sp, #28]
  4042f2:	9005      	str	r0, [sp, #20]
  4042f4:	f10d 0b48 	add.w	fp, sp, #72	; 0x48
  4042f8:	9302      	str	r3, [sp, #8]
  4042fa:	2400      	movs	r4, #0
  4042fc:	e670      	b.n	403fe0 <_vfiprintf_r+0x2b4>
  4042fe:	f043 0340 	orr.w	r3, r3, #64	; 0x40
  404302:	f898 2000 	ldrb.w	r2, [r8]
  404306:	e583      	b.n	403e10 <_vfiprintf_r+0xe4>
  404308:	f898 2000 	ldrb.w	r2, [r8]
  40430c:	2a6c      	cmp	r2, #108	; 0x6c
  40430e:	bf03      	ittte	eq
  404310:	f898 2001 	ldrbeq.w	r2, [r8, #1]
  404314:	f043 0320 	orreq.w	r3, r3, #32
  404318:	f108 0801 	addeq.w	r8, r8, #1
  40431c:	f043 0310 	orrne.w	r3, r3, #16
  404320:	e576      	b.n	403e10 <_vfiprintf_r+0xe4>
  404322:	bf00      	nop
  404324:	00406cf0 	.word	0x00406cf0
  404328:	00406d00 	.word	0x00406d00
  40432c:	00406cd4 	.word	0x00406cd4
  404330:	00406cc0 	.word	0x00406cc0
  404334:	9907      	ldr	r1, [sp, #28]
  404336:	680e      	ldr	r6, [r1, #0]
  404338:	460a      	mov	r2, r1
  40433a:	2e00      	cmp	r6, #0
  40433c:	f102 0204 	add.w	r2, r2, #4
  404340:	f6ff ae0f 	blt.w	403f62 <_vfiprintf_r+0x236>
  404344:	9207      	str	r2, [sp, #28]
  404346:	f898 2000 	ldrb.w	r2, [r8]
  40434a:	e561      	b.n	403e10 <_vfiprintf_r+0xe4>
  40434c:	f898 2000 	ldrb.w	r2, [r8]
  404350:	2001      	movs	r0, #1
  404352:	252b      	movs	r5, #43	; 0x2b
  404354:	e55c      	b.n	403e10 <_vfiprintf_r+0xe4>
  404356:	9907      	ldr	r1, [sp, #28]
  404358:	9608      	str	r6, [sp, #32]
  40435a:	f8d1 b000 	ldr.w	fp, [r1]
  40435e:	f04f 0200 	mov.w	r2, #0
  404362:	f88d 2037 	strb.w	r2, [sp, #55]	; 0x37
  404366:	1d0e      	adds	r6, r1, #4
  404368:	f1bb 0f00 	cmp.w	fp, #0
  40436c:	f000 82e5 	beq.w	40493a <_vfiprintf_r+0xc0e>
  404370:	1c67      	adds	r7, r4, #1
  404372:	f000 82c4 	beq.w	4048fe <_vfiprintf_r+0xbd2>
  404376:	4622      	mov	r2, r4
  404378:	2100      	movs	r1, #0
  40437a:	4658      	mov	r0, fp
  40437c:	9301      	str	r3, [sp, #4]
  40437e:	f001 f91f 	bl	4055c0 <memchr>
  404382:	9b01      	ldr	r3, [sp, #4]
  404384:	2800      	cmp	r0, #0
  404386:	f000 82e5 	beq.w	404954 <_vfiprintf_r+0xc28>
  40438a:	eba0 020b 	sub.w	r2, r0, fp
  40438e:	9205      	str	r2, [sp, #20]
  404390:	9607      	str	r6, [sp, #28]
  404392:	9302      	str	r3, [sp, #8]
  404394:	f89d 5037 	ldrb.w	r5, [sp, #55]	; 0x37
  404398:	2400      	movs	r4, #0
  40439a:	e619      	b.n	403fd0 <_vfiprintf_r+0x2a4>
  40439c:	f898 2000 	ldrb.w	r2, [r8]
  4043a0:	2a2a      	cmp	r2, #42	; 0x2a
  4043a2:	f108 0701 	add.w	r7, r8, #1
  4043a6:	f000 82e9 	beq.w	40497c <_vfiprintf_r+0xc50>
  4043aa:	f1a2 0130 	sub.w	r1, r2, #48	; 0x30
  4043ae:	2909      	cmp	r1, #9
  4043b0:	46b8      	mov	r8, r7
  4043b2:	f04f 0400 	mov.w	r4, #0
  4043b6:	f63f ad2d 	bhi.w	403e14 <_vfiprintf_r+0xe8>
  4043ba:	f818 2b01 	ldrb.w	r2, [r8], #1
  4043be:	eb04 0484 	add.w	r4, r4, r4, lsl #2
  4043c2:	eb01 0444 	add.w	r4, r1, r4, lsl #1
  4043c6:	f1a2 0130 	sub.w	r1, r2, #48	; 0x30
  4043ca:	2909      	cmp	r1, #9
  4043cc:	d9f5      	bls.n	4043ba <_vfiprintf_r+0x68e>
  4043ce:	e521      	b.n	403e14 <_vfiprintf_r+0xe8>
  4043d0:	f043 0320 	orr.w	r3, r3, #32
  4043d4:	f898 2000 	ldrb.w	r2, [r8]
  4043d8:	e51a      	b.n	403e10 <_vfiprintf_r+0xe4>
  4043da:	9608      	str	r6, [sp, #32]
  4043dc:	2800      	cmp	r0, #0
  4043de:	f040 82db 	bne.w	404998 <_vfiprintf_r+0xc6c>
  4043e2:	2a00      	cmp	r2, #0
  4043e4:	f000 80e7 	beq.w	4045b6 <_vfiprintf_r+0x88a>
  4043e8:	2101      	movs	r1, #1
  4043ea:	f88d 2048 	strb.w	r2, [sp, #72]	; 0x48
  4043ee:	f04f 0200 	mov.w	r2, #0
  4043f2:	9101      	str	r1, [sp, #4]
  4043f4:	f88d 2037 	strb.w	r2, [sp, #55]	; 0x37
  4043f8:	9105      	str	r1, [sp, #20]
  4043fa:	f10d 0b48 	add.w	fp, sp, #72	; 0x48
  4043fe:	e77b      	b.n	4042f8 <_vfiprintf_r+0x5cc>
  404400:	9a07      	ldr	r2, [sp, #28]
  404402:	6813      	ldr	r3, [r2, #0]
  404404:	3204      	adds	r2, #4
  404406:	9207      	str	r2, [sp, #28]
  404408:	9a03      	ldr	r2, [sp, #12]
  40440a:	601a      	str	r2, [r3, #0]
  40440c:	e4cb      	b.n	403da6 <_vfiprintf_r+0x7a>
  40440e:	aa0f      	add	r2, sp, #60	; 0x3c
  404410:	9904      	ldr	r1, [sp, #16]
  404412:	4620      	mov	r0, r4
  404414:	f7ff fc4a 	bl	403cac <__sprint_r.part.0>
  404418:	2800      	cmp	r0, #0
  40441a:	f040 8139 	bne.w	404690 <_vfiprintf_r+0x964>
  40441e:	9910      	ldr	r1, [sp, #64]	; 0x40
  404420:	9a11      	ldr	r2, [sp, #68]	; 0x44
  404422:	f101 0c01 	add.w	ip, r1, #1
  404426:	46ce      	mov	lr, r9
  404428:	e5ff      	b.n	40402a <_vfiprintf_r+0x2fe>
  40442a:	9910      	ldr	r1, [sp, #64]	; 0x40
  40442c:	9a11      	ldr	r2, [sp, #68]	; 0x44
  40442e:	1c48      	adds	r0, r1, #1
  404430:	f89d 5037 	ldrb.w	r5, [sp, #55]	; 0x37
  404434:	2d00      	cmp	r5, #0
  404436:	f43f ae22 	beq.w	40407e <_vfiprintf_r+0x352>
  40443a:	3201      	adds	r2, #1
  40443c:	f10d 0537 	add.w	r5, sp, #55	; 0x37
  404440:	2101      	movs	r1, #1
  404442:	2807      	cmp	r0, #7
  404444:	9211      	str	r2, [sp, #68]	; 0x44
  404446:	9010      	str	r0, [sp, #64]	; 0x40
  404448:	f8ca 5000 	str.w	r5, [sl]
  40444c:	f8ca 1004 	str.w	r1, [sl, #4]
  404450:	f340 8108 	ble.w	404664 <_vfiprintf_r+0x938>
  404454:	2a00      	cmp	r2, #0
  404456:	f040 81bc 	bne.w	4047d2 <_vfiprintf_r+0xaa6>
  40445a:	9b09      	ldr	r3, [sp, #36]	; 0x24
  40445c:	2b00      	cmp	r3, #0
  40445e:	f43f ae1f 	beq.w	4040a0 <_vfiprintf_r+0x374>
  404462:	ab0e      	add	r3, sp, #56	; 0x38
  404464:	2202      	movs	r2, #2
  404466:	4608      	mov	r0, r1
  404468:	931c      	str	r3, [sp, #112]	; 0x70
  40446a:	921d      	str	r2, [sp, #116]	; 0x74
  40446c:	46ca      	mov	sl, r9
  40446e:	4601      	mov	r1, r0
  404470:	f10a 0a08 	add.w	sl, sl, #8
  404474:	3001      	adds	r0, #1
  404476:	9b0a      	ldr	r3, [sp, #40]	; 0x28
  404478:	2b80      	cmp	r3, #128	; 0x80
  40447a:	f43f ae19 	beq.w	4040b0 <_vfiprintf_r+0x384>
  40447e:	9b05      	ldr	r3, [sp, #20]
  404480:	1ae4      	subs	r4, r4, r3
  404482:	2c00      	cmp	r4, #0
  404484:	dd2e      	ble.n	4044e4 <_vfiprintf_r+0x7b8>
  404486:	2c10      	cmp	r4, #16
  404488:	4db3      	ldr	r5, [pc, #716]	; (404758 <_vfiprintf_r+0xa2c>)
  40448a:	dd1e      	ble.n	4044ca <_vfiprintf_r+0x79e>
  40448c:	46d6      	mov	lr, sl
  40448e:	2610      	movs	r6, #16
  404490:	9f06      	ldr	r7, [sp, #24]
  404492:	f8dd a010 	ldr.w	sl, [sp, #16]
  404496:	e006      	b.n	4044a6 <_vfiprintf_r+0x77a>
  404498:	1c88      	adds	r0, r1, #2
  40449a:	f10e 0e08 	add.w	lr, lr, #8
  40449e:	4619      	mov	r1, r3
  4044a0:	3c10      	subs	r4, #16
  4044a2:	2c10      	cmp	r4, #16
  4044a4:	dd10      	ble.n	4044c8 <_vfiprintf_r+0x79c>
  4044a6:	1c4b      	adds	r3, r1, #1
  4044a8:	3210      	adds	r2, #16
  4044aa:	2b07      	cmp	r3, #7
  4044ac:	9211      	str	r2, [sp, #68]	; 0x44
  4044ae:	e88e 0060 	stmia.w	lr, {r5, r6}
  4044b2:	9310      	str	r3, [sp, #64]	; 0x40
  4044b4:	ddf0      	ble.n	404498 <_vfiprintf_r+0x76c>
  4044b6:	2a00      	cmp	r2, #0
  4044b8:	d165      	bne.n	404586 <_vfiprintf_r+0x85a>
  4044ba:	3c10      	subs	r4, #16
  4044bc:	2c10      	cmp	r4, #16
  4044be:	f04f 0001 	mov.w	r0, #1
  4044c2:	4611      	mov	r1, r2
  4044c4:	46ce      	mov	lr, r9
  4044c6:	dcee      	bgt.n	4044a6 <_vfiprintf_r+0x77a>
  4044c8:	46f2      	mov	sl, lr
  4044ca:	4422      	add	r2, r4
  4044cc:	2807      	cmp	r0, #7
  4044ce:	9211      	str	r2, [sp, #68]	; 0x44
  4044d0:	f8ca 5000 	str.w	r5, [sl]
  4044d4:	f8ca 4004 	str.w	r4, [sl, #4]
  4044d8:	9010      	str	r0, [sp, #64]	; 0x40
  4044da:	f300 8085 	bgt.w	4045e8 <_vfiprintf_r+0x8bc>
  4044de:	f10a 0a08 	add.w	sl, sl, #8
  4044e2:	3001      	adds	r0, #1
  4044e4:	9905      	ldr	r1, [sp, #20]
  4044e6:	f8ca b000 	str.w	fp, [sl]
  4044ea:	440a      	add	r2, r1
  4044ec:	2807      	cmp	r0, #7
  4044ee:	9211      	str	r2, [sp, #68]	; 0x44
  4044f0:	f8ca 1004 	str.w	r1, [sl, #4]
  4044f4:	9010      	str	r0, [sp, #64]	; 0x40
  4044f6:	f340 8082 	ble.w	4045fe <_vfiprintf_r+0x8d2>
  4044fa:	2a00      	cmp	r2, #0
  4044fc:	f040 8118 	bne.w	404730 <_vfiprintf_r+0xa04>
  404500:	9b02      	ldr	r3, [sp, #8]
  404502:	9210      	str	r2, [sp, #64]	; 0x40
  404504:	0758      	lsls	r0, r3, #29
  404506:	d535      	bpl.n	404574 <_vfiprintf_r+0x848>
  404508:	9b08      	ldr	r3, [sp, #32]
  40450a:	9901      	ldr	r1, [sp, #4]
  40450c:	1a5c      	subs	r4, r3, r1
  40450e:	2c00      	cmp	r4, #0
  404510:	f340 80e7 	ble.w	4046e2 <_vfiprintf_r+0x9b6>
  404514:	46ca      	mov	sl, r9
  404516:	2c10      	cmp	r4, #16
  404518:	f340 8218 	ble.w	40494c <_vfiprintf_r+0xc20>
  40451c:	9910      	ldr	r1, [sp, #64]	; 0x40
  40451e:	4e8f      	ldr	r6, [pc, #572]	; (40475c <_vfiprintf_r+0xa30>)
  404520:	9f06      	ldr	r7, [sp, #24]
  404522:	f8dd b010 	ldr.w	fp, [sp, #16]
  404526:	2510      	movs	r5, #16
  404528:	e006      	b.n	404538 <_vfiprintf_r+0x80c>
  40452a:	1c88      	adds	r0, r1, #2
  40452c:	f10a 0a08 	add.w	sl, sl, #8
  404530:	4619      	mov	r1, r3
  404532:	3c10      	subs	r4, #16
  404534:	2c10      	cmp	r4, #16
  404536:	dd11      	ble.n	40455c <_vfiprintf_r+0x830>
  404538:	1c4b      	adds	r3, r1, #1
  40453a:	3210      	adds	r2, #16
  40453c:	2b07      	cmp	r3, #7
  40453e:	9211      	str	r2, [sp, #68]	; 0x44
  404540:	f8ca 6000 	str.w	r6, [sl]
  404544:	f8ca 5004 	str.w	r5, [sl, #4]
  404548:	9310      	str	r3, [sp, #64]	; 0x40
  40454a:	ddee      	ble.n	40452a <_vfiprintf_r+0x7fe>
  40454c:	bb42      	cbnz	r2, 4045a0 <_vfiprintf_r+0x874>
  40454e:	3c10      	subs	r4, #16
  404550:	2c10      	cmp	r4, #16
  404552:	f04f 0001 	mov.w	r0, #1
  404556:	4611      	mov	r1, r2
  404558:	46ca      	mov	sl, r9
  40455a:	dced      	bgt.n	404538 <_vfiprintf_r+0x80c>
  40455c:	4422      	add	r2, r4
  40455e:	2807      	cmp	r0, #7
  404560:	9211      	str	r2, [sp, #68]	; 0x44
  404562:	f8ca 6000 	str.w	r6, [sl]
  404566:	f8ca 4004 	str.w	r4, [sl, #4]
  40456a:	9010      	str	r0, [sp, #64]	; 0x40
  40456c:	dd51      	ble.n	404612 <_vfiprintf_r+0x8e6>
  40456e:	2a00      	cmp	r2, #0
  404570:	f040 819b 	bne.w	4048aa <_vfiprintf_r+0xb7e>
  404574:	9b03      	ldr	r3, [sp, #12]
  404576:	9a08      	ldr	r2, [sp, #32]
  404578:	9901      	ldr	r1, [sp, #4]
  40457a:	428a      	cmp	r2, r1
  40457c:	bfac      	ite	ge
  40457e:	189b      	addge	r3, r3, r2
  404580:	185b      	addlt	r3, r3, r1
  404582:	9303      	str	r3, [sp, #12]
  404584:	e04e      	b.n	404624 <_vfiprintf_r+0x8f8>
  404586:	aa0f      	add	r2, sp, #60	; 0x3c
  404588:	4651      	mov	r1, sl
  40458a:	4638      	mov	r0, r7
  40458c:	f7ff fb8e 	bl	403cac <__sprint_r.part.0>
  404590:	2800      	cmp	r0, #0
  404592:	f040 813f 	bne.w	404814 <_vfiprintf_r+0xae8>
  404596:	9910      	ldr	r1, [sp, #64]	; 0x40
  404598:	9a11      	ldr	r2, [sp, #68]	; 0x44
  40459a:	1c48      	adds	r0, r1, #1
  40459c:	46ce      	mov	lr, r9
  40459e:	e77f      	b.n	4044a0 <_vfiprintf_r+0x774>
  4045a0:	aa0f      	add	r2, sp, #60	; 0x3c
  4045a2:	4659      	mov	r1, fp
  4045a4:	4638      	mov	r0, r7
  4045a6:	f7ff fb81 	bl	403cac <__sprint_r.part.0>
  4045aa:	b960      	cbnz	r0, 4045c6 <_vfiprintf_r+0x89a>
  4045ac:	9910      	ldr	r1, [sp, #64]	; 0x40
  4045ae:	9a11      	ldr	r2, [sp, #68]	; 0x44
  4045b0:	1c48      	adds	r0, r1, #1
  4045b2:	46ca      	mov	sl, r9
  4045b4:	e7bd      	b.n	404532 <_vfiprintf_r+0x806>
  4045b6:	9b11      	ldr	r3, [sp, #68]	; 0x44
  4045b8:	f8dd b010 	ldr.w	fp, [sp, #16]
  4045bc:	2b00      	cmp	r3, #0
  4045be:	f040 81d4 	bne.w	40496a <_vfiprintf_r+0xc3e>
  4045c2:	2300      	movs	r3, #0
  4045c4:	9310      	str	r3, [sp, #64]	; 0x40
  4045c6:	f8db 3064 	ldr.w	r3, [fp, #100]	; 0x64
  4045ca:	f013 0f01 	tst.w	r3, #1
  4045ce:	f8bb 300c 	ldrh.w	r3, [fp, #12]
  4045d2:	d102      	bne.n	4045da <_vfiprintf_r+0x8ae>
  4045d4:	059a      	lsls	r2, r3, #22
  4045d6:	f140 80de 	bpl.w	404796 <_vfiprintf_r+0xa6a>
  4045da:	065b      	lsls	r3, r3, #25
  4045dc:	f53f acb2 	bmi.w	403f44 <_vfiprintf_r+0x218>
  4045e0:	9803      	ldr	r0, [sp, #12]
  4045e2:	b02d      	add	sp, #180	; 0xb4
  4045e4:	e8bd 8ff0 	ldmia.w	sp!, {r4, r5, r6, r7, r8, r9, sl, fp, pc}
  4045e8:	2a00      	cmp	r2, #0
  4045ea:	f040 8106 	bne.w	4047fa <_vfiprintf_r+0xace>
  4045ee:	9a05      	ldr	r2, [sp, #20]
  4045f0:	921d      	str	r2, [sp, #116]	; 0x74
  4045f2:	2301      	movs	r3, #1
  4045f4:	9211      	str	r2, [sp, #68]	; 0x44
  4045f6:	f8cd b070 	str.w	fp, [sp, #112]	; 0x70
  4045fa:	9310      	str	r3, [sp, #64]	; 0x40
  4045fc:	46ca      	mov	sl, r9
  4045fe:	f10a 0a08 	add.w	sl, sl, #8
  404602:	9b02      	ldr	r3, [sp, #8]
  404604:	0759      	lsls	r1, r3, #29
  404606:	d504      	bpl.n	404612 <_vfiprintf_r+0x8e6>
  404608:	9b08      	ldr	r3, [sp, #32]
  40460a:	9901      	ldr	r1, [sp, #4]
  40460c:	1a5c      	subs	r4, r3, r1
  40460e:	2c00      	cmp	r4, #0
  404610:	dc81      	bgt.n	404516 <_vfiprintf_r+0x7ea>
  404612:	9b03      	ldr	r3, [sp, #12]
  404614:	9908      	ldr	r1, [sp, #32]
  404616:	9801      	ldr	r0, [sp, #4]
  404618:	4281      	cmp	r1, r0
  40461a:	bfac      	ite	ge
  40461c:	185b      	addge	r3, r3, r1
  40461e:	181b      	addlt	r3, r3, r0
  404620:	9303      	str	r3, [sp, #12]
  404622:	bb72      	cbnz	r2, 404682 <_vfiprintf_r+0x956>
  404624:	2300      	movs	r3, #0
  404626:	9310      	str	r3, [sp, #64]	; 0x40
  404628:	46ca      	mov	sl, r9
  40462a:	f7ff bbbc 	b.w	403da6 <_vfiprintf_r+0x7a>
  40462e:	aa0f      	add	r2, sp, #60	; 0x3c
  404630:	9904      	ldr	r1, [sp, #16]
  404632:	4620      	mov	r0, r4
  404634:	f7ff fb3a 	bl	403cac <__sprint_r.part.0>
  404638:	bb50      	cbnz	r0, 404690 <_vfiprintf_r+0x964>
  40463a:	9910      	ldr	r1, [sp, #64]	; 0x40
  40463c:	9a11      	ldr	r2, [sp, #68]	; 0x44
  40463e:	f101 0e01 	add.w	lr, r1, #1
  404642:	46cc      	mov	ip, r9
  404644:	e548      	b.n	4040d8 <_vfiprintf_r+0x3ac>
  404646:	2a00      	cmp	r2, #0
  404648:	f040 8140 	bne.w	4048cc <_vfiprintf_r+0xba0>
  40464c:	f89d 1037 	ldrb.w	r1, [sp, #55]	; 0x37
  404650:	2900      	cmp	r1, #0
  404652:	f000 811b 	beq.w	40488c <_vfiprintf_r+0xb60>
  404656:	2201      	movs	r2, #1
  404658:	f10d 0137 	add.w	r1, sp, #55	; 0x37
  40465c:	4610      	mov	r0, r2
  40465e:	921d      	str	r2, [sp, #116]	; 0x74
  404660:	911c      	str	r1, [sp, #112]	; 0x70
  404662:	46ca      	mov	sl, r9
  404664:	4601      	mov	r1, r0
  404666:	f10a 0a08 	add.w	sl, sl, #8
  40466a:	3001      	adds	r0, #1
  40466c:	e507      	b.n	40407e <_vfiprintf_r+0x352>
  40466e:	9b02      	ldr	r3, [sp, #8]
  404670:	2a01      	cmp	r2, #1
  404672:	f000 8098 	beq.w	4047a6 <_vfiprintf_r+0xa7a>
  404676:	2a02      	cmp	r2, #2
  404678:	d10d      	bne.n	404696 <_vfiprintf_r+0x96a>
  40467a:	9302      	str	r3, [sp, #8]
  40467c:	2600      	movs	r6, #0
  40467e:	2700      	movs	r7, #0
  404680:	e5b0      	b.n	4041e4 <_vfiprintf_r+0x4b8>
  404682:	aa0f      	add	r2, sp, #60	; 0x3c
  404684:	9904      	ldr	r1, [sp, #16]
  404686:	9806      	ldr	r0, [sp, #24]
  404688:	f7ff fb10 	bl	403cac <__sprint_r.part.0>
  40468c:	2800      	cmp	r0, #0
  40468e:	d0c9      	beq.n	404624 <_vfiprintf_r+0x8f8>
  404690:	f8dd b010 	ldr.w	fp, [sp, #16]
  404694:	e797      	b.n	4045c6 <_vfiprintf_r+0x89a>
  404696:	9302      	str	r3, [sp, #8]
  404698:	2600      	movs	r6, #0
  40469a:	2700      	movs	r7, #0
  40469c:	4649      	mov	r1, r9
  40469e:	e000      	b.n	4046a2 <_vfiprintf_r+0x976>
  4046a0:	4659      	mov	r1, fp
  4046a2:	08f2      	lsrs	r2, r6, #3
  4046a4:	ea42 7247 	orr.w	r2, r2, r7, lsl #29
  4046a8:	08f8      	lsrs	r0, r7, #3
  4046aa:	f006 0307 	and.w	r3, r6, #7
  4046ae:	4607      	mov	r7, r0
  4046b0:	4616      	mov	r6, r2
  4046b2:	3330      	adds	r3, #48	; 0x30
  4046b4:	ea56 0207 	orrs.w	r2, r6, r7
  4046b8:	f801 3c01 	strb.w	r3, [r1, #-1]
  4046bc:	f101 3bff 	add.w	fp, r1, #4294967295
  4046c0:	d1ee      	bne.n	4046a0 <_vfiprintf_r+0x974>
  4046c2:	9a02      	ldr	r2, [sp, #8]
  4046c4:	07d6      	lsls	r6, r2, #31
  4046c6:	f57f ad9d 	bpl.w	404204 <_vfiprintf_r+0x4d8>
  4046ca:	2b30      	cmp	r3, #48	; 0x30
  4046cc:	f43f ad9a 	beq.w	404204 <_vfiprintf_r+0x4d8>
  4046d0:	3902      	subs	r1, #2
  4046d2:	2330      	movs	r3, #48	; 0x30
  4046d4:	f80b 3c01 	strb.w	r3, [fp, #-1]
  4046d8:	eba9 0301 	sub.w	r3, r9, r1
  4046dc:	9305      	str	r3, [sp, #20]
  4046de:	468b      	mov	fp, r1
  4046e0:	e476      	b.n	403fd0 <_vfiprintf_r+0x2a4>
  4046e2:	9b03      	ldr	r3, [sp, #12]
  4046e4:	9a08      	ldr	r2, [sp, #32]
  4046e6:	428a      	cmp	r2, r1
  4046e8:	bfac      	ite	ge
  4046ea:	189b      	addge	r3, r3, r2
  4046ec:	185b      	addlt	r3, r3, r1
  4046ee:	9303      	str	r3, [sp, #12]
  4046f0:	e798      	b.n	404624 <_vfiprintf_r+0x8f8>
  4046f2:	2202      	movs	r2, #2
  4046f4:	e44d      	b.n	403f92 <_vfiprintf_r+0x266>
  4046f6:	2f00      	cmp	r7, #0
  4046f8:	bf08      	it	eq
  4046fa:	2e0a      	cmpeq	r6, #10
  4046fc:	d352      	bcc.n	4047a4 <_vfiprintf_r+0xa78>
  4046fe:	46cb      	mov	fp, r9
  404700:	4630      	mov	r0, r6
  404702:	4639      	mov	r1, r7
  404704:	220a      	movs	r2, #10
  404706:	2300      	movs	r3, #0
  404708:	f001 fc36 	bl	405f78 <__aeabi_uldivmod>
  40470c:	3230      	adds	r2, #48	; 0x30
  40470e:	f80b 2d01 	strb.w	r2, [fp, #-1]!
  404712:	4630      	mov	r0, r6
  404714:	4639      	mov	r1, r7
  404716:	2300      	movs	r3, #0
  404718:	220a      	movs	r2, #10
  40471a:	f001 fc2d 	bl	405f78 <__aeabi_uldivmod>
  40471e:	4606      	mov	r6, r0
  404720:	460f      	mov	r7, r1
  404722:	ea56 0307 	orrs.w	r3, r6, r7
  404726:	d1eb      	bne.n	404700 <_vfiprintf_r+0x9d4>
  404728:	e56c      	b.n	404204 <_vfiprintf_r+0x4d8>
  40472a:	9405      	str	r4, [sp, #20]
  40472c:	46cb      	mov	fp, r9
  40472e:	e44f      	b.n	403fd0 <_vfiprintf_r+0x2a4>
  404730:	aa0f      	add	r2, sp, #60	; 0x3c
  404732:	9904      	ldr	r1, [sp, #16]
  404734:	9806      	ldr	r0, [sp, #24]
  404736:	f7ff fab9 	bl	403cac <__sprint_r.part.0>
  40473a:	2800      	cmp	r0, #0
  40473c:	d1a8      	bne.n	404690 <_vfiprintf_r+0x964>
  40473e:	9a11      	ldr	r2, [sp, #68]	; 0x44
  404740:	46ca      	mov	sl, r9
  404742:	e75e      	b.n	404602 <_vfiprintf_r+0x8d6>
  404744:	aa0f      	add	r2, sp, #60	; 0x3c
  404746:	9904      	ldr	r1, [sp, #16]
  404748:	9806      	ldr	r0, [sp, #24]
  40474a:	f7ff faaf 	bl	403cac <__sprint_r.part.0>
  40474e:	2800      	cmp	r0, #0
  404750:	d19e      	bne.n	404690 <_vfiprintf_r+0x964>
  404752:	46ca      	mov	sl, r9
  404754:	f7ff bbc0 	b.w	403ed8 <_vfiprintf_r+0x1ac>
  404758:	00406d00 	.word	0x00406d00
  40475c:	00406cf0 	.word	0x00406cf0
  404760:	3104      	adds	r1, #4
  404762:	6816      	ldr	r6, [r2, #0]
  404764:	9107      	str	r1, [sp, #28]
  404766:	2201      	movs	r2, #1
  404768:	2700      	movs	r7, #0
  40476a:	e412      	b.n	403f92 <_vfiprintf_r+0x266>
  40476c:	9807      	ldr	r0, [sp, #28]
  40476e:	4601      	mov	r1, r0
  404770:	3104      	adds	r1, #4
  404772:	6806      	ldr	r6, [r0, #0]
  404774:	9107      	str	r1, [sp, #28]
  404776:	2700      	movs	r7, #0
  404778:	e40b      	b.n	403f92 <_vfiprintf_r+0x266>
  40477a:	680e      	ldr	r6, [r1, #0]
  40477c:	3104      	adds	r1, #4
  40477e:	9107      	str	r1, [sp, #28]
  404780:	2700      	movs	r7, #0
  404782:	e591      	b.n	4042a8 <_vfiprintf_r+0x57c>
  404784:	9907      	ldr	r1, [sp, #28]
  404786:	680e      	ldr	r6, [r1, #0]
  404788:	460a      	mov	r2, r1
  40478a:	17f7      	asrs	r7, r6, #31
  40478c:	3204      	adds	r2, #4
  40478e:	9207      	str	r2, [sp, #28]
  404790:	4630      	mov	r0, r6
  404792:	4639      	mov	r1, r7
  404794:	e50f      	b.n	4041b6 <_vfiprintf_r+0x48a>
  404796:	f8db 0058 	ldr.w	r0, [fp, #88]	; 0x58
  40479a:	f000 fe7f 	bl	40549c <__retarget_lock_release_recursive>
  40479e:	f8bb 300c 	ldrh.w	r3, [fp, #12]
  4047a2:	e71a      	b.n	4045da <_vfiprintf_r+0x8ae>
  4047a4:	9b02      	ldr	r3, [sp, #8]
  4047a6:	9302      	str	r3, [sp, #8]
  4047a8:	f10d 0bb0 	add.w	fp, sp, #176	; 0xb0
  4047ac:	3630      	adds	r6, #48	; 0x30
  4047ae:	2301      	movs	r3, #1
  4047b0:	f80b 6d41 	strb.w	r6, [fp, #-65]!
  4047b4:	9305      	str	r3, [sp, #20]
  4047b6:	e40b      	b.n	403fd0 <_vfiprintf_r+0x2a4>
  4047b8:	aa0f      	add	r2, sp, #60	; 0x3c
  4047ba:	9904      	ldr	r1, [sp, #16]
  4047bc:	9806      	ldr	r0, [sp, #24]
  4047be:	f7ff fa75 	bl	403cac <__sprint_r.part.0>
  4047c2:	2800      	cmp	r0, #0
  4047c4:	f47f af64 	bne.w	404690 <_vfiprintf_r+0x964>
  4047c8:	9910      	ldr	r1, [sp, #64]	; 0x40
  4047ca:	9a11      	ldr	r2, [sp, #68]	; 0x44
  4047cc:	1c48      	adds	r0, r1, #1
  4047ce:	46ca      	mov	sl, r9
  4047d0:	e651      	b.n	404476 <_vfiprintf_r+0x74a>
  4047d2:	aa0f      	add	r2, sp, #60	; 0x3c
  4047d4:	9904      	ldr	r1, [sp, #16]
  4047d6:	9806      	ldr	r0, [sp, #24]
  4047d8:	f7ff fa68 	bl	403cac <__sprint_r.part.0>
  4047dc:	2800      	cmp	r0, #0
  4047de:	f47f af57 	bne.w	404690 <_vfiprintf_r+0x964>
  4047e2:	9910      	ldr	r1, [sp, #64]	; 0x40
  4047e4:	9a11      	ldr	r2, [sp, #68]	; 0x44
  4047e6:	1c48      	adds	r0, r1, #1
  4047e8:	46ca      	mov	sl, r9
  4047ea:	e448      	b.n	40407e <_vfiprintf_r+0x352>
  4047ec:	2a00      	cmp	r2, #0
  4047ee:	f040 8091 	bne.w	404914 <_vfiprintf_r+0xbe8>
  4047f2:	2001      	movs	r0, #1
  4047f4:	4611      	mov	r1, r2
  4047f6:	46ca      	mov	sl, r9
  4047f8:	e641      	b.n	40447e <_vfiprintf_r+0x752>
  4047fa:	aa0f      	add	r2, sp, #60	; 0x3c
  4047fc:	9904      	ldr	r1, [sp, #16]
  4047fe:	9806      	ldr	r0, [sp, #24]
  404800:	f7ff fa54 	bl	403cac <__sprint_r.part.0>
  404804:	2800      	cmp	r0, #0
  404806:	f47f af43 	bne.w	404690 <_vfiprintf_r+0x964>
  40480a:	9810      	ldr	r0, [sp, #64]	; 0x40
  40480c:	9a11      	ldr	r2, [sp, #68]	; 0x44
  40480e:	3001      	adds	r0, #1
  404810:	46ca      	mov	sl, r9
  404812:	e667      	b.n	4044e4 <_vfiprintf_r+0x7b8>
  404814:	46d3      	mov	fp, sl
  404816:	e6d6      	b.n	4045c6 <_vfiprintf_r+0x89a>
  404818:	9e07      	ldr	r6, [sp, #28]
  40481a:	3607      	adds	r6, #7
  40481c:	f026 0207 	bic.w	r2, r6, #7
  404820:	f102 0108 	add.w	r1, r2, #8
  404824:	e9d2 6700 	ldrd	r6, r7, [r2]
  404828:	9107      	str	r1, [sp, #28]
  40482a:	2201      	movs	r2, #1
  40482c:	f7ff bbb1 	b.w	403f92 <_vfiprintf_r+0x266>
  404830:	9e07      	ldr	r6, [sp, #28]
  404832:	3607      	adds	r6, #7
  404834:	f026 0607 	bic.w	r6, r6, #7
  404838:	e9d6 0100 	ldrd	r0, r1, [r6]
  40483c:	f106 0208 	add.w	r2, r6, #8
  404840:	9207      	str	r2, [sp, #28]
  404842:	4606      	mov	r6, r0
  404844:	460f      	mov	r7, r1
  404846:	e4b6      	b.n	4041b6 <_vfiprintf_r+0x48a>
  404848:	9e07      	ldr	r6, [sp, #28]
  40484a:	3607      	adds	r6, #7
  40484c:	f026 0207 	bic.w	r2, r6, #7
  404850:	f102 0108 	add.w	r1, r2, #8
  404854:	e9d2 6700 	ldrd	r6, r7, [r2]
  404858:	9107      	str	r1, [sp, #28]
  40485a:	2200      	movs	r2, #0
  40485c:	f7ff bb99 	b.w	403f92 <_vfiprintf_r+0x266>
  404860:	9e07      	ldr	r6, [sp, #28]
  404862:	3607      	adds	r6, #7
  404864:	f026 0107 	bic.w	r1, r6, #7
  404868:	f101 0008 	add.w	r0, r1, #8
  40486c:	9007      	str	r0, [sp, #28]
  40486e:	e9d1 6700 	ldrd	r6, r7, [r1]
  404872:	e519      	b.n	4042a8 <_vfiprintf_r+0x57c>
  404874:	46cb      	mov	fp, r9
  404876:	f7ff bbab 	b.w	403fd0 <_vfiprintf_r+0x2a4>
  40487a:	252d      	movs	r5, #45	; 0x2d
  40487c:	4276      	negs	r6, r6
  40487e:	eb67 0747 	sbc.w	r7, r7, r7, lsl #1
  404882:	f88d 5037 	strb.w	r5, [sp, #55]	; 0x37
  404886:	2201      	movs	r2, #1
  404888:	f7ff bb88 	b.w	403f9c <_vfiprintf_r+0x270>
  40488c:	9b09      	ldr	r3, [sp, #36]	; 0x24
  40488e:	b9b3      	cbnz	r3, 4048be <_vfiprintf_r+0xb92>
  404890:	4611      	mov	r1, r2
  404892:	2001      	movs	r0, #1
  404894:	46ca      	mov	sl, r9
  404896:	e5f2      	b.n	40447e <_vfiprintf_r+0x752>
  404898:	f8db 0058 	ldr.w	r0, [fp, #88]	; 0x58
  40489c:	f000 fdfe 	bl	40549c <__retarget_lock_release_recursive>
  4048a0:	f04f 33ff 	mov.w	r3, #4294967295
  4048a4:	9303      	str	r3, [sp, #12]
  4048a6:	f7ff bb50 	b.w	403f4a <_vfiprintf_r+0x21e>
  4048aa:	aa0f      	add	r2, sp, #60	; 0x3c
  4048ac:	9904      	ldr	r1, [sp, #16]
  4048ae:	9806      	ldr	r0, [sp, #24]
  4048b0:	f7ff f9fc 	bl	403cac <__sprint_r.part.0>
  4048b4:	2800      	cmp	r0, #0
  4048b6:	f47f aeeb 	bne.w	404690 <_vfiprintf_r+0x964>
  4048ba:	9a11      	ldr	r2, [sp, #68]	; 0x44
  4048bc:	e6a9      	b.n	404612 <_vfiprintf_r+0x8e6>
  4048be:	ab0e      	add	r3, sp, #56	; 0x38
  4048c0:	2202      	movs	r2, #2
  4048c2:	931c      	str	r3, [sp, #112]	; 0x70
  4048c4:	921d      	str	r2, [sp, #116]	; 0x74
  4048c6:	2001      	movs	r0, #1
  4048c8:	46ca      	mov	sl, r9
  4048ca:	e5d0      	b.n	40446e <_vfiprintf_r+0x742>
  4048cc:	aa0f      	add	r2, sp, #60	; 0x3c
  4048ce:	9904      	ldr	r1, [sp, #16]
  4048d0:	9806      	ldr	r0, [sp, #24]
  4048d2:	f7ff f9eb 	bl	403cac <__sprint_r.part.0>
  4048d6:	2800      	cmp	r0, #0
  4048d8:	f47f aeda 	bne.w	404690 <_vfiprintf_r+0x964>
  4048dc:	9910      	ldr	r1, [sp, #64]	; 0x40
  4048de:	9a11      	ldr	r2, [sp, #68]	; 0x44
  4048e0:	1c48      	adds	r0, r1, #1
  4048e2:	46ca      	mov	sl, r9
  4048e4:	e5a4      	b.n	404430 <_vfiprintf_r+0x704>
  4048e6:	9a07      	ldr	r2, [sp, #28]
  4048e8:	9903      	ldr	r1, [sp, #12]
  4048ea:	6813      	ldr	r3, [r2, #0]
  4048ec:	17cd      	asrs	r5, r1, #31
  4048ee:	4608      	mov	r0, r1
  4048f0:	3204      	adds	r2, #4
  4048f2:	4629      	mov	r1, r5
  4048f4:	9207      	str	r2, [sp, #28]
  4048f6:	e9c3 0100 	strd	r0, r1, [r3]
  4048fa:	f7ff ba54 	b.w	403da6 <_vfiprintf_r+0x7a>
  4048fe:	4658      	mov	r0, fp
  404900:	9607      	str	r6, [sp, #28]
  404902:	9302      	str	r3, [sp, #8]
  404904:	f001 f8fc 	bl	405b00 <strlen>
  404908:	2400      	movs	r4, #0
  40490a:	9005      	str	r0, [sp, #20]
  40490c:	f89d 5037 	ldrb.w	r5, [sp, #55]	; 0x37
  404910:	f7ff bb5e 	b.w	403fd0 <_vfiprintf_r+0x2a4>
  404914:	aa0f      	add	r2, sp, #60	; 0x3c
  404916:	9904      	ldr	r1, [sp, #16]
  404918:	9806      	ldr	r0, [sp, #24]
  40491a:	f7ff f9c7 	bl	403cac <__sprint_r.part.0>
  40491e:	2800      	cmp	r0, #0
  404920:	f47f aeb6 	bne.w	404690 <_vfiprintf_r+0x964>
  404924:	9910      	ldr	r1, [sp, #64]	; 0x40
  404926:	9a11      	ldr	r2, [sp, #68]	; 0x44
  404928:	1c48      	adds	r0, r1, #1
  40492a:	46ca      	mov	sl, r9
  40492c:	e5a7      	b.n	40447e <_vfiprintf_r+0x752>
  40492e:	9910      	ldr	r1, [sp, #64]	; 0x40
  404930:	9a11      	ldr	r2, [sp, #68]	; 0x44
  404932:	4e20      	ldr	r6, [pc, #128]	; (4049b4 <_vfiprintf_r+0xc88>)
  404934:	3101      	adds	r1, #1
  404936:	f7ff bb90 	b.w	40405a <_vfiprintf_r+0x32e>
  40493a:	2c06      	cmp	r4, #6
  40493c:	bf28      	it	cs
  40493e:	2406      	movcs	r4, #6
  404940:	9405      	str	r4, [sp, #20]
  404942:	9607      	str	r6, [sp, #28]
  404944:	9401      	str	r4, [sp, #4]
  404946:	f8df b070 	ldr.w	fp, [pc, #112]	; 4049b8 <_vfiprintf_r+0xc8c>
  40494a:	e4d5      	b.n	4042f8 <_vfiprintf_r+0x5cc>
  40494c:	9810      	ldr	r0, [sp, #64]	; 0x40
  40494e:	4e19      	ldr	r6, [pc, #100]	; (4049b4 <_vfiprintf_r+0xc88>)
  404950:	3001      	adds	r0, #1
  404952:	e603      	b.n	40455c <_vfiprintf_r+0x830>
  404954:	9405      	str	r4, [sp, #20]
  404956:	f89d 5037 	ldrb.w	r5, [sp, #55]	; 0x37
  40495a:	9607      	str	r6, [sp, #28]
  40495c:	9302      	str	r3, [sp, #8]
  40495e:	4604      	mov	r4, r0
  404960:	f7ff bb36 	b.w	403fd0 <_vfiprintf_r+0x2a4>
  404964:	4686      	mov	lr, r0
  404966:	f7ff bbce 	b.w	404106 <_vfiprintf_r+0x3da>
  40496a:	9806      	ldr	r0, [sp, #24]
  40496c:	aa0f      	add	r2, sp, #60	; 0x3c
  40496e:	4659      	mov	r1, fp
  404970:	f7ff f99c 	bl	403cac <__sprint_r.part.0>
  404974:	2800      	cmp	r0, #0
  404976:	f43f ae24 	beq.w	4045c2 <_vfiprintf_r+0x896>
  40497a:	e624      	b.n	4045c6 <_vfiprintf_r+0x89a>
  40497c:	9907      	ldr	r1, [sp, #28]
  40497e:	f898 2001 	ldrb.w	r2, [r8, #1]
  404982:	680c      	ldr	r4, [r1, #0]
  404984:	3104      	adds	r1, #4
  404986:	ea44 74e4 	orr.w	r4, r4, r4, asr #31
  40498a:	46b8      	mov	r8, r7
  40498c:	9107      	str	r1, [sp, #28]
  40498e:	f7ff ba3f 	b.w	403e10 <_vfiprintf_r+0xe4>
  404992:	f88d 5037 	strb.w	r5, [sp, #55]	; 0x37
  404996:	e43c      	b.n	404212 <_vfiprintf_r+0x4e6>
  404998:	f88d 5037 	strb.w	r5, [sp, #55]	; 0x37
  40499c:	e521      	b.n	4043e2 <_vfiprintf_r+0x6b6>
  40499e:	f88d 5037 	strb.w	r5, [sp, #55]	; 0x37
  4049a2:	f7ff bbf4 	b.w	40418e <_vfiprintf_r+0x462>
  4049a6:	f88d 5037 	strb.w	r5, [sp, #55]	; 0x37
  4049aa:	e491      	b.n	4042d0 <_vfiprintf_r+0x5a4>
  4049ac:	f88d 5037 	strb.w	r5, [sp, #55]	; 0x37
  4049b0:	e469      	b.n	404286 <_vfiprintf_r+0x55a>
  4049b2:	bf00      	nop
  4049b4:	00406cf0 	.word	0x00406cf0
  4049b8:	00406ce8 	.word	0x00406ce8

004049bc <__sbprintf>:
  4049bc:	e92d 41f0 	stmdb	sp!, {r4, r5, r6, r7, r8, lr}
  4049c0:	460c      	mov	r4, r1
  4049c2:	f5ad 6d8d 	sub.w	sp, sp, #1128	; 0x468
  4049c6:	8989      	ldrh	r1, [r1, #12]
  4049c8:	6e66      	ldr	r6, [r4, #100]	; 0x64
  4049ca:	89e5      	ldrh	r5, [r4, #14]
  4049cc:	9619      	str	r6, [sp, #100]	; 0x64
  4049ce:	f021 0102 	bic.w	r1, r1, #2
  4049d2:	4606      	mov	r6, r0
  4049d4:	69e0      	ldr	r0, [r4, #28]
  4049d6:	f8ad 100c 	strh.w	r1, [sp, #12]
  4049da:	4617      	mov	r7, r2
  4049dc:	f44f 6180 	mov.w	r1, #1024	; 0x400
  4049e0:	6a62      	ldr	r2, [r4, #36]	; 0x24
  4049e2:	f8ad 500e 	strh.w	r5, [sp, #14]
  4049e6:	4698      	mov	r8, r3
  4049e8:	ad1a      	add	r5, sp, #104	; 0x68
  4049ea:	2300      	movs	r3, #0
  4049ec:	9007      	str	r0, [sp, #28]
  4049ee:	a816      	add	r0, sp, #88	; 0x58
  4049f0:	9209      	str	r2, [sp, #36]	; 0x24
  4049f2:	9306      	str	r3, [sp, #24]
  4049f4:	9500      	str	r5, [sp, #0]
  4049f6:	9504      	str	r5, [sp, #16]
  4049f8:	9102      	str	r1, [sp, #8]
  4049fa:	9105      	str	r1, [sp, #20]
  4049fc:	f000 fd48 	bl	405490 <__retarget_lock_init_recursive>
  404a00:	4643      	mov	r3, r8
  404a02:	463a      	mov	r2, r7
  404a04:	4669      	mov	r1, sp
  404a06:	4630      	mov	r0, r6
  404a08:	f7ff f990 	bl	403d2c <_vfiprintf_r>
  404a0c:	1e05      	subs	r5, r0, #0
  404a0e:	db07      	blt.n	404a20 <__sbprintf+0x64>
  404a10:	4630      	mov	r0, r6
  404a12:	4669      	mov	r1, sp
  404a14:	f000 f928 	bl	404c68 <_fflush_r>
  404a18:	2800      	cmp	r0, #0
  404a1a:	bf18      	it	ne
  404a1c:	f04f 35ff 	movne.w	r5, #4294967295
  404a20:	f8bd 300c 	ldrh.w	r3, [sp, #12]
  404a24:	065b      	lsls	r3, r3, #25
  404a26:	d503      	bpl.n	404a30 <__sbprintf+0x74>
  404a28:	89a3      	ldrh	r3, [r4, #12]
  404a2a:	f043 0340 	orr.w	r3, r3, #64	; 0x40
  404a2e:	81a3      	strh	r3, [r4, #12]
  404a30:	9816      	ldr	r0, [sp, #88]	; 0x58
  404a32:	f000 fd2f 	bl	405494 <__retarget_lock_close_recursive>
  404a36:	4628      	mov	r0, r5
  404a38:	f50d 6d8d 	add.w	sp, sp, #1128	; 0x468
  404a3c:	e8bd 81f0 	ldmia.w	sp!, {r4, r5, r6, r7, r8, pc}

00404a40 <__swsetup_r>:
  404a40:	b538      	push	{r3, r4, r5, lr}
  404a42:	4b30      	ldr	r3, [pc, #192]	; (404b04 <__swsetup_r+0xc4>)
  404a44:	681b      	ldr	r3, [r3, #0]
  404a46:	4605      	mov	r5, r0
  404a48:	460c      	mov	r4, r1
  404a4a:	b113      	cbz	r3, 404a52 <__swsetup_r+0x12>
  404a4c:	6b9a      	ldr	r2, [r3, #56]	; 0x38
  404a4e:	2a00      	cmp	r2, #0
  404a50:	d038      	beq.n	404ac4 <__swsetup_r+0x84>
  404a52:	f9b4 200c 	ldrsh.w	r2, [r4, #12]
  404a56:	b293      	uxth	r3, r2
  404a58:	0718      	lsls	r0, r3, #28
  404a5a:	d50c      	bpl.n	404a76 <__swsetup_r+0x36>
  404a5c:	6920      	ldr	r0, [r4, #16]
  404a5e:	b1a8      	cbz	r0, 404a8c <__swsetup_r+0x4c>
  404a60:	f013 0201 	ands.w	r2, r3, #1
  404a64:	d01e      	beq.n	404aa4 <__swsetup_r+0x64>
  404a66:	6963      	ldr	r3, [r4, #20]
  404a68:	2200      	movs	r2, #0
  404a6a:	425b      	negs	r3, r3
  404a6c:	61a3      	str	r3, [r4, #24]
  404a6e:	60a2      	str	r2, [r4, #8]
  404a70:	b1f0      	cbz	r0, 404ab0 <__swsetup_r+0x70>
  404a72:	2000      	movs	r0, #0
  404a74:	bd38      	pop	{r3, r4, r5, pc}
  404a76:	06d9      	lsls	r1, r3, #27
  404a78:	d53c      	bpl.n	404af4 <__swsetup_r+0xb4>
  404a7a:	0758      	lsls	r0, r3, #29
  404a7c:	d426      	bmi.n	404acc <__swsetup_r+0x8c>
  404a7e:	6920      	ldr	r0, [r4, #16]
  404a80:	f042 0308 	orr.w	r3, r2, #8
  404a84:	81a3      	strh	r3, [r4, #12]
  404a86:	b29b      	uxth	r3, r3
  404a88:	2800      	cmp	r0, #0
  404a8a:	d1e9      	bne.n	404a60 <__swsetup_r+0x20>
  404a8c:	f403 7220 	and.w	r2, r3, #640	; 0x280
  404a90:	f5b2 7f00 	cmp.w	r2, #512	; 0x200
  404a94:	d0e4      	beq.n	404a60 <__swsetup_r+0x20>
  404a96:	4628      	mov	r0, r5
  404a98:	4621      	mov	r1, r4
  404a9a:	f000 fd2f 	bl	4054fc <__smakebuf_r>
  404a9e:	89a3      	ldrh	r3, [r4, #12]
  404aa0:	6920      	ldr	r0, [r4, #16]
  404aa2:	e7dd      	b.n	404a60 <__swsetup_r+0x20>
  404aa4:	0799      	lsls	r1, r3, #30
  404aa6:	bf58      	it	pl
  404aa8:	6962      	ldrpl	r2, [r4, #20]
  404aaa:	60a2      	str	r2, [r4, #8]
  404aac:	2800      	cmp	r0, #0
  404aae:	d1e0      	bne.n	404a72 <__swsetup_r+0x32>
  404ab0:	f9b4 300c 	ldrsh.w	r3, [r4, #12]
  404ab4:	061a      	lsls	r2, r3, #24
  404ab6:	d5dd      	bpl.n	404a74 <__swsetup_r+0x34>
  404ab8:	f043 0340 	orr.w	r3, r3, #64	; 0x40
  404abc:	81a3      	strh	r3, [r4, #12]
  404abe:	f04f 30ff 	mov.w	r0, #4294967295
  404ac2:	bd38      	pop	{r3, r4, r5, pc}
  404ac4:	4618      	mov	r0, r3
  404ac6:	f000 f927 	bl	404d18 <__sinit>
  404aca:	e7c2      	b.n	404a52 <__swsetup_r+0x12>
  404acc:	6b21      	ldr	r1, [r4, #48]	; 0x30
  404ace:	b151      	cbz	r1, 404ae6 <__swsetup_r+0xa6>
  404ad0:	f104 0340 	add.w	r3, r4, #64	; 0x40
  404ad4:	4299      	cmp	r1, r3
  404ad6:	d004      	beq.n	404ae2 <__swsetup_r+0xa2>
  404ad8:	4628      	mov	r0, r5
  404ada:	f000 fa43 	bl	404f64 <_free_r>
  404ade:	f9b4 200c 	ldrsh.w	r2, [r4, #12]
  404ae2:	2300      	movs	r3, #0
  404ae4:	6323      	str	r3, [r4, #48]	; 0x30
  404ae6:	2300      	movs	r3, #0
  404ae8:	6920      	ldr	r0, [r4, #16]
  404aea:	6063      	str	r3, [r4, #4]
  404aec:	f022 0224 	bic.w	r2, r2, #36	; 0x24
  404af0:	6020      	str	r0, [r4, #0]
  404af2:	e7c5      	b.n	404a80 <__swsetup_r+0x40>
  404af4:	f042 0240 	orr.w	r2, r2, #64	; 0x40
  404af8:	2309      	movs	r3, #9
  404afa:	602b      	str	r3, [r5, #0]
  404afc:	f04f 30ff 	mov.w	r0, #4294967295
  404b00:	81a2      	strh	r2, [r4, #12]
  404b02:	bd38      	pop	{r3, r4, r5, pc}
  404b04:	20400060 	.word	0x20400060

00404b08 <register_fini>:
  404b08:	4b02      	ldr	r3, [pc, #8]	; (404b14 <register_fini+0xc>)
  404b0a:	b113      	cbz	r3, 404b12 <register_fini+0xa>
  404b0c:	4802      	ldr	r0, [pc, #8]	; (404b18 <register_fini+0x10>)
  404b0e:	f000 b805 	b.w	404b1c <atexit>
  404b12:	4770      	bx	lr
  404b14:	00000000 	.word	0x00000000
  404b18:	00404d89 	.word	0x00404d89

00404b1c <atexit>:
  404b1c:	2300      	movs	r3, #0
  404b1e:	4601      	mov	r1, r0
  404b20:	461a      	mov	r2, r3
  404b22:	4618      	mov	r0, r3
  404b24:	f001 b900 	b.w	405d28 <__register_exitproc>

00404b28 <__sflush_r>:
  404b28:	f9b1 300c 	ldrsh.w	r3, [r1, #12]
  404b2c:	b29a      	uxth	r2, r3
  404b2e:	e92d 41f0 	stmdb	sp!, {r4, r5, r6, r7, r8, lr}
  404b32:	460d      	mov	r5, r1
  404b34:	0711      	lsls	r1, r2, #28
  404b36:	4680      	mov	r8, r0
  404b38:	d43a      	bmi.n	404bb0 <__sflush_r+0x88>
  404b3a:	686a      	ldr	r2, [r5, #4]
  404b3c:	f443 6300 	orr.w	r3, r3, #2048	; 0x800
  404b40:	2a00      	cmp	r2, #0
  404b42:	81ab      	strh	r3, [r5, #12]
  404b44:	dd6f      	ble.n	404c26 <__sflush_r+0xfe>
  404b46:	6aac      	ldr	r4, [r5, #40]	; 0x28
  404b48:	2c00      	cmp	r4, #0
  404b4a:	d049      	beq.n	404be0 <__sflush_r+0xb8>
  404b4c:	2200      	movs	r2, #0
  404b4e:	b29b      	uxth	r3, r3
  404b50:	f8d8 6000 	ldr.w	r6, [r8]
  404b54:	f8c8 2000 	str.w	r2, [r8]
  404b58:	f413 5280 	ands.w	r2, r3, #4096	; 0x1000
  404b5c:	d067      	beq.n	404c2e <__sflush_r+0x106>
  404b5e:	6d2a      	ldr	r2, [r5, #80]	; 0x50
  404b60:	075f      	lsls	r7, r3, #29
  404b62:	d505      	bpl.n	404b70 <__sflush_r+0x48>
  404b64:	6869      	ldr	r1, [r5, #4]
  404b66:	6b2b      	ldr	r3, [r5, #48]	; 0x30
  404b68:	1a52      	subs	r2, r2, r1
  404b6a:	b10b      	cbz	r3, 404b70 <__sflush_r+0x48>
  404b6c:	6beb      	ldr	r3, [r5, #60]	; 0x3c
  404b6e:	1ad2      	subs	r2, r2, r3
  404b70:	2300      	movs	r3, #0
  404b72:	69e9      	ldr	r1, [r5, #28]
  404b74:	4640      	mov	r0, r8
  404b76:	47a0      	blx	r4
  404b78:	1c44      	adds	r4, r0, #1
  404b7a:	d03c      	beq.n	404bf6 <__sflush_r+0xce>
  404b7c:	f9b5 300c 	ldrsh.w	r3, [r5, #12]
  404b80:	692a      	ldr	r2, [r5, #16]
  404b82:	602a      	str	r2, [r5, #0]
  404b84:	f423 6300 	bic.w	r3, r3, #2048	; 0x800
  404b88:	2200      	movs	r2, #0
  404b8a:	81ab      	strh	r3, [r5, #12]
  404b8c:	04db      	lsls	r3, r3, #19
  404b8e:	606a      	str	r2, [r5, #4]
  404b90:	d447      	bmi.n	404c22 <__sflush_r+0xfa>
  404b92:	6b29      	ldr	r1, [r5, #48]	; 0x30
  404b94:	f8c8 6000 	str.w	r6, [r8]
  404b98:	b311      	cbz	r1, 404be0 <__sflush_r+0xb8>
  404b9a:	f105 0340 	add.w	r3, r5, #64	; 0x40
  404b9e:	4299      	cmp	r1, r3
  404ba0:	d002      	beq.n	404ba8 <__sflush_r+0x80>
  404ba2:	4640      	mov	r0, r8
  404ba4:	f000 f9de 	bl	404f64 <_free_r>
  404ba8:	2000      	movs	r0, #0
  404baa:	6328      	str	r0, [r5, #48]	; 0x30
  404bac:	e8bd 81f0 	ldmia.w	sp!, {r4, r5, r6, r7, r8, pc}
  404bb0:	692e      	ldr	r6, [r5, #16]
  404bb2:	b1ae      	cbz	r6, 404be0 <__sflush_r+0xb8>
  404bb4:	682c      	ldr	r4, [r5, #0]
  404bb6:	602e      	str	r6, [r5, #0]
  404bb8:	0791      	lsls	r1, r2, #30
  404bba:	bf0c      	ite	eq
  404bbc:	696b      	ldreq	r3, [r5, #20]
  404bbe:	2300      	movne	r3, #0
  404bc0:	1ba4      	subs	r4, r4, r6
  404bc2:	60ab      	str	r3, [r5, #8]
  404bc4:	e00a      	b.n	404bdc <__sflush_r+0xb4>
  404bc6:	4623      	mov	r3, r4
  404bc8:	4632      	mov	r2, r6
  404bca:	6a6f      	ldr	r7, [r5, #36]	; 0x24
  404bcc:	69e9      	ldr	r1, [r5, #28]
  404bce:	4640      	mov	r0, r8
  404bd0:	47b8      	blx	r7
  404bd2:	2800      	cmp	r0, #0
  404bd4:	eba4 0400 	sub.w	r4, r4, r0
  404bd8:	4406      	add	r6, r0
  404bda:	dd04      	ble.n	404be6 <__sflush_r+0xbe>
  404bdc:	2c00      	cmp	r4, #0
  404bde:	dcf2      	bgt.n	404bc6 <__sflush_r+0x9e>
  404be0:	2000      	movs	r0, #0
  404be2:	e8bd 81f0 	ldmia.w	sp!, {r4, r5, r6, r7, r8, pc}
  404be6:	89ab      	ldrh	r3, [r5, #12]
  404be8:	f043 0340 	orr.w	r3, r3, #64	; 0x40
  404bec:	81ab      	strh	r3, [r5, #12]
  404bee:	f04f 30ff 	mov.w	r0, #4294967295
  404bf2:	e8bd 81f0 	ldmia.w	sp!, {r4, r5, r6, r7, r8, pc}
  404bf6:	f8d8 4000 	ldr.w	r4, [r8]
  404bfa:	2c1d      	cmp	r4, #29
  404bfc:	d8f3      	bhi.n	404be6 <__sflush_r+0xbe>
  404bfe:	4b19      	ldr	r3, [pc, #100]	; (404c64 <__sflush_r+0x13c>)
  404c00:	40e3      	lsrs	r3, r4
  404c02:	43db      	mvns	r3, r3
  404c04:	f013 0301 	ands.w	r3, r3, #1
  404c08:	d1ed      	bne.n	404be6 <__sflush_r+0xbe>
  404c0a:	f9b5 200c 	ldrsh.w	r2, [r5, #12]
  404c0e:	606b      	str	r3, [r5, #4]
  404c10:	f422 6300 	bic.w	r3, r2, #2048	; 0x800
  404c14:	6929      	ldr	r1, [r5, #16]
  404c16:	81ab      	strh	r3, [r5, #12]
  404c18:	04da      	lsls	r2, r3, #19
  404c1a:	6029      	str	r1, [r5, #0]
  404c1c:	d5b9      	bpl.n	404b92 <__sflush_r+0x6a>
  404c1e:	2c00      	cmp	r4, #0
  404c20:	d1b7      	bne.n	404b92 <__sflush_r+0x6a>
  404c22:	6528      	str	r0, [r5, #80]	; 0x50
  404c24:	e7b5      	b.n	404b92 <__sflush_r+0x6a>
  404c26:	6bea      	ldr	r2, [r5, #60]	; 0x3c
  404c28:	2a00      	cmp	r2, #0
  404c2a:	dc8c      	bgt.n	404b46 <__sflush_r+0x1e>
  404c2c:	e7d8      	b.n	404be0 <__sflush_r+0xb8>
  404c2e:	2301      	movs	r3, #1
  404c30:	69e9      	ldr	r1, [r5, #28]
  404c32:	4640      	mov	r0, r8
  404c34:	47a0      	blx	r4
  404c36:	1c43      	adds	r3, r0, #1
  404c38:	4602      	mov	r2, r0
  404c3a:	d002      	beq.n	404c42 <__sflush_r+0x11a>
  404c3c:	89ab      	ldrh	r3, [r5, #12]
  404c3e:	6aac      	ldr	r4, [r5, #40]	; 0x28
  404c40:	e78e      	b.n	404b60 <__sflush_r+0x38>
  404c42:	f8d8 3000 	ldr.w	r3, [r8]
  404c46:	2b00      	cmp	r3, #0
  404c48:	d0f8      	beq.n	404c3c <__sflush_r+0x114>
  404c4a:	2b1d      	cmp	r3, #29
  404c4c:	d001      	beq.n	404c52 <__sflush_r+0x12a>
  404c4e:	2b16      	cmp	r3, #22
  404c50:	d102      	bne.n	404c58 <__sflush_r+0x130>
  404c52:	f8c8 6000 	str.w	r6, [r8]
  404c56:	e7c3      	b.n	404be0 <__sflush_r+0xb8>
  404c58:	89ab      	ldrh	r3, [r5, #12]
  404c5a:	f043 0340 	orr.w	r3, r3, #64	; 0x40
  404c5e:	81ab      	strh	r3, [r5, #12]
  404c60:	e8bd 81f0 	ldmia.w	sp!, {r4, r5, r6, r7, r8, pc}
  404c64:	20400001 	.word	0x20400001

00404c68 <_fflush_r>:
  404c68:	b538      	push	{r3, r4, r5, lr}
  404c6a:	460d      	mov	r5, r1
  404c6c:	4604      	mov	r4, r0
  404c6e:	b108      	cbz	r0, 404c74 <_fflush_r+0xc>
  404c70:	6b83      	ldr	r3, [r0, #56]	; 0x38
  404c72:	b1bb      	cbz	r3, 404ca4 <_fflush_r+0x3c>
  404c74:	f9b5 000c 	ldrsh.w	r0, [r5, #12]
  404c78:	b188      	cbz	r0, 404c9e <_fflush_r+0x36>
  404c7a:	6e6b      	ldr	r3, [r5, #100]	; 0x64
  404c7c:	07db      	lsls	r3, r3, #31
  404c7e:	d401      	bmi.n	404c84 <_fflush_r+0x1c>
  404c80:	0581      	lsls	r1, r0, #22
  404c82:	d517      	bpl.n	404cb4 <_fflush_r+0x4c>
  404c84:	4620      	mov	r0, r4
  404c86:	4629      	mov	r1, r5
  404c88:	f7ff ff4e 	bl	404b28 <__sflush_r>
  404c8c:	6e6b      	ldr	r3, [r5, #100]	; 0x64
  404c8e:	07da      	lsls	r2, r3, #31
  404c90:	4604      	mov	r4, r0
  404c92:	d402      	bmi.n	404c9a <_fflush_r+0x32>
  404c94:	89ab      	ldrh	r3, [r5, #12]
  404c96:	059b      	lsls	r3, r3, #22
  404c98:	d507      	bpl.n	404caa <_fflush_r+0x42>
  404c9a:	4620      	mov	r0, r4
  404c9c:	bd38      	pop	{r3, r4, r5, pc}
  404c9e:	4604      	mov	r4, r0
  404ca0:	4620      	mov	r0, r4
  404ca2:	bd38      	pop	{r3, r4, r5, pc}
  404ca4:	f000 f838 	bl	404d18 <__sinit>
  404ca8:	e7e4      	b.n	404c74 <_fflush_r+0xc>
  404caa:	6da8      	ldr	r0, [r5, #88]	; 0x58
  404cac:	f000 fbf6 	bl	40549c <__retarget_lock_release_recursive>
  404cb0:	4620      	mov	r0, r4
  404cb2:	bd38      	pop	{r3, r4, r5, pc}
  404cb4:	6da8      	ldr	r0, [r5, #88]	; 0x58
  404cb6:	f000 fbef 	bl	405498 <__retarget_lock_acquire_recursive>
  404cba:	e7e3      	b.n	404c84 <_fflush_r+0x1c>

00404cbc <_cleanup_r>:
  404cbc:	4901      	ldr	r1, [pc, #4]	; (404cc4 <_cleanup_r+0x8>)
  404cbe:	f000 bbaf 	b.w	405420 <_fwalk_reent>
  404cc2:	bf00      	nop
  404cc4:	00405e11 	.word	0x00405e11

00404cc8 <std.isra.0>:
  404cc8:	b510      	push	{r4, lr}
  404cca:	2300      	movs	r3, #0
  404ccc:	4604      	mov	r4, r0
  404cce:	8181      	strh	r1, [r0, #12]
  404cd0:	81c2      	strh	r2, [r0, #14]
  404cd2:	6003      	str	r3, [r0, #0]
  404cd4:	6043      	str	r3, [r0, #4]
  404cd6:	6083      	str	r3, [r0, #8]
  404cd8:	6643      	str	r3, [r0, #100]	; 0x64
  404cda:	6103      	str	r3, [r0, #16]
  404cdc:	6143      	str	r3, [r0, #20]
  404cde:	6183      	str	r3, [r0, #24]
  404ce0:	4619      	mov	r1, r3
  404ce2:	2208      	movs	r2, #8
  404ce4:	305c      	adds	r0, #92	; 0x5c
  404ce6:	f7fe ff75 	bl	403bd4 <memset>
  404cea:	4807      	ldr	r0, [pc, #28]	; (404d08 <std.isra.0+0x40>)
  404cec:	4907      	ldr	r1, [pc, #28]	; (404d0c <std.isra.0+0x44>)
  404cee:	4a08      	ldr	r2, [pc, #32]	; (404d10 <std.isra.0+0x48>)
  404cf0:	4b08      	ldr	r3, [pc, #32]	; (404d14 <std.isra.0+0x4c>)
  404cf2:	6220      	str	r0, [r4, #32]
  404cf4:	61e4      	str	r4, [r4, #28]
  404cf6:	6261      	str	r1, [r4, #36]	; 0x24
  404cf8:	62a2      	str	r2, [r4, #40]	; 0x28
  404cfa:	62e3      	str	r3, [r4, #44]	; 0x2c
  404cfc:	f104 0058 	add.w	r0, r4, #88	; 0x58
  404d00:	e8bd 4010 	ldmia.w	sp!, {r4, lr}
  404d04:	f000 bbc4 	b.w	405490 <__retarget_lock_init_recursive>
  404d08:	00405a75 	.word	0x00405a75
  404d0c:	00405a99 	.word	0x00405a99
  404d10:	00405ad5 	.word	0x00405ad5
  404d14:	00405af5 	.word	0x00405af5

00404d18 <__sinit>:
  404d18:	b510      	push	{r4, lr}
  404d1a:	4604      	mov	r4, r0
  404d1c:	4812      	ldr	r0, [pc, #72]	; (404d68 <__sinit+0x50>)
  404d1e:	f000 fbbb 	bl	405498 <__retarget_lock_acquire_recursive>
  404d22:	6ba2      	ldr	r2, [r4, #56]	; 0x38
  404d24:	b9d2      	cbnz	r2, 404d5c <__sinit+0x44>
  404d26:	f504 733b 	add.w	r3, r4, #748	; 0x2ec
  404d2a:	4810      	ldr	r0, [pc, #64]	; (404d6c <__sinit+0x54>)
  404d2c:	f8c4 32e8 	str.w	r3, [r4, #744]	; 0x2e8
  404d30:	2103      	movs	r1, #3
  404d32:	f8c4 22e0 	str.w	r2, [r4, #736]	; 0x2e0
  404d36:	63e0      	str	r0, [r4, #60]	; 0x3c
  404d38:	f8c4 12e4 	str.w	r1, [r4, #740]	; 0x2e4
  404d3c:	6860      	ldr	r0, [r4, #4]
  404d3e:	2104      	movs	r1, #4
  404d40:	f7ff ffc2 	bl	404cc8 <std.isra.0>
  404d44:	2201      	movs	r2, #1
  404d46:	2109      	movs	r1, #9
  404d48:	68a0      	ldr	r0, [r4, #8]
  404d4a:	f7ff ffbd 	bl	404cc8 <std.isra.0>
  404d4e:	2202      	movs	r2, #2
  404d50:	2112      	movs	r1, #18
  404d52:	68e0      	ldr	r0, [r4, #12]
  404d54:	f7ff ffb8 	bl	404cc8 <std.isra.0>
  404d58:	2301      	movs	r3, #1
  404d5a:	63a3      	str	r3, [r4, #56]	; 0x38
  404d5c:	4802      	ldr	r0, [pc, #8]	; (404d68 <__sinit+0x50>)
  404d5e:	e8bd 4010 	ldmia.w	sp!, {r4, lr}
  404d62:	f000 bb9b 	b.w	40549c <__retarget_lock_release_recursive>
  404d66:	bf00      	nop
  404d68:	2045a8cc 	.word	0x2045a8cc
  404d6c:	00404cbd 	.word	0x00404cbd

00404d70 <__sfp_lock_acquire>:
  404d70:	4801      	ldr	r0, [pc, #4]	; (404d78 <__sfp_lock_acquire+0x8>)
  404d72:	f000 bb91 	b.w	405498 <__retarget_lock_acquire_recursive>
  404d76:	bf00      	nop
  404d78:	2045a8e0 	.word	0x2045a8e0

00404d7c <__sfp_lock_release>:
  404d7c:	4801      	ldr	r0, [pc, #4]	; (404d84 <__sfp_lock_release+0x8>)
  404d7e:	f000 bb8d 	b.w	40549c <__retarget_lock_release_recursive>
  404d82:	bf00      	nop
  404d84:	2045a8e0 	.word	0x2045a8e0

00404d88 <__libc_fini_array>:
  404d88:	b538      	push	{r3, r4, r5, lr}
  404d8a:	4c0a      	ldr	r4, [pc, #40]	; (404db4 <__libc_fini_array+0x2c>)
  404d8c:	4d0a      	ldr	r5, [pc, #40]	; (404db8 <__libc_fini_array+0x30>)
  404d8e:	1b64      	subs	r4, r4, r5
  404d90:	10a4      	asrs	r4, r4, #2
  404d92:	d00a      	beq.n	404daa <__libc_fini_array+0x22>
  404d94:	f104 4380 	add.w	r3, r4, #1073741824	; 0x40000000
  404d98:	3b01      	subs	r3, #1
  404d9a:	eb05 0583 	add.w	r5, r5, r3, lsl #2
  404d9e:	3c01      	subs	r4, #1
  404da0:	f855 3904 	ldr.w	r3, [r5], #-4
  404da4:	4798      	blx	r3
  404da6:	2c00      	cmp	r4, #0
  404da8:	d1f9      	bne.n	404d9e <__libc_fini_array+0x16>
  404daa:	e8bd 4038 	ldmia.w	sp!, {r3, r4, r5, lr}
  404dae:	f002 b843 	b.w	406e38 <_fini>
  404db2:	bf00      	nop
  404db4:	00406e48 	.word	0x00406e48
  404db8:	00406e44 	.word	0x00406e44

00404dbc <__fputwc>:
  404dbc:	e92d 47f0 	stmdb	sp!, {r4, r5, r6, r7, r8, r9, sl, lr}
  404dc0:	b082      	sub	sp, #8
  404dc2:	4680      	mov	r8, r0
  404dc4:	4689      	mov	r9, r1
  404dc6:	4614      	mov	r4, r2
  404dc8:	f000 fb54 	bl	405474 <__locale_mb_cur_max>
  404dcc:	2801      	cmp	r0, #1
  404dce:	d036      	beq.n	404e3e <__fputwc+0x82>
  404dd0:	464a      	mov	r2, r9
  404dd2:	f104 035c 	add.w	r3, r4, #92	; 0x5c
  404dd6:	a901      	add	r1, sp, #4
  404dd8:	4640      	mov	r0, r8
  404dda:	f000 ff57 	bl	405c8c <_wcrtomb_r>
  404dde:	1c42      	adds	r2, r0, #1
  404de0:	4606      	mov	r6, r0
  404de2:	d025      	beq.n	404e30 <__fputwc+0x74>
  404de4:	b3a8      	cbz	r0, 404e52 <__fputwc+0x96>
  404de6:	f89d e004 	ldrb.w	lr, [sp, #4]
  404dea:	2500      	movs	r5, #0
  404dec:	f10d 0a04 	add.w	sl, sp, #4
  404df0:	e009      	b.n	404e06 <__fputwc+0x4a>
  404df2:	6823      	ldr	r3, [r4, #0]
  404df4:	1c5a      	adds	r2, r3, #1
  404df6:	6022      	str	r2, [r4, #0]
  404df8:	f883 e000 	strb.w	lr, [r3]
  404dfc:	3501      	adds	r5, #1
  404dfe:	42b5      	cmp	r5, r6
  404e00:	d227      	bcs.n	404e52 <__fputwc+0x96>
  404e02:	f815 e00a 	ldrb.w	lr, [r5, sl]
  404e06:	68a3      	ldr	r3, [r4, #8]
  404e08:	3b01      	subs	r3, #1
  404e0a:	2b00      	cmp	r3, #0
  404e0c:	60a3      	str	r3, [r4, #8]
  404e0e:	daf0      	bge.n	404df2 <__fputwc+0x36>
  404e10:	69a7      	ldr	r7, [r4, #24]
  404e12:	42bb      	cmp	r3, r7
  404e14:	4671      	mov	r1, lr
  404e16:	4622      	mov	r2, r4
  404e18:	4640      	mov	r0, r8
  404e1a:	db02      	blt.n	404e22 <__fputwc+0x66>
  404e1c:	f1be 0f0a 	cmp.w	lr, #10
  404e20:	d1e7      	bne.n	404df2 <__fputwc+0x36>
  404e22:	f000 fedb 	bl	405bdc <__swbuf_r>
  404e26:	1c43      	adds	r3, r0, #1
  404e28:	d1e8      	bne.n	404dfc <__fputwc+0x40>
  404e2a:	b002      	add	sp, #8
  404e2c:	e8bd 87f0 	ldmia.w	sp!, {r4, r5, r6, r7, r8, r9, sl, pc}
  404e30:	89a3      	ldrh	r3, [r4, #12]
  404e32:	f043 0340 	orr.w	r3, r3, #64	; 0x40
  404e36:	81a3      	strh	r3, [r4, #12]
  404e38:	b002      	add	sp, #8
  404e3a:	e8bd 87f0 	ldmia.w	sp!, {r4, r5, r6, r7, r8, r9, sl, pc}
  404e3e:	f109 33ff 	add.w	r3, r9, #4294967295
  404e42:	2bfe      	cmp	r3, #254	; 0xfe
  404e44:	d8c4      	bhi.n	404dd0 <__fputwc+0x14>
  404e46:	fa5f fe89 	uxtb.w	lr, r9
  404e4a:	4606      	mov	r6, r0
  404e4c:	f88d e004 	strb.w	lr, [sp, #4]
  404e50:	e7cb      	b.n	404dea <__fputwc+0x2e>
  404e52:	4648      	mov	r0, r9
  404e54:	b002      	add	sp, #8
  404e56:	e8bd 87f0 	ldmia.w	sp!, {r4, r5, r6, r7, r8, r9, sl, pc}
  404e5a:	bf00      	nop

00404e5c <_fputwc_r>:
  404e5c:	b530      	push	{r4, r5, lr}
  404e5e:	6e53      	ldr	r3, [r2, #100]	; 0x64
  404e60:	f013 0f01 	tst.w	r3, #1
  404e64:	f9b2 300c 	ldrsh.w	r3, [r2, #12]
  404e68:	4614      	mov	r4, r2
  404e6a:	b083      	sub	sp, #12
  404e6c:	4605      	mov	r5, r0
  404e6e:	b29a      	uxth	r2, r3
  404e70:	d101      	bne.n	404e76 <_fputwc_r+0x1a>
  404e72:	0590      	lsls	r0, r2, #22
  404e74:	d51c      	bpl.n	404eb0 <_fputwc_r+0x54>
  404e76:	0490      	lsls	r0, r2, #18
  404e78:	d406      	bmi.n	404e88 <_fputwc_r+0x2c>
  404e7a:	6e62      	ldr	r2, [r4, #100]	; 0x64
  404e7c:	f443 5300 	orr.w	r3, r3, #8192	; 0x2000
  404e80:	f442 5200 	orr.w	r2, r2, #8192	; 0x2000
  404e84:	81a3      	strh	r3, [r4, #12]
  404e86:	6662      	str	r2, [r4, #100]	; 0x64
  404e88:	4628      	mov	r0, r5
  404e8a:	4622      	mov	r2, r4
  404e8c:	f7ff ff96 	bl	404dbc <__fputwc>
  404e90:	6e63      	ldr	r3, [r4, #100]	; 0x64
  404e92:	07da      	lsls	r2, r3, #31
  404e94:	4605      	mov	r5, r0
  404e96:	d402      	bmi.n	404e9e <_fputwc_r+0x42>
  404e98:	89a3      	ldrh	r3, [r4, #12]
  404e9a:	059b      	lsls	r3, r3, #22
  404e9c:	d502      	bpl.n	404ea4 <_fputwc_r+0x48>
  404e9e:	4628      	mov	r0, r5
  404ea0:	b003      	add	sp, #12
  404ea2:	bd30      	pop	{r4, r5, pc}
  404ea4:	6da0      	ldr	r0, [r4, #88]	; 0x58
  404ea6:	f000 faf9 	bl	40549c <__retarget_lock_release_recursive>
  404eaa:	4628      	mov	r0, r5
  404eac:	b003      	add	sp, #12
  404eae:	bd30      	pop	{r4, r5, pc}
  404eb0:	6da0      	ldr	r0, [r4, #88]	; 0x58
  404eb2:	9101      	str	r1, [sp, #4]
  404eb4:	f000 faf0 	bl	405498 <__retarget_lock_acquire_recursive>
  404eb8:	f9b4 300c 	ldrsh.w	r3, [r4, #12]
  404ebc:	9901      	ldr	r1, [sp, #4]
  404ebe:	b29a      	uxth	r2, r3
  404ec0:	e7d9      	b.n	404e76 <_fputwc_r+0x1a>
  404ec2:	bf00      	nop

00404ec4 <_malloc_trim_r>:
  404ec4:	b5f8      	push	{r3, r4, r5, r6, r7, lr}
  404ec6:	4f24      	ldr	r7, [pc, #144]	; (404f58 <_malloc_trim_r+0x94>)
  404ec8:	460c      	mov	r4, r1
  404eca:	4606      	mov	r6, r0
  404ecc:	f7fe fed0 	bl	403c70 <__malloc_lock>
  404ed0:	68bb      	ldr	r3, [r7, #8]
  404ed2:	685d      	ldr	r5, [r3, #4]
  404ed4:	f5c4 617e 	rsb	r1, r4, #4064	; 0xfe0
  404ed8:	310f      	adds	r1, #15
  404eda:	f025 0503 	bic.w	r5, r5, #3
  404ede:	4429      	add	r1, r5
  404ee0:	f421 617f 	bic.w	r1, r1, #4080	; 0xff0
  404ee4:	f021 010f 	bic.w	r1, r1, #15
  404ee8:	f5a1 5480 	sub.w	r4, r1, #4096	; 0x1000
  404eec:	f5b4 5f80 	cmp.w	r4, #4096	; 0x1000
  404ef0:	db07      	blt.n	404f02 <_malloc_trim_r+0x3e>
  404ef2:	2100      	movs	r1, #0
  404ef4:	4630      	mov	r0, r6
  404ef6:	f7fe fec7 	bl	403c88 <_sbrk_r>
  404efa:	68bb      	ldr	r3, [r7, #8]
  404efc:	442b      	add	r3, r5
  404efe:	4298      	cmp	r0, r3
  404f00:	d004      	beq.n	404f0c <_malloc_trim_r+0x48>
  404f02:	4630      	mov	r0, r6
  404f04:	f7fe feba 	bl	403c7c <__malloc_unlock>
  404f08:	2000      	movs	r0, #0
  404f0a:	bdf8      	pop	{r3, r4, r5, r6, r7, pc}
  404f0c:	4261      	negs	r1, r4
  404f0e:	4630      	mov	r0, r6
  404f10:	f7fe feba 	bl	403c88 <_sbrk_r>
  404f14:	3001      	adds	r0, #1
  404f16:	d00d      	beq.n	404f34 <_malloc_trim_r+0x70>
  404f18:	4b10      	ldr	r3, [pc, #64]	; (404f5c <_malloc_trim_r+0x98>)
  404f1a:	68ba      	ldr	r2, [r7, #8]
  404f1c:	6819      	ldr	r1, [r3, #0]
  404f1e:	1b2d      	subs	r5, r5, r4
  404f20:	f045 0501 	orr.w	r5, r5, #1
  404f24:	4630      	mov	r0, r6
  404f26:	1b09      	subs	r1, r1, r4
  404f28:	6055      	str	r5, [r2, #4]
  404f2a:	6019      	str	r1, [r3, #0]
  404f2c:	f7fe fea6 	bl	403c7c <__malloc_unlock>
  404f30:	2001      	movs	r0, #1
  404f32:	bdf8      	pop	{r3, r4, r5, r6, r7, pc}
  404f34:	2100      	movs	r1, #0
  404f36:	4630      	mov	r0, r6
  404f38:	f7fe fea6 	bl	403c88 <_sbrk_r>
  404f3c:	68ba      	ldr	r2, [r7, #8]
  404f3e:	1a83      	subs	r3, r0, r2
  404f40:	2b0f      	cmp	r3, #15
  404f42:	ddde      	ble.n	404f02 <_malloc_trim_r+0x3e>
  404f44:	4c06      	ldr	r4, [pc, #24]	; (404f60 <_malloc_trim_r+0x9c>)
  404f46:	4905      	ldr	r1, [pc, #20]	; (404f5c <_malloc_trim_r+0x98>)
  404f48:	6824      	ldr	r4, [r4, #0]
  404f4a:	f043 0301 	orr.w	r3, r3, #1
  404f4e:	1b00      	subs	r0, r0, r4
  404f50:	6053      	str	r3, [r2, #4]
  404f52:	6008      	str	r0, [r1, #0]
  404f54:	e7d5      	b.n	404f02 <_malloc_trim_r+0x3e>
  404f56:	bf00      	nop
  404f58:	20400490 	.word	0x20400490
  404f5c:	20454000 	.word	0x20454000
  404f60:	20400898 	.word	0x20400898

00404f64 <_free_r>:
  404f64:	2900      	cmp	r1, #0
  404f66:	d044      	beq.n	404ff2 <_free_r+0x8e>
  404f68:	e92d 41f0 	stmdb	sp!, {r4, r5, r6, r7, r8, lr}
  404f6c:	460d      	mov	r5, r1
  404f6e:	4680      	mov	r8, r0
  404f70:	f7fe fe7e 	bl	403c70 <__malloc_lock>
  404f74:	f855 7c04 	ldr.w	r7, [r5, #-4]
  404f78:	4969      	ldr	r1, [pc, #420]	; (405120 <_free_r+0x1bc>)
  404f7a:	f027 0301 	bic.w	r3, r7, #1
  404f7e:	f1a5 0408 	sub.w	r4, r5, #8
  404f82:	18e2      	adds	r2, r4, r3
  404f84:	688e      	ldr	r6, [r1, #8]
  404f86:	6850      	ldr	r0, [r2, #4]
  404f88:	42b2      	cmp	r2, r6
  404f8a:	f020 0003 	bic.w	r0, r0, #3
  404f8e:	d05e      	beq.n	40504e <_free_r+0xea>
  404f90:	07fe      	lsls	r6, r7, #31
  404f92:	6050      	str	r0, [r2, #4]
  404f94:	d40b      	bmi.n	404fae <_free_r+0x4a>
  404f96:	f855 7c08 	ldr.w	r7, [r5, #-8]
  404f9a:	1be4      	subs	r4, r4, r7
  404f9c:	f101 0e08 	add.w	lr, r1, #8
  404fa0:	68a5      	ldr	r5, [r4, #8]
  404fa2:	4575      	cmp	r5, lr
  404fa4:	443b      	add	r3, r7
  404fa6:	d06d      	beq.n	405084 <_free_r+0x120>
  404fa8:	68e7      	ldr	r7, [r4, #12]
  404faa:	60ef      	str	r7, [r5, #12]
  404fac:	60bd      	str	r5, [r7, #8]
  404fae:	1815      	adds	r5, r2, r0
  404fb0:	686d      	ldr	r5, [r5, #4]
  404fb2:	07ed      	lsls	r5, r5, #31
  404fb4:	d53e      	bpl.n	405034 <_free_r+0xd0>
  404fb6:	f043 0201 	orr.w	r2, r3, #1
  404fba:	6062      	str	r2, [r4, #4]
  404fbc:	50e3      	str	r3, [r4, r3]
  404fbe:	f5b3 7f00 	cmp.w	r3, #512	; 0x200
  404fc2:	d217      	bcs.n	404ff4 <_free_r+0x90>
  404fc4:	08db      	lsrs	r3, r3, #3
  404fc6:	1c58      	adds	r0, r3, #1
  404fc8:	109a      	asrs	r2, r3, #2
  404fca:	684d      	ldr	r5, [r1, #4]
  404fcc:	f851 7030 	ldr.w	r7, [r1, r0, lsl #3]
  404fd0:	60a7      	str	r7, [r4, #8]
  404fd2:	2301      	movs	r3, #1
  404fd4:	4093      	lsls	r3, r2
  404fd6:	eb01 02c0 	add.w	r2, r1, r0, lsl #3
  404fda:	432b      	orrs	r3, r5
  404fdc:	3a08      	subs	r2, #8
  404fde:	60e2      	str	r2, [r4, #12]
  404fe0:	604b      	str	r3, [r1, #4]
  404fe2:	f841 4030 	str.w	r4, [r1, r0, lsl #3]
  404fe6:	60fc      	str	r4, [r7, #12]
  404fe8:	4640      	mov	r0, r8
  404fea:	e8bd 41f0 	ldmia.w	sp!, {r4, r5, r6, r7, r8, lr}
  404fee:	f7fe be45 	b.w	403c7c <__malloc_unlock>
  404ff2:	4770      	bx	lr
  404ff4:	0a5a      	lsrs	r2, r3, #9
  404ff6:	2a04      	cmp	r2, #4
  404ff8:	d852      	bhi.n	4050a0 <_free_r+0x13c>
  404ffa:	099a      	lsrs	r2, r3, #6
  404ffc:	f102 0739 	add.w	r7, r2, #57	; 0x39
  405000:	00ff      	lsls	r7, r7, #3
  405002:	f102 0538 	add.w	r5, r2, #56	; 0x38
  405006:	19c8      	adds	r0, r1, r7
  405008:	59ca      	ldr	r2, [r1, r7]
  40500a:	3808      	subs	r0, #8
  40500c:	4290      	cmp	r0, r2
  40500e:	d04f      	beq.n	4050b0 <_free_r+0x14c>
  405010:	6851      	ldr	r1, [r2, #4]
  405012:	f021 0103 	bic.w	r1, r1, #3
  405016:	428b      	cmp	r3, r1
  405018:	d232      	bcs.n	405080 <_free_r+0x11c>
  40501a:	6892      	ldr	r2, [r2, #8]
  40501c:	4290      	cmp	r0, r2
  40501e:	d1f7      	bne.n	405010 <_free_r+0xac>
  405020:	68c3      	ldr	r3, [r0, #12]
  405022:	60a0      	str	r0, [r4, #8]
  405024:	60e3      	str	r3, [r4, #12]
  405026:	609c      	str	r4, [r3, #8]
  405028:	60c4      	str	r4, [r0, #12]
  40502a:	4640      	mov	r0, r8
  40502c:	e8bd 41f0 	ldmia.w	sp!, {r4, r5, r6, r7, r8, lr}
  405030:	f7fe be24 	b.w	403c7c <__malloc_unlock>
  405034:	6895      	ldr	r5, [r2, #8]
  405036:	4f3b      	ldr	r7, [pc, #236]	; (405124 <_free_r+0x1c0>)
  405038:	42bd      	cmp	r5, r7
  40503a:	4403      	add	r3, r0
  40503c:	d040      	beq.n	4050c0 <_free_r+0x15c>
  40503e:	68d0      	ldr	r0, [r2, #12]
  405040:	60e8      	str	r0, [r5, #12]
  405042:	f043 0201 	orr.w	r2, r3, #1
  405046:	6085      	str	r5, [r0, #8]
  405048:	6062      	str	r2, [r4, #4]
  40504a:	50e3      	str	r3, [r4, r3]
  40504c:	e7b7      	b.n	404fbe <_free_r+0x5a>
  40504e:	07ff      	lsls	r7, r7, #31
  405050:	4403      	add	r3, r0
  405052:	d407      	bmi.n	405064 <_free_r+0x100>
  405054:	f855 2c08 	ldr.w	r2, [r5, #-8]
  405058:	1aa4      	subs	r4, r4, r2
  40505a:	4413      	add	r3, r2
  40505c:	68a0      	ldr	r0, [r4, #8]
  40505e:	68e2      	ldr	r2, [r4, #12]
  405060:	60c2      	str	r2, [r0, #12]
  405062:	6090      	str	r0, [r2, #8]
  405064:	4a30      	ldr	r2, [pc, #192]	; (405128 <_free_r+0x1c4>)
  405066:	6812      	ldr	r2, [r2, #0]
  405068:	f043 0001 	orr.w	r0, r3, #1
  40506c:	4293      	cmp	r3, r2
  40506e:	6060      	str	r0, [r4, #4]
  405070:	608c      	str	r4, [r1, #8]
  405072:	d3b9      	bcc.n	404fe8 <_free_r+0x84>
  405074:	4b2d      	ldr	r3, [pc, #180]	; (40512c <_free_r+0x1c8>)
  405076:	4640      	mov	r0, r8
  405078:	6819      	ldr	r1, [r3, #0]
  40507a:	f7ff ff23 	bl	404ec4 <_malloc_trim_r>
  40507e:	e7b3      	b.n	404fe8 <_free_r+0x84>
  405080:	4610      	mov	r0, r2
  405082:	e7cd      	b.n	405020 <_free_r+0xbc>
  405084:	1811      	adds	r1, r2, r0
  405086:	6849      	ldr	r1, [r1, #4]
  405088:	07c9      	lsls	r1, r1, #31
  40508a:	d444      	bmi.n	405116 <_free_r+0x1b2>
  40508c:	6891      	ldr	r1, [r2, #8]
  40508e:	68d2      	ldr	r2, [r2, #12]
  405090:	60ca      	str	r2, [r1, #12]
  405092:	4403      	add	r3, r0
  405094:	f043 0001 	orr.w	r0, r3, #1
  405098:	6091      	str	r1, [r2, #8]
  40509a:	6060      	str	r0, [r4, #4]
  40509c:	50e3      	str	r3, [r4, r3]
  40509e:	e7a3      	b.n	404fe8 <_free_r+0x84>
  4050a0:	2a14      	cmp	r2, #20
  4050a2:	d816      	bhi.n	4050d2 <_free_r+0x16e>
  4050a4:	f102 075c 	add.w	r7, r2, #92	; 0x5c
  4050a8:	00ff      	lsls	r7, r7, #3
  4050aa:	f102 055b 	add.w	r5, r2, #91	; 0x5b
  4050ae:	e7aa      	b.n	405006 <_free_r+0xa2>
  4050b0:	10aa      	asrs	r2, r5, #2
  4050b2:	2301      	movs	r3, #1
  4050b4:	684d      	ldr	r5, [r1, #4]
  4050b6:	4093      	lsls	r3, r2
  4050b8:	432b      	orrs	r3, r5
  4050ba:	604b      	str	r3, [r1, #4]
  4050bc:	4603      	mov	r3, r0
  4050be:	e7b0      	b.n	405022 <_free_r+0xbe>
  4050c0:	f043 0201 	orr.w	r2, r3, #1
  4050c4:	614c      	str	r4, [r1, #20]
  4050c6:	610c      	str	r4, [r1, #16]
  4050c8:	60e5      	str	r5, [r4, #12]
  4050ca:	60a5      	str	r5, [r4, #8]
  4050cc:	6062      	str	r2, [r4, #4]
  4050ce:	50e3      	str	r3, [r4, r3]
  4050d0:	e78a      	b.n	404fe8 <_free_r+0x84>
  4050d2:	2a54      	cmp	r2, #84	; 0x54
  4050d4:	d806      	bhi.n	4050e4 <_free_r+0x180>
  4050d6:	0b1a      	lsrs	r2, r3, #12
  4050d8:	f102 076f 	add.w	r7, r2, #111	; 0x6f
  4050dc:	00ff      	lsls	r7, r7, #3
  4050de:	f102 056e 	add.w	r5, r2, #110	; 0x6e
  4050e2:	e790      	b.n	405006 <_free_r+0xa2>
  4050e4:	f5b2 7faa 	cmp.w	r2, #340	; 0x154
  4050e8:	d806      	bhi.n	4050f8 <_free_r+0x194>
  4050ea:	0bda      	lsrs	r2, r3, #15
  4050ec:	f102 0778 	add.w	r7, r2, #120	; 0x78
  4050f0:	00ff      	lsls	r7, r7, #3
  4050f2:	f102 0577 	add.w	r5, r2, #119	; 0x77
  4050f6:	e786      	b.n	405006 <_free_r+0xa2>
  4050f8:	f240 5054 	movw	r0, #1364	; 0x554
  4050fc:	4282      	cmp	r2, r0
  4050fe:	d806      	bhi.n	40510e <_free_r+0x1aa>
  405100:	0c9a      	lsrs	r2, r3, #18
  405102:	f102 077d 	add.w	r7, r2, #125	; 0x7d
  405106:	00ff      	lsls	r7, r7, #3
  405108:	f102 057c 	add.w	r5, r2, #124	; 0x7c
  40510c:	e77b      	b.n	405006 <_free_r+0xa2>
  40510e:	f44f 777e 	mov.w	r7, #1016	; 0x3f8
  405112:	257e      	movs	r5, #126	; 0x7e
  405114:	e777      	b.n	405006 <_free_r+0xa2>
  405116:	f043 0101 	orr.w	r1, r3, #1
  40511a:	6061      	str	r1, [r4, #4]
  40511c:	6013      	str	r3, [r2, #0]
  40511e:	e763      	b.n	404fe8 <_free_r+0x84>
  405120:	20400490 	.word	0x20400490
  405124:	20400498 	.word	0x20400498
  405128:	2040089c 	.word	0x2040089c
  40512c:	20454030 	.word	0x20454030

00405130 <__sfvwrite_r>:
  405130:	6893      	ldr	r3, [r2, #8]
  405132:	2b00      	cmp	r3, #0
  405134:	d073      	beq.n	40521e <__sfvwrite_r+0xee>
  405136:	e92d 4ff0 	stmdb	sp!, {r4, r5, r6, r7, r8, r9, sl, fp, lr}
  40513a:	898b      	ldrh	r3, [r1, #12]
  40513c:	b083      	sub	sp, #12
  40513e:	460c      	mov	r4, r1
  405140:	0719      	lsls	r1, r3, #28
  405142:	9000      	str	r0, [sp, #0]
  405144:	4616      	mov	r6, r2
  405146:	d526      	bpl.n	405196 <__sfvwrite_r+0x66>
  405148:	6922      	ldr	r2, [r4, #16]
  40514a:	b322      	cbz	r2, 405196 <__sfvwrite_r+0x66>
  40514c:	f013 0002 	ands.w	r0, r3, #2
  405150:	6835      	ldr	r5, [r6, #0]
  405152:	d02c      	beq.n	4051ae <__sfvwrite_r+0x7e>
  405154:	f04f 0900 	mov.w	r9, #0
  405158:	4fb0      	ldr	r7, [pc, #704]	; (40541c <__sfvwrite_r+0x2ec>)
  40515a:	46c8      	mov	r8, r9
  40515c:	46b2      	mov	sl, r6
  40515e:	45b8      	cmp	r8, r7
  405160:	4643      	mov	r3, r8
  405162:	464a      	mov	r2, r9
  405164:	bf28      	it	cs
  405166:	463b      	movcs	r3, r7
  405168:	9800      	ldr	r0, [sp, #0]
  40516a:	f1b8 0f00 	cmp.w	r8, #0
  40516e:	d050      	beq.n	405212 <__sfvwrite_r+0xe2>
  405170:	69e1      	ldr	r1, [r4, #28]
  405172:	6a66      	ldr	r6, [r4, #36]	; 0x24
  405174:	47b0      	blx	r6
  405176:	2800      	cmp	r0, #0
  405178:	dd58      	ble.n	40522c <__sfvwrite_r+0xfc>
  40517a:	f8da 3008 	ldr.w	r3, [sl, #8]
  40517e:	1a1b      	subs	r3, r3, r0
  405180:	4481      	add	r9, r0
  405182:	eba8 0800 	sub.w	r8, r8, r0
  405186:	f8ca 3008 	str.w	r3, [sl, #8]
  40518a:	2b00      	cmp	r3, #0
  40518c:	d1e7      	bne.n	40515e <__sfvwrite_r+0x2e>
  40518e:	2000      	movs	r0, #0
  405190:	b003      	add	sp, #12
  405192:	e8bd 8ff0 	ldmia.w	sp!, {r4, r5, r6, r7, r8, r9, sl, fp, pc}
  405196:	4621      	mov	r1, r4
  405198:	9800      	ldr	r0, [sp, #0]
  40519a:	f7ff fc51 	bl	404a40 <__swsetup_r>
  40519e:	2800      	cmp	r0, #0
  4051a0:	f040 8133 	bne.w	40540a <__sfvwrite_r+0x2da>
  4051a4:	89a3      	ldrh	r3, [r4, #12]
  4051a6:	6835      	ldr	r5, [r6, #0]
  4051a8:	f013 0002 	ands.w	r0, r3, #2
  4051ac:	d1d2      	bne.n	405154 <__sfvwrite_r+0x24>
  4051ae:	f013 0901 	ands.w	r9, r3, #1
  4051b2:	d145      	bne.n	405240 <__sfvwrite_r+0x110>
  4051b4:	464f      	mov	r7, r9
  4051b6:	9601      	str	r6, [sp, #4]
  4051b8:	b337      	cbz	r7, 405208 <__sfvwrite_r+0xd8>
  4051ba:	059a      	lsls	r2, r3, #22
  4051bc:	f8d4 8008 	ldr.w	r8, [r4, #8]
  4051c0:	f140 8083 	bpl.w	4052ca <__sfvwrite_r+0x19a>
  4051c4:	4547      	cmp	r7, r8
  4051c6:	46c3      	mov	fp, r8
  4051c8:	f0c0 80ab 	bcc.w	405322 <__sfvwrite_r+0x1f2>
  4051cc:	f413 6f90 	tst.w	r3, #1152	; 0x480
  4051d0:	f040 80ac 	bne.w	40532c <__sfvwrite_r+0x1fc>
  4051d4:	6820      	ldr	r0, [r4, #0]
  4051d6:	46ba      	mov	sl, r7
  4051d8:	465a      	mov	r2, fp
  4051da:	4649      	mov	r1, r9
  4051dc:	f000 fa40 	bl	405660 <memmove>
  4051e0:	68a2      	ldr	r2, [r4, #8]
  4051e2:	6823      	ldr	r3, [r4, #0]
  4051e4:	eba2 0208 	sub.w	r2, r2, r8
  4051e8:	445b      	add	r3, fp
  4051ea:	60a2      	str	r2, [r4, #8]
  4051ec:	6023      	str	r3, [r4, #0]
  4051ee:	9a01      	ldr	r2, [sp, #4]
  4051f0:	6893      	ldr	r3, [r2, #8]
  4051f2:	eba3 030a 	sub.w	r3, r3, sl
  4051f6:	44d1      	add	r9, sl
  4051f8:	eba7 070a 	sub.w	r7, r7, sl
  4051fc:	6093      	str	r3, [r2, #8]
  4051fe:	2b00      	cmp	r3, #0
  405200:	d0c5      	beq.n	40518e <__sfvwrite_r+0x5e>
  405202:	89a3      	ldrh	r3, [r4, #12]
  405204:	2f00      	cmp	r7, #0
  405206:	d1d8      	bne.n	4051ba <__sfvwrite_r+0x8a>
  405208:	f8d5 9000 	ldr.w	r9, [r5]
  40520c:	686f      	ldr	r7, [r5, #4]
  40520e:	3508      	adds	r5, #8
  405210:	e7d2      	b.n	4051b8 <__sfvwrite_r+0x88>
  405212:	f8d5 9000 	ldr.w	r9, [r5]
  405216:	f8d5 8004 	ldr.w	r8, [r5, #4]
  40521a:	3508      	adds	r5, #8
  40521c:	e79f      	b.n	40515e <__sfvwrite_r+0x2e>
  40521e:	2000      	movs	r0, #0
  405220:	4770      	bx	lr
  405222:	4621      	mov	r1, r4
  405224:	9800      	ldr	r0, [sp, #0]
  405226:	f7ff fd1f 	bl	404c68 <_fflush_r>
  40522a:	b370      	cbz	r0, 40528a <__sfvwrite_r+0x15a>
  40522c:	f9b4 300c 	ldrsh.w	r3, [r4, #12]
  405230:	f043 0340 	orr.w	r3, r3, #64	; 0x40
  405234:	f04f 30ff 	mov.w	r0, #4294967295
  405238:	81a3      	strh	r3, [r4, #12]
  40523a:	b003      	add	sp, #12
  40523c:	e8bd 8ff0 	ldmia.w	sp!, {r4, r5, r6, r7, r8, r9, sl, fp, pc}
  405240:	4681      	mov	r9, r0
  405242:	4633      	mov	r3, r6
  405244:	464e      	mov	r6, r9
  405246:	46a8      	mov	r8, r5
  405248:	469a      	mov	sl, r3
  40524a:	464d      	mov	r5, r9
  40524c:	b34e      	cbz	r6, 4052a2 <__sfvwrite_r+0x172>
  40524e:	b380      	cbz	r0, 4052b2 <__sfvwrite_r+0x182>
  405250:	6820      	ldr	r0, [r4, #0]
  405252:	6923      	ldr	r3, [r4, #16]
  405254:	6962      	ldr	r2, [r4, #20]
  405256:	45b1      	cmp	r9, r6
  405258:	46cb      	mov	fp, r9
  40525a:	bf28      	it	cs
  40525c:	46b3      	movcs	fp, r6
  40525e:	4298      	cmp	r0, r3
  405260:	465f      	mov	r7, fp
  405262:	d904      	bls.n	40526e <__sfvwrite_r+0x13e>
  405264:	68a3      	ldr	r3, [r4, #8]
  405266:	4413      	add	r3, r2
  405268:	459b      	cmp	fp, r3
  40526a:	f300 80a6 	bgt.w	4053ba <__sfvwrite_r+0x28a>
  40526e:	4593      	cmp	fp, r2
  405270:	db4b      	blt.n	40530a <__sfvwrite_r+0x1da>
  405272:	4613      	mov	r3, r2
  405274:	6a67      	ldr	r7, [r4, #36]	; 0x24
  405276:	69e1      	ldr	r1, [r4, #28]
  405278:	9800      	ldr	r0, [sp, #0]
  40527a:	462a      	mov	r2, r5
  40527c:	47b8      	blx	r7
  40527e:	1e07      	subs	r7, r0, #0
  405280:	ddd4      	ble.n	40522c <__sfvwrite_r+0xfc>
  405282:	ebb9 0907 	subs.w	r9, r9, r7
  405286:	d0cc      	beq.n	405222 <__sfvwrite_r+0xf2>
  405288:	2001      	movs	r0, #1
  40528a:	f8da 3008 	ldr.w	r3, [sl, #8]
  40528e:	1bdb      	subs	r3, r3, r7
  405290:	443d      	add	r5, r7
  405292:	1bf6      	subs	r6, r6, r7
  405294:	f8ca 3008 	str.w	r3, [sl, #8]
  405298:	2b00      	cmp	r3, #0
  40529a:	f43f af78 	beq.w	40518e <__sfvwrite_r+0x5e>
  40529e:	2e00      	cmp	r6, #0
  4052a0:	d1d5      	bne.n	40524e <__sfvwrite_r+0x11e>
  4052a2:	f108 0308 	add.w	r3, r8, #8
  4052a6:	e913 0060 	ldmdb	r3, {r5, r6}
  4052aa:	4698      	mov	r8, r3
  4052ac:	3308      	adds	r3, #8
  4052ae:	2e00      	cmp	r6, #0
  4052b0:	d0f9      	beq.n	4052a6 <__sfvwrite_r+0x176>
  4052b2:	4632      	mov	r2, r6
  4052b4:	210a      	movs	r1, #10
  4052b6:	4628      	mov	r0, r5
  4052b8:	f000 f982 	bl	4055c0 <memchr>
  4052bc:	2800      	cmp	r0, #0
  4052be:	f000 80a1 	beq.w	405404 <__sfvwrite_r+0x2d4>
  4052c2:	3001      	adds	r0, #1
  4052c4:	eba0 0905 	sub.w	r9, r0, r5
  4052c8:	e7c2      	b.n	405250 <__sfvwrite_r+0x120>
  4052ca:	6820      	ldr	r0, [r4, #0]
  4052cc:	6923      	ldr	r3, [r4, #16]
  4052ce:	4298      	cmp	r0, r3
  4052d0:	d802      	bhi.n	4052d8 <__sfvwrite_r+0x1a8>
  4052d2:	6963      	ldr	r3, [r4, #20]
  4052d4:	429f      	cmp	r7, r3
  4052d6:	d25d      	bcs.n	405394 <__sfvwrite_r+0x264>
  4052d8:	45b8      	cmp	r8, r7
  4052da:	bf28      	it	cs
  4052dc:	46b8      	movcs	r8, r7
  4052de:	4642      	mov	r2, r8
  4052e0:	4649      	mov	r1, r9
  4052e2:	f000 f9bd 	bl	405660 <memmove>
  4052e6:	68a3      	ldr	r3, [r4, #8]
  4052e8:	6822      	ldr	r2, [r4, #0]
  4052ea:	eba3 0308 	sub.w	r3, r3, r8
  4052ee:	4442      	add	r2, r8
  4052f0:	60a3      	str	r3, [r4, #8]
  4052f2:	6022      	str	r2, [r4, #0]
  4052f4:	b10b      	cbz	r3, 4052fa <__sfvwrite_r+0x1ca>
  4052f6:	46c2      	mov	sl, r8
  4052f8:	e779      	b.n	4051ee <__sfvwrite_r+0xbe>
  4052fa:	4621      	mov	r1, r4
  4052fc:	9800      	ldr	r0, [sp, #0]
  4052fe:	f7ff fcb3 	bl	404c68 <_fflush_r>
  405302:	2800      	cmp	r0, #0
  405304:	d192      	bne.n	40522c <__sfvwrite_r+0xfc>
  405306:	46c2      	mov	sl, r8
  405308:	e771      	b.n	4051ee <__sfvwrite_r+0xbe>
  40530a:	465a      	mov	r2, fp
  40530c:	4629      	mov	r1, r5
  40530e:	f000 f9a7 	bl	405660 <memmove>
  405312:	68a2      	ldr	r2, [r4, #8]
  405314:	6823      	ldr	r3, [r4, #0]
  405316:	eba2 020b 	sub.w	r2, r2, fp
  40531a:	445b      	add	r3, fp
  40531c:	60a2      	str	r2, [r4, #8]
  40531e:	6023      	str	r3, [r4, #0]
  405320:	e7af      	b.n	405282 <__sfvwrite_r+0x152>
  405322:	6820      	ldr	r0, [r4, #0]
  405324:	46b8      	mov	r8, r7
  405326:	46ba      	mov	sl, r7
  405328:	46bb      	mov	fp, r7
  40532a:	e755      	b.n	4051d8 <__sfvwrite_r+0xa8>
  40532c:	6962      	ldr	r2, [r4, #20]
  40532e:	6820      	ldr	r0, [r4, #0]
  405330:	6921      	ldr	r1, [r4, #16]
  405332:	eb02 0842 	add.w	r8, r2, r2, lsl #1
  405336:	eba0 0a01 	sub.w	sl, r0, r1
  40533a:	eb08 78d8 	add.w	r8, r8, r8, lsr #31
  40533e:	f10a 0001 	add.w	r0, sl, #1
  405342:	ea4f 0868 	mov.w	r8, r8, asr #1
  405346:	4438      	add	r0, r7
  405348:	4540      	cmp	r0, r8
  40534a:	4642      	mov	r2, r8
  40534c:	bf84      	itt	hi
  40534e:	4680      	movhi	r8, r0
  405350:	4642      	movhi	r2, r8
  405352:	055b      	lsls	r3, r3, #21
  405354:	d544      	bpl.n	4053e0 <__sfvwrite_r+0x2b0>
  405356:	4611      	mov	r1, r2
  405358:	9800      	ldr	r0, [sp, #0]
  40535a:	f7fe f8f1 	bl	403540 <_malloc_r>
  40535e:	4683      	mov	fp, r0
  405360:	2800      	cmp	r0, #0
  405362:	d055      	beq.n	405410 <__sfvwrite_r+0x2e0>
  405364:	4652      	mov	r2, sl
  405366:	6921      	ldr	r1, [r4, #16]
  405368:	f7fe fb9a 	bl	403aa0 <memcpy>
  40536c:	89a3      	ldrh	r3, [r4, #12]
  40536e:	f423 6390 	bic.w	r3, r3, #1152	; 0x480
  405372:	f043 0380 	orr.w	r3, r3, #128	; 0x80
  405376:	81a3      	strh	r3, [r4, #12]
  405378:	eb0b 000a 	add.w	r0, fp, sl
  40537c:	eba8 030a 	sub.w	r3, r8, sl
  405380:	f8c4 b010 	str.w	fp, [r4, #16]
  405384:	f8c4 8014 	str.w	r8, [r4, #20]
  405388:	6020      	str	r0, [r4, #0]
  40538a:	60a3      	str	r3, [r4, #8]
  40538c:	46b8      	mov	r8, r7
  40538e:	46ba      	mov	sl, r7
  405390:	46bb      	mov	fp, r7
  405392:	e721      	b.n	4051d8 <__sfvwrite_r+0xa8>
  405394:	f06f 4100 	mvn.w	r1, #2147483648	; 0x80000000
  405398:	42b9      	cmp	r1, r7
  40539a:	bf28      	it	cs
  40539c:	4639      	movcs	r1, r7
  40539e:	464a      	mov	r2, r9
  4053a0:	fb91 f1f3 	sdiv	r1, r1, r3
  4053a4:	9800      	ldr	r0, [sp, #0]
  4053a6:	6a66      	ldr	r6, [r4, #36]	; 0x24
  4053a8:	fb03 f301 	mul.w	r3, r3, r1
  4053ac:	69e1      	ldr	r1, [r4, #28]
  4053ae:	47b0      	blx	r6
  4053b0:	f1b0 0a00 	subs.w	sl, r0, #0
  4053b4:	f73f af1b 	bgt.w	4051ee <__sfvwrite_r+0xbe>
  4053b8:	e738      	b.n	40522c <__sfvwrite_r+0xfc>
  4053ba:	461a      	mov	r2, r3
  4053bc:	4629      	mov	r1, r5
  4053be:	9301      	str	r3, [sp, #4]
  4053c0:	f000 f94e 	bl	405660 <memmove>
  4053c4:	6822      	ldr	r2, [r4, #0]
  4053c6:	9b01      	ldr	r3, [sp, #4]
  4053c8:	9800      	ldr	r0, [sp, #0]
  4053ca:	441a      	add	r2, r3
  4053cc:	6022      	str	r2, [r4, #0]
  4053ce:	4621      	mov	r1, r4
  4053d0:	f7ff fc4a 	bl	404c68 <_fflush_r>
  4053d4:	9b01      	ldr	r3, [sp, #4]
  4053d6:	2800      	cmp	r0, #0
  4053d8:	f47f af28 	bne.w	40522c <__sfvwrite_r+0xfc>
  4053dc:	461f      	mov	r7, r3
  4053de:	e750      	b.n	405282 <__sfvwrite_r+0x152>
  4053e0:	9800      	ldr	r0, [sp, #0]
  4053e2:	f000 f9a1 	bl	405728 <_realloc_r>
  4053e6:	4683      	mov	fp, r0
  4053e8:	2800      	cmp	r0, #0
  4053ea:	d1c5      	bne.n	405378 <__sfvwrite_r+0x248>
  4053ec:	9d00      	ldr	r5, [sp, #0]
  4053ee:	6921      	ldr	r1, [r4, #16]
  4053f0:	4628      	mov	r0, r5
  4053f2:	f7ff fdb7 	bl	404f64 <_free_r>
  4053f6:	f9b4 300c 	ldrsh.w	r3, [r4, #12]
  4053fa:	220c      	movs	r2, #12
  4053fc:	f023 0380 	bic.w	r3, r3, #128	; 0x80
  405400:	602a      	str	r2, [r5, #0]
  405402:	e715      	b.n	405230 <__sfvwrite_r+0x100>
  405404:	f106 0901 	add.w	r9, r6, #1
  405408:	e722      	b.n	405250 <__sfvwrite_r+0x120>
  40540a:	f04f 30ff 	mov.w	r0, #4294967295
  40540e:	e6bf      	b.n	405190 <__sfvwrite_r+0x60>
  405410:	9a00      	ldr	r2, [sp, #0]
  405412:	230c      	movs	r3, #12
  405414:	6013      	str	r3, [r2, #0]
  405416:	f9b4 300c 	ldrsh.w	r3, [r4, #12]
  40541a:	e709      	b.n	405230 <__sfvwrite_r+0x100>
  40541c:	7ffffc00 	.word	0x7ffffc00

00405420 <_fwalk_reent>:
  405420:	e92d 43f8 	stmdb	sp!, {r3, r4, r5, r6, r7, r8, r9, lr}
  405424:	f510 7738 	adds.w	r7, r0, #736	; 0x2e0
  405428:	d01f      	beq.n	40546a <_fwalk_reent+0x4a>
  40542a:	4688      	mov	r8, r1
  40542c:	4606      	mov	r6, r0
  40542e:	f04f 0900 	mov.w	r9, #0
  405432:	687d      	ldr	r5, [r7, #4]
  405434:	68bc      	ldr	r4, [r7, #8]
  405436:	3d01      	subs	r5, #1
  405438:	d411      	bmi.n	40545e <_fwalk_reent+0x3e>
  40543a:	89a3      	ldrh	r3, [r4, #12]
  40543c:	2b01      	cmp	r3, #1
  40543e:	f105 35ff 	add.w	r5, r5, #4294967295
  405442:	d908      	bls.n	405456 <_fwalk_reent+0x36>
  405444:	f9b4 300e 	ldrsh.w	r3, [r4, #14]
  405448:	3301      	adds	r3, #1
  40544a:	4621      	mov	r1, r4
  40544c:	4630      	mov	r0, r6
  40544e:	d002      	beq.n	405456 <_fwalk_reent+0x36>
  405450:	47c0      	blx	r8
  405452:	ea49 0900 	orr.w	r9, r9, r0
  405456:	1c6b      	adds	r3, r5, #1
  405458:	f104 0468 	add.w	r4, r4, #104	; 0x68
  40545c:	d1ed      	bne.n	40543a <_fwalk_reent+0x1a>
  40545e:	683f      	ldr	r7, [r7, #0]
  405460:	2f00      	cmp	r7, #0
  405462:	d1e6      	bne.n	405432 <_fwalk_reent+0x12>
  405464:	4648      	mov	r0, r9
  405466:	e8bd 83f8 	ldmia.w	sp!, {r3, r4, r5, r6, r7, r8, r9, pc}
  40546a:	46b9      	mov	r9, r7
  40546c:	4648      	mov	r0, r9
  40546e:	e8bd 83f8 	ldmia.w	sp!, {r3, r4, r5, r6, r7, r8, r9, pc}
  405472:	bf00      	nop

00405474 <__locale_mb_cur_max>:
  405474:	4b04      	ldr	r3, [pc, #16]	; (405488 <__locale_mb_cur_max+0x14>)
  405476:	4a05      	ldr	r2, [pc, #20]	; (40548c <__locale_mb_cur_max+0x18>)
  405478:	681b      	ldr	r3, [r3, #0]
  40547a:	6b5b      	ldr	r3, [r3, #52]	; 0x34
  40547c:	2b00      	cmp	r3, #0
  40547e:	bf08      	it	eq
  405480:	4613      	moveq	r3, r2
  405482:	f893 0128 	ldrb.w	r0, [r3, #296]	; 0x128
  405486:	4770      	bx	lr
  405488:	20400060 	.word	0x20400060
  40548c:	204008a4 	.word	0x204008a4

00405490 <__retarget_lock_init_recursive>:
  405490:	4770      	bx	lr
  405492:	bf00      	nop

00405494 <__retarget_lock_close_recursive>:
  405494:	4770      	bx	lr
  405496:	bf00      	nop

00405498 <__retarget_lock_acquire_recursive>:
  405498:	4770      	bx	lr
  40549a:	bf00      	nop

0040549c <__retarget_lock_release_recursive>:
  40549c:	4770      	bx	lr
  40549e:	bf00      	nop

004054a0 <__swhatbuf_r>:
  4054a0:	b570      	push	{r4, r5, r6, lr}
  4054a2:	460c      	mov	r4, r1
  4054a4:	f9b1 100e 	ldrsh.w	r1, [r1, #14]
  4054a8:	2900      	cmp	r1, #0
  4054aa:	b090      	sub	sp, #64	; 0x40
  4054ac:	4615      	mov	r5, r2
  4054ae:	461e      	mov	r6, r3
  4054b0:	db14      	blt.n	4054dc <__swhatbuf_r+0x3c>
  4054b2:	aa01      	add	r2, sp, #4
  4054b4:	f000 fd0e 	bl	405ed4 <_fstat_r>
  4054b8:	2800      	cmp	r0, #0
  4054ba:	db0f      	blt.n	4054dc <__swhatbuf_r+0x3c>
  4054bc:	9a02      	ldr	r2, [sp, #8]
  4054be:	f402 4270 	and.w	r2, r2, #61440	; 0xf000
  4054c2:	f5a2 5200 	sub.w	r2, r2, #8192	; 0x2000
  4054c6:	fab2 f282 	clz	r2, r2
  4054ca:	0952      	lsrs	r2, r2, #5
  4054cc:	f44f 6380 	mov.w	r3, #1024	; 0x400
  4054d0:	f44f 6000 	mov.w	r0, #2048	; 0x800
  4054d4:	6032      	str	r2, [r6, #0]
  4054d6:	602b      	str	r3, [r5, #0]
  4054d8:	b010      	add	sp, #64	; 0x40
  4054da:	bd70      	pop	{r4, r5, r6, pc}
  4054dc:	89a2      	ldrh	r2, [r4, #12]
  4054de:	2300      	movs	r3, #0
  4054e0:	f012 0080 	ands.w	r0, r2, #128	; 0x80
  4054e4:	6033      	str	r3, [r6, #0]
  4054e6:	d004      	beq.n	4054f2 <__swhatbuf_r+0x52>
  4054e8:	2240      	movs	r2, #64	; 0x40
  4054ea:	4618      	mov	r0, r3
  4054ec:	602a      	str	r2, [r5, #0]
  4054ee:	b010      	add	sp, #64	; 0x40
  4054f0:	bd70      	pop	{r4, r5, r6, pc}
  4054f2:	f44f 6380 	mov.w	r3, #1024	; 0x400
  4054f6:	602b      	str	r3, [r5, #0]
  4054f8:	b010      	add	sp, #64	; 0x40
  4054fa:	bd70      	pop	{r4, r5, r6, pc}

004054fc <__smakebuf_r>:
  4054fc:	898a      	ldrh	r2, [r1, #12]
  4054fe:	0792      	lsls	r2, r2, #30
  405500:	460b      	mov	r3, r1
  405502:	d506      	bpl.n	405512 <__smakebuf_r+0x16>
  405504:	f101 0243 	add.w	r2, r1, #67	; 0x43
  405508:	2101      	movs	r1, #1
  40550a:	601a      	str	r2, [r3, #0]
  40550c:	611a      	str	r2, [r3, #16]
  40550e:	6159      	str	r1, [r3, #20]
  405510:	4770      	bx	lr
  405512:	b5f0      	push	{r4, r5, r6, r7, lr}
  405514:	b083      	sub	sp, #12
  405516:	ab01      	add	r3, sp, #4
  405518:	466a      	mov	r2, sp
  40551a:	460c      	mov	r4, r1
  40551c:	4606      	mov	r6, r0
  40551e:	f7ff ffbf 	bl	4054a0 <__swhatbuf_r>
  405522:	9900      	ldr	r1, [sp, #0]
  405524:	4605      	mov	r5, r0
  405526:	4630      	mov	r0, r6
  405528:	f7fe f80a 	bl	403540 <_malloc_r>
  40552c:	f9b4 300c 	ldrsh.w	r3, [r4, #12]
  405530:	b1d8      	cbz	r0, 40556a <__smakebuf_r+0x6e>
  405532:	9a01      	ldr	r2, [sp, #4]
  405534:	4f15      	ldr	r7, [pc, #84]	; (40558c <__smakebuf_r+0x90>)
  405536:	9900      	ldr	r1, [sp, #0]
  405538:	63f7      	str	r7, [r6, #60]	; 0x3c
  40553a:	f043 0380 	orr.w	r3, r3, #128	; 0x80
  40553e:	81a3      	strh	r3, [r4, #12]
  405540:	6020      	str	r0, [r4, #0]
  405542:	6120      	str	r0, [r4, #16]
  405544:	6161      	str	r1, [r4, #20]
  405546:	b91a      	cbnz	r2, 405550 <__smakebuf_r+0x54>
  405548:	432b      	orrs	r3, r5
  40554a:	81a3      	strh	r3, [r4, #12]
  40554c:	b003      	add	sp, #12
  40554e:	bdf0      	pop	{r4, r5, r6, r7, pc}
  405550:	4630      	mov	r0, r6
  405552:	f9b4 100e 	ldrsh.w	r1, [r4, #14]
  405556:	f000 fcd1 	bl	405efc <_isatty_r>
  40555a:	b1a0      	cbz	r0, 405586 <__smakebuf_r+0x8a>
  40555c:	89a3      	ldrh	r3, [r4, #12]
  40555e:	f023 0303 	bic.w	r3, r3, #3
  405562:	f043 0301 	orr.w	r3, r3, #1
  405566:	b21b      	sxth	r3, r3
  405568:	e7ee      	b.n	405548 <__smakebuf_r+0x4c>
  40556a:	059a      	lsls	r2, r3, #22
  40556c:	d4ee      	bmi.n	40554c <__smakebuf_r+0x50>
  40556e:	f023 0303 	bic.w	r3, r3, #3
  405572:	f104 0243 	add.w	r2, r4, #67	; 0x43
  405576:	f043 0302 	orr.w	r3, r3, #2
  40557a:	2101      	movs	r1, #1
  40557c:	81a3      	strh	r3, [r4, #12]
  40557e:	6022      	str	r2, [r4, #0]
  405580:	6122      	str	r2, [r4, #16]
  405582:	6161      	str	r1, [r4, #20]
  405584:	e7e2      	b.n	40554c <__smakebuf_r+0x50>
  405586:	f9b4 300c 	ldrsh.w	r3, [r4, #12]
  40558a:	e7dd      	b.n	405548 <__smakebuf_r+0x4c>
  40558c:	00404cbd 	.word	0x00404cbd

00405590 <__ascii_mbtowc>:
  405590:	b082      	sub	sp, #8
  405592:	b149      	cbz	r1, 4055a8 <__ascii_mbtowc+0x18>
  405594:	b15a      	cbz	r2, 4055ae <__ascii_mbtowc+0x1e>
  405596:	b16b      	cbz	r3, 4055b4 <__ascii_mbtowc+0x24>
  405598:	7813      	ldrb	r3, [r2, #0]
  40559a:	600b      	str	r3, [r1, #0]
  40559c:	7812      	ldrb	r2, [r2, #0]
  40559e:	1c10      	adds	r0, r2, #0
  4055a0:	bf18      	it	ne
  4055a2:	2001      	movne	r0, #1
  4055a4:	b002      	add	sp, #8
  4055a6:	4770      	bx	lr
  4055a8:	a901      	add	r1, sp, #4
  4055aa:	2a00      	cmp	r2, #0
  4055ac:	d1f3      	bne.n	405596 <__ascii_mbtowc+0x6>
  4055ae:	4610      	mov	r0, r2
  4055b0:	b002      	add	sp, #8
  4055b2:	4770      	bx	lr
  4055b4:	f06f 0001 	mvn.w	r0, #1
  4055b8:	e7f4      	b.n	4055a4 <__ascii_mbtowc+0x14>
  4055ba:	bf00      	nop
  4055bc:	0000      	movs	r0, r0
	...

004055c0 <memchr>:
  4055c0:	f001 01ff 	and.w	r1, r1, #255	; 0xff
  4055c4:	2a10      	cmp	r2, #16
  4055c6:	db2b      	blt.n	405620 <memchr+0x60>
  4055c8:	f010 0f07 	tst.w	r0, #7
  4055cc:	d008      	beq.n	4055e0 <memchr+0x20>
  4055ce:	f810 3b01 	ldrb.w	r3, [r0], #1
  4055d2:	3a01      	subs	r2, #1
  4055d4:	428b      	cmp	r3, r1
  4055d6:	d02d      	beq.n	405634 <memchr+0x74>
  4055d8:	f010 0f07 	tst.w	r0, #7
  4055dc:	b342      	cbz	r2, 405630 <memchr+0x70>
  4055de:	d1f6      	bne.n	4055ce <memchr+0xe>
  4055e0:	b4f0      	push	{r4, r5, r6, r7}
  4055e2:	ea41 2101 	orr.w	r1, r1, r1, lsl #8
  4055e6:	ea41 4101 	orr.w	r1, r1, r1, lsl #16
  4055ea:	f022 0407 	bic.w	r4, r2, #7
  4055ee:	f07f 0700 	mvns.w	r7, #0
  4055f2:	2300      	movs	r3, #0
  4055f4:	e8f0 5602 	ldrd	r5, r6, [r0], #8
  4055f8:	3c08      	subs	r4, #8
  4055fa:	ea85 0501 	eor.w	r5, r5, r1
  4055fe:	ea86 0601 	eor.w	r6, r6, r1
  405602:	fa85 f547 	uadd8	r5, r5, r7
  405606:	faa3 f587 	sel	r5, r3, r7
  40560a:	fa86 f647 	uadd8	r6, r6, r7
  40560e:	faa5 f687 	sel	r6, r5, r7
  405612:	b98e      	cbnz	r6, 405638 <memchr+0x78>
  405614:	d1ee      	bne.n	4055f4 <memchr+0x34>
  405616:	bcf0      	pop	{r4, r5, r6, r7}
  405618:	f001 01ff 	and.w	r1, r1, #255	; 0xff
  40561c:	f002 0207 	and.w	r2, r2, #7
  405620:	b132      	cbz	r2, 405630 <memchr+0x70>
  405622:	f810 3b01 	ldrb.w	r3, [r0], #1
  405626:	3a01      	subs	r2, #1
  405628:	ea83 0301 	eor.w	r3, r3, r1
  40562c:	b113      	cbz	r3, 405634 <memchr+0x74>
  40562e:	d1f8      	bne.n	405622 <memchr+0x62>
  405630:	2000      	movs	r0, #0
  405632:	4770      	bx	lr
  405634:	3801      	subs	r0, #1
  405636:	4770      	bx	lr
  405638:	2d00      	cmp	r5, #0
  40563a:	bf06      	itte	eq
  40563c:	4635      	moveq	r5, r6
  40563e:	3803      	subeq	r0, #3
  405640:	3807      	subne	r0, #7
  405642:	f015 0f01 	tst.w	r5, #1
  405646:	d107      	bne.n	405658 <memchr+0x98>
  405648:	3001      	adds	r0, #1
  40564a:	f415 7f80 	tst.w	r5, #256	; 0x100
  40564e:	bf02      	ittt	eq
  405650:	3001      	addeq	r0, #1
  405652:	f415 3fc0 	tsteq.w	r5, #98304	; 0x18000
  405656:	3001      	addeq	r0, #1
  405658:	bcf0      	pop	{r4, r5, r6, r7}
  40565a:	3801      	subs	r0, #1
  40565c:	4770      	bx	lr
  40565e:	bf00      	nop

00405660 <memmove>:
  405660:	4288      	cmp	r0, r1
  405662:	b5f0      	push	{r4, r5, r6, r7, lr}
  405664:	d90d      	bls.n	405682 <memmove+0x22>
  405666:	188b      	adds	r3, r1, r2
  405668:	4298      	cmp	r0, r3
  40566a:	d20a      	bcs.n	405682 <memmove+0x22>
  40566c:	1884      	adds	r4, r0, r2
  40566e:	2a00      	cmp	r2, #0
  405670:	d051      	beq.n	405716 <memmove+0xb6>
  405672:	4622      	mov	r2, r4
  405674:	f813 4d01 	ldrb.w	r4, [r3, #-1]!
  405678:	f802 4d01 	strb.w	r4, [r2, #-1]!
  40567c:	4299      	cmp	r1, r3
  40567e:	d1f9      	bne.n	405674 <memmove+0x14>
  405680:	bdf0      	pop	{r4, r5, r6, r7, pc}
  405682:	2a0f      	cmp	r2, #15
  405684:	d948      	bls.n	405718 <memmove+0xb8>
  405686:	ea41 0300 	orr.w	r3, r1, r0
  40568a:	079b      	lsls	r3, r3, #30
  40568c:	d146      	bne.n	40571c <memmove+0xbc>
  40568e:	f100 0410 	add.w	r4, r0, #16
  405692:	f101 0310 	add.w	r3, r1, #16
  405696:	4615      	mov	r5, r2
  405698:	f853 6c10 	ldr.w	r6, [r3, #-16]
  40569c:	f844 6c10 	str.w	r6, [r4, #-16]
  4056a0:	f853 6c0c 	ldr.w	r6, [r3, #-12]
  4056a4:	f844 6c0c 	str.w	r6, [r4, #-12]
  4056a8:	f853 6c08 	ldr.w	r6, [r3, #-8]
  4056ac:	f844 6c08 	str.w	r6, [r4, #-8]
  4056b0:	3d10      	subs	r5, #16
  4056b2:	f853 6c04 	ldr.w	r6, [r3, #-4]
  4056b6:	f844 6c04 	str.w	r6, [r4, #-4]
  4056ba:	2d0f      	cmp	r5, #15
  4056bc:	f103 0310 	add.w	r3, r3, #16
  4056c0:	f104 0410 	add.w	r4, r4, #16
  4056c4:	d8e8      	bhi.n	405698 <memmove+0x38>
  4056c6:	f1a2 0310 	sub.w	r3, r2, #16
  4056ca:	f023 030f 	bic.w	r3, r3, #15
  4056ce:	f002 0e0f 	and.w	lr, r2, #15
  4056d2:	3310      	adds	r3, #16
  4056d4:	f1be 0f03 	cmp.w	lr, #3
  4056d8:	4419      	add	r1, r3
  4056da:	4403      	add	r3, r0
  4056dc:	d921      	bls.n	405722 <memmove+0xc2>
  4056de:	1f1e      	subs	r6, r3, #4
  4056e0:	460d      	mov	r5, r1
  4056e2:	4674      	mov	r4, lr
  4056e4:	3c04      	subs	r4, #4
  4056e6:	f855 7b04 	ldr.w	r7, [r5], #4
  4056ea:	f846 7f04 	str.w	r7, [r6, #4]!
  4056ee:	2c03      	cmp	r4, #3
  4056f0:	d8f8      	bhi.n	4056e4 <memmove+0x84>
  4056f2:	f1ae 0404 	sub.w	r4, lr, #4
  4056f6:	f024 0403 	bic.w	r4, r4, #3
  4056fa:	3404      	adds	r4, #4
  4056fc:	4421      	add	r1, r4
  4056fe:	4423      	add	r3, r4
  405700:	f002 0203 	and.w	r2, r2, #3
  405704:	b162      	cbz	r2, 405720 <memmove+0xc0>
  405706:	3b01      	subs	r3, #1
  405708:	440a      	add	r2, r1
  40570a:	f811 4b01 	ldrb.w	r4, [r1], #1
  40570e:	f803 4f01 	strb.w	r4, [r3, #1]!
  405712:	428a      	cmp	r2, r1
  405714:	d1f9      	bne.n	40570a <memmove+0xaa>
  405716:	bdf0      	pop	{r4, r5, r6, r7, pc}
  405718:	4603      	mov	r3, r0
  40571a:	e7f3      	b.n	405704 <memmove+0xa4>
  40571c:	4603      	mov	r3, r0
  40571e:	e7f2      	b.n	405706 <memmove+0xa6>
  405720:	bdf0      	pop	{r4, r5, r6, r7, pc}
  405722:	4672      	mov	r2, lr
  405724:	e7ee      	b.n	405704 <memmove+0xa4>
  405726:	bf00      	nop

00405728 <_realloc_r>:
  405728:	2900      	cmp	r1, #0
  40572a:	f000 8095 	beq.w	405858 <_realloc_r+0x130>
  40572e:	e92d 4ff0 	stmdb	sp!, {r4, r5, r6, r7, r8, r9, sl, fp, lr}
  405732:	460d      	mov	r5, r1
  405734:	4616      	mov	r6, r2
  405736:	b083      	sub	sp, #12
  405738:	4680      	mov	r8, r0
  40573a:	f106 070b 	add.w	r7, r6, #11
  40573e:	f7fe fa97 	bl	403c70 <__malloc_lock>
  405742:	f855 ec04 	ldr.w	lr, [r5, #-4]
  405746:	2f16      	cmp	r7, #22
  405748:	f02e 0403 	bic.w	r4, lr, #3
  40574c:	f1a5 0908 	sub.w	r9, r5, #8
  405750:	d83c      	bhi.n	4057cc <_realloc_r+0xa4>
  405752:	2210      	movs	r2, #16
  405754:	4617      	mov	r7, r2
  405756:	42be      	cmp	r6, r7
  405758:	d83d      	bhi.n	4057d6 <_realloc_r+0xae>
  40575a:	4294      	cmp	r4, r2
  40575c:	da43      	bge.n	4057e6 <_realloc_r+0xbe>
  40575e:	4bc4      	ldr	r3, [pc, #784]	; (405a70 <_realloc_r+0x348>)
  405760:	6899      	ldr	r1, [r3, #8]
  405762:	eb09 0004 	add.w	r0, r9, r4
  405766:	4288      	cmp	r0, r1
  405768:	f000 80b4 	beq.w	4058d4 <_realloc_r+0x1ac>
  40576c:	6843      	ldr	r3, [r0, #4]
  40576e:	f023 0101 	bic.w	r1, r3, #1
  405772:	4401      	add	r1, r0
  405774:	6849      	ldr	r1, [r1, #4]
  405776:	07c9      	lsls	r1, r1, #31
  405778:	d54c      	bpl.n	405814 <_realloc_r+0xec>
  40577a:	f01e 0f01 	tst.w	lr, #1
  40577e:	f000 809b 	beq.w	4058b8 <_realloc_r+0x190>
  405782:	4631      	mov	r1, r6
  405784:	4640      	mov	r0, r8
  405786:	f7fd fedb 	bl	403540 <_malloc_r>
  40578a:	4606      	mov	r6, r0
  40578c:	2800      	cmp	r0, #0
  40578e:	d03a      	beq.n	405806 <_realloc_r+0xde>
  405790:	f855 3c04 	ldr.w	r3, [r5, #-4]
  405794:	f023 0301 	bic.w	r3, r3, #1
  405798:	444b      	add	r3, r9
  40579a:	f1a0 0208 	sub.w	r2, r0, #8
  40579e:	429a      	cmp	r2, r3
  4057a0:	f000 8121 	beq.w	4059e6 <_realloc_r+0x2be>
  4057a4:	1f22      	subs	r2, r4, #4
  4057a6:	2a24      	cmp	r2, #36	; 0x24
  4057a8:	f200 8107 	bhi.w	4059ba <_realloc_r+0x292>
  4057ac:	2a13      	cmp	r2, #19
  4057ae:	f200 80db 	bhi.w	405968 <_realloc_r+0x240>
  4057b2:	4603      	mov	r3, r0
  4057b4:	462a      	mov	r2, r5
  4057b6:	6811      	ldr	r1, [r2, #0]
  4057b8:	6019      	str	r1, [r3, #0]
  4057ba:	6851      	ldr	r1, [r2, #4]
  4057bc:	6059      	str	r1, [r3, #4]
  4057be:	6892      	ldr	r2, [r2, #8]
  4057c0:	609a      	str	r2, [r3, #8]
  4057c2:	4629      	mov	r1, r5
  4057c4:	4640      	mov	r0, r8
  4057c6:	f7ff fbcd 	bl	404f64 <_free_r>
  4057ca:	e01c      	b.n	405806 <_realloc_r+0xde>
  4057cc:	f027 0707 	bic.w	r7, r7, #7
  4057d0:	2f00      	cmp	r7, #0
  4057d2:	463a      	mov	r2, r7
  4057d4:	dabf      	bge.n	405756 <_realloc_r+0x2e>
  4057d6:	2600      	movs	r6, #0
  4057d8:	230c      	movs	r3, #12
  4057da:	4630      	mov	r0, r6
  4057dc:	f8c8 3000 	str.w	r3, [r8]
  4057e0:	b003      	add	sp, #12
  4057e2:	e8bd 8ff0 	ldmia.w	sp!, {r4, r5, r6, r7, r8, r9, sl, fp, pc}
  4057e6:	462e      	mov	r6, r5
  4057e8:	1be3      	subs	r3, r4, r7
  4057ea:	2b0f      	cmp	r3, #15
  4057ec:	d81e      	bhi.n	40582c <_realloc_r+0x104>
  4057ee:	f8d9 3004 	ldr.w	r3, [r9, #4]
  4057f2:	f003 0301 	and.w	r3, r3, #1
  4057f6:	4323      	orrs	r3, r4
  4057f8:	444c      	add	r4, r9
  4057fa:	f8c9 3004 	str.w	r3, [r9, #4]
  4057fe:	6863      	ldr	r3, [r4, #4]
  405800:	f043 0301 	orr.w	r3, r3, #1
  405804:	6063      	str	r3, [r4, #4]
  405806:	4640      	mov	r0, r8
  405808:	f7fe fa38 	bl	403c7c <__malloc_unlock>
  40580c:	4630      	mov	r0, r6
  40580e:	b003      	add	sp, #12
  405810:	e8bd 8ff0 	ldmia.w	sp!, {r4, r5, r6, r7, r8, r9, sl, fp, pc}
  405814:	f023 0303 	bic.w	r3, r3, #3
  405818:	18e1      	adds	r1, r4, r3
  40581a:	4291      	cmp	r1, r2
  40581c:	db1f      	blt.n	40585e <_realloc_r+0x136>
  40581e:	68c3      	ldr	r3, [r0, #12]
  405820:	6882      	ldr	r2, [r0, #8]
  405822:	462e      	mov	r6, r5
  405824:	60d3      	str	r3, [r2, #12]
  405826:	460c      	mov	r4, r1
  405828:	609a      	str	r2, [r3, #8]
  40582a:	e7dd      	b.n	4057e8 <_realloc_r+0xc0>
  40582c:	f8d9 2004 	ldr.w	r2, [r9, #4]
  405830:	eb09 0107 	add.w	r1, r9, r7
  405834:	f002 0201 	and.w	r2, r2, #1
  405838:	444c      	add	r4, r9
  40583a:	f043 0301 	orr.w	r3, r3, #1
  40583e:	4317      	orrs	r7, r2
  405840:	f8c9 7004 	str.w	r7, [r9, #4]
  405844:	604b      	str	r3, [r1, #4]
  405846:	6863      	ldr	r3, [r4, #4]
  405848:	f043 0301 	orr.w	r3, r3, #1
  40584c:	3108      	adds	r1, #8
  40584e:	6063      	str	r3, [r4, #4]
  405850:	4640      	mov	r0, r8
  405852:	f7ff fb87 	bl	404f64 <_free_r>
  405856:	e7d6      	b.n	405806 <_realloc_r+0xde>
  405858:	4611      	mov	r1, r2
  40585a:	f7fd be71 	b.w	403540 <_malloc_r>
  40585e:	f01e 0f01 	tst.w	lr, #1
  405862:	d18e      	bne.n	405782 <_realloc_r+0x5a>
  405864:	f855 1c08 	ldr.w	r1, [r5, #-8]
  405868:	eba9 0a01 	sub.w	sl, r9, r1
  40586c:	f8da 1004 	ldr.w	r1, [sl, #4]
  405870:	f021 0103 	bic.w	r1, r1, #3
  405874:	440b      	add	r3, r1
  405876:	4423      	add	r3, r4
  405878:	4293      	cmp	r3, r2
  40587a:	db25      	blt.n	4058c8 <_realloc_r+0x1a0>
  40587c:	68c2      	ldr	r2, [r0, #12]
  40587e:	6881      	ldr	r1, [r0, #8]
  405880:	4656      	mov	r6, sl
  405882:	60ca      	str	r2, [r1, #12]
  405884:	6091      	str	r1, [r2, #8]
  405886:	f8da 100c 	ldr.w	r1, [sl, #12]
  40588a:	f856 0f08 	ldr.w	r0, [r6, #8]!
  40588e:	1f22      	subs	r2, r4, #4
  405890:	2a24      	cmp	r2, #36	; 0x24
  405892:	60c1      	str	r1, [r0, #12]
  405894:	6088      	str	r0, [r1, #8]
  405896:	f200 8094 	bhi.w	4059c2 <_realloc_r+0x29a>
  40589a:	2a13      	cmp	r2, #19
  40589c:	d96f      	bls.n	40597e <_realloc_r+0x256>
  40589e:	6829      	ldr	r1, [r5, #0]
  4058a0:	f8ca 1008 	str.w	r1, [sl, #8]
  4058a4:	6869      	ldr	r1, [r5, #4]
  4058a6:	f8ca 100c 	str.w	r1, [sl, #12]
  4058aa:	2a1b      	cmp	r2, #27
  4058ac:	f200 80a2 	bhi.w	4059f4 <_realloc_r+0x2cc>
  4058b0:	3508      	adds	r5, #8
  4058b2:	f10a 0210 	add.w	r2, sl, #16
  4058b6:	e063      	b.n	405980 <_realloc_r+0x258>
  4058b8:	f855 3c08 	ldr.w	r3, [r5, #-8]
  4058bc:	eba9 0a03 	sub.w	sl, r9, r3
  4058c0:	f8da 1004 	ldr.w	r1, [sl, #4]
  4058c4:	f021 0103 	bic.w	r1, r1, #3
  4058c8:	1863      	adds	r3, r4, r1
  4058ca:	4293      	cmp	r3, r2
  4058cc:	f6ff af59 	blt.w	405782 <_realloc_r+0x5a>
  4058d0:	4656      	mov	r6, sl
  4058d2:	e7d8      	b.n	405886 <_realloc_r+0x15e>
  4058d4:	6841      	ldr	r1, [r0, #4]
  4058d6:	f021 0b03 	bic.w	fp, r1, #3
  4058da:	44a3      	add	fp, r4
  4058dc:	f107 0010 	add.w	r0, r7, #16
  4058e0:	4583      	cmp	fp, r0
  4058e2:	da56      	bge.n	405992 <_realloc_r+0x26a>
  4058e4:	f01e 0f01 	tst.w	lr, #1
  4058e8:	f47f af4b 	bne.w	405782 <_realloc_r+0x5a>
  4058ec:	f855 1c08 	ldr.w	r1, [r5, #-8]
  4058f0:	eba9 0a01 	sub.w	sl, r9, r1
  4058f4:	f8da 1004 	ldr.w	r1, [sl, #4]
  4058f8:	f021 0103 	bic.w	r1, r1, #3
  4058fc:	448b      	add	fp, r1
  4058fe:	4558      	cmp	r0, fp
  405900:	dce2      	bgt.n	4058c8 <_realloc_r+0x1a0>
  405902:	4656      	mov	r6, sl
  405904:	f8da 100c 	ldr.w	r1, [sl, #12]
  405908:	f856 0f08 	ldr.w	r0, [r6, #8]!
  40590c:	1f22      	subs	r2, r4, #4
  40590e:	2a24      	cmp	r2, #36	; 0x24
  405910:	60c1      	str	r1, [r0, #12]
  405912:	6088      	str	r0, [r1, #8]
  405914:	f200 808f 	bhi.w	405a36 <_realloc_r+0x30e>
  405918:	2a13      	cmp	r2, #19
  40591a:	f240 808a 	bls.w	405a32 <_realloc_r+0x30a>
  40591e:	6829      	ldr	r1, [r5, #0]
  405920:	f8ca 1008 	str.w	r1, [sl, #8]
  405924:	6869      	ldr	r1, [r5, #4]
  405926:	f8ca 100c 	str.w	r1, [sl, #12]
  40592a:	2a1b      	cmp	r2, #27
  40592c:	f200 808a 	bhi.w	405a44 <_realloc_r+0x31c>
  405930:	3508      	adds	r5, #8
  405932:	f10a 0210 	add.w	r2, sl, #16
  405936:	6829      	ldr	r1, [r5, #0]
  405938:	6011      	str	r1, [r2, #0]
  40593a:	6869      	ldr	r1, [r5, #4]
  40593c:	6051      	str	r1, [r2, #4]
  40593e:	68a9      	ldr	r1, [r5, #8]
  405940:	6091      	str	r1, [r2, #8]
  405942:	eb0a 0107 	add.w	r1, sl, r7
  405946:	ebab 0207 	sub.w	r2, fp, r7
  40594a:	f042 0201 	orr.w	r2, r2, #1
  40594e:	6099      	str	r1, [r3, #8]
  405950:	604a      	str	r2, [r1, #4]
  405952:	f8da 3004 	ldr.w	r3, [sl, #4]
  405956:	f003 0301 	and.w	r3, r3, #1
  40595a:	431f      	orrs	r7, r3
  40595c:	4640      	mov	r0, r8
  40595e:	f8ca 7004 	str.w	r7, [sl, #4]
  405962:	f7fe f98b 	bl	403c7c <__malloc_unlock>
  405966:	e751      	b.n	40580c <_realloc_r+0xe4>
  405968:	682b      	ldr	r3, [r5, #0]
  40596a:	6003      	str	r3, [r0, #0]
  40596c:	686b      	ldr	r3, [r5, #4]
  40596e:	6043      	str	r3, [r0, #4]
  405970:	2a1b      	cmp	r2, #27
  405972:	d82d      	bhi.n	4059d0 <_realloc_r+0x2a8>
  405974:	f100 0308 	add.w	r3, r0, #8
  405978:	f105 0208 	add.w	r2, r5, #8
  40597c:	e71b      	b.n	4057b6 <_realloc_r+0x8e>
  40597e:	4632      	mov	r2, r6
  405980:	6829      	ldr	r1, [r5, #0]
  405982:	6011      	str	r1, [r2, #0]
  405984:	6869      	ldr	r1, [r5, #4]
  405986:	6051      	str	r1, [r2, #4]
  405988:	68a9      	ldr	r1, [r5, #8]
  40598a:	6091      	str	r1, [r2, #8]
  40598c:	461c      	mov	r4, r3
  40598e:	46d1      	mov	r9, sl
  405990:	e72a      	b.n	4057e8 <_realloc_r+0xc0>
  405992:	eb09 0107 	add.w	r1, r9, r7
  405996:	ebab 0b07 	sub.w	fp, fp, r7
  40599a:	f04b 0201 	orr.w	r2, fp, #1
  40599e:	6099      	str	r1, [r3, #8]
  4059a0:	604a      	str	r2, [r1, #4]
  4059a2:	f855 3c04 	ldr.w	r3, [r5, #-4]
  4059a6:	f003 0301 	and.w	r3, r3, #1
  4059aa:	431f      	orrs	r7, r3
  4059ac:	4640      	mov	r0, r8
  4059ae:	f845 7c04 	str.w	r7, [r5, #-4]
  4059b2:	f7fe f963 	bl	403c7c <__malloc_unlock>
  4059b6:	462e      	mov	r6, r5
  4059b8:	e728      	b.n	40580c <_realloc_r+0xe4>
  4059ba:	4629      	mov	r1, r5
  4059bc:	f7ff fe50 	bl	405660 <memmove>
  4059c0:	e6ff      	b.n	4057c2 <_realloc_r+0x9a>
  4059c2:	4629      	mov	r1, r5
  4059c4:	4630      	mov	r0, r6
  4059c6:	461c      	mov	r4, r3
  4059c8:	46d1      	mov	r9, sl
  4059ca:	f7ff fe49 	bl	405660 <memmove>
  4059ce:	e70b      	b.n	4057e8 <_realloc_r+0xc0>
  4059d0:	68ab      	ldr	r3, [r5, #8]
  4059d2:	6083      	str	r3, [r0, #8]
  4059d4:	68eb      	ldr	r3, [r5, #12]
  4059d6:	60c3      	str	r3, [r0, #12]
  4059d8:	2a24      	cmp	r2, #36	; 0x24
  4059da:	d017      	beq.n	405a0c <_realloc_r+0x2e4>
  4059dc:	f100 0310 	add.w	r3, r0, #16
  4059e0:	f105 0210 	add.w	r2, r5, #16
  4059e4:	e6e7      	b.n	4057b6 <_realloc_r+0x8e>
  4059e6:	f850 3c04 	ldr.w	r3, [r0, #-4]
  4059ea:	f023 0303 	bic.w	r3, r3, #3
  4059ee:	441c      	add	r4, r3
  4059f0:	462e      	mov	r6, r5
  4059f2:	e6f9      	b.n	4057e8 <_realloc_r+0xc0>
  4059f4:	68a9      	ldr	r1, [r5, #8]
  4059f6:	f8ca 1010 	str.w	r1, [sl, #16]
  4059fa:	68e9      	ldr	r1, [r5, #12]
  4059fc:	f8ca 1014 	str.w	r1, [sl, #20]
  405a00:	2a24      	cmp	r2, #36	; 0x24
  405a02:	d00c      	beq.n	405a1e <_realloc_r+0x2f6>
  405a04:	3510      	adds	r5, #16
  405a06:	f10a 0218 	add.w	r2, sl, #24
  405a0a:	e7b9      	b.n	405980 <_realloc_r+0x258>
  405a0c:	692b      	ldr	r3, [r5, #16]
  405a0e:	6103      	str	r3, [r0, #16]
  405a10:	696b      	ldr	r3, [r5, #20]
  405a12:	6143      	str	r3, [r0, #20]
  405a14:	f105 0218 	add.w	r2, r5, #24
  405a18:	f100 0318 	add.w	r3, r0, #24
  405a1c:	e6cb      	b.n	4057b6 <_realloc_r+0x8e>
  405a1e:	692a      	ldr	r2, [r5, #16]
  405a20:	f8ca 2018 	str.w	r2, [sl, #24]
  405a24:	696a      	ldr	r2, [r5, #20]
  405a26:	f8ca 201c 	str.w	r2, [sl, #28]
  405a2a:	3518      	adds	r5, #24
  405a2c:	f10a 0220 	add.w	r2, sl, #32
  405a30:	e7a6      	b.n	405980 <_realloc_r+0x258>
  405a32:	4632      	mov	r2, r6
  405a34:	e77f      	b.n	405936 <_realloc_r+0x20e>
  405a36:	4629      	mov	r1, r5
  405a38:	4630      	mov	r0, r6
  405a3a:	9301      	str	r3, [sp, #4]
  405a3c:	f7ff fe10 	bl	405660 <memmove>
  405a40:	9b01      	ldr	r3, [sp, #4]
  405a42:	e77e      	b.n	405942 <_realloc_r+0x21a>
  405a44:	68a9      	ldr	r1, [r5, #8]
  405a46:	f8ca 1010 	str.w	r1, [sl, #16]
  405a4a:	68e9      	ldr	r1, [r5, #12]
  405a4c:	f8ca 1014 	str.w	r1, [sl, #20]
  405a50:	2a24      	cmp	r2, #36	; 0x24
  405a52:	d003      	beq.n	405a5c <_realloc_r+0x334>
  405a54:	3510      	adds	r5, #16
  405a56:	f10a 0218 	add.w	r2, sl, #24
  405a5a:	e76c      	b.n	405936 <_realloc_r+0x20e>
  405a5c:	692a      	ldr	r2, [r5, #16]
  405a5e:	f8ca 2018 	str.w	r2, [sl, #24]
  405a62:	696a      	ldr	r2, [r5, #20]
  405a64:	f8ca 201c 	str.w	r2, [sl, #28]
  405a68:	3518      	adds	r5, #24
  405a6a:	f10a 0220 	add.w	r2, sl, #32
  405a6e:	e762      	b.n	405936 <_realloc_r+0x20e>
  405a70:	20400490 	.word	0x20400490

00405a74 <__sread>:
  405a74:	b510      	push	{r4, lr}
  405a76:	460c      	mov	r4, r1
  405a78:	f9b1 100e 	ldrsh.w	r1, [r1, #14]
  405a7c:	f000 fa66 	bl	405f4c <_read_r>
  405a80:	2800      	cmp	r0, #0
  405a82:	db03      	blt.n	405a8c <__sread+0x18>
  405a84:	6d23      	ldr	r3, [r4, #80]	; 0x50
  405a86:	4403      	add	r3, r0
  405a88:	6523      	str	r3, [r4, #80]	; 0x50
  405a8a:	bd10      	pop	{r4, pc}
  405a8c:	89a3      	ldrh	r3, [r4, #12]
  405a8e:	f423 5380 	bic.w	r3, r3, #4096	; 0x1000
  405a92:	81a3      	strh	r3, [r4, #12]
  405a94:	bd10      	pop	{r4, pc}
  405a96:	bf00      	nop

00405a98 <__swrite>:
  405a98:	e92d 41f0 	stmdb	sp!, {r4, r5, r6, r7, r8, lr}
  405a9c:	4616      	mov	r6, r2
  405a9e:	f9b1 200c 	ldrsh.w	r2, [r1, #12]
  405aa2:	461f      	mov	r7, r3
  405aa4:	05d3      	lsls	r3, r2, #23
  405aa6:	460c      	mov	r4, r1
  405aa8:	4605      	mov	r5, r0
  405aaa:	d507      	bpl.n	405abc <__swrite+0x24>
  405aac:	2200      	movs	r2, #0
  405aae:	2302      	movs	r3, #2
  405ab0:	f9b1 100e 	ldrsh.w	r1, [r1, #14]
  405ab4:	f000 fa34 	bl	405f20 <_lseek_r>
  405ab8:	f9b4 200c 	ldrsh.w	r2, [r4, #12]
  405abc:	f9b4 100e 	ldrsh.w	r1, [r4, #14]
  405ac0:	f422 5280 	bic.w	r2, r2, #4096	; 0x1000
  405ac4:	81a2      	strh	r2, [r4, #12]
  405ac6:	463b      	mov	r3, r7
  405ac8:	4632      	mov	r2, r6
  405aca:	4628      	mov	r0, r5
  405acc:	e8bd 41f0 	ldmia.w	sp!, {r4, r5, r6, r7, r8, lr}
  405ad0:	f000 b914 	b.w	405cfc <_write_r>

00405ad4 <__sseek>:
  405ad4:	b510      	push	{r4, lr}
  405ad6:	460c      	mov	r4, r1
  405ad8:	f9b1 100e 	ldrsh.w	r1, [r1, #14]
  405adc:	f000 fa20 	bl	405f20 <_lseek_r>
  405ae0:	89a3      	ldrh	r3, [r4, #12]
  405ae2:	1c42      	adds	r2, r0, #1
  405ae4:	bf0e      	itee	eq
  405ae6:	f423 5380 	biceq.w	r3, r3, #4096	; 0x1000
  405aea:	f443 5380 	orrne.w	r3, r3, #4096	; 0x1000
  405aee:	6520      	strne	r0, [r4, #80]	; 0x50
  405af0:	81a3      	strh	r3, [r4, #12]
  405af2:	bd10      	pop	{r4, pc}

00405af4 <__sclose>:
  405af4:	f9b1 100e 	ldrsh.w	r1, [r1, #14]
  405af8:	f000 b978 	b.w	405dec <_close_r>
  405afc:	0000      	movs	r0, r0
	...

00405b00 <strlen>:
  405b00:	f890 f000 	pld	[r0]
  405b04:	e96d 4502 	strd	r4, r5, [sp, #-8]!
  405b08:	f020 0107 	bic.w	r1, r0, #7
  405b0c:	f06f 0c00 	mvn.w	ip, #0
  405b10:	f010 0407 	ands.w	r4, r0, #7
  405b14:	f891 f020 	pld	[r1, #32]
  405b18:	f040 8049 	bne.w	405bae <strlen+0xae>
  405b1c:	f04f 0400 	mov.w	r4, #0
  405b20:	f06f 0007 	mvn.w	r0, #7
  405b24:	e9d1 2300 	ldrd	r2, r3, [r1]
  405b28:	f891 f040 	pld	[r1, #64]	; 0x40
  405b2c:	f100 0008 	add.w	r0, r0, #8
  405b30:	fa82 f24c 	uadd8	r2, r2, ip
  405b34:	faa4 f28c 	sel	r2, r4, ip
  405b38:	fa83 f34c 	uadd8	r3, r3, ip
  405b3c:	faa2 f38c 	sel	r3, r2, ip
  405b40:	bb4b      	cbnz	r3, 405b96 <strlen+0x96>
  405b42:	e9d1 2302 	ldrd	r2, r3, [r1, #8]
  405b46:	fa82 f24c 	uadd8	r2, r2, ip
  405b4a:	f100 0008 	add.w	r0, r0, #8
  405b4e:	faa4 f28c 	sel	r2, r4, ip
  405b52:	fa83 f34c 	uadd8	r3, r3, ip
  405b56:	faa2 f38c 	sel	r3, r2, ip
  405b5a:	b9e3      	cbnz	r3, 405b96 <strlen+0x96>
  405b5c:	e9d1 2304 	ldrd	r2, r3, [r1, #16]
  405b60:	fa82 f24c 	uadd8	r2, r2, ip
  405b64:	f100 0008 	add.w	r0, r0, #8
  405b68:	faa4 f28c 	sel	r2, r4, ip
  405b6c:	fa83 f34c 	uadd8	r3, r3, ip
  405b70:	faa2 f38c 	sel	r3, r2, ip
  405b74:	b97b      	cbnz	r3, 405b96 <strlen+0x96>
  405b76:	e9d1 2306 	ldrd	r2, r3, [r1, #24]
  405b7a:	f101 0120 	add.w	r1, r1, #32
  405b7e:	fa82 f24c 	uadd8	r2, r2, ip
  405b82:	f100 0008 	add.w	r0, r0, #8
  405b86:	faa4 f28c 	sel	r2, r4, ip
  405b8a:	fa83 f34c 	uadd8	r3, r3, ip
  405b8e:	faa2 f38c 	sel	r3, r2, ip
  405b92:	2b00      	cmp	r3, #0
  405b94:	d0c6      	beq.n	405b24 <strlen+0x24>
  405b96:	2a00      	cmp	r2, #0
  405b98:	bf04      	itt	eq
  405b9a:	3004      	addeq	r0, #4
  405b9c:	461a      	moveq	r2, r3
  405b9e:	ba12      	rev	r2, r2
  405ba0:	fab2 f282 	clz	r2, r2
  405ba4:	e8fd 4502 	ldrd	r4, r5, [sp], #8
  405ba8:	eb00 00d2 	add.w	r0, r0, r2, lsr #3
  405bac:	4770      	bx	lr
  405bae:	e9d1 2300 	ldrd	r2, r3, [r1]
  405bb2:	f004 0503 	and.w	r5, r4, #3
  405bb6:	f1c4 0000 	rsb	r0, r4, #0
  405bba:	ea4f 05c5 	mov.w	r5, r5, lsl #3
  405bbe:	f014 0f04 	tst.w	r4, #4
  405bc2:	f891 f040 	pld	[r1, #64]	; 0x40
  405bc6:	fa0c f505 	lsl.w	r5, ip, r5
  405bca:	ea62 0205 	orn	r2, r2, r5
  405bce:	bf1c      	itt	ne
  405bd0:	ea63 0305 	ornne	r3, r3, r5
  405bd4:	4662      	movne	r2, ip
  405bd6:	f04f 0400 	mov.w	r4, #0
  405bda:	e7a9      	b.n	405b30 <strlen+0x30>

00405bdc <__swbuf_r>:
  405bdc:	b5f8      	push	{r3, r4, r5, r6, r7, lr}
  405bde:	460d      	mov	r5, r1
  405be0:	4614      	mov	r4, r2
  405be2:	4606      	mov	r6, r0
  405be4:	b110      	cbz	r0, 405bec <__swbuf_r+0x10>
  405be6:	6b83      	ldr	r3, [r0, #56]	; 0x38
  405be8:	2b00      	cmp	r3, #0
  405bea:	d04b      	beq.n	405c84 <__swbuf_r+0xa8>
  405bec:	f9b4 200c 	ldrsh.w	r2, [r4, #12]
  405bf0:	69a3      	ldr	r3, [r4, #24]
  405bf2:	60a3      	str	r3, [r4, #8]
  405bf4:	b291      	uxth	r1, r2
  405bf6:	0708      	lsls	r0, r1, #28
  405bf8:	d539      	bpl.n	405c6e <__swbuf_r+0x92>
  405bfa:	6923      	ldr	r3, [r4, #16]
  405bfc:	2b00      	cmp	r3, #0
  405bfe:	d036      	beq.n	405c6e <__swbuf_r+0x92>
  405c00:	b2ed      	uxtb	r5, r5
  405c02:	0489      	lsls	r1, r1, #18
  405c04:	462f      	mov	r7, r5
  405c06:	d515      	bpl.n	405c34 <__swbuf_r+0x58>
  405c08:	6822      	ldr	r2, [r4, #0]
  405c0a:	6961      	ldr	r1, [r4, #20]
  405c0c:	1ad3      	subs	r3, r2, r3
  405c0e:	428b      	cmp	r3, r1
  405c10:	da1c      	bge.n	405c4c <__swbuf_r+0x70>
  405c12:	3301      	adds	r3, #1
  405c14:	68a1      	ldr	r1, [r4, #8]
  405c16:	1c50      	adds	r0, r2, #1
  405c18:	3901      	subs	r1, #1
  405c1a:	60a1      	str	r1, [r4, #8]
  405c1c:	6020      	str	r0, [r4, #0]
  405c1e:	7015      	strb	r5, [r2, #0]
  405c20:	6962      	ldr	r2, [r4, #20]
  405c22:	429a      	cmp	r2, r3
  405c24:	d01a      	beq.n	405c5c <__swbuf_r+0x80>
  405c26:	89a3      	ldrh	r3, [r4, #12]
  405c28:	07db      	lsls	r3, r3, #31
  405c2a:	d501      	bpl.n	405c30 <__swbuf_r+0x54>
  405c2c:	2d0a      	cmp	r5, #10
  405c2e:	d015      	beq.n	405c5c <__swbuf_r+0x80>
  405c30:	4638      	mov	r0, r7
  405c32:	bdf8      	pop	{r3, r4, r5, r6, r7, pc}
  405c34:	6e61      	ldr	r1, [r4, #100]	; 0x64
  405c36:	f442 5200 	orr.w	r2, r2, #8192	; 0x2000
  405c3a:	f421 5100 	bic.w	r1, r1, #8192	; 0x2000
  405c3e:	81a2      	strh	r2, [r4, #12]
  405c40:	6822      	ldr	r2, [r4, #0]
  405c42:	6661      	str	r1, [r4, #100]	; 0x64
  405c44:	6961      	ldr	r1, [r4, #20]
  405c46:	1ad3      	subs	r3, r2, r3
  405c48:	428b      	cmp	r3, r1
  405c4a:	dbe2      	blt.n	405c12 <__swbuf_r+0x36>
  405c4c:	4621      	mov	r1, r4
  405c4e:	4630      	mov	r0, r6
  405c50:	f7ff f80a 	bl	404c68 <_fflush_r>
  405c54:	b940      	cbnz	r0, 405c68 <__swbuf_r+0x8c>
  405c56:	6822      	ldr	r2, [r4, #0]
  405c58:	2301      	movs	r3, #1
  405c5a:	e7db      	b.n	405c14 <__swbuf_r+0x38>
  405c5c:	4621      	mov	r1, r4
  405c5e:	4630      	mov	r0, r6
  405c60:	f7ff f802 	bl	404c68 <_fflush_r>
  405c64:	2800      	cmp	r0, #0
  405c66:	d0e3      	beq.n	405c30 <__swbuf_r+0x54>
  405c68:	f04f 37ff 	mov.w	r7, #4294967295
  405c6c:	e7e0      	b.n	405c30 <__swbuf_r+0x54>
  405c6e:	4621      	mov	r1, r4
  405c70:	4630      	mov	r0, r6
  405c72:	f7fe fee5 	bl	404a40 <__swsetup_r>
  405c76:	2800      	cmp	r0, #0
  405c78:	d1f6      	bne.n	405c68 <__swbuf_r+0x8c>
  405c7a:	f9b4 200c 	ldrsh.w	r2, [r4, #12]
  405c7e:	6923      	ldr	r3, [r4, #16]
  405c80:	b291      	uxth	r1, r2
  405c82:	e7bd      	b.n	405c00 <__swbuf_r+0x24>
  405c84:	f7ff f848 	bl	404d18 <__sinit>
  405c88:	e7b0      	b.n	405bec <__swbuf_r+0x10>
  405c8a:	bf00      	nop

00405c8c <_wcrtomb_r>:
  405c8c:	b5f0      	push	{r4, r5, r6, r7, lr}
  405c8e:	4606      	mov	r6, r0
  405c90:	b085      	sub	sp, #20
  405c92:	461f      	mov	r7, r3
  405c94:	b189      	cbz	r1, 405cba <_wcrtomb_r+0x2e>
  405c96:	4c10      	ldr	r4, [pc, #64]	; (405cd8 <_wcrtomb_r+0x4c>)
  405c98:	4d10      	ldr	r5, [pc, #64]	; (405cdc <_wcrtomb_r+0x50>)
  405c9a:	6824      	ldr	r4, [r4, #0]
  405c9c:	6b64      	ldr	r4, [r4, #52]	; 0x34
  405c9e:	2c00      	cmp	r4, #0
  405ca0:	bf08      	it	eq
  405ca2:	462c      	moveq	r4, r5
  405ca4:	f8d4 40e0 	ldr.w	r4, [r4, #224]	; 0xe0
  405ca8:	47a0      	blx	r4
  405caa:	1c43      	adds	r3, r0, #1
  405cac:	d103      	bne.n	405cb6 <_wcrtomb_r+0x2a>
  405cae:	2200      	movs	r2, #0
  405cb0:	238a      	movs	r3, #138	; 0x8a
  405cb2:	603a      	str	r2, [r7, #0]
  405cb4:	6033      	str	r3, [r6, #0]
  405cb6:	b005      	add	sp, #20
  405cb8:	bdf0      	pop	{r4, r5, r6, r7, pc}
  405cba:	460c      	mov	r4, r1
  405cbc:	4906      	ldr	r1, [pc, #24]	; (405cd8 <_wcrtomb_r+0x4c>)
  405cbe:	4a07      	ldr	r2, [pc, #28]	; (405cdc <_wcrtomb_r+0x50>)
  405cc0:	6809      	ldr	r1, [r1, #0]
  405cc2:	6b49      	ldr	r1, [r1, #52]	; 0x34
  405cc4:	2900      	cmp	r1, #0
  405cc6:	bf08      	it	eq
  405cc8:	4611      	moveq	r1, r2
  405cca:	4622      	mov	r2, r4
  405ccc:	f8d1 40e0 	ldr.w	r4, [r1, #224]	; 0xe0
  405cd0:	a901      	add	r1, sp, #4
  405cd2:	47a0      	blx	r4
  405cd4:	e7e9      	b.n	405caa <_wcrtomb_r+0x1e>
  405cd6:	bf00      	nop
  405cd8:	20400060 	.word	0x20400060
  405cdc:	204008a4 	.word	0x204008a4

00405ce0 <__ascii_wctomb>:
  405ce0:	b121      	cbz	r1, 405cec <__ascii_wctomb+0xc>
  405ce2:	2aff      	cmp	r2, #255	; 0xff
  405ce4:	d804      	bhi.n	405cf0 <__ascii_wctomb+0x10>
  405ce6:	700a      	strb	r2, [r1, #0]
  405ce8:	2001      	movs	r0, #1
  405cea:	4770      	bx	lr
  405cec:	4608      	mov	r0, r1
  405cee:	4770      	bx	lr
  405cf0:	238a      	movs	r3, #138	; 0x8a
  405cf2:	6003      	str	r3, [r0, #0]
  405cf4:	f04f 30ff 	mov.w	r0, #4294967295
  405cf8:	4770      	bx	lr
  405cfa:	bf00      	nop

00405cfc <_write_r>:
  405cfc:	b570      	push	{r4, r5, r6, lr}
  405cfe:	460d      	mov	r5, r1
  405d00:	4c08      	ldr	r4, [pc, #32]	; (405d24 <_write_r+0x28>)
  405d02:	4611      	mov	r1, r2
  405d04:	4606      	mov	r6, r0
  405d06:	461a      	mov	r2, r3
  405d08:	4628      	mov	r0, r5
  405d0a:	2300      	movs	r3, #0
  405d0c:	6023      	str	r3, [r4, #0]
  405d0e:	f7fb facd 	bl	4012ac <_write>
  405d12:	1c43      	adds	r3, r0, #1
  405d14:	d000      	beq.n	405d18 <_write_r+0x1c>
  405d16:	bd70      	pop	{r4, r5, r6, pc}
  405d18:	6823      	ldr	r3, [r4, #0]
  405d1a:	2b00      	cmp	r3, #0
  405d1c:	d0fb      	beq.n	405d16 <_write_r+0x1a>
  405d1e:	6033      	str	r3, [r6, #0]
  405d20:	bd70      	pop	{r4, r5, r6, pc}
  405d22:	bf00      	nop
  405d24:	2045a8e4 	.word	0x2045a8e4

00405d28 <__register_exitproc>:
  405d28:	e92d 43f8 	stmdb	sp!, {r3, r4, r5, r6, r7, r8, r9, lr}
  405d2c:	4d2c      	ldr	r5, [pc, #176]	; (405de0 <__register_exitproc+0xb8>)
  405d2e:	4606      	mov	r6, r0
  405d30:	6828      	ldr	r0, [r5, #0]
  405d32:	4698      	mov	r8, r3
  405d34:	460f      	mov	r7, r1
  405d36:	4691      	mov	r9, r2
  405d38:	f7ff fbae 	bl	405498 <__retarget_lock_acquire_recursive>
  405d3c:	4b29      	ldr	r3, [pc, #164]	; (405de4 <__register_exitproc+0xbc>)
  405d3e:	681c      	ldr	r4, [r3, #0]
  405d40:	f8d4 3148 	ldr.w	r3, [r4, #328]	; 0x148
  405d44:	2b00      	cmp	r3, #0
  405d46:	d03e      	beq.n	405dc6 <__register_exitproc+0x9e>
  405d48:	685a      	ldr	r2, [r3, #4]
  405d4a:	2a1f      	cmp	r2, #31
  405d4c:	dc1c      	bgt.n	405d88 <__register_exitproc+0x60>
  405d4e:	f102 0e01 	add.w	lr, r2, #1
  405d52:	b176      	cbz	r6, 405d72 <__register_exitproc+0x4a>
  405d54:	eb03 0182 	add.w	r1, r3, r2, lsl #2
  405d58:	2401      	movs	r4, #1
  405d5a:	f8c1 9088 	str.w	r9, [r1, #136]	; 0x88
  405d5e:	f8d3 0188 	ldr.w	r0, [r3, #392]	; 0x188
  405d62:	4094      	lsls	r4, r2
  405d64:	4320      	orrs	r0, r4
  405d66:	2e02      	cmp	r6, #2
  405d68:	f8c3 0188 	str.w	r0, [r3, #392]	; 0x188
  405d6c:	f8c1 8108 	str.w	r8, [r1, #264]	; 0x108
  405d70:	d023      	beq.n	405dba <__register_exitproc+0x92>
  405d72:	3202      	adds	r2, #2
  405d74:	f8c3 e004 	str.w	lr, [r3, #4]
  405d78:	6828      	ldr	r0, [r5, #0]
  405d7a:	f843 7022 	str.w	r7, [r3, r2, lsl #2]
  405d7e:	f7ff fb8d 	bl	40549c <__retarget_lock_release_recursive>
  405d82:	2000      	movs	r0, #0
  405d84:	e8bd 83f8 	ldmia.w	sp!, {r3, r4, r5, r6, r7, r8, r9, pc}
  405d88:	4b17      	ldr	r3, [pc, #92]	; (405de8 <__register_exitproc+0xc0>)
  405d8a:	b30b      	cbz	r3, 405dd0 <__register_exitproc+0xa8>
  405d8c:	f44f 70c8 	mov.w	r0, #400	; 0x190
  405d90:	f7fd fbce 	bl	403530 <malloc>
  405d94:	4603      	mov	r3, r0
  405d96:	b1d8      	cbz	r0, 405dd0 <__register_exitproc+0xa8>
  405d98:	f8d4 2148 	ldr.w	r2, [r4, #328]	; 0x148
  405d9c:	6002      	str	r2, [r0, #0]
  405d9e:	2100      	movs	r1, #0
  405da0:	6041      	str	r1, [r0, #4]
  405da2:	460a      	mov	r2, r1
  405da4:	f8c4 0148 	str.w	r0, [r4, #328]	; 0x148
  405da8:	f04f 0e01 	mov.w	lr, #1
  405dac:	f8c0 1188 	str.w	r1, [r0, #392]	; 0x188
  405db0:	f8c0 118c 	str.w	r1, [r0, #396]	; 0x18c
  405db4:	2e00      	cmp	r6, #0
  405db6:	d0dc      	beq.n	405d72 <__register_exitproc+0x4a>
  405db8:	e7cc      	b.n	405d54 <__register_exitproc+0x2c>
  405dba:	f8d3 118c 	ldr.w	r1, [r3, #396]	; 0x18c
  405dbe:	430c      	orrs	r4, r1
  405dc0:	f8c3 418c 	str.w	r4, [r3, #396]	; 0x18c
  405dc4:	e7d5      	b.n	405d72 <__register_exitproc+0x4a>
  405dc6:	f504 73a6 	add.w	r3, r4, #332	; 0x14c
  405dca:	f8c4 3148 	str.w	r3, [r4, #328]	; 0x148
  405dce:	e7bb      	b.n	405d48 <__register_exitproc+0x20>
  405dd0:	6828      	ldr	r0, [r5, #0]
  405dd2:	f7ff fb63 	bl	40549c <__retarget_lock_release_recursive>
  405dd6:	f04f 30ff 	mov.w	r0, #4294967295
  405dda:	e8bd 83f8 	ldmia.w	sp!, {r3, r4, r5, r6, r7, r8, r9, pc}
  405dde:	bf00      	nop
  405de0:	204008a0 	.word	0x204008a0
  405de4:	00406cbc 	.word	0x00406cbc
  405de8:	00403531 	.word	0x00403531

00405dec <_close_r>:
  405dec:	b538      	push	{r3, r4, r5, lr}
  405dee:	4c07      	ldr	r4, [pc, #28]	; (405e0c <_close_r+0x20>)
  405df0:	2300      	movs	r3, #0
  405df2:	4605      	mov	r5, r0
  405df4:	4608      	mov	r0, r1
  405df6:	6023      	str	r3, [r4, #0]
  405df8:	f7fc fc5e 	bl	4026b8 <_close>
  405dfc:	1c43      	adds	r3, r0, #1
  405dfe:	d000      	beq.n	405e02 <_close_r+0x16>
  405e00:	bd38      	pop	{r3, r4, r5, pc}
  405e02:	6823      	ldr	r3, [r4, #0]
  405e04:	2b00      	cmp	r3, #0
  405e06:	d0fb      	beq.n	405e00 <_close_r+0x14>
  405e08:	602b      	str	r3, [r5, #0]
  405e0a:	bd38      	pop	{r3, r4, r5, pc}
  405e0c:	2045a8e4 	.word	0x2045a8e4

00405e10 <_fclose_r>:
  405e10:	b570      	push	{r4, r5, r6, lr}
  405e12:	b159      	cbz	r1, 405e2c <_fclose_r+0x1c>
  405e14:	4605      	mov	r5, r0
  405e16:	460c      	mov	r4, r1
  405e18:	b110      	cbz	r0, 405e20 <_fclose_r+0x10>
  405e1a:	6b83      	ldr	r3, [r0, #56]	; 0x38
  405e1c:	2b00      	cmp	r3, #0
  405e1e:	d03c      	beq.n	405e9a <_fclose_r+0x8a>
  405e20:	6e63      	ldr	r3, [r4, #100]	; 0x64
  405e22:	07d8      	lsls	r0, r3, #31
  405e24:	d505      	bpl.n	405e32 <_fclose_r+0x22>
  405e26:	f9b4 300c 	ldrsh.w	r3, [r4, #12]
  405e2a:	b92b      	cbnz	r3, 405e38 <_fclose_r+0x28>
  405e2c:	2600      	movs	r6, #0
  405e2e:	4630      	mov	r0, r6
  405e30:	bd70      	pop	{r4, r5, r6, pc}
  405e32:	89a3      	ldrh	r3, [r4, #12]
  405e34:	0599      	lsls	r1, r3, #22
  405e36:	d53c      	bpl.n	405eb2 <_fclose_r+0xa2>
  405e38:	4621      	mov	r1, r4
  405e3a:	4628      	mov	r0, r5
  405e3c:	f7fe fe74 	bl	404b28 <__sflush_r>
  405e40:	6ae3      	ldr	r3, [r4, #44]	; 0x2c
  405e42:	4606      	mov	r6, r0
  405e44:	b133      	cbz	r3, 405e54 <_fclose_r+0x44>
  405e46:	69e1      	ldr	r1, [r4, #28]
  405e48:	4628      	mov	r0, r5
  405e4a:	4798      	blx	r3
  405e4c:	2800      	cmp	r0, #0
  405e4e:	bfb8      	it	lt
  405e50:	f04f 36ff 	movlt.w	r6, #4294967295
  405e54:	89a3      	ldrh	r3, [r4, #12]
  405e56:	061a      	lsls	r2, r3, #24
  405e58:	d422      	bmi.n	405ea0 <_fclose_r+0x90>
  405e5a:	6b21      	ldr	r1, [r4, #48]	; 0x30
  405e5c:	b141      	cbz	r1, 405e70 <_fclose_r+0x60>
  405e5e:	f104 0340 	add.w	r3, r4, #64	; 0x40
  405e62:	4299      	cmp	r1, r3
  405e64:	d002      	beq.n	405e6c <_fclose_r+0x5c>
  405e66:	4628      	mov	r0, r5
  405e68:	f7ff f87c 	bl	404f64 <_free_r>
  405e6c:	2300      	movs	r3, #0
  405e6e:	6323      	str	r3, [r4, #48]	; 0x30
  405e70:	6c61      	ldr	r1, [r4, #68]	; 0x44
  405e72:	b121      	cbz	r1, 405e7e <_fclose_r+0x6e>
  405e74:	4628      	mov	r0, r5
  405e76:	f7ff f875 	bl	404f64 <_free_r>
  405e7a:	2300      	movs	r3, #0
  405e7c:	6463      	str	r3, [r4, #68]	; 0x44
  405e7e:	f7fe ff77 	bl	404d70 <__sfp_lock_acquire>
  405e82:	6e63      	ldr	r3, [r4, #100]	; 0x64
  405e84:	2200      	movs	r2, #0
  405e86:	07db      	lsls	r3, r3, #31
  405e88:	81a2      	strh	r2, [r4, #12]
  405e8a:	d50e      	bpl.n	405eaa <_fclose_r+0x9a>
  405e8c:	6da0      	ldr	r0, [r4, #88]	; 0x58
  405e8e:	f7ff fb01 	bl	405494 <__retarget_lock_close_recursive>
  405e92:	f7fe ff73 	bl	404d7c <__sfp_lock_release>
  405e96:	4630      	mov	r0, r6
  405e98:	bd70      	pop	{r4, r5, r6, pc}
  405e9a:	f7fe ff3d 	bl	404d18 <__sinit>
  405e9e:	e7bf      	b.n	405e20 <_fclose_r+0x10>
  405ea0:	6921      	ldr	r1, [r4, #16]
  405ea2:	4628      	mov	r0, r5
  405ea4:	f7ff f85e 	bl	404f64 <_free_r>
  405ea8:	e7d7      	b.n	405e5a <_fclose_r+0x4a>
  405eaa:	6da0      	ldr	r0, [r4, #88]	; 0x58
  405eac:	f7ff faf6 	bl	40549c <__retarget_lock_release_recursive>
  405eb0:	e7ec      	b.n	405e8c <_fclose_r+0x7c>
  405eb2:	6da0      	ldr	r0, [r4, #88]	; 0x58
  405eb4:	f7ff faf0 	bl	405498 <__retarget_lock_acquire_recursive>
  405eb8:	f9b4 300c 	ldrsh.w	r3, [r4, #12]
  405ebc:	2b00      	cmp	r3, #0
  405ebe:	d1bb      	bne.n	405e38 <_fclose_r+0x28>
  405ec0:	6e66      	ldr	r6, [r4, #100]	; 0x64
  405ec2:	f016 0601 	ands.w	r6, r6, #1
  405ec6:	d1b1      	bne.n	405e2c <_fclose_r+0x1c>
  405ec8:	6da0      	ldr	r0, [r4, #88]	; 0x58
  405eca:	f7ff fae7 	bl	40549c <__retarget_lock_release_recursive>
  405ece:	4630      	mov	r0, r6
  405ed0:	bd70      	pop	{r4, r5, r6, pc}
  405ed2:	bf00      	nop

00405ed4 <_fstat_r>:
  405ed4:	b538      	push	{r3, r4, r5, lr}
  405ed6:	460b      	mov	r3, r1
  405ed8:	4c07      	ldr	r4, [pc, #28]	; (405ef8 <_fstat_r+0x24>)
  405eda:	4605      	mov	r5, r0
  405edc:	4611      	mov	r1, r2
  405ede:	4618      	mov	r0, r3
  405ee0:	2300      	movs	r3, #0
  405ee2:	6023      	str	r3, [r4, #0]
  405ee4:	f7fc fbec 	bl	4026c0 <_fstat>
  405ee8:	1c43      	adds	r3, r0, #1
  405eea:	d000      	beq.n	405eee <_fstat_r+0x1a>
  405eec:	bd38      	pop	{r3, r4, r5, pc}
  405eee:	6823      	ldr	r3, [r4, #0]
  405ef0:	2b00      	cmp	r3, #0
  405ef2:	d0fb      	beq.n	405eec <_fstat_r+0x18>
  405ef4:	602b      	str	r3, [r5, #0]
  405ef6:	bd38      	pop	{r3, r4, r5, pc}
  405ef8:	2045a8e4 	.word	0x2045a8e4

00405efc <_isatty_r>:
  405efc:	b538      	push	{r3, r4, r5, lr}
  405efe:	4c07      	ldr	r4, [pc, #28]	; (405f1c <_isatty_r+0x20>)
  405f00:	2300      	movs	r3, #0
  405f02:	4605      	mov	r5, r0
  405f04:	4608      	mov	r0, r1
  405f06:	6023      	str	r3, [r4, #0]
  405f08:	f7fc fbe0 	bl	4026cc <_isatty>
  405f0c:	1c43      	adds	r3, r0, #1
  405f0e:	d000      	beq.n	405f12 <_isatty_r+0x16>
  405f10:	bd38      	pop	{r3, r4, r5, pc}
  405f12:	6823      	ldr	r3, [r4, #0]
  405f14:	2b00      	cmp	r3, #0
  405f16:	d0fb      	beq.n	405f10 <_isatty_r+0x14>
  405f18:	602b      	str	r3, [r5, #0]
  405f1a:	bd38      	pop	{r3, r4, r5, pc}
  405f1c:	2045a8e4 	.word	0x2045a8e4

00405f20 <_lseek_r>:
  405f20:	b570      	push	{r4, r5, r6, lr}
  405f22:	460d      	mov	r5, r1
  405f24:	4c08      	ldr	r4, [pc, #32]	; (405f48 <_lseek_r+0x28>)
  405f26:	4611      	mov	r1, r2
  405f28:	4606      	mov	r6, r0
  405f2a:	461a      	mov	r2, r3
  405f2c:	4628      	mov	r0, r5
  405f2e:	2300      	movs	r3, #0
  405f30:	6023      	str	r3, [r4, #0]
  405f32:	f7fc fbcd 	bl	4026d0 <_lseek>
  405f36:	1c43      	adds	r3, r0, #1
  405f38:	d000      	beq.n	405f3c <_lseek_r+0x1c>
  405f3a:	bd70      	pop	{r4, r5, r6, pc}
  405f3c:	6823      	ldr	r3, [r4, #0]
  405f3e:	2b00      	cmp	r3, #0
  405f40:	d0fb      	beq.n	405f3a <_lseek_r+0x1a>
  405f42:	6033      	str	r3, [r6, #0]
  405f44:	bd70      	pop	{r4, r5, r6, pc}
  405f46:	bf00      	nop
  405f48:	2045a8e4 	.word	0x2045a8e4

00405f4c <_read_r>:
  405f4c:	b570      	push	{r4, r5, r6, lr}
  405f4e:	460d      	mov	r5, r1
  405f50:	4c08      	ldr	r4, [pc, #32]	; (405f74 <_read_r+0x28>)
  405f52:	4611      	mov	r1, r2
  405f54:	4606      	mov	r6, r0
  405f56:	461a      	mov	r2, r3
  405f58:	4628      	mov	r0, r5
  405f5a:	2300      	movs	r3, #0
  405f5c:	6023      	str	r3, [r4, #0]
  405f5e:	f7fb f987 	bl	401270 <_read>
  405f62:	1c43      	adds	r3, r0, #1
  405f64:	d000      	beq.n	405f68 <_read_r+0x1c>
  405f66:	bd70      	pop	{r4, r5, r6, pc}
  405f68:	6823      	ldr	r3, [r4, #0]
  405f6a:	2b00      	cmp	r3, #0
  405f6c:	d0fb      	beq.n	405f66 <_read_r+0x1a>
  405f6e:	6033      	str	r3, [r6, #0]
  405f70:	bd70      	pop	{r4, r5, r6, pc}
  405f72:	bf00      	nop
  405f74:	2045a8e4 	.word	0x2045a8e4

00405f78 <__aeabi_uldivmod>:
  405f78:	b953      	cbnz	r3, 405f90 <__aeabi_uldivmod+0x18>
  405f7a:	b94a      	cbnz	r2, 405f90 <__aeabi_uldivmod+0x18>
  405f7c:	2900      	cmp	r1, #0
  405f7e:	bf08      	it	eq
  405f80:	2800      	cmpeq	r0, #0
  405f82:	bf1c      	itt	ne
  405f84:	f04f 31ff 	movne.w	r1, #4294967295
  405f88:	f04f 30ff 	movne.w	r0, #4294967295
  405f8c:	f000 b97a 	b.w	406284 <__aeabi_idiv0>
  405f90:	f1ad 0c08 	sub.w	ip, sp, #8
  405f94:	e96d ce04 	strd	ip, lr, [sp, #-16]!
  405f98:	f000 f806 	bl	405fa8 <__udivmoddi4>
  405f9c:	f8dd e004 	ldr.w	lr, [sp, #4]
  405fa0:	e9dd 2302 	ldrd	r2, r3, [sp, #8]
  405fa4:	b004      	add	sp, #16
  405fa6:	4770      	bx	lr

00405fa8 <__udivmoddi4>:
  405fa8:	e92d 47f0 	stmdb	sp!, {r4, r5, r6, r7, r8, r9, sl, lr}
  405fac:	468c      	mov	ip, r1
  405fae:	460d      	mov	r5, r1
  405fb0:	4604      	mov	r4, r0
  405fb2:	9e08      	ldr	r6, [sp, #32]
  405fb4:	2b00      	cmp	r3, #0
  405fb6:	d151      	bne.n	40605c <__udivmoddi4+0xb4>
  405fb8:	428a      	cmp	r2, r1
  405fba:	4617      	mov	r7, r2
  405fbc:	d96d      	bls.n	40609a <__udivmoddi4+0xf2>
  405fbe:	fab2 fe82 	clz	lr, r2
  405fc2:	f1be 0f00 	cmp.w	lr, #0
  405fc6:	d00b      	beq.n	405fe0 <__udivmoddi4+0x38>
  405fc8:	f1ce 0c20 	rsb	ip, lr, #32
  405fcc:	fa01 f50e 	lsl.w	r5, r1, lr
  405fd0:	fa20 fc0c 	lsr.w	ip, r0, ip
  405fd4:	fa02 f70e 	lsl.w	r7, r2, lr
  405fd8:	ea4c 0c05 	orr.w	ip, ip, r5
  405fdc:	fa00 f40e 	lsl.w	r4, r0, lr
  405fe0:	ea4f 4a17 	mov.w	sl, r7, lsr #16
  405fe4:	0c25      	lsrs	r5, r4, #16
  405fe6:	fbbc f8fa 	udiv	r8, ip, sl
  405fea:	fa1f f987 	uxth.w	r9, r7
  405fee:	fb0a cc18 	mls	ip, sl, r8, ip
  405ff2:	ea45 450c 	orr.w	r5, r5, ip, lsl #16
  405ff6:	fb08 f309 	mul.w	r3, r8, r9
  405ffa:	42ab      	cmp	r3, r5
  405ffc:	d90a      	bls.n	406014 <__udivmoddi4+0x6c>
  405ffe:	19ed      	adds	r5, r5, r7
  406000:	f108 32ff 	add.w	r2, r8, #4294967295
  406004:	f080 8123 	bcs.w	40624e <__udivmoddi4+0x2a6>
  406008:	42ab      	cmp	r3, r5
  40600a:	f240 8120 	bls.w	40624e <__udivmoddi4+0x2a6>
  40600e:	f1a8 0802 	sub.w	r8, r8, #2
  406012:	443d      	add	r5, r7
  406014:	1aed      	subs	r5, r5, r3
  406016:	b2a4      	uxth	r4, r4
  406018:	fbb5 f0fa 	udiv	r0, r5, sl
  40601c:	fb0a 5510 	mls	r5, sl, r0, r5
  406020:	ea44 4405 	orr.w	r4, r4, r5, lsl #16
  406024:	fb00 f909 	mul.w	r9, r0, r9
  406028:	45a1      	cmp	r9, r4
  40602a:	d909      	bls.n	406040 <__udivmoddi4+0x98>
  40602c:	19e4      	adds	r4, r4, r7
  40602e:	f100 33ff 	add.w	r3, r0, #4294967295
  406032:	f080 810a 	bcs.w	40624a <__udivmoddi4+0x2a2>
  406036:	45a1      	cmp	r9, r4
  406038:	f240 8107 	bls.w	40624a <__udivmoddi4+0x2a2>
  40603c:	3802      	subs	r0, #2
  40603e:	443c      	add	r4, r7
  406040:	eba4 0409 	sub.w	r4, r4, r9
  406044:	ea40 4008 	orr.w	r0, r0, r8, lsl #16
  406048:	2100      	movs	r1, #0
  40604a:	2e00      	cmp	r6, #0
  40604c:	d061      	beq.n	406112 <__udivmoddi4+0x16a>
  40604e:	fa24 f40e 	lsr.w	r4, r4, lr
  406052:	2300      	movs	r3, #0
  406054:	6034      	str	r4, [r6, #0]
  406056:	6073      	str	r3, [r6, #4]
  406058:	e8bd 87f0 	ldmia.w	sp!, {r4, r5, r6, r7, r8, r9, sl, pc}
  40605c:	428b      	cmp	r3, r1
  40605e:	d907      	bls.n	406070 <__udivmoddi4+0xc8>
  406060:	2e00      	cmp	r6, #0
  406062:	d054      	beq.n	40610e <__udivmoddi4+0x166>
  406064:	2100      	movs	r1, #0
  406066:	e886 0021 	stmia.w	r6, {r0, r5}
  40606a:	4608      	mov	r0, r1
  40606c:	e8bd 87f0 	ldmia.w	sp!, {r4, r5, r6, r7, r8, r9, sl, pc}
  406070:	fab3 f183 	clz	r1, r3
  406074:	2900      	cmp	r1, #0
  406076:	f040 808e 	bne.w	406196 <__udivmoddi4+0x1ee>
  40607a:	42ab      	cmp	r3, r5
  40607c:	d302      	bcc.n	406084 <__udivmoddi4+0xdc>
  40607e:	4282      	cmp	r2, r0
  406080:	f200 80fa 	bhi.w	406278 <__udivmoddi4+0x2d0>
  406084:	1a84      	subs	r4, r0, r2
  406086:	eb65 0503 	sbc.w	r5, r5, r3
  40608a:	2001      	movs	r0, #1
  40608c:	46ac      	mov	ip, r5
  40608e:	2e00      	cmp	r6, #0
  406090:	d03f      	beq.n	406112 <__udivmoddi4+0x16a>
  406092:	e886 1010 	stmia.w	r6, {r4, ip}
  406096:	e8bd 87f0 	ldmia.w	sp!, {r4, r5, r6, r7, r8, r9, sl, pc}
  40609a:	b912      	cbnz	r2, 4060a2 <__udivmoddi4+0xfa>
  40609c:	2701      	movs	r7, #1
  40609e:	fbb7 f7f2 	udiv	r7, r7, r2
  4060a2:	fab7 fe87 	clz	lr, r7
  4060a6:	f1be 0f00 	cmp.w	lr, #0
  4060aa:	d134      	bne.n	406116 <__udivmoddi4+0x16e>
  4060ac:	1beb      	subs	r3, r5, r7
  4060ae:	0c3a      	lsrs	r2, r7, #16
  4060b0:	fa1f fc87 	uxth.w	ip, r7
  4060b4:	2101      	movs	r1, #1
  4060b6:	fbb3 f8f2 	udiv	r8, r3, r2
  4060ba:	0c25      	lsrs	r5, r4, #16
  4060bc:	fb02 3318 	mls	r3, r2, r8, r3
  4060c0:	ea45 4503 	orr.w	r5, r5, r3, lsl #16
  4060c4:	fb0c f308 	mul.w	r3, ip, r8
  4060c8:	42ab      	cmp	r3, r5
  4060ca:	d907      	bls.n	4060dc <__udivmoddi4+0x134>
  4060cc:	19ed      	adds	r5, r5, r7
  4060ce:	f108 30ff 	add.w	r0, r8, #4294967295
  4060d2:	d202      	bcs.n	4060da <__udivmoddi4+0x132>
  4060d4:	42ab      	cmp	r3, r5
  4060d6:	f200 80d1 	bhi.w	40627c <__udivmoddi4+0x2d4>
  4060da:	4680      	mov	r8, r0
  4060dc:	1aed      	subs	r5, r5, r3
  4060de:	b2a3      	uxth	r3, r4
  4060e0:	fbb5 f0f2 	udiv	r0, r5, r2
  4060e4:	fb02 5510 	mls	r5, r2, r0, r5
  4060e8:	ea43 4405 	orr.w	r4, r3, r5, lsl #16
  4060ec:	fb0c fc00 	mul.w	ip, ip, r0
  4060f0:	45a4      	cmp	ip, r4
  4060f2:	d907      	bls.n	406104 <__udivmoddi4+0x15c>
  4060f4:	19e4      	adds	r4, r4, r7
  4060f6:	f100 33ff 	add.w	r3, r0, #4294967295
  4060fa:	d202      	bcs.n	406102 <__udivmoddi4+0x15a>
  4060fc:	45a4      	cmp	ip, r4
  4060fe:	f200 80b8 	bhi.w	406272 <__udivmoddi4+0x2ca>
  406102:	4618      	mov	r0, r3
  406104:	eba4 040c 	sub.w	r4, r4, ip
  406108:	ea40 4008 	orr.w	r0, r0, r8, lsl #16
  40610c:	e79d      	b.n	40604a <__udivmoddi4+0xa2>
  40610e:	4631      	mov	r1, r6
  406110:	4630      	mov	r0, r6
  406112:	e8bd 87f0 	ldmia.w	sp!, {r4, r5, r6, r7, r8, r9, sl, pc}
  406116:	f1ce 0420 	rsb	r4, lr, #32
  40611a:	fa05 f30e 	lsl.w	r3, r5, lr
  40611e:	fa07 f70e 	lsl.w	r7, r7, lr
  406122:	fa20 f804 	lsr.w	r8, r0, r4
  406126:	0c3a      	lsrs	r2, r7, #16
  406128:	fa25 f404 	lsr.w	r4, r5, r4
  40612c:	ea48 0803 	orr.w	r8, r8, r3
  406130:	fbb4 f1f2 	udiv	r1, r4, r2
  406134:	ea4f 4518 	mov.w	r5, r8, lsr #16
  406138:	fb02 4411 	mls	r4, r2, r1, r4
  40613c:	fa1f fc87 	uxth.w	ip, r7
  406140:	ea45 4504 	orr.w	r5, r5, r4, lsl #16
  406144:	fb01 f30c 	mul.w	r3, r1, ip
  406148:	42ab      	cmp	r3, r5
  40614a:	fa00 f40e 	lsl.w	r4, r0, lr
  40614e:	d909      	bls.n	406164 <__udivmoddi4+0x1bc>
  406150:	19ed      	adds	r5, r5, r7
  406152:	f101 30ff 	add.w	r0, r1, #4294967295
  406156:	f080 808a 	bcs.w	40626e <__udivmoddi4+0x2c6>
  40615a:	42ab      	cmp	r3, r5
  40615c:	f240 8087 	bls.w	40626e <__udivmoddi4+0x2c6>
  406160:	3902      	subs	r1, #2
  406162:	443d      	add	r5, r7
  406164:	1aeb      	subs	r3, r5, r3
  406166:	fa1f f588 	uxth.w	r5, r8
  40616a:	fbb3 f0f2 	udiv	r0, r3, r2
  40616e:	fb02 3310 	mls	r3, r2, r0, r3
  406172:	ea45 4503 	orr.w	r5, r5, r3, lsl #16
  406176:	fb00 f30c 	mul.w	r3, r0, ip
  40617a:	42ab      	cmp	r3, r5
  40617c:	d907      	bls.n	40618e <__udivmoddi4+0x1e6>
  40617e:	19ed      	adds	r5, r5, r7
  406180:	f100 38ff 	add.w	r8, r0, #4294967295
  406184:	d26f      	bcs.n	406266 <__udivmoddi4+0x2be>
  406186:	42ab      	cmp	r3, r5
  406188:	d96d      	bls.n	406266 <__udivmoddi4+0x2be>
  40618a:	3802      	subs	r0, #2
  40618c:	443d      	add	r5, r7
  40618e:	1aeb      	subs	r3, r5, r3
  406190:	ea40 4101 	orr.w	r1, r0, r1, lsl #16
  406194:	e78f      	b.n	4060b6 <__udivmoddi4+0x10e>
  406196:	f1c1 0720 	rsb	r7, r1, #32
  40619a:	fa22 f807 	lsr.w	r8, r2, r7
  40619e:	408b      	lsls	r3, r1
  4061a0:	fa05 f401 	lsl.w	r4, r5, r1
  4061a4:	ea48 0303 	orr.w	r3, r8, r3
  4061a8:	fa20 fe07 	lsr.w	lr, r0, r7
  4061ac:	ea4f 4c13 	mov.w	ip, r3, lsr #16
  4061b0:	40fd      	lsrs	r5, r7
  4061b2:	ea4e 0e04 	orr.w	lr, lr, r4
  4061b6:	fbb5 f9fc 	udiv	r9, r5, ip
  4061ba:	ea4f 441e 	mov.w	r4, lr, lsr #16
  4061be:	fb0c 5519 	mls	r5, ip, r9, r5
  4061c2:	fa1f f883 	uxth.w	r8, r3
  4061c6:	ea44 4505 	orr.w	r5, r4, r5, lsl #16
  4061ca:	fb09 f408 	mul.w	r4, r9, r8
  4061ce:	42ac      	cmp	r4, r5
  4061d0:	fa02 f201 	lsl.w	r2, r2, r1
  4061d4:	fa00 fa01 	lsl.w	sl, r0, r1
  4061d8:	d908      	bls.n	4061ec <__udivmoddi4+0x244>
  4061da:	18ed      	adds	r5, r5, r3
  4061dc:	f109 30ff 	add.w	r0, r9, #4294967295
  4061e0:	d243      	bcs.n	40626a <__udivmoddi4+0x2c2>
  4061e2:	42ac      	cmp	r4, r5
  4061e4:	d941      	bls.n	40626a <__udivmoddi4+0x2c2>
  4061e6:	f1a9 0902 	sub.w	r9, r9, #2
  4061ea:	441d      	add	r5, r3
  4061ec:	1b2d      	subs	r5, r5, r4
  4061ee:	fa1f fe8e 	uxth.w	lr, lr
  4061f2:	fbb5 f0fc 	udiv	r0, r5, ip
  4061f6:	fb0c 5510 	mls	r5, ip, r0, r5
  4061fa:	ea4e 4405 	orr.w	r4, lr, r5, lsl #16
  4061fe:	fb00 f808 	mul.w	r8, r0, r8
  406202:	45a0      	cmp	r8, r4
  406204:	d907      	bls.n	406216 <__udivmoddi4+0x26e>
  406206:	18e4      	adds	r4, r4, r3
  406208:	f100 35ff 	add.w	r5, r0, #4294967295
  40620c:	d229      	bcs.n	406262 <__udivmoddi4+0x2ba>
  40620e:	45a0      	cmp	r8, r4
  406210:	d927      	bls.n	406262 <__udivmoddi4+0x2ba>
  406212:	3802      	subs	r0, #2
  406214:	441c      	add	r4, r3
  406216:	ea40 4009 	orr.w	r0, r0, r9, lsl #16
  40621a:	eba4 0408 	sub.w	r4, r4, r8
  40621e:	fba0 8902 	umull	r8, r9, r0, r2
  406222:	454c      	cmp	r4, r9
  406224:	46c6      	mov	lr, r8
  406226:	464d      	mov	r5, r9
  406228:	d315      	bcc.n	406256 <__udivmoddi4+0x2ae>
  40622a:	d012      	beq.n	406252 <__udivmoddi4+0x2aa>
  40622c:	b156      	cbz	r6, 406244 <__udivmoddi4+0x29c>
  40622e:	ebba 030e 	subs.w	r3, sl, lr
  406232:	eb64 0405 	sbc.w	r4, r4, r5
  406236:	fa04 f707 	lsl.w	r7, r4, r7
  40623a:	40cb      	lsrs	r3, r1
  40623c:	431f      	orrs	r7, r3
  40623e:	40cc      	lsrs	r4, r1
  406240:	6037      	str	r7, [r6, #0]
  406242:	6074      	str	r4, [r6, #4]
  406244:	2100      	movs	r1, #0
  406246:	e8bd 87f0 	ldmia.w	sp!, {r4, r5, r6, r7, r8, r9, sl, pc}
  40624a:	4618      	mov	r0, r3
  40624c:	e6f8      	b.n	406040 <__udivmoddi4+0x98>
  40624e:	4690      	mov	r8, r2
  406250:	e6e0      	b.n	406014 <__udivmoddi4+0x6c>
  406252:	45c2      	cmp	sl, r8
  406254:	d2ea      	bcs.n	40622c <__udivmoddi4+0x284>
  406256:	ebb8 0e02 	subs.w	lr, r8, r2
  40625a:	eb69 0503 	sbc.w	r5, r9, r3
  40625e:	3801      	subs	r0, #1
  406260:	e7e4      	b.n	40622c <__udivmoddi4+0x284>
  406262:	4628      	mov	r0, r5
  406264:	e7d7      	b.n	406216 <__udivmoddi4+0x26e>
  406266:	4640      	mov	r0, r8
  406268:	e791      	b.n	40618e <__udivmoddi4+0x1e6>
  40626a:	4681      	mov	r9, r0
  40626c:	e7be      	b.n	4061ec <__udivmoddi4+0x244>
  40626e:	4601      	mov	r1, r0
  406270:	e778      	b.n	406164 <__udivmoddi4+0x1bc>
  406272:	3802      	subs	r0, #2
  406274:	443c      	add	r4, r7
  406276:	e745      	b.n	406104 <__udivmoddi4+0x15c>
  406278:	4608      	mov	r0, r1
  40627a:	e708      	b.n	40608e <__udivmoddi4+0xe6>
  40627c:	f1a8 0802 	sub.w	r8, r8, #2
  406280:	443d      	add	r5, r7
  406282:	e72b      	b.n	4060dc <__udivmoddi4+0x134>

00406284 <__aeabi_idiv0>:
  406284:	4770      	bx	lr
  406286:	bf00      	nop
  406288:	092d452d 	.word	0x092d452d
  40628c:	39384d57 	.word	0x39384d57
  406290:	69203430 	.word	0x69203430
  406294:	6974696e 	.word	0x6974696e
  406298:	7a696c61 	.word	0x7a696c61
  40629c:	6f697461 	.word	0x6f697461
  4062a0:	6166206e 	.word	0x6166206e
  4062a4:	64656c69 	.word	0x64656c69
  4062a8:	00000d2e 	.word	0x00000d2e

004062ac <CSWTCH.7>:
  4062ac:	00000100 00000300 00000200              ............

004062b8 <midi_note_frequencies>:
  4062b8:	4102d0e5 410a978d 4112d4fe 411b9168     ...A...A...Ah..A
  4062c8:	4124d0e5 412e9ba6 4138fdf4 41440000     ..$A...A..8A..DA
  4062d8:	414fa5e3 415c0000 41691687 4176f1aa     ..OA..\A..iA..vA
  4062e8:	4182d0e5 418a978d 4192d4fe 419b8f5c     ...A...A...A\..A
  4062f8:	41a4d0e5 41ae9db2 41b90000 41c40000     ...A...A...A...A
  406308:	41cfa7f0 41dc0000 41e9147b 41f6f1aa     ...A...A{..A...A
  406318:	4202cfdf 420a978d 4212d4fe 421b9062     ...B...B...Bb..B
  406328:	4224cfdf 422e9db2 4238fefa 4243fefa     ..$B...B..8B..CB
  406338:	424fa6e9 425c0000 4269147b 4276f0a4     ..OB..\B{.iB..vB
  406348:	4282cfdf 428a978d 4292d4fe 429b9062     ...B...B...Bb..B
  406358:	42a4d062 42ae9d2f 42b8ff7d 42c3ff7d     b..B/..B}..B}..B
  406368:	42cfa6e9 42dc0000 42e914fe 42f6f127     ...B...B...B'..B
  406378:	4302d021 430a974c 4312d4fe 431b9021     !..CL..C...C!..C
  406388:	4324d062 432e9d2f 4338ff3b 4343ff7d     b.$C/..C;.8C}.CC
  406398:	434fa6e9 435c0000 436914fe 4376f127     ..OC..\C..iC'.vC
  4063a8:	4382d021 438a976d 4392d51f 439b9042     !..Cm..C...CB..C
  4063b8:	43a4d062 43ae9d2f 43b8ff3b 43c3ff5c     b..C/..C;..C\..C
  4063c8:	43cfa70a 43dc0000 43e914fe 43f6f106     ...C...C...C...C
  4063d8:	4402d010 440a975c 4412d51f 441b9042     ...D\..D...DB..D
  4063e8:	4424d052 442e9d2f 4438ff4c 4443ff6d     R.$D/..DL.8Dm.CD
  4063f8:	444fa6fa 445c0000 446914fe 4476f117     ..OD..\D..iD..vD
  406408:	4482d010 448a9764 4492d517 449b9042     ...Dd..D...DB..D
  406418:	44a4d052 44ae9d37 44b8ff4c 44c3ff6d     R..D7..DL..Dm..D
  406428:	44cfa702 44dc0000 44e914f6 44f6f10e     ...D...D...D...D
  406438:	4502d014 450a9760 4512d517 451b9042     ...E`..E...EB..E
  406448:	4524d052 452e9d37 4538ff48 4543ff68     R.$E7..EH.8Eh.CE
  406458:	454fa702 455c0000 456914f6 4576f10e     ..OE..\E..iE..vE
  406468:	4582d012 458a9760 4592d517 459b9042     ...E`..E...EB..E
  406478:	45a4d054 45ae9d37 45b8ff4a 45c3ff6a     T..E7..EJ..Ej..E
  406488:	45cfa700 45dc0000 45e914f6 45f6f110     ...E...E...E...E
  406498:	4602d012 460a9760 4612d518 461b9041     ...F`..F...FA..F
  4064a8:	4624d052 462e9d33 4638ff48 4643ff66     R.$F3..FH.8Ff.CF

004064b8 <sinTable_f32>:
  4064b8:	00000000 3c490e92 3cc90ab1 3d16c32b     ......I<...<+..=
  4064c8:	3d48fb2e 3d7b2b75 3d96a904 3dafb680     ..H=u+{=...=...=
  4064d8:	3dc8bd36 3de1bc2f 3dfab273 3e09cf87     6..=/..=s..=...>
  4064e8:	3e164083 3e22abb5 3e2f10a2 3e3b6ecf     .@.>..">../>.n;>
  4064f8:	3e47c5c2 3e541501 3e605c13 3e6c9a7f     ..G>..T>.\`>..l>
  406508:	3e78cfcc 3e827dc0 3e888e93 3e8e9a22     ..x>.}.>...>"..>
  406518:	3e94a032 3e9aa086 3ea09ae5 3ea68f12     2..>...>...>...>
  406528:	3eac7cd4 3eb263ef 3eb8442a 3ebe1d49     .|.>.c.>*D.>I..>
  406538:	3ec3ef15 3ec9b953 3ecf7bca 3ed53641     ...>S..>.{.>A6.>
  406548:	3edae880 3ee0924f 3ee63375 3eebcbbb     ...>O..>u3.>...>
  406558:	3ef15aea 3ef6e0cb 3efc5d27 3f00e7e4     .Z.>...>'].>...?
  406568:	3f039c3d 3f064b82 3f08f59b 3f0b9a6b     =..?.K.?...?k..?
  406578:	3f0e39da 3f10d3cd 3f13682a 3f15f6d9     .9.?...?*h.?...?
  406588:	3f187fc0 3f1b02c6 3f1d7fd1 3f1ff6cb     ...?...?...?...?
  406598:	3f226799 3f24d225 3f273656 3f299415     .g"?%.$?V6'?..)?
  4065a8:	3f2beb4a 3f2e3bde 3f3085bb 3f32c8c9     J.+?.;.?..0?..2?
  4065b8:	3f3504f3 3f373a23 3f396842 3f3b8f3b     ..5?#:7?Bh9?;.;?
  4065c8:	3f3daef9 3f3fc767 3f41d870 3f43e201     ..=?g.??p.A?..C?
  4065d8:	3f45e403 3f47de65 3f49d112 3f4bbbf8     ..E?e.G?..I?..K?
  4065e8:	3f4d9f02 3f4f7a20 3f514d3d 3f531849     ..M? zO?=MQ?I.S?
  4065f8:	3f54db31 3f5695e5 3f584853 3f59f26a     1.T?..V?SHX?j.Y?
  406608:	3f5b941a 3f5d2d53 3f5ebe05 3f604621     ..[?S-]?..^?!F`?
  406618:	3f61c597 3f633c5a 3f64aa59 3f660f88     ..a?Z<c?Y.d?..f?
  406628:	3f676bd8 3f68bf3c 3f6a09a7 3f6b4b0c     .kg?<.h?..j?.Kk?
  406638:	3f6c835e 3f6db293 3f6ed89e 3f6ff573     ^.l?..m?..n?s.o?
  406648:	3f710908 3f721352 3f731447 3f740bdd     ..q?R.r?G.s?..t?
  406658:	3f74fa0b 3f75dec6 3f76ba07 3f778bc5     ..t?..u?..v?..w?
  406668:	3f7853f8 3f791298 3f79c79d 3f7a7302     .Sx?..y?..y?.sz?
  406678:	3f7b14be 3f7baccd 3f7c3b28 3f7cbfc9     ..{?..{?(;|?..|?
  406688:	3f7d3aac 3f7dabcc 3f7e1323 3f7e70b0     .:}?..}?#.~?.p~?
  406698:	3f7ec46d 3f7f0e58 3f7f4e6d 3f7f84ab     m.~?X..?mN.?...?
  4066a8:	3f7fb10f 3f7fd397 3f7fec43 3f7ffb11     ...?...?C..?...?
  4066b8:	3f800000 3f7ffb11 3f7fec43 3f7fd397     ...?...?C..?...?
  4066c8:	3f7fb10f 3f7f84ab 3f7f4e6d 3f7f0e58     ...?...?mN.?X..?
  4066d8:	3f7ec46d 3f7e70b0 3f7e1323 3f7dabcc     m.~?.p~?#.~?..}?
  4066e8:	3f7d3aac 3f7cbfc9 3f7c3b28 3f7baccd     .:}?..|?(;|?..{?
  4066f8:	3f7b14be 3f7a7302 3f79c79d 3f791298     ..{?.sz?..y?..y?
  406708:	3f7853f8 3f778bc5 3f76ba07 3f75dec6     .Sx?..w?..v?..u?
  406718:	3f74fa0b 3f740bdd 3f731447 3f721352     ..t?..t?G.s?R.r?
  406728:	3f710908 3f6ff573 3f6ed89e 3f6db293     ..q?s.o?..n?..m?
  406738:	3f6c835e 3f6b4b0c 3f6a09a7 3f68bf3c     ^.l?.Kk?..j?<.h?
  406748:	3f676bd8 3f660f88 3f64aa59 3f633c5a     .kg?..f?Y.d?Z<c?
  406758:	3f61c597 3f604621 3f5ebe05 3f5d2d53     ..a?!F`?..^?S-]?
  406768:	3f5b941a 3f59f26a 3f584853 3f5695e5     ..[?j.Y?SHX?..V?
  406778:	3f54db31 3f531849 3f514d3d 3f4f7a20     1.T?I.S?=MQ? zO?
  406788:	3f4d9f02 3f4bbbf8 3f49d112 3f47de65     ..M?..K?..I?e.G?
  406798:	3f45e403 3f43e201 3f41d870 3f3fc767     ..E?..C?p.A?g.??
  4067a8:	3f3daef9 3f3b8f3b 3f396842 3f373a23     ..=?;.;?Bh9?#:7?
  4067b8:	3f3504f3 3f32c8c9 3f3085bb 3f2e3bde     ..5?..2?..0?.;.?
  4067c8:	3f2beb4a 3f299415 3f273656 3f24d225     J.+?..)?V6'?%.$?
  4067d8:	3f226799 3f1ff6cb 3f1d7fd1 3f1b02c6     .g"?...?...?...?
  4067e8:	3f187fc0 3f15f6d9 3f13682a 3f10d3cd     ...?...?*h.?...?
  4067f8:	3f0e39da 3f0b9a6b 3f08f59b 3f064b82     .9.?k..?...?.K.?
  406808:	3f039c3d 3f00e7e4 3efc5d27 3ef6e0cb     =..?...?'].>...>
  406818:	3ef15aea 3eebcbbb 3ee63375 3ee0924f     .Z.>...>u3.>O..>
  406828:	3edae880 3ed53641 3ecf7bca 3ec9b953     ...>A6.>.{.>S..>
  406838:	3ec3ef15 3ebe1d49 3eb8442a 3eb263ef     ...>I..>*D.>.c.>
  406848:	3eac7cd4 3ea68f12 3ea09ae5 3e9aa086     .|.>...>...>...>
  406858:	3e94a032 3e8e9a22 3e888e93 3e827dc0     2..>"..>...>.}.>
  406868:	3e78cfcc 3e6c9a7f 3e605c13 3e541501     ..x>..l>.\`>..T>
  406878:	3e47c5c2 3e3b6ecf 3e2f10a2 3e22abb5     ..G>.n;>../>..">
  406888:	3e164083 3e09cf87 3dfab273 3de1bc2f     .@.>...>s..=/..=
  406898:	3dc8bd36 3dafb680 3d96a904 3d7b2b75     6..=...=...=u+{=
  4068a8:	3d48fb2e 3d16c32b 3cc90ab1 3c490e92     ..H=+..=...<..I<
  4068b8:	00000000 bc490e92 bcc90ab1 bd16c32b     ......I.....+...
  4068c8:	bd48fb2e bd7b2b75 bd96a904 bdafb680     ..H.u+{.........
  4068d8:	bdc8bd36 bde1bc2f bdfab273 be09cf87     6.../...s.......
  4068e8:	be164083 be22abb5 be2f10a2 be3b6ecf     .@....".../..n;.
  4068f8:	be47c5c2 be541501 be605c13 be6c9a7f     ..G...T..\`...l.
  406908:	be78cfcc be827dc0 be888e93 be8e9a22     ..x..}......"...
  406918:	be94a032 be9aa086 bea09ae5 bea68f12     2...............
  406928:	beac7cd4 beb263ef beb8442a bebe1d49     .|...c..*D..I...
  406938:	bec3ef15 bec9b953 becf7bca bed53641     ....S....{..A6..
  406948:	bedae880 bee0924f bee63375 beebcbbb     ....O...u3......
  406958:	bef15aea bef6e0cb befc5d27 bf00e7e4     .Z......']......
  406968:	bf039c3d bf064b82 bf08f59b bf0b9a6b     =....K......k...
  406978:	bf0e39da bf10d3cd bf13682a bf15f6d9     .9......*h......
  406988:	bf187fc0 bf1b02c6 bf1d7fd1 bf1ff6cb     ................
  406998:	bf226799 bf24d225 bf273656 bf299415     .g".%.$.V6'...).
  4069a8:	bf2beb4a bf2e3bde bf3085bb bf32c8c9     J.+..;....0...2.
  4069b8:	bf3504f3 bf373a23 bf396842 bf3b8f3b     ..5.#:7.Bh9.;.;.
  4069c8:	bf3daef9 bf3fc767 bf41d870 bf43e201     ..=.g.?.p.A...C.
  4069d8:	bf45e403 bf47de65 bf49d112 bf4bbbf8     ..E.e.G...I...K.
  4069e8:	bf4d9f02 bf4f7a20 bf514d3d bf531849     ..M. zO.=MQ.I.S.
  4069f8:	bf54db31 bf5695e5 bf584853 bf59f26a     1.T...V.SHX.j.Y.
  406a08:	bf5b941a bf5d2d53 bf5ebe05 bf604621     ..[.S-]...^.!F`.
  406a18:	bf61c597 bf633c5a bf64aa59 bf660f88     ..a.Z<c.Y.d...f.
  406a28:	bf676bd8 bf68bf3c bf6a09a7 bf6b4b0c     .kg.<.h...j..Kk.
  406a38:	bf6c835e bf6db293 bf6ed89e bf6ff573     ^.l...m...n.s.o.
  406a48:	bf710908 bf721352 bf731447 bf740bdd     ..q.R.r.G.s...t.
  406a58:	bf74fa0b bf75dec6 bf76ba07 bf778bc5     ..t...u...v...w.
  406a68:	bf7853f8 bf791298 bf79c79d bf7a7302     .Sx...y...y..sz.
  406a78:	bf7b14be bf7baccd bf7c3b28 bf7cbfc9     ..{...{.(;|...|.
  406a88:	bf7d3aac bf7dabcc bf7e1323 bf7e70b0     .:}...}.#.~..p~.
  406a98:	bf7ec46d bf7f0e58 bf7f4e6d bf7f84ab     m.~.X...mN......
  406aa8:	bf7fb10f bf7fd397 bf7fec43 bf7ffb11     ........C.......
  406ab8:	bf800000 bf7ffb11 bf7fec43 bf7fd397     ........C.......
  406ac8:	bf7fb10f bf7f84ab bf7f4e6d bf7f0e58     ........mN..X...
  406ad8:	bf7ec46d bf7e70b0 bf7e1323 bf7dabcc     m.~..p~.#.~...}.
  406ae8:	bf7d3aac bf7cbfc9 bf7c3b28 bf7baccd     .:}...|.(;|...{.
  406af8:	bf7b14be bf7a7302 bf79c79d bf791298     ..{..sz...y...y.
  406b08:	bf7853f8 bf778bc5 bf76ba07 bf75dec6     .Sx...w...v...u.
  406b18:	bf74fa0b bf740bdd bf731447 bf721352     ..t...t.G.s.R.r.
  406b28:	bf710908 bf6ff573 bf6ed89e bf6db293     ..q.s.o...n...m.
  406b38:	bf6c835e bf6b4b0c bf6a09a7 bf68bf3c     ^.l..Kk...j.<.h.
  406b48:	bf676bd8 bf660f88 bf64aa59 bf633c5a     .kg...f.Y.d.Z<c.
  406b58:	bf61c597 bf604621 bf5ebe05 bf5d2d53     ..a.!F`...^.S-].
  406b68:	bf5b941a bf59f26a bf584853 bf5695e5     ..[.j.Y.SHX...V.
  406b78:	bf54db31 bf531849 bf514d3d bf4f7a20     1.T.I.S.=MQ. zO.
  406b88:	bf4d9f02 bf4bbbf8 bf49d112 bf47de65     ..M...K...I.e.G.
  406b98:	bf45e403 bf43e201 bf41d870 bf3fc767     ..E...C.p.A.g.?.
  406ba8:	bf3daef9 bf3b8f3b bf396842 bf373a23     ..=.;.;.Bh9.#:7.
  406bb8:	bf3504f3 bf32c8c9 bf3085bb bf2e3bde     ..5...2...0..;..
  406bc8:	bf2beb4a bf299415 bf273656 bf24d225     J.+...).V6'.%.$.
  406bd8:	bf226799 bf1ff6cb bf1d7fd1 bf1b02c6     .g".............
  406be8:	bf187fc0 bf15f6d9 bf13682a bf10d3cd     ........*h......
  406bf8:	bf0e39da bf0b9a6b bf08f59b bf064b82     .9..k........K..
  406c08:	bf039c3d bf00e7e4 befc5d27 bef6e0cb     =.......']......
  406c18:	bef15aea beebcbbb bee63375 bee0924f     .Z......u3..O...
  406c28:	bedae880 bed53641 becf7bca bec9b953     ....A6...{..S...
  406c38:	bec3ef15 bebe1d49 beb8442a beb263ef     ....I...*D...c..
  406c48:	beac7cd4 bea68f12 bea09ae5 be9aa086     .|..............
  406c58:	be94a032 be8e9a22 be888e93 be827dc0     2..."........}..
  406c68:	be78cfcc be6c9a7f be605c13 be541501     ..x...l..\`...T.
  406c78:	be47c5c2 be3b6ecf be2f10a2 be22abb5     ..G..n;.../...".
  406c88:	be164083 be09cf87 bdfab273 bde1bc2f     .@......s.../...
  406c98:	bdc8bd36 bdafb680 bd96a904 bd7b2b75     6...........u+{.
  406ca8:	bd48fb2e bd16c32b bcc90ab1 bc490e92     ..H.+.........I.
  406cb8:	80000000                                ....

00406cbc <_global_impure_ptr>:
  406cbc:	20400068 33323130 37363534 42413938     h.@ 0123456789AB
  406ccc:	46454443 00000000 33323130 37363534     CDEF....01234567
  406cdc:	62613938 66656463 00000000 6c756e28     89abcdef....(nul
  406cec:	0000296c                                l)..

00406cf0 <blanks.8340>:
  406cf0:	20202020 20202020 20202020 20202020                     

00406d00 <zeroes.8341>:
  406d00:	30303030 30303030 30303030 30303030     0000000000000000
  406d10:	00000043 49534f50 00000058 0000002e     C...POSIX.......

00406d20 <_ctype_>:
  406d20:	20202000 20202020 28282020 20282828     .         ((((( 
  406d30:	20202020 20202020 20202020 20202020                     
  406d40:	10108820 10101010 10101010 10101010      ...............
  406d50:	04040410 04040404 10040404 10101010     ................
  406d60:	41411010 41414141 01010101 01010101     ..AAAAAA........
  406d70:	01010101 01010101 01010101 10101010     ................
  406d80:	42421010 42424242 02020202 02020202     ..BBBBBB........
  406d90:	02020202 02020202 02020202 10101010     ................
  406da0:	00000020 00000000 00000000 00000000      ...............
	...

00406e24 <_init>:
  406e24:	b5f8      	push	{r3, r4, r5, r6, r7, lr}
  406e26:	bf00      	nop
  406e28:	bcf8      	pop	{r3, r4, r5, r6, r7}
  406e2a:	bc08      	pop	{r3}
  406e2c:	469e      	mov	lr, r3
  406e2e:	4770      	bx	lr

00406e30 <__init_array_start>:
  406e30:	00404b09 	.word	0x00404b09

00406e34 <__frame_dummy_init_array_entry>:
  406e34:	00400165                                e.@.

00406e38 <_fini>:
  406e38:	b5f8      	push	{r3, r4, r5, r6, r7, lr}
  406e3a:	bf00      	nop
  406e3c:	bcf8      	pop	{r3, r4, r5, r6, r7}
  406e3e:	bc08      	pop	{r3}
  406e40:	469e      	mov	lr, r3
  406e42:	4770      	bx	lr

00406e44 <__fini_array_start>:
  406e44:	00400141 	.word	0x00400141

Disassembly of section .relocate:

20400000 <portable_delay_cycles>:
RAMFUNC
void portable_delay_cycles(unsigned long n)
{
	UNUSED(n);

	__asm (
20400000:	f3bf 8f5f 	dmb	sy
20400004:	3801      	subs	r0, #1
20400006:	d1fb      	bne.n	20400000 <portable_delay_cycles>
20400008:	4770      	bx	lr
	...

2040000c <inBuffer>:
2040000c:	9800 2045                                   ..E 

20400010 <inPingMode>:
20400010:	0001 0000                                   ....

20400014 <outBuffer>:
20400014:	6800 2045                                   .hE 

20400018 <outPingMode>:
20400018:	0001 0000                                   ....

2040001c <processBuffer>:
2040001c:	4800 2045                                   .HE 

20400020 <pitchtracker>:
20400020:	0000 bf80 ffff ffff                         ........

20400028 <g_interrupt_enabled>:
20400028:	0001 0000                                   ....

2040002c <SystemCoreClock>:
2040002c:	0900 003d                                   ..=.

20400030 <autotune>:
20400030:	0001 0000                                   ....

20400034 <chorus_volume>:
20400034:	cccd 3f4c                                   ..L?

20400038 <delay_feedback>:
20400038:	0000 3f00                                   ...?

2040003c <delay_speed>:
2040003c:	1f40 0000                                   @...

20400040 <delay_volume>:
20400040:	cccd 3dcc                                   ...=

20400044 <dry_volume>:
20400044:	0000 3f80                                   ...?

20400048 <harm_volume>:
20400048:	0000 3f80                                   ...?

2040004c <harmony_list_fill>:
2040004c:	a80c 2045                                   ..E 

20400050 <harmony_list_read>:
20400050:	a868 2045                                   h.E 

20400054 <master_volume>:
20400054:	0000 3f80                                   ...?

20400058 <pitch_bend>:
20400058:	0040 0000                                   @...

2040005c <reverb_volume>:
2040005c:	cccd 3f4c                                   ..L?

20400060 <_impure_ptr>:
20400060:	0068 2040 0000 0000                         h.@ ....

20400068 <impure_data>:
20400068:	0000 0000 0354 2040 03bc 2040 0424 2040     ....T.@ ..@ $.@ 
	...
20400110:	0001 0000 0000 0000 330e abcd 1234 e66d     .........3..4.m.
20400120:	deec 0005 000b 0000 0000 0000 0000 0000     ................
	...

20400490 <__malloc_av_>:
	...
20400498:	0490 2040 0490 2040 0498 2040 0498 2040     ..@ ..@ ..@ ..@ 
204004a8:	04a0 2040 04a0 2040 04a8 2040 04a8 2040     ..@ ..@ ..@ ..@ 
204004b8:	04b0 2040 04b0 2040 04b8 2040 04b8 2040     ..@ ..@ ..@ ..@ 
204004c8:	04c0 2040 04c0 2040 04c8 2040 04c8 2040     ..@ ..@ ..@ ..@ 
204004d8:	04d0 2040 04d0 2040 04d8 2040 04d8 2040     ..@ ..@ ..@ ..@ 
204004e8:	04e0 2040 04e0 2040 04e8 2040 04e8 2040     ..@ ..@ ..@ ..@ 
204004f8:	04f0 2040 04f0 2040 04f8 2040 04f8 2040     ..@ ..@ ..@ ..@ 
20400508:	0500 2040 0500 2040 0508 2040 0508 2040     ..@ ..@ ..@ ..@ 
20400518:	0510 2040 0510 2040 0518 2040 0518 2040     ..@ ..@ ..@ ..@ 
20400528:	0520 2040 0520 2040 0528 2040 0528 2040      .@  .@ (.@ (.@ 
20400538:	0530 2040 0530 2040 0538 2040 0538 2040     0.@ 0.@ 8.@ 8.@ 
20400548:	0540 2040 0540 2040 0548 2040 0548 2040     @.@ @.@ H.@ H.@ 
20400558:	0550 2040 0550 2040 0558 2040 0558 2040     P.@ P.@ X.@ X.@ 
20400568:	0560 2040 0560 2040 0568 2040 0568 2040     `.@ `.@ h.@ h.@ 
20400578:	0570 2040 0570 2040 0578 2040 0578 2040     p.@ p.@ x.@ x.@ 
20400588:	0580 2040 0580 2040 0588 2040 0588 2040     ..@ ..@ ..@ ..@ 
20400598:	0590 2040 0590 2040 0598 2040 0598 2040     ..@ ..@ ..@ ..@ 
204005a8:	05a0 2040 05a0 2040 05a8 2040 05a8 2040     ..@ ..@ ..@ ..@ 
204005b8:	05b0 2040 05b0 2040 05b8 2040 05b8 2040     ..@ ..@ ..@ ..@ 
204005c8:	05c0 2040 05c0 2040 05c8 2040 05c8 2040     ..@ ..@ ..@ ..@ 
204005d8:	05d0 2040 05d0 2040 05d8 2040 05d8 2040     ..@ ..@ ..@ ..@ 
204005e8:	05e0 2040 05e0 2040 05e8 2040 05e8 2040     ..@ ..@ ..@ ..@ 
204005f8:	05f0 2040 05f0 2040 05f8 2040 05f8 2040     ..@ ..@ ..@ ..@ 
20400608:	0600 2040 0600 2040 0608 2040 0608 2040     ..@ ..@ ..@ ..@ 
20400618:	0610 2040 0610 2040 0618 2040 0618 2040     ..@ ..@ ..@ ..@ 
20400628:	0620 2040 0620 2040 0628 2040 0628 2040      .@  .@ (.@ (.@ 
20400638:	0630 2040 0630 2040 0638 2040 0638 2040     0.@ 0.@ 8.@ 8.@ 
20400648:	0640 2040 0640 2040 0648 2040 0648 2040     @.@ @.@ H.@ H.@ 
20400658:	0650 2040 0650 2040 0658 2040 0658 2040     P.@ P.@ X.@ X.@ 
20400668:	0660 2040 0660 2040 0668 2040 0668 2040     `.@ `.@ h.@ h.@ 
20400678:	0670 2040 0670 2040 0678 2040 0678 2040     p.@ p.@ x.@ x.@ 
20400688:	0680 2040 0680 2040 0688 2040 0688 2040     ..@ ..@ ..@ ..@ 
20400698:	0690 2040 0690 2040 0698 2040 0698 2040     ..@ ..@ ..@ ..@ 
204006a8:	06a0 2040 06a0 2040 06a8 2040 06a8 2040     ..@ ..@ ..@ ..@ 
204006b8:	06b0 2040 06b0 2040 06b8 2040 06b8 2040     ..@ ..@ ..@ ..@ 
204006c8:	06c0 2040 06c0 2040 06c8 2040 06c8 2040     ..@ ..@ ..@ ..@ 
204006d8:	06d0 2040 06d0 2040 06d8 2040 06d8 2040     ..@ ..@ ..@ ..@ 
204006e8:	06e0 2040 06e0 2040 06e8 2040 06e8 2040     ..@ ..@ ..@ ..@ 
204006f8:	06f0 2040 06f0 2040 06f8 2040 06f8 2040     ..@ ..@ ..@ ..@ 
20400708:	0700 2040 0700 2040 0708 2040 0708 2040     ..@ ..@ ..@ ..@ 
20400718:	0710 2040 0710 2040 0718 2040 0718 2040     ..@ ..@ ..@ ..@ 
20400728:	0720 2040 0720 2040 0728 2040 0728 2040      .@  .@ (.@ (.@ 
20400738:	0730 2040 0730 2040 0738 2040 0738 2040     0.@ 0.@ 8.@ 8.@ 
20400748:	0740 2040 0740 2040 0748 2040 0748 2040     @.@ @.@ H.@ H.@ 
20400758:	0750 2040 0750 2040 0758 2040 0758 2040     P.@ P.@ X.@ X.@ 
20400768:	0760 2040 0760 2040 0768 2040 0768 2040     `.@ `.@ h.@ h.@ 
20400778:	0770 2040 0770 2040 0778 2040 0778 2040     p.@ p.@ x.@ x.@ 
20400788:	0780 2040 0780 2040 0788 2040 0788 2040     ..@ ..@ ..@ ..@ 
20400798:	0790 2040 0790 2040 0798 2040 0798 2040     ..@ ..@ ..@ ..@ 
204007a8:	07a0 2040 07a0 2040 07a8 2040 07a8 2040     ..@ ..@ ..@ ..@ 
204007b8:	07b0 2040 07b0 2040 07b8 2040 07b8 2040     ..@ ..@ ..@ ..@ 
204007c8:	07c0 2040 07c0 2040 07c8 2040 07c8 2040     ..@ ..@ ..@ ..@ 
204007d8:	07d0 2040 07d0 2040 07d8 2040 07d8 2040     ..@ ..@ ..@ ..@ 
204007e8:	07e0 2040 07e0 2040 07e8 2040 07e8 2040     ..@ ..@ ..@ ..@ 
204007f8:	07f0 2040 07f0 2040 07f8 2040 07f8 2040     ..@ ..@ ..@ ..@ 
20400808:	0800 2040 0800 2040 0808 2040 0808 2040     ..@ ..@ ..@ ..@ 
20400818:	0810 2040 0810 2040 0818 2040 0818 2040     ..@ ..@ ..@ ..@ 
20400828:	0820 2040 0820 2040 0828 2040 0828 2040      .@  .@ (.@ (.@ 
20400838:	0830 2040 0830 2040 0838 2040 0838 2040     0.@ 0.@ 8.@ 8.@ 
20400848:	0840 2040 0840 2040 0848 2040 0848 2040     @.@ @.@ H.@ H.@ 
20400858:	0850 2040 0850 2040 0858 2040 0858 2040     P.@ P.@ X.@ X.@ 
20400868:	0860 2040 0860 2040 0868 2040 0868 2040     `.@ `.@ h.@ h.@ 
20400878:	0870 2040 0870 2040 0878 2040 0878 2040     p.@ p.@ x.@ x.@ 
20400888:	0880 2040 0880 2040 0888 2040 0888 2040     ..@ ..@ ..@ ..@ 

20400898 <__malloc_sbrk_base>:
20400898:	ffff ffff                                   ....

2040089c <__malloc_trim_threshold>:
2040089c:	0000 0002                                   ....

204008a0 <__atexit_recursive_mutex>:
204008a0:	a8c0 2045                                   ..E 

204008a4 <__global_locale>:
204008a4:	0043 0000 0000 0000 0000 0000 0000 0000     C...............
	...
204008c4:	0043 0000 0000 0000 0000 0000 0000 0000     C...............
	...
204008e4:	0043 0000 0000 0000 0000 0000 0000 0000     C...............
	...
20400904:	0043 0000 0000 0000 0000 0000 0000 0000     C...............
	...
20400924:	0043 0000 0000 0000 0000 0000 0000 0000     C...............
	...
20400944:	0043 0000 0000 0000 0000 0000 0000 0000     C...............
	...
20400964:	0043 0000 0000 0000 0000 0000 0000 0000     C...............
	...
20400984:	5ce1 0040 5591 0040 0000 0000 6d20 0040     .\@..U@..... m@.
20400994:	6d1c 0040 6cd0 0040 6cd0 0040 6cd0 0040     .m@..l@..l@..l@.
204009a4:	6cd0 0040 6cd0 0040 6cd0 0040 6cd0 0040     .l@..l@..l@..l@.
204009b4:	6cd0 0040 6cd0 0040 ffff ffff ffff ffff     .l@..l@.........
204009c4:	ffff ffff ffff 0000 0001 5341 4943 0049     ..........ASCII.
	...
204009ec:	0000 5341 4943 0049 0000 0000 0000 0000     ..ASCII.........
	...
