
GatorScribe.elf:     file format elf32-littlearm

Sections:
Idx Name          Size      VMA       LMA       File off  Algn
  0 .text         0000928c  00400000  00400000  00010000  2**6
                  CONTENTS, ALLOC, LOAD, READONLY, CODE
  1 .ARM.exidx    00000008  0040928c  0040928c  0001928c  2**2
                  CONTENTS, ALLOC, LOAD, READONLY, DATA
  2 .relocate     000009f8  20400000  00409294  00020000  2**3
                  CONTENTS, ALLOC, LOAD, CODE
  3 .bss          0002b498  20400c00  0040a000  00020c00  2**10
                  ALLOC
  4 .stack        00002000  2042c098  00435498  00020c00  2**0
                  ALLOC
  5 .heap         00000200  2042e098  00437498  00020c00  2**0
                  ALLOC
  6 .ARM.attributes 0000002c  00000000  00000000  000209f8  2**0
                  CONTENTS, READONLY
  7 .comment      000000b4  00000000  00000000  00020a24  2**0
                  CONTENTS, READONLY
  8 .debug_info   0004202d  00000000  00000000  00020ad8  2**0
                  CONTENTS, READONLY, DEBUGGING
  9 .debug_abbrev 00008be8  00000000  00000000  00062b05  2**0
                  CONTENTS, READONLY, DEBUGGING
 10 .debug_loc    0001a63f  00000000  00000000  0006b6ed  2**0
                  CONTENTS, READONLY, DEBUGGING
 11 .debug_aranges 00001668  00000000  00000000  00085d2c  2**0
                  CONTENTS, READONLY, DEBUGGING
 12 .debug_ranges 000050b8  00000000  00000000  00087394  2**0
                  CONTENTS, READONLY, DEBUGGING
 13 .debug_macro  0002ecdb  00000000  00000000  0008c44c  2**0
                  CONTENTS, READONLY, DEBUGGING
 14 .debug_line   00026b02  00000000  00000000  000bb127  2**0
                  CONTENTS, READONLY, DEBUGGING
 15 .debug_str    000a7a94  00000000  00000000  000e1c29  2**0
                  CONTENTS, READONLY, DEBUGGING
 16 .debug_frame  00004a8c  00000000  00000000  001896c0  2**2
                  CONTENTS, READONLY, DEBUGGING

Disassembly of section .text:

00400000 <exception_table>:
  400000:	98 e0 42 20 65 2f 40 00 5d 2f 40 00 61 2f 40 00     ..B e/@.]/@.a/@.
  400010:	5d 2f 40 00 5d 2f 40 00 5d 2f 40 00 00 00 00 00     ]/@.]/@.]/@.....
	...
  40002c:	c1 33 40 00 5d 2f 40 00 00 00 00 00 61 34 40 00     .3@.]/@.....a4@.
  40003c:	c5 34 40 00 5d 2f 40 00 5d 2f 40 00 5d 2f 40 00     .4@.]/@.]/@.]/@.
  40004c:	5d 2f 40 00 5d 2f 40 00 5d 2f 40 00 5d 2f 40 00     ]/@.]/@.]/@.]/@.
  40005c:	5d 2f 40 00 5d 2f 40 00 00 00 00 00 95 29 40 00     ]/@.]/@......)@.
  40006c:	61 2a 40 00 2d 2b 40 00 5d 2f 40 00 21 4f 40 00     a*@.-+@.]/@.!O@.
  40007c:	5d 2f 40 00 f9 2b 40 00 c5 2c 40 00 5d 2f 40 00     ]/@..+@..,@.]/@.
  40008c:	5d 2f 40 00 5d 2f 40 00 5d 2f 40 00 5d 2f 40 00     ]/@.]/@.]/@.]/@.
  40009c:	5d 2f 40 00 5d 2f 40 00 5d 2f 40 00 5d 2f 40 00     ]/@.]/@.]/@.]/@.
  4000ac:	5d 2f 40 00 5d 2f 40 00 5d 2f 40 00 5d 2f 40 00     ]/@.]/@.]/@.]/@.
  4000bc:	5d 2f 40 00 5d 2f 40 00 5d 2f 40 00 5d 2f 40 00     ]/@.]/@.]/@.]/@.
  4000cc:	5d 2f 40 00 00 00 00 00 5d 2f 40 00 00 00 00 00     ]/@.....]/@.....
  4000dc:	5d 2f 40 00 5d 2f 40 00 5d 2f 40 00 5d 2f 40 00     ]/@.]/@.]/@.]/@.
  4000ec:	5d 2f 40 00 5d 2f 40 00 5d 2f 40 00 5d 2f 40 00     ]/@.]/@.]/@.]/@.
  4000fc:	5d 2f 40 00 5d 2f 40 00 5d 2f 40 00 5d 2f 40 00     ]/@.]/@.]/@.]/@.
  40010c:	5d 2f 40 00 5d 2f 40 00 5d 2f 40 00 00 00 00 00     ]/@.]/@.]/@.....
  40011c:	00 00 00 00 5d 2f 40 00 5d 2f 40 00 ad 01 40 00     ....]/@.]/@...@.
  40012c:	5d 2f 40 00 5d 2f 40 00 00 00 00 00 5d 2f 40 00     ]/@.]/@.....]/@.
  40013c:	5d 2f 40 00                                         ]/@.

00400140 <__do_global_dtors_aux>:
  400140:	b510      	push	{r4, lr}
  400142:	4c05      	ldr	r4, [pc, #20]	; (400158 <__do_global_dtors_aux+0x18>)
  400144:	7823      	ldrb	r3, [r4, #0]
  400146:	b933      	cbnz	r3, 400156 <__do_global_dtors_aux+0x16>
  400148:	4b04      	ldr	r3, [pc, #16]	; (40015c <__do_global_dtors_aux+0x1c>)
  40014a:	b113      	cbz	r3, 400152 <__do_global_dtors_aux+0x12>
  40014c:	4804      	ldr	r0, [pc, #16]	; (400160 <__do_global_dtors_aux+0x20>)
  40014e:	f3af 8000 	nop.w
  400152:	2301      	movs	r3, #1
  400154:	7023      	strb	r3, [r4, #0]
  400156:	bd10      	pop	{r4, pc}
  400158:	20400c00 	.word	0x20400c00
  40015c:	00000000 	.word	0x00000000
  400160:	00409294 	.word	0x00409294

00400164 <frame_dummy>:
  400164:	4b0c      	ldr	r3, [pc, #48]	; (400198 <frame_dummy+0x34>)
  400166:	b143      	cbz	r3, 40017a <frame_dummy+0x16>
  400168:	480c      	ldr	r0, [pc, #48]	; (40019c <frame_dummy+0x38>)
  40016a:	490d      	ldr	r1, [pc, #52]	; (4001a0 <frame_dummy+0x3c>)
  40016c:	b510      	push	{r4, lr}
  40016e:	f3af 8000 	nop.w
  400172:	480c      	ldr	r0, [pc, #48]	; (4001a4 <frame_dummy+0x40>)
  400174:	6803      	ldr	r3, [r0, #0]
  400176:	b923      	cbnz	r3, 400182 <frame_dummy+0x1e>
  400178:	bd10      	pop	{r4, pc}
  40017a:	480a      	ldr	r0, [pc, #40]	; (4001a4 <frame_dummy+0x40>)
  40017c:	6803      	ldr	r3, [r0, #0]
  40017e:	b933      	cbnz	r3, 40018e <frame_dummy+0x2a>
  400180:	4770      	bx	lr
  400182:	4b09      	ldr	r3, [pc, #36]	; (4001a8 <frame_dummy+0x44>)
  400184:	2b00      	cmp	r3, #0
  400186:	d0f7      	beq.n	400178 <frame_dummy+0x14>
  400188:	e8bd 4010 	ldmia.w	sp!, {r4, lr}
  40018c:	4718      	bx	r3
  40018e:	4b06      	ldr	r3, [pc, #24]	; (4001a8 <frame_dummy+0x44>)
  400190:	2b00      	cmp	r3, #0
  400192:	d0f5      	beq.n	400180 <frame_dummy+0x1c>
  400194:	4718      	bx	r3
  400196:	bf00      	nop
  400198:	00000000 	.word	0x00000000
  40019c:	00409294 	.word	0x00409294
  4001a0:	20400c04 	.word	0x20400c04
  4001a4:	00409294 	.word	0x00409294
  4001a8:	00000000 	.word	0x00000000

004001ac <XDMAC_Handler>:
 */
static inline uint32_t xdmac_channel_get_interrupt_status(Xdmac *xdmac, uint32_t channel_num)
{
	Assert(xdmac);
	Assert(channel_num < XDMACCHID_NUMBER);
	return xdmac->XDMAC_CHID[channel_num].XDMAC_CIS;
  4001ac:	4b21      	ldr	r3, [pc, #132]	; (400234 <XDMAC_Handler+0x88>)
/*********************************** Extern Variables End ***********************************/

#define One_over_max_int16 0.0000305185f 
/******************************* XDMAC Interrupt Handler Start *******************************/ 
void XDMAC_Handler(void)
{
  4001ae:	b470      	push	{r4, r5, r6}
  4001b0:	6ddb      	ldr	r3, [r3, #92]	; 0x5c
    uint32_t dma_status;
    
    dma_status = xdmac_channel_get_interrupt_status(XDMAC, XDMA_CH_SSC_RX);
    if (dma_status & XDMAC_CIS_BIS)
  4001b2:	07da      	lsls	r2, r3, #31
  4001b4:	d529      	bpl.n	40020a <XDMAC_Handler+0x5e>
    {
		// Update input and process buffers to be used 
		if(inPingMode)
  4001b6:	4d20      	ldr	r5, [pc, #128]	; (400238 <XDMAC_Handler+0x8c>)
		else 
		{
			inBuffer = inPongBuffer; 
			processBuffer = processPongBuffer; 
		}
		inPingMode = !inPingMode; 
  4001b8:	2200      	movs	r2, #0
			processBuffer = processPingBuffer; 
  4001ba:	4c20      	ldr	r4, [pc, #128]	; (40023c <XDMAC_Handler+0x90>)
		if(inPingMode)
  4001bc:	782b      	ldrb	r3, [r5, #0]
			processBuffer = processPingBuffer; 
  4001be:	4820      	ldr	r0, [pc, #128]	; (400240 <XDMAC_Handler+0x94>)
  4001c0:	4293      	cmp	r3, r2
		inPingMode = !inPingMode; 
  4001c2:	782e      	ldrb	r6, [r5, #0]
			processBuffer = processPingBuffer; 
  4001c4:	491f      	ldr	r1, [pc, #124]	; (400244 <XDMAC_Handler+0x98>)
  4001c6:	4b20      	ldr	r3, [pc, #128]	; (400248 <XDMAC_Handler+0x9c>)
  4001c8:	bf1c      	itt	ne
  4001ca:	4621      	movne	r1, r4
  4001cc:	4603      	movne	r3, r0
		inPingMode = !inPingMode; 
  4001ce:	f086 0601 	eor.w	r6, r6, #1
  4001d2:	4c1e      	ldr	r4, [pc, #120]	; (40024c <XDMAC_Handler+0xa0>)
  4001d4:	481e      	ldr	r0, [pc, #120]	; (400250 <XDMAC_Handler+0xa4>)
		
		int processIdx = 0;
		// Fill process buffer - only left channel decimated by 1
		for(int i = 0; i < IO_BUF_SIZE; i+=2)
		{
			processBuffer[processIdx++] = ((float )(int16_t)inBuffer[i]) * One_over_max_int16; 
  4001d6:	ed9f 7a1f 	vldr	s14, [pc, #124]	; 400254 <XDMAC_Handler+0xa8>
		inPingMode = !inPingMode; 
  4001da:	702e      	strb	r6, [r5, #0]
  4001dc:	6021      	str	r1, [r4, #0]
  4001de:	6003      	str	r3, [r0, #0]
  4001e0:	e001      	b.n	4001e6 <XDMAC_Handler+0x3a>
  4001e2:	6821      	ldr	r1, [r4, #0]
  4001e4:	6803      	ldr	r3, [r0, #0]
			processBuffer[processIdx++] = ((float )(int16_t)inBuffer[i]) * One_over_max_int16; 
  4001e6:	5a9b      	ldrh	r3, [r3, r2]
  4001e8:	4411      	add	r1, r2
  4001ea:	3204      	adds	r2, #4
  4001ec:	b21b      	sxth	r3, r3
		for(int i = 0; i < IO_BUF_SIZE; i+=2)
  4001ee:	f5b2 6f00 	cmp.w	r2, #2048	; 0x800
			processBuffer[processIdx++] = ((float )(int16_t)inBuffer[i]) * One_over_max_int16; 
  4001f2:	ee07 3a90 	vmov	s15, r3
  4001f6:	eef8 7ae7 	vcvt.f32.s32	s15, s15
  4001fa:	ee67 7a87 	vmul.f32	s15, s15, s14
  4001fe:	edc1 7a00 	vstr	s15, [r1]
		for(int i = 0; i < IO_BUF_SIZE; i+=2)
  400202:	d1ee      	bne.n	4001e2 <XDMAC_Handler+0x36>
		}
		dataReceived = true; // can check for out of time here 
  400204:	4b14      	ldr	r3, [pc, #80]	; (400258 <XDMAC_Handler+0xac>)
  400206:	2201      	movs	r2, #1
  400208:	701a      	strb	r2, [r3, #0]
  40020a:	4b0a      	ldr	r3, [pc, #40]	; (400234 <XDMAC_Handler+0x88>)
  40020c:	f8d3 309c 	ldr.w	r3, [r3, #156]	; 0x9c
    }
	
	dma_status = xdmac_channel_get_interrupt_status(XDMAC, XDMA_CH_SSC_TX);
	if (dma_status & XDMAC_CIS_BIS)
  400210:	07db      	lsls	r3, r3, #31
  400212:	d50c      	bpl.n	40022e <XDMAC_Handler+0x82>
	{
		// update output buffer to be used 
		if(outPingMode)
  400214:	4b11      	ldr	r3, [pc, #68]	; (40025c <XDMAC_Handler+0xb0>)
		{
			outBuffer = outPingBuffer; 
  400216:	4812      	ldr	r0, [pc, #72]	; (400260 <XDMAC_Handler+0xb4>)
		if(outPingMode)
  400218:	781c      	ldrb	r4, [r3, #0]
			outBuffer = outPingBuffer; 
  40021a:	4912      	ldr	r1, [pc, #72]	; (400264 <XDMAC_Handler+0xb8>)
		}
		else
		{
			outBuffer = outPongBuffer; 
		}
		outPingMode = !outPingMode; 
  40021c:	781a      	ldrb	r2, [r3, #0]
			outBuffer = outPingBuffer; 
  40021e:	2c00      	cmp	r4, #0
  400220:	bf18      	it	ne
  400222:	4601      	movne	r1, r0
  400224:	4810      	ldr	r0, [pc, #64]	; (400268 <XDMAC_Handler+0xbc>)
		outPingMode = !outPingMode; 
  400226:	f082 0201 	eor.w	r2, r2, #1
  40022a:	6001      	str	r1, [r0, #0]
  40022c:	701a      	strb	r2, [r3, #0]
	}
}
  40022e:	bc70      	pop	{r4, r5, r6}
  400230:	4770      	bx	lr
  400232:	bf00      	nop
  400234:	40078000 	.word	0x40078000
  400238:	20400010 	.word	0x20400010
  40023c:	20429000 	.word	0x20429000
  400240:	2042b800 	.word	0x2042b800
  400244:	2042b000 	.word	0x2042b000
  400248:	20429800 	.word	0x20429800
  40024c:	2040001c 	.word	0x2040001c
  400250:	2040000c 	.word	0x2040000c
  400254:	380000fd 	.word	0x380000fd
  400258:	20400c1c 	.word	0x20400c1c
  40025c:	20400018 	.word	0x20400018
  400260:	2042a000 	.word	0x2042a000
  400264:	2042a800 	.word	0x2042a800
  400268:	20400014 	.word	0x20400014

0040026c <configure_xdma>:
/******************************* XDMAC Interrupt Handler End *******************************/

/********************************** Public Functions Start **********************************/
void configure_xdma(void)
{
  40026c:	e92d 41f0 	stmdb	sp!, {r4, r5, r6, r7, r8, lr}
    uint16_t *src;
    
    xdmac_channel_config_t xdmac_channel_cfg = {0};
  400270:	2620      	movs	r6, #32
{
  400272:	b088      	sub	sp, #32
    xdmac_channel_config_t xdmac_channel_cfg = {0};
  400274:	2100      	movs	r1, #0
  400276:	4b30      	ldr	r3, [pc, #192]	; (400338 <configure_xdma+0xcc>)
  400278:	4632      	mov	r2, r6
  40027a:	4668      	mov	r0, sp
  40027c:	4798      	blx	r3
    
    /* Initialize and enable DMA controller */
    pmc_enable_periph_clk(ID_XDMAC);
  40027e:	4b2f      	ldr	r3, [pc, #188]	; (40033c <configure_xdma+0xd0>)
  400280:	203a      	movs	r0, #58	; 0x3a
    | XDMAC_CC_DIF_AHB_IF0
    | XDMAC_CC_SAM_FIXED_AM
    | XDMAC_CC_DAM_INCREMENTED_AM
    | XDMAC_CC_PERID(33);
	
    xdmac_configure_transfer(XDMAC, XDMA_CH_SSC_RX, &xdmac_channel_cfg);
  400282:	4c2f      	ldr	r4, [pc, #188]	; (400340 <configure_xdma+0xd4>)
    pmc_enable_periph_clk(ID_XDMAC);
  400284:	4798      	blx	r3

    \param [in]      IRQn  External interrupt number. Value cannot be negative.
 */
__STATIC_INLINE void NVIC_ClearPendingIRQ(IRQn_Type IRQn)
{
  NVIC->ICPR[((uint32_t)(IRQn) >> 5)] = (1 << ((uint32_t)(IRQn) & 0x1F)); /* Clear pending interrupt */
  400286:	f04f 6580 	mov.w	r5, #67108864	; 0x4000000
  40028a:	4b2e      	ldr	r3, [pc, #184]	; (400344 <configure_xdma+0xd8>)
    xdmac_configure_transfer(XDMAC, XDMA_CH_SSC_RX, &xdmac_channel_cfg);
  40028c:	466a      	mov	r2, sp
    xdmac_channel_cfg.mbr_cfg = XDMAC_CC_TYPE_PER_TRAN
  40028e:	f8df e0c8 	ldr.w	lr, [pc, #200]	; 400358 <configure_xdma+0xec>
    xdmac_configure_transfer(XDMAC, XDMA_CH_SSC_RX, &xdmac_channel_cfg);
  400292:	4620      	mov	r0, r4
  400294:	f8c3 5184 	str.w	r5, [r3, #388]	; 0x184
  400298:	2100      	movs	r1, #0
__STATIC_INLINE void NVIC_SetPriority(IRQn_Type IRQn, uint32_t priority)
{
  if(IRQn < 0) {
    SCB->SHPR[((uint32_t)(IRQn) & 0xF)-4] = ((priority << (8 - __NVIC_PRIO_BITS)) & 0xff); } /* set Priority for Cortex-M  System Interrupts */
  else {
    NVIC->IP[(uint32_t)(IRQn)]            = ((priority << (8 - __NVIC_PRIO_BITS)) & 0xff); } /* set Priority for device specific Interrupts  */
  40029a:	f883 633a 	strb.w	r6, [r3, #826]	; 0x33a
 */
static inline void xdmac_channel_set_descriptor_control(Xdmac *xdmac, uint32_t channel_num, uint32_t config)
{
	Assert(xdmac);
	Assert(channel_num < XDMACCHID_NUMBER);
	xdmac->XDMAC_CHID[channel_num].XDMAC_CNDC = config;
  40029e:	270f      	movs	r7, #15
  NVIC->ISER[(uint32_t)((int32_t)IRQn) >> 5] = (uint32_t)(1 << ((uint32_t)((int32_t)IRQn) & (uint32_t)0x1F)); /* enable interrupt */
  4002a0:	605d      	str	r5, [r3, #4]
	xdmac->XDMAC_GIE = ( XDMAC_GIE_IE0 << channel_num) ;
  4002a2:	2501      	movs	r5, #1
  4002a4:	f8df 80b4 	ldr.w	r8, [pc, #180]	; 40035c <configure_xdma+0xf0>
    xdmac_channel_cfg.mbr_cfg = XDMAC_CC_TYPE_PER_TRAN
  4002a8:	f8cd e00c 	str.w	lr, [sp, #12]
    xdmac_configure_transfer(XDMAC, XDMA_CH_SSC_RX, &xdmac_channel_cfg);
  4002ac:	47c0      	blx	r8
    
    /* Initialize linked list descriptor */
    src = (uint16_t *)&inPingBuffer[0];
    linklist_read[0].mbr_ubc = XDMAC_UBC_NVIEW_NDV1
  4002ae:	4b26      	ldr	r3, [pc, #152]	; (400348 <configure_xdma+0xdc>)
    | XDMAC_CC_DIF_AHB_IF1
    | XDMAC_CC_SAM_INCREMENTED_AM
    | XDMAC_CC_DAM_FIXED_AM
    | XDMAC_CC_PERID(32);
	
    xdmac_configure_transfer(XDMAC, XDMA_CH_SSC_TX, &xdmac_channel_cfg);
  4002b0:	466a      	mov	r2, sp
    linklist_read[0].mbr_da = (uint32_t)(src);
  4002b2:	f8df e0ac 	ldr.w	lr, [pc, #172]	; 400360 <configure_xdma+0xf4>
    xdmac_configure_transfer(XDMAC, XDMA_CH_SSC_TX, &xdmac_channel_cfg);
  4002b6:	4629      	mov	r1, r5
    linklist_read[0].mbr_nda = (uint32_t)&linklist_read[1];
  4002b8:	f103 0010 	add.w	r0, r3, #16
	xdmac->XDMAC_CHID[channel_num].XDMAC_CNDA = (desc_addr & 0xFFFFFFFC) | ndaif;
  4002bc:	f023 0603 	bic.w	r6, r3, #3
	linklist_read[1].mbr_da = (uint32_t)(src);
  4002c0:	f8df c0a0 	ldr.w	ip, [pc, #160]	; 400364 <configure_xdma+0xf8>
    linklist_read[0].mbr_nda = (uint32_t)&linklist_read[1];
  4002c4:	6018      	str	r0, [r3, #0]
    xdmac_configure_transfer(XDMAC, XDMA_CH_SSC_TX, &xdmac_channel_cfg);
  4002c6:	4620      	mov	r0, r4
	xdmac->XDMAC_CHID[channel_num].XDMAC_CNDC = config;
  4002c8:	66e7      	str	r7, [r4, #108]	; 0x6c
	xdmac->XDMAC_CHID[channel_num].XDMAC_CNDA = (desc_addr & 0xFFFFFFFC) | ndaif;
  4002ca:	66a6      	str	r6, [r4, #104]	; 0x68
	xdmac->XDMAC_GIE = ( XDMAC_GIE_IE0 << channel_num) ;
  4002cc:	60e5      	str	r5, [r4, #12]
    linklist_read[0].mbr_ubc = XDMAC_UBC_NVIEW_NDV1
  4002ce:	4e1f      	ldr	r6, [pc, #124]	; (40034c <configure_xdma+0xe0>)
	xdmac->XDMAC_CHID[channel_num].XDMAC_CIE = mask;
  4002d0:	6525      	str	r5, [r4, #80]	; 0x50
    linklist_read[0].mbr_da = (uint32_t)(src);
  4002d2:	f8c3 e00c 	str.w	lr, [r3, #12]
    linklist_read[0].mbr_sa  = (uint32_t)&(SSC->SSC_RHR);
  4002d6:	f8df e090 	ldr.w	lr, [pc, #144]	; 400368 <configure_xdma+0xfc>
	linklist_read[1].mbr_da = (uint32_t)(src);
  4002da:	f8c3 c01c 	str.w	ip, [r3, #28]
    xdmac_channel_cfg.mbr_cfg = XDMAC_CC_TYPE_PER_TRAN
  4002de:	f8df c08c 	ldr.w	ip, [pc, #140]	; 40036c <configure_xdma+0x100>
    linklist_read[0].mbr_ubc = XDMAC_UBC_NVIEW_NDV1
  4002e2:	605e      	str	r6, [r3, #4]
	linklist_read[1].mbr_ubc = XDMAC_UBC_NVIEW_NDV1
  4002e4:	615e      	str	r6, [r3, #20]
    linklist_read[0].mbr_sa  = (uint32_t)&(SSC->SSC_RHR);
  4002e6:	f8c3 e008 	str.w	lr, [r3, #8]
	linklist_read[1].mbr_sa  = (uint32_t)&(SSC->SSC_RHR);
  4002ea:	f8c3 e018 	str.w	lr, [r3, #24]
	linklist_read[1].mbr_nda = (uint32_t)&linklist_read[0];
  4002ee:	611b      	str	r3, [r3, #16]
    xdmac_channel_cfg.mbr_cfg = XDMAC_CC_TYPE_PER_TRAN
  4002f0:	f8cd c00c 	str.w	ip, [sp, #12]
    xdmac_configure_transfer(XDMAC, XDMA_CH_SSC_TX, &xdmac_channel_cfg);
  4002f4:	47c0      	blx	r8
    
    src = (uint16_t *)&outPingBuffer[0];
    linklist_write[0].mbr_ubc = XDMAC_UBC_NVIEW_NDV1
  4002f6:	4b16      	ldr	r3, [pc, #88]	; (400350 <configure_xdma+0xe4>)
	xdmac->XDMAC_GIE = ( XDMAC_GIE_IE0 << channel_num) ;
  4002f8:	2102      	movs	r1, #2
		 | XDMAC_UBC_NDE_FETCH_EN
		 | XDMAC_UBC_NSEN_UPDATED
			| XDMAC_CUBC_UBLEN(IO_BUF_SIZE);
    linklist_write[0].mbr_sa = (uint32_t)(src);
    linklist_write[0].mbr_da = (uint32_t)&(SSC->SSC_THR);
  4002fa:	4a16      	ldr	r2, [pc, #88]	; (400354 <configure_xdma+0xe8>)
    linklist_write[0].mbr_sa = (uint32_t)(src);
  4002fc:	f8df c070 	ldr.w	ip, [pc, #112]	; 400370 <configure_xdma+0x104>
    linklist_write[0].mbr_nda = (uint32_t)&linklist_write[1];
  400300:	f103 0810 	add.w	r8, r3, #16
	xdmac->XDMAC_CHID[channel_num].XDMAC_CNDA = (desc_addr & 0xFFFFFFFC) | ndaif;
  400304:	f023 0003 	bic.w	r0, r3, #3
	src = (uint16_t *)&outPongBuffer[0];
	linklist_write[1].mbr_ubc = XDMAC_UBC_NVIEW_NDV1
	    | XDMAC_UBC_NDE_FETCH_EN
	    | XDMAC_UBC_NSEN_UPDATED
	    | XDMAC_CUBC_UBLEN(IO_BUF_SIZE);
	linklist_write[1].mbr_sa = (uint32_t)(src);
  400308:	f8df e068 	ldr.w	lr, [pc, #104]	; 400374 <configure_xdma+0x108>
    linklist_write[0].mbr_ubc = XDMAC_UBC_NVIEW_NDV1
  40030c:	605e      	str	r6, [r3, #4]
	linklist_write[1].mbr_ubc = XDMAC_UBC_NVIEW_NDV1
  40030e:	615e      	str	r6, [r3, #20]
	linklist_write[1].mbr_da = (uint32_t)&(SSC->SSC_THR);
	linklist_write[1].mbr_nda = (uint32_t)&linklist_write[0];
  400310:	611b      	str	r3, [r3, #16]
    linklist_write[0].mbr_nda = (uint32_t)&linklist_write[1];
  400312:	f8c3 8000 	str.w	r8, [r3]
    linklist_write[0].mbr_sa = (uint32_t)(src);
  400316:	f8c3 c008 	str.w	ip, [r3, #8]
	xdmac->XDMAC_CHID[channel_num].XDMAC_CNDC = config;
  40031a:	f8c4 70ac 	str.w	r7, [r4, #172]	; 0xac
	linklist_write[1].mbr_sa = (uint32_t)(src);
  40031e:	f8c3 e018 	str.w	lr, [r3, #24]
	xdmac->XDMAC_CHID[channel_num].XDMAC_CNDA = (desc_addr & 0xFFFFFFFC) | ndaif;
  400322:	f8c4 00a8 	str.w	r0, [r4, #168]	; 0xa8
    linklist_write[0].mbr_da = (uint32_t)&(SSC->SSC_THR);
  400326:	60da      	str	r2, [r3, #12]
	xdmac->XDMAC_GIE = ( XDMAC_GIE_IE0 << channel_num) ;
  400328:	60e1      	str	r1, [r4, #12]
	linklist_write[1].mbr_da = (uint32_t)&(SSC->SSC_THR);
  40032a:	61da      	str	r2, [r3, #28]
	xdmac->XDMAC_CHID[channel_num].XDMAC_CIE = mask;
  40032c:	f8c4 5090 	str.w	r5, [r4, #144]	; 0x90
    xdmac_channel_set_descriptor_addr(XDMAC, XDMA_CH_SSC_TX, (uint32_t)(&linklist_write[0]), 0);
    
    xdmac_enable_interrupt(XDMAC, XDMA_CH_SSC_TX);
    xdmac_channel_enable_interrupt(XDMAC, XDMA_CH_SSC_TX, XDMAC_CIE_BIE);
    
}
  400330:	b008      	add	sp, #32
  400332:	e8bd 81f0 	ldmia.w	sp!, {r4, r5, r6, r7, r8, pc}
  400336:	bf00      	nop
  400338:	00405f81 	.word	0x00405f81
  40033c:	00402e99 	.word	0x00402e99
  400340:	40078000 	.word	0x40078000
  400344:	e000e100 	.word	0xe000e100
  400348:	20400c20 	.word	0x20400c20
  40034c:	0b000400 	.word	0x0b000400
  400350:	20400c40 	.word	0x20400c40
  400354:	40004024 	.word	0x40004024
  400358:	21042801 	.word	0x21042801
  40035c:	00402309 	.word	0x00402309
  400360:	2042b800 	.word	0x2042b800
  400364:	20429800 	.word	0x20429800
  400368:	40004020 	.word	0x40004020
  40036c:	20014811 	.word	0x20014811
  400370:	2042a000 	.word	0x2042a000
  400374:	2042a800 	.word	0x2042a800

00400378 <audio_init>:

#include "DMA_Audio.h"
#include "WM8904_Driver.h"

void audio_init(void)
{
  400378:	b510      	push	{r4, lr}
	/* Initialize WM8904 TWI interface*/
	if (wm8904_twi_init() != TWIHS_SUCCESS) {
  40037a:	4b13      	ldr	r3, [pc, #76]	; (4003c8 <audio_init+0x50>)
  40037c:	4798      	blx	r3
  40037e:	b118      	cbz	r0, 400388 <audio_init+0x10>
		printf("-E-\tWM8904 initialization failed.\r");
  400380:	4812      	ldr	r0, [pc, #72]	; (4003cc <audio_init+0x54>)
  400382:	4b13      	ldr	r3, [pc, #76]	; (4003d0 <audio_init+0x58>)
  400384:	4798      	blx	r3
  400386:	e7fe      	b.n	400386 <audio_init+0xe>
			/* Capture error */
		}
	}
		
	/* Configure CODEC */
	configure_codec();
  400388:	4b12      	ldr	r3, [pc, #72]	; (4003d4 <audio_init+0x5c>)
  40038a:	4604      	mov	r4, r0
  40038c:	4798      	blx	r3
		
	/* Configure SSC */
	configure_ssc();
  40038e:	4b12      	ldr	r3, [pc, #72]	; (4003d8 <audio_init+0x60>)
  400390:	4798      	blx	r3
		
	/* Configure XDMA */
	configure_xdma();
  400392:	4b12      	ldr	r3, [pc, #72]	; (4003dc <audio_init+0x64>)
  400394:	4798      	blx	r3
		
	/* Enable the DAC master clock */
	pmc_pck_set_prescaler(PMC_PCK_2, PMC_MCKR_PRES_CLK_1);
  400396:	4621      	mov	r1, r4
  400398:	2002      	movs	r0, #2
  40039a:	4b11      	ldr	r3, [pc, #68]	; (4003e0 <audio_init+0x68>)
  40039c:	4798      	blx	r3
	pmc_pck_set_source(PMC_PCK_2, PMC_MCKR_CSS_SLOW_CLK);
  40039e:	4621      	mov	r1, r4
  4003a0:	2002      	movs	r0, #2
  4003a2:	4b10      	ldr	r3, [pc, #64]	; (4003e4 <audio_init+0x6c>)
  4003a4:	4798      	blx	r3
	pmc_enable_pck(PMC_PCK_2);
  4003a6:	2002      	movs	r0, #2
  4003a8:	4b0f      	ldr	r3, [pc, #60]	; (4003e8 <audio_init+0x70>)
  4003aa:	4798      	blx	r3
		
	/* Start playing */
	ssc_enable_rx(SSC);
  4003ac:	f04f 2040 	mov.w	r0, #1073758208	; 0x40004000
  4003b0:	4b0e      	ldr	r3, [pc, #56]	; (4003ec <audio_init+0x74>)
  4003b2:	4798      	blx	r3
	xdmac->XDMAC_GE = (XDMAC_GE_EN0 << channel_num);
  4003b4:	4c0e      	ldr	r4, [pc, #56]	; (4003f0 <audio_init+0x78>)
  4003b6:	2201      	movs	r2, #1
	xdmac_channel_enable(XDMAC, XDMA_CH_SSC_RX);
	// might want to enable in the first xdma interrupt (if you care)
	ssc_enable_tx(SSC);
  4003b8:	4b0e      	ldr	r3, [pc, #56]	; (4003f4 <audio_init+0x7c>)
  4003ba:	f04f 2040 	mov.w	r0, #1073758208	; 0x40004000
  4003be:	61e2      	str	r2, [r4, #28]
  4003c0:	4798      	blx	r3
  4003c2:	2302      	movs	r3, #2
  4003c4:	61e3      	str	r3, [r4, #28]
  4003c6:	bd10      	pop	{r4, pc}
  4003c8:	00401a85 	.word	0x00401a85
  4003cc:	00408658 	.word	0x00408658
  4003d0:	004058b5 	.word	0x004058b5
  4003d4:	004004bd 	.word	0x004004bd
  4003d8:	004003f9 	.word	0x004003f9
  4003dc:	0040026d 	.word	0x0040026d
  4003e0:	00402ee1 	.word	0x00402ee1
  4003e4:	00402f15 	.word	0x00402f15
  4003e8:	00402f49 	.word	0x00402f49
  4003ec:	00401f15 	.word	0x00401f15
  4003f0:	40078000 	.word	0x40078000
  4003f4:	00401f25 	.word	0x00401f25

004003f8 <configure_ssc>:
#include "WM8904_Driver.h"


/********************************** Public Functions Start **********************************/
void configure_ssc(void)
{
  4003f8:	e92d 41f0 	stmdb	sp!, {r4, r5, r6, r7, r8, lr}
	clock_opt_t tx_clk_option, rx_clk_option;
	data_frame_opt_t tx_data_frame_option, rx_data_frame_option;

	/* Initialize clock */
	pmc_enable_periph_clk(ID_SSC);
  4003fc:	4b28      	ldr	r3, [pc, #160]	; (4004a0 <configure_ssc+0xa8>)
{
  4003fe:	b09c      	sub	sp, #112	; 0x70
	pmc_enable_periph_clk(ID_SSC);
  400400:	2016      	movs	r0, #22
	/* Reset SSC */
	ssc_reset(SSC);

	/* Transmitter clock mode configuration. */
	tx_clk_option.ul_cks = SSC_TCMR_CKS_TK;
	tx_clk_option.ul_cko = SSC_TCMR_CKO_NONE;
  400402:	2400      	movs	r4, #0
	pmc_enable_periph_clk(ID_SSC);
  400404:	4798      	blx	r3
	ssc_reset(SSC);
  400406:	f04f 2040 	mov.w	r0, #1073758208	; 0x40004000
  40040a:	4b26      	ldr	r3, [pc, #152]	; (4004a4 <configure_ssc+0xac>)
	tx_clk_option.ul_cki = 0;
	tx_clk_option.ul_ckg = SSC_TCMR_CKG_CONTINUOUS;
	tx_clk_option.ul_start_sel = SSC_TCMR_START_TF_EDGE;
	tx_clk_option.ul_sttdly = 1;
	tx_clk_option.ul_period = BITS_BY_SLOT - 1;
  40040c:	250f      	movs	r5, #15
	ssc_reset(SSC);
  40040e:	4798      	blx	r3
	tx_clk_option.ul_sttdly = 1;
  400410:	2601      	movs	r6, #1
	tx_clk_option.ul_start_sel = SSC_TCMR_START_TF_EDGE;
  400412:	f44f 68e0 	mov.w	r8, #1792	; 0x700
	tx_clk_option.ul_cks = SSC_TCMR_CKS_TK;
  400416:	f04f 0e02 	mov.w	lr, #2
	/* Transmitter frame mode configuration. */
	tx_data_frame_option.ul_datlen = BITS_BY_SLOT - 1;
	tx_data_frame_option.ul_msbf = SSC_TFMR_MSBF;
  40041a:	2780      	movs	r7, #128	; 0x80
	tx_data_frame_option.ul_fslen = BITS_BY_SLOT - 1;
	tx_data_frame_option.ul_fslen_ext = 0;
	tx_data_frame_option.ul_fsos = SSC_TFMR_FSOS_NONE;
	tx_data_frame_option.ul_fsedge = SSC_TFMR_FSEDGE_POSITIVE;
	/* Configure the SSC transmitter to I2S mode. */
	ssc_set_transmitter(SSC, &tx_clk_option, &tx_data_frame_option);
  40041c:	aa0e      	add	r2, sp, #56	; 0x38
  40041e:	4669      	mov	r1, sp
  400420:	f04f 2040 	mov.w	r0, #1073758208	; 0x40004000
  400424:	4b20      	ldr	r3, [pc, #128]	; (4004a8 <configure_ssc+0xb0>)
	tx_clk_option.ul_cks = SSC_TCMR_CKS_TK;
  400426:	f8cd e000 	str.w	lr, [sp]
	tx_clk_option.ul_cko = SSC_TCMR_CKO_NONE;
  40042a:	9401      	str	r4, [sp, #4]
	tx_clk_option.ul_cki = 0;
  40042c:	9402      	str	r4, [sp, #8]
	tx_clk_option.ul_ckg = SSC_TCMR_CKG_CONTINUOUS;
  40042e:	9403      	str	r4, [sp, #12]
	tx_data_frame_option.ul_datnb = 0;
  400430:	9410      	str	r4, [sp, #64]	; 0x40
	tx_data_frame_option.ul_fslen_ext = 0;
  400432:	9412      	str	r4, [sp, #72]	; 0x48
	tx_data_frame_option.ul_fsos = SSC_TFMR_FSOS_NONE;
  400434:	9413      	str	r4, [sp, #76]	; 0x4c
	tx_data_frame_option.ul_fsedge = SSC_TFMR_FSEDGE_POSITIVE;
  400436:	9414      	str	r4, [sp, #80]	; 0x50
	tx_clk_option.ul_start_sel = SSC_TCMR_START_TF_EDGE;
  400438:	f8cd 8018 	str.w	r8, [sp, #24]
	tx_clk_option.ul_sttdly = 1;
  40043c:	9605      	str	r6, [sp, #20]
	tx_clk_option.ul_period = BITS_BY_SLOT - 1;
  40043e:	9504      	str	r5, [sp, #16]
	tx_data_frame_option.ul_datlen = BITS_BY_SLOT - 1;
  400440:	950e      	str	r5, [sp, #56]	; 0x38
	tx_data_frame_option.ul_fslen = BITS_BY_SLOT - 1;
  400442:	9511      	str	r5, [sp, #68]	; 0x44
	tx_data_frame_option.ul_msbf = SSC_TFMR_MSBF;
  400444:	970f      	str	r7, [sp, #60]	; 0x3c
	ssc_set_transmitter(SSC, &tx_clk_option, &tx_data_frame_option);
  400446:	4798      	blx	r3

	/* Receiver clock mode configuration. */
	rx_clk_option.ul_cks = SSC_RCMR_CKS_TK;
	rx_clk_option.ul_cko = SSC_RCMR_CKO_NONE;
	rx_clk_option.ul_cki = SSC_RCMR_CKI;
  400448:	f04f 0c20 	mov.w	ip, #32
	rx_clk_option.ul_ckg = SSC_RCMR_CKG_CONTINUOUS;
	rx_clk_option.ul_start_sel = SSC_RCMR_START_RF_EDGE;
	rx_clk_option.ul_sttdly = 1;	
	rx_clk_option.ul_period = BITS_BY_SLOT;	
  40044c:	f04f 0e10 	mov.w	lr, #16
	rx_data_frame_option.ul_fslen = BITS_BY_SLOT - 1;	
	rx_data_frame_option.ul_fslen_ext = 0;
	rx_data_frame_option.ul_fsos = SSC_TFMR_FSOS_NONE;
	rx_data_frame_option.ul_fsedge = SSC_TFMR_FSEDGE_POSITIVE;
	/* Configure the SSC transmitter to I2S mode. */
	ssc_set_receiver(SSC, &rx_clk_option, &rx_data_frame_option);
  400450:	aa15      	add	r2, sp, #84	; 0x54
  400452:	a907      	add	r1, sp, #28
  400454:	f04f 2040 	mov.w	r0, #1073758208	; 0x40004000
  400458:	4b14      	ldr	r3, [pc, #80]	; (4004ac <configure_ssc+0xb4>)
	rx_clk_option.ul_cki = SSC_RCMR_CKI;
  40045a:	f8cd c024 	str.w	ip, [sp, #36]	; 0x24
	rx_clk_option.ul_period = BITS_BY_SLOT;	
  40045e:	f8cd e02c 	str.w	lr, [sp, #44]	; 0x2c
	rx_clk_option.ul_start_sel = SSC_RCMR_START_RF_EDGE;
  400462:	f8cd 8034 	str.w	r8, [sp, #52]	; 0x34
	rx_clk_option.ul_cks = SSC_RCMR_CKS_TK;
  400466:	9607      	str	r6, [sp, #28]
	rx_clk_option.ul_cko = SSC_RCMR_CKO_NONE;
  400468:	9408      	str	r4, [sp, #32]
	rx_clk_option.ul_ckg = SSC_RCMR_CKG_CONTINUOUS;
  40046a:	940a      	str	r4, [sp, #40]	; 0x28
	rx_clk_option.ul_sttdly = 1;	
  40046c:	960c      	str	r6, [sp, #48]	; 0x30
	rx_data_frame_option.ul_datlen = BITS_BY_SLOT - 1;
  40046e:	9515      	str	r5, [sp, #84]	; 0x54
	rx_data_frame_option.ul_msbf = SSC_RFMR_MSBF;
  400470:	9716      	str	r7, [sp, #88]	; 0x58
	rx_data_frame_option.ul_datnb = 0;
  400472:	9417      	str	r4, [sp, #92]	; 0x5c
	rx_data_frame_option.ul_fslen = BITS_BY_SLOT - 1;	
  400474:	9518      	str	r5, [sp, #96]	; 0x60
	rx_data_frame_option.ul_fslen_ext = 0;
  400476:	9419      	str	r4, [sp, #100]	; 0x64
	rx_data_frame_option.ul_fsos = SSC_TFMR_FSOS_NONE;
  400478:	941a      	str	r4, [sp, #104]	; 0x68
	rx_data_frame_option.ul_fsedge = SSC_TFMR_FSEDGE_POSITIVE;
  40047a:	941b      	str	r4, [sp, #108]	; 0x6c
	ssc_set_receiver(SSC, &rx_clk_option, &rx_data_frame_option);
  40047c:	4798      	blx	r3

	/* Disable transmitter first */
	ssc_disable_tx(SSC);
  40047e:	f04f 2040 	mov.w	r0, #1073758208	; 0x40004000
  400482:	4b0b      	ldr	r3, [pc, #44]	; (4004b0 <configure_ssc+0xb8>)
  400484:	4798      	blx	r3
	ssc_disable_rx(SSC);
  400486:	f04f 2040 	mov.w	r0, #1073758208	; 0x40004000
  40048a:	4b0a      	ldr	r3, [pc, #40]	; (4004b4 <configure_ssc+0xbc>)
  40048c:	4798      	blx	r3

	/* Disable All Interrupt */
	ssc_disable_interrupt(SSC, 0xFFFFFFFF);
  40048e:	f04f 31ff 	mov.w	r1, #4294967295
  400492:	f04f 2040 	mov.w	r0, #1073758208	; 0x40004000
  400496:	4b08      	ldr	r3, [pc, #32]	; (4004b8 <configure_ssc+0xc0>)
  400498:	4798      	blx	r3
}
  40049a:	b01c      	add	sp, #112	; 0x70
  40049c:	e8bd 81f0 	ldmia.w	sp!, {r4, r5, r6, r7, r8, pc}
  4004a0:	00402e99 	.word	0x00402e99
  4004a4:	00401f01 	.word	0x00401f01
  4004a8:	00401fa9 	.word	0x00401fa9
  4004ac:	00401f35 	.word	0x00401f35
  4004b0:	00401f2d 	.word	0x00401f2d
  4004b4:	00401f1d 	.word	0x00401f1d
  4004b8:	0040201d 	.word	0x0040201d

004004bc <configure_codec>:


void configure_codec(void)
{
  4004bc:	b570      	push	{r4, r5, r6, lr}
	uint16_t data = 0;
	/* check that WM8904 is present */
	wm8904_write_register(WM8904_SW_RESET_AND_ID, 0xFFFF);
  4004be:	f64f 71ff 	movw	r1, #65535	; 0xffff
  4004c2:	2000      	movs	r0, #0
  4004c4:	4c40      	ldr	r4, [pc, #256]	; (4005c8 <configure_codec+0x10c>)
  4004c6:	47a0      	blx	r4
	data = wm8904_read_register(WM8904_SW_RESET_AND_ID);
  4004c8:	4b40      	ldr	r3, [pc, #256]	; (4005cc <configure_codec+0x110>)
  4004ca:	2000      	movs	r0, #0
  4004cc:	4798      	blx	r3
	if(data != 0x8904) {
  4004ce:	f648 1304 	movw	r3, #35076	; 0x8904
  4004d2:	4298      	cmp	r0, r3
  4004d4:	d003      	beq.n	4004de <configure_codec+0x22>
		printf("WM8904 not found!\n\r");
  4004d6:	483e      	ldr	r0, [pc, #248]	; (4005d0 <configure_codec+0x114>)
  4004d8:	4b3e      	ldr	r3, [pc, #248]	; (4005d4 <configure_codec+0x118>)
  4004da:	4798      	blx	r3
  4004dc:	e7fe      	b.n	4004dc <configure_codec+0x20>
		while(1);
	}

	wm8904_write_register(WM8904_BIAS_CONTROL_0, WM8904_ISEL_HP_BIAS);	
  4004de:	2108      	movs	r1, #8
  4004e0:	2004      	movs	r0, #4
  4004e2:	47a0      	blx	r4
	wm8904_write_register(WM8904_VMID_CONTROL_0, WM8904_VMID_BUF_ENA |	
  4004e4:	2147      	movs	r1, #71	; 0x47
  4004e6:	2005      	movs	r0, #5
	WM8904_VMID_RES_FAST | WM8904_VMID_ENA);
	delay_ms(5);
  4004e8:	4d3b      	ldr	r5, [pc, #236]	; (4005d8 <configure_codec+0x11c>)
	wm8904_write_register(WM8904_VMID_CONTROL_0, WM8904_VMID_BUF_ENA |	
  4004ea:	47a0      	blx	r4
	delay_ms(5);
  4004ec:	483b      	ldr	r0, [pc, #236]	; (4005dc <configure_codec+0x120>)
  4004ee:	47a8      	blx	r5
	wm8904_write_register(WM8904_VMID_CONTROL_0, WM8904_VMID_BUF_ENA |
  4004f0:	2143      	movs	r1, #67	; 0x43
  4004f2:	2005      	movs	r0, #5
  4004f4:	47a0      	blx	r4
	WM8904_VMID_RES_NORMAL | WM8904_VMID_ENA);
	wm8904_write_register(WM8904_BIAS_CONTROL_0, WM8904_ISEL_HP_BIAS | WM8904_BIAS_ENA);
  4004f6:	2109      	movs	r1, #9
  4004f8:	2004      	movs	r0, #4
  4004fa:	47a0      	blx	r4
	wm8904_write_register(WM8904_POWER_MANAGEMENT_0, WM8904_INL_ENA | WM8904_INR_ENA);
  4004fc:	2103      	movs	r1, #3
  4004fe:	200c      	movs	r0, #12
  400500:	47a0      	blx	r4
	wm8904_write_register(WM8904_POWER_MANAGEMENT_2, WM8904_HPL_PGA_ENA | WM8904_HPR_PGA_ENA);
  400502:	2103      	movs	r1, #3
  400504:	200e      	movs	r0, #14
  400506:	47a0      	blx	r4
	wm8904_write_register(WM8904_DAC_DIGITAL_1, WM8904_DEEMPH(0));
  400508:	2100      	movs	r1, #0
  40050a:	2021      	movs	r0, #33	; 0x21
  40050c:	47a0      	blx	r4
	wm8904_write_register(WM8904_ANALOGUE_OUT12_ZC, 0x0000);
  40050e:	2100      	movs	r1, #0
  400510:	203d      	movs	r0, #61	; 0x3d
  400512:	47a0      	blx	r4
	wm8904_write_register(WM8904_CHARGE_PUMP_0, WM8904_CP_ENA);
  400514:	2101      	movs	r1, #1
  400516:	2062      	movs	r0, #98	; 0x62
  400518:	47a0      	blx	r4
	wm8904_write_register(WM8904_CLASS_W_0, WM8904_CP_DYN_PWR);
  40051a:	2101      	movs	r1, #1
  40051c:	2068      	movs	r0, #104	; 0x68
  40051e:	47a0      	blx	r4
	wm8904_write_register(WM8904_FLL_CONTROL_1, 0x0000);
  400520:	2100      	movs	r1, #0
  400522:	2074      	movs	r0, #116	; 0x74
  400524:	47a0      	blx	r4
	wm8904_write_register(WM8904_FLL_CONTROL_2, WM8904_FLL_OUTDIV(7)| WM8904_FLL_FRATIO(4));
  400526:	f240 7104 	movw	r1, #1796	; 0x704
  40052a:	2075      	movs	r0, #117	; 0x75
  40052c:	47a0      	blx	r4
	wm8904_write_register(WM8904_FLL_CONTROL_3, WM8904_FLL_K(0x8000));
  40052e:	f44f 4100 	mov.w	r1, #32768	; 0x8000
  400532:	2076      	movs	r0, #118	; 0x76
  400534:	47a0      	blx	r4
	wm8904_write_register(WM8904_FLL_CONTROL_4, WM8904_FLL_N(0xBB));
  400536:	f44f 51bb 	mov.w	r1, #5984	; 0x1760
  40053a:	2077      	movs	r0, #119	; 0x77
  40053c:	47a0      	blx	r4
	wm8904_write_register(WM8904_FLL_CONTROL_1, WM8904_FLL_FRACN_ENA | WM8904_FLL_ENA);
  40053e:	2105      	movs	r1, #5
  400540:	2074      	movs	r0, #116	; 0x74
  400542:	47a0      	blx	r4
	delay_ms(5);
  400544:	4825      	ldr	r0, [pc, #148]	; (4005dc <configure_codec+0x120>)
  400546:	47a8      	blx	r5
	wm8904_write_register(WM8904_CLOCK_RATES_1, WM8904_CLK_SYS_RATE(3) | WM8904_SAMPLE_RATE(SAMPLE_RATE));
  400548:	f640 4105 	movw	r1, #3077	; 0xc05
  40054c:	2015      	movs	r0, #21
  40054e:	47a0      	blx	r4
	wm8904_write_register(WM8904_CLOCK_RATES_0, 0x0000);
  400550:	2100      	movs	r1, #0
  400552:	2014      	movs	r0, #20
  400554:	47a0      	blx	r4
	wm8904_write_register(WM8904_CLOCK_RATES_2,
  400556:	f244 0106 	movw	r1, #16390	; 0x4006
  40055a:	2016      	movs	r0, #22
  40055c:	47a0      	blx	r4
	WM8904_SYSCLK_SRC | WM8904_CLK_SYS_ENA | WM8904_CLK_DSP_ENA);
	wm8904_write_register(WM8904_AUDIO_INTERFACE_1, WM8904_BCLK_DIR | WM8904_AIF_FMT_I2S); 
  40055e:	2142      	movs	r1, #66	; 0x42
  400560:	2019      	movs	r0, #25
  400562:	47a0      	blx	r4
	wm8904_write_register(WM8904_AUDIO_INTERFACE_2, WM8904_BCLK_DIV(8));
  400564:	2108      	movs	r1, #8
  400566:	201a      	movs	r0, #26
  400568:	47a0      	blx	r4
	wm8904_write_register(WM8904_AUDIO_INTERFACE_3, WM8904_LRCLK_DIR | WM8904_LRCLK_RATE(0x20));
  40056a:	f44f 6102 	mov.w	r1, #2080	; 0x820
  40056e:	201b      	movs	r0, #27
  400570:	47a0      	blx	r4
	wm8904_write_register(WM8904_POWER_MANAGEMENT_6,
  400572:	210f      	movs	r1, #15
  400574:	2012      	movs	r0, #18
  400576:	47a0      	blx	r4
	WM8904_DACL_ENA | WM8904_DACR_ENA |
	WM8904_ADCL_ENA | WM8904_ADCR_ENA);
	delay_ms(5);
  400578:	4818      	ldr	r0, [pc, #96]	; (4005dc <configure_codec+0x120>)
  40057a:	47a8      	blx	r5
	wm8904_write_register(WM8904_ANALOGUE_LEFT_INPUT_0, WM8904_LIN_VOL(0x10));
  40057c:	2110      	movs	r1, #16
  40057e:	202c      	movs	r0, #44	; 0x2c
  400580:	47a0      	blx	r4
	wm8904_write_register(WM8904_ANALOGUE_RIGHT_INPUT_0, WM8904_RIN_VOL(0x10));
  400582:	2110      	movs	r1, #16
  400584:	202d      	movs	r0, #45	; 0x2d
  400586:	47a0      	blx	r4
	wm8904_write_register(WM8904_ANALOGUE_HP_0,
  400588:	2111      	movs	r1, #17
  40058a:	205a      	movs	r0, #90	; 0x5a
  40058c:	47a0      	blx	r4
	WM8904_HPL_ENA | WM8904_HPR_ENA);
	wm8904_write_register(WM8904_ANALOGUE_HP_0,
  40058e:	2133      	movs	r1, #51	; 0x33
  400590:	205a      	movs	r0, #90	; 0x5a
  400592:	47a0      	blx	r4
	WM8904_HPL_ENA_DLY | WM8904_HPL_ENA |
	WM8904_HPR_ENA_DLY | WM8904_HPR_ENA);
	wm8904_write_register(WM8904_DC_SERVO_0,
  400594:	210f      	movs	r1, #15
  400596:	2043      	movs	r0, #67	; 0x43
  400598:	47a0      	blx	r4
	WM8904_DCS_ENA_CHAN_3 | WM8904_DCS_ENA_CHAN_2 |
	WM8904_DCS_ENA_CHAN_1 | WM8904_DCS_ENA_CHAN_0);
	wm8904_write_register(WM8904_DC_SERVO_1,
  40059a:	21f0      	movs	r1, #240	; 0xf0
  40059c:	2044      	movs	r0, #68	; 0x44
  40059e:	47a0      	blx	r4
	WM8904_DCS_TRIG_STARTUP_3 | WM8904_DCS_TRIG_STARTUP_2 |
	WM8904_DCS_TRIG_STARTUP_1 | WM8904_DCS_TRIG_STARTUP_0);
	delay_ms(100);
  4005a0:	480f      	ldr	r0, [pc, #60]	; (4005e0 <configure_codec+0x124>)
  4005a2:	47a8      	blx	r5
	wm8904_write_register(WM8904_ANALOGUE_HP_0,
  4005a4:	2177      	movs	r1, #119	; 0x77
  4005a6:	205a      	movs	r0, #90	; 0x5a
  4005a8:	47a0      	blx	r4
	WM8904_HPL_ENA_OUTP | WM8904_HPL_ENA_DLY | WM8904_HPL_ENA |
	WM8904_HPR_ENA_OUTP | WM8904_HPR_ENA_DLY | WM8904_HPR_ENA);
	wm8904_write_register(WM8904_ANALOGUE_HP_0,
  4005aa:	21ff      	movs	r1, #255	; 0xff
  4005ac:	205a      	movs	r0, #90	; 0x5a
  4005ae:	47a0      	blx	r4
	WM8904_HPL_RMV_SHORT | WM8904_HPL_ENA_OUTP | WM8904_HPL_ENA_DLY | WM8904_HPL_ENA |
	WM8904_HPR_RMV_SHORT | WM8904_HPR_ENA_OUTP | WM8904_HPR_ENA_DLY | WM8904_HPR_ENA);
	wm8904_write_register(WM8904_ANALOGUE_OUT1_LEFT, WM8904_HPOUT_VU | WM8904_HPOUTL_VOL(0x39));
  4005b0:	21b9      	movs	r1, #185	; 0xb9
  4005b2:	2039      	movs	r0, #57	; 0x39
  4005b4:	47a0      	blx	r4
	wm8904_write_register(WM8904_ANALOGUE_OUT1_RIGHT, WM8904_HPOUT_VU | WM8904_HPOUTR_VOL(0x39));
  4005b6:	203a      	movs	r0, #58	; 0x3a
  4005b8:	21b9      	movs	r1, #185	; 0xb9
  4005ba:	47a0      	blx	r4
	delay_ms(100);
  4005bc:	462b      	mov	r3, r5
  4005be:	4808      	ldr	r0, [pc, #32]	; (4005e0 <configure_codec+0x124>)
}
  4005c0:	e8bd 4070 	ldmia.w	sp!, {r4, r5, r6, lr}
	delay_ms(100);
  4005c4:	4718      	bx	r3
  4005c6:	bf00      	nop
  4005c8:	00401a0d 	.word	0x00401a0d
  4005cc:	00401a49 	.word	0x00401a49
  4005d0:	0040867c 	.word	0x0040867c
  4005d4:	004058b5 	.word	0x004058b5
  4005d8:	20400001 	.word	0x20400001
  4005dc:	0003dbc2 	.word	0x0003dbc2
  4005e0:	004d2b25 	.word	0x004d2b25

004005e4 <computeWaveletPitch>:
	float si, si1;
	float power; 
	//arm_power_f32(samples, WIN_SIZE>>2, &power); 
	//if (power < POWER_THRESHOLD) return pitchF; 
	
	arm_copy_f32(samples, sam, WIN_SIZE); 
  4005e4:	f44f 7200 	mov.w	r2, #512	; 0x200
  4005e8:	4995      	ldr	r1, [pc, #596]	; (400840 <computeWaveletPitch+0x25c>)
  4005ea:	4b96      	ldr	r3, [pc, #600]	; (400844 <computeWaveletPitch+0x260>)
	
	return pitchF;
}

float computeWaveletPitch(float * samples)
{
  4005ec:	e92d 4ff0 	stmdb	sp!, {r4, r5, r6, r7, r8, r9, sl, fp, lr}
	int32_t curSamNb = WIN_SIZE;
  4005f0:	4692      	mov	sl, r2
	int32_t curLevel = 0;
  4005f2:	2400      	movs	r4, #0
		memset(distances, 0, WIN_SIZE*sizeof(int32_t));
  4005f4:	f8df b268 	ldr.w	fp, [pc, #616]	; 400860 <computeWaveletPitch+0x27c>
{
  4005f8:	ed2d 8b04 	vpush	{d8-d9}
  4005fc:	b087      	sub	sp, #28
	float curModeDistance = -1.0f;
  4005fe:	eeff 9a00 	vmov.f32	s19, #240	; 0xbf800000 -1.0
	arm_copy_f32(samples, sam, WIN_SIZE); 
  400602:	4798      	blx	r3
		arm_max_f32(sam, WIN_SIZE, &maxValue, &temp_idx); 
  400604:	4651      	mov	r1, sl
  400606:	ab03      	add	r3, sp, #12
  400608:	aa04      	add	r2, sp, #16
  40060a:	488d      	ldr	r0, [pc, #564]	; (400840 <computeWaveletPitch+0x25c>)
	int32_t curLevel = 0;
  40060c:	9400      	str	r4, [sp, #0]
		arm_max_f32(sam, WIN_SIZE, &maxValue, &temp_idx); 
  40060e:	4c8e      	ldr	r4, [pc, #568]	; (400848 <computeWaveletPitch+0x264>)
  400610:	47a0      	blx	r4
		arm_min_f32(sam, WIN_SIZE, &minValue, &temp_idx); 
  400612:	ab03      	add	r3, sp, #12
  400614:	aa05      	add	r2, sp, #20
  400616:	4651      	mov	r1, sl
  400618:	4889      	ldr	r0, [pc, #548]	; (400840 <computeWaveletPitch+0x25c>)
  40061a:	4c8c      	ldr	r4, [pc, #560]	; (40084c <computeWaveletPitch+0x268>)
  40061c:	47a0      	blx	r4
		float amplitudeMax = (maxValue > -minValue ? maxValue : -minValue);
  40061e:	ed9d 9a05 	vldr	s18, [sp, #20]
		ampltitudeThreshold = amplitudeMax*maximaThresholdRatio;		
  400622:	eef6 7a08 	vmov.f32	s15, #104	; 0x3f400000  0.750
		float amplitudeMax = (maxValue > -minValue ? maxValue : -minValue);
  400626:	ed9d 7a04 	vldr	s14, [sp, #16]
  40062a:	eeb1 9a49 	vneg.f32	s18, s18
	int32_t res = 1, j;
  40062e:	2301      	movs	r3, #1
		delta = DYW_SAMPLING_RATE/(_2power(curLevel)*maxF);
  400630:	eddf 8a87 	vldr	s17, [pc, #540]	; 400850 <computeWaveletPitch+0x26c>
		if (curSamNb < 2) return pitchF;
  400634:	ed9f 8a87 	vldr	s16, [pc, #540]	; 400854 <computeWaveletPitch+0x270>
		float amplitudeMax = (maxValue > -minValue ? maxValue : -minValue);
  400638:	fe89 9a07 	vmaxnm.f32	s18, s18, s14
		ampltitudeThreshold = amplitudeMax*maximaThresholdRatio;		
  40063c:	ee29 9a27 	vmul.f32	s18, s18, s15
		delta = DYW_SAMPLING_RATE/(_2power(curLevel)*maxF);
  400640:	ee07 3a90 	vmov	s15, r3
		if (curSamNb < 2) return pitchF;
  400644:	f1ba 0f01 	cmp.w	sl, #1
		delta = DYW_SAMPLING_RATE/(_2power(curLevel)*maxF);
  400648:	eef8 7ae7 	vcvt.f32.s32	s15, s15
  40064c:	ee88 7aa7 	vdiv.f32	s14, s17, s15
  400650:	eefd 7ac7 	vcvt.s32.f32	s15, s14
  400654:	ee17 4a90 	vmov	r4, s15
		if (curSamNb < 2) return pitchF;
  400658:	f340 827d 	ble.w	400b56 <computeWaveletPitch+0x572>
  40065c:	f1ba 0f03 	cmp.w	sl, #3
  400660:	f340 826b 	ble.w	400b3a <computeWaveletPitch+0x556>
  400664:	f1aa 0e04 	sub.w	lr, sl, #4
  400668:	4b75      	ldr	r3, [pc, #468]	; (400840 <computeWaveletPitch+0x25c>)
  40066a:	2000      	movs	r0, #0
  40066c:	f8df 81f4 	ldr.w	r8, [pc, #500]	; 400864 <computeWaveletPitch+0x280>
  400670:	f02e 0e01 	bic.w	lr, lr, #1
  400674:	4619      	mov	r1, r3
  400676:	9301      	str	r3, [sp, #4]
  400678:	4602      	mov	r2, r0
  40067a:	edd3 7a00 	vldr	s15, [r3]
  40067e:	f10e 0e03 	add.w	lr, lr, #3
  400682:	4606      	mov	r6, r0
  400684:	4605      	mov	r5, r0
  400686:	46c4      	mov	ip, r8
  400688:	eeb0 7a48 	vmov.f32	s14, s16
  40068c:	2301      	movs	r3, #1
  40068e:	e050      	b.n	400732 <computeWaveletPitch+0x14e>
						if (i -1 > lastmaxIndex + delta) 
  400690:	2201      	movs	r2, #1
			si = sam[i]; // - theDC;
  400692:	edd1 7a02 	vldr	s15, [r1, #8]
			if (si1 <= 0 && si > 0) {findMax = 1; findMin = 0; }
  400696:	eef5 7a40 	vcmp.f32	s15, #0.0
  40069a:	eef1 fa10 	vmrs	APSR_nzcv, fpscr
  40069e:	dd06      	ble.n	4006ae <computeWaveletPitch+0xca>
  4006a0:	eef5 6ac0 	vcmpe.f32	s13, #0.0
  4006a4:	eef1 fa10 	vmrs	APSR_nzcv, fpscr
  4006a8:	d801      	bhi.n	4006ae <computeWaveletPitch+0xca>
  4006aa:	2000      	movs	r0, #0
  4006ac:	2201      	movs	r2, #1
			if (si1 >= 0 && si < 0) {findMin = 1; findMax = 0; }
  4006ae:	eef5 7a40 	vcmp.f32	s15, #0.0
  4006b2:	eef1 fa10 	vmrs	APSR_nzcv, fpscr
  4006b6:	d506      	bpl.n	4006c6 <computeWaveletPitch+0xe2>
  4006b8:	eef5 6ac0 	vcmpe.f32	s13, #0.0
  4006bc:	eef1 fa10 	vmrs	APSR_nzcv, fpscr
  4006c0:	db01      	blt.n	4006c6 <computeWaveletPitch+0xe2>
  4006c2:	2001      	movs	r0, #1
  4006c4:	2200      	movs	r2, #0
			if (previousDV > -1000.0f) 
  4006c6:	eeb4 6ac8 	vcmpe.f32	s12, s16
			dv = si - si1;
  4006ca:	ee37 7ae6 	vsub.f32	s14, s15, s13
			if (previousDV > -1000.0f) 
  4006ce:	eef1 fa10 	vmrs	APSR_nzcv, fpscr
  4006d2:	dd2a      	ble.n	40072a <computeWaveletPitch+0x146>
				if (findMin && previousDV < 0.0f && dv >= 0.0f) 
  4006d4:	eeb5 6ac0 	vcmpe.f32	s12, #0.0
  4006d8:	f000 0701 	and.w	r7, r0, #1
  4006dc:	eef1 fa10 	vmrs	APSR_nzcv, fpscr
  4006e0:	bf58      	it	pl
  4006e2:	2700      	movpl	r7, #0
  4006e4:	b1af      	cbz	r7, 400712 <computeWaveletPitch+0x12e>
  4006e6:	eeb5 7ac0 	vcmpe.f32	s14, #0.0
  4006ea:	eef1 fa10 	vmrs	APSR_nzcv, fpscr
  4006ee:	db10      	blt.n	400712 <computeWaveletPitch+0x12e>
					if (Abs(si1) >= ampltitudeThreshold) 
  4006f0:	eef0 5ae6 	vabs.f32	s11, s13
  4006f4:	eeb4 9ae5 	vcmpe.f32	s18, s11
  4006f8:	eef1 fa10 	vmrs	APSR_nzcv, fpscr
  4006fc:	d809      	bhi.n	400712 <computeWaveletPitch+0x12e>
						if (i - 1 > lastMinIndex + delta)
  4006fe:	eb04 070c 	add.w	r7, r4, ip
  400702:	429f      	cmp	r7, r3
  400704:	da05      	bge.n	400712 <computeWaveletPitch+0x12e>
							mins[nbMins++] = i - 1;
  400706:	4854      	ldr	r0, [pc, #336]	; (400858 <computeWaveletPitch+0x274>)
  400708:	469c      	mov	ip, r3
  40070a:	f840 3025 	str.w	r3, [r0, r5, lsl #2]
  40070e:	3501      	adds	r5, #1
							findMin = 0;
  400710:	2000      	movs	r0, #0
				if (findMax && previousDV > 0.0f && dv <= 0.0f) 
  400712:	eeb5 6a40 	vcmp.f32	s12, #0.0
  400716:	eef1 fa10 	vmrs	APSR_nzcv, fpscr
  40071a:	dd06      	ble.n	40072a <computeWaveletPitch+0x146>
  40071c:	b12a      	cbz	r2, 40072a <computeWaveletPitch+0x146>
  40071e:	eeb5 7ac0 	vcmpe.f32	s14, #0.0
  400722:	eef1 fa10 	vmrs	APSR_nzcv, fpscr
  400726:	d96b      	bls.n	400800 <computeWaveletPitch+0x21c>
						if (i -1 > lastmaxIndex + delta) 
  400728:	2201      	movs	r2, #1
  40072a:	3302      	adds	r3, #2
  40072c:	3108      	adds	r1, #8
  40072e:	4573      	cmp	r3, lr
  400730:	d07b      	beq.n	40082a <computeWaveletPitch+0x246>
			if (si1 <= 0 && si > 0) {findMax = 1; findMin = 0; }
  400732:	eef5 7a40 	vcmp.f32	s15, #0.0
			si = sam[i]; // - theDC;
  400736:	edd1 6a01 	vldr	s13, [r1, #4]
  40073a:	1e5f      	subs	r7, r3, #1
			if (si1 <= 0 && si > 0) {findMax = 1; findMin = 0; }
  40073c:	eef1 fa10 	vmrs	APSR_nzcv, fpscr
  400740:	d806      	bhi.n	400750 <computeWaveletPitch+0x16c>
  400742:	eef5 6ac0 	vcmpe.f32	s13, #0.0
  400746:	eef1 fa10 	vmrs	APSR_nzcv, fpscr
  40074a:	dd01      	ble.n	400750 <computeWaveletPitch+0x16c>
  40074c:	2000      	movs	r0, #0
  40074e:	2201      	movs	r2, #1
			if (si1 >= 0 && si < 0) {findMin = 1; findMax = 0; }
  400750:	eef5 7a40 	vcmp.f32	s15, #0.0
  400754:	eef1 fa10 	vmrs	APSR_nzcv, fpscr
  400758:	db06      	blt.n	400768 <computeWaveletPitch+0x184>
  40075a:	eef5 6ac0 	vcmpe.f32	s13, #0.0
  40075e:	eef1 fa10 	vmrs	APSR_nzcv, fpscr
  400762:	d501      	bpl.n	400768 <computeWaveletPitch+0x184>
  400764:	2001      	movs	r0, #1
  400766:	2200      	movs	r2, #0
			if (previousDV > -1000.0f) 
  400768:	eeb4 7ac8 	vcmpe.f32	s14, s16
			dv = si - si1;
  40076c:	ee36 6ae7 	vsub.f32	s12, s13, s15
			if (previousDV > -1000.0f) 
  400770:	eef1 fa10 	vmrs	APSR_nzcv, fpscr
  400774:	dd8d      	ble.n	400692 <computeWaveletPitch+0xae>
				if (findMin && previousDV < 0.0f && dv >= 0.0f) 
  400776:	eeb5 7ac0 	vcmpe.f32	s14, #0.0
  40077a:	f000 0901 	and.w	r9, r0, #1
  40077e:	eef1 fa10 	vmrs	APSR_nzcv, fpscr
  400782:	bf58      	it	pl
  400784:	f04f 0900 	movpl.w	r9, #0
  400788:	f1b9 0f00 	cmp.w	r9, #0
  40078c:	d015      	beq.n	4007ba <computeWaveletPitch+0x1d6>
  40078e:	eeb5 6a40 	vcmp.f32	s12, #0.0
  400792:	eef1 fa10 	vmrs	APSR_nzcv, fpscr
  400796:	db10      	blt.n	4007ba <computeWaveletPitch+0x1d6>
					if (Abs(si1) >= ampltitudeThreshold) 
  400798:	eef0 5ae7 	vabs.f32	s11, s15
  40079c:	eeb4 9ae5 	vcmpe.f32	s18, s11
  4007a0:	eef1 fa10 	vmrs	APSR_nzcv, fpscr
  4007a4:	d809      	bhi.n	4007ba <computeWaveletPitch+0x1d6>
						if (i - 1 > lastMinIndex + delta)
  4007a6:	eb04 090c 	add.w	r9, r4, ip
  4007aa:	45b9      	cmp	r9, r7
  4007ac:	da05      	bge.n	4007ba <computeWaveletPitch+0x1d6>
							mins[nbMins++] = i - 1;
  4007ae:	482a      	ldr	r0, [pc, #168]	; (400858 <computeWaveletPitch+0x274>)
  4007b0:	46bc      	mov	ip, r7
  4007b2:	f840 7025 	str.w	r7, [r0, r5, lsl #2]
  4007b6:	3501      	adds	r5, #1
							findMin = 0;
  4007b8:	2000      	movs	r0, #0
				if (findMax && previousDV > 0.0f && dv <= 0.0f) 
  4007ba:	eeb5 7a40 	vcmp.f32	s14, #0.0
  4007be:	eef1 fa10 	vmrs	APSR_nzcv, fpscr
  4007c2:	f77f af66 	ble.w	400692 <computeWaveletPitch+0xae>
  4007c6:	2a00      	cmp	r2, #0
  4007c8:	f43f af63 	beq.w	400692 <computeWaveletPitch+0xae>
  4007cc:	eeb5 6ac0 	vcmpe.f32	s12, #0.0
  4007d0:	eef1 fa10 	vmrs	APSR_nzcv, fpscr
  4007d4:	f63f af5c 	bhi.w	400690 <computeWaveletPitch+0xac>
					if (Abs(si1) >= ampltitudeThreshold) 
  4007d8:	eef0 7ae7 	vabs.f32	s15, s15
  4007dc:	eeb4 9ae7 	vcmpe.f32	s18, s15
  4007e0:	eef1 fa10 	vmrs	APSR_nzcv, fpscr
  4007e4:	f63f af54 	bhi.w	400690 <computeWaveletPitch+0xac>
						if (i -1 > lastmaxIndex + delta) 
  4007e8:	eb04 0208 	add.w	r2, r4, r8
  4007ec:	42ba      	cmp	r2, r7
  4007ee:	f6bf af4f 	bge.w	400690 <computeWaveletPitch+0xac>
							maxs[nbMaxs++] = i - 1;
  4007f2:	4a1a      	ldr	r2, [pc, #104]	; (40085c <computeWaveletPitch+0x278>)
  4007f4:	46b8      	mov	r8, r7
  4007f6:	f842 7026 	str.w	r7, [r2, r6, lsl #2]
  4007fa:	3601      	adds	r6, #1
							findMax = 0;
  4007fc:	2200      	movs	r2, #0
  4007fe:	e748      	b.n	400692 <computeWaveletPitch+0xae>
					if (Abs(si1) >= ampltitudeThreshold) 
  400800:	eef0 6ae6 	vabs.f32	s13, s13
  400804:	eeb4 9ae6 	vcmpe.f32	s18, s13
  400808:	eef1 fa10 	vmrs	APSR_nzcv, fpscr
  40080c:	d88c      	bhi.n	400728 <computeWaveletPitch+0x144>
						if (i -1 > lastmaxIndex + delta) 
  40080e:	eb04 0208 	add.w	r2, r4, r8
  400812:	429a      	cmp	r2, r3
  400814:	da88      	bge.n	400728 <computeWaveletPitch+0x144>
							maxs[nbMaxs++] = i - 1;
  400816:	4a11      	ldr	r2, [pc, #68]	; (40085c <computeWaveletPitch+0x278>)
  400818:	4698      	mov	r8, r3
  40081a:	3108      	adds	r1, #8
  40081c:	f842 3026 	str.w	r3, [r2, r6, lsl #2]
  400820:	3302      	adds	r3, #2
  400822:	3601      	adds	r6, #1
							findMax = 0;
  400824:	2200      	movs	r2, #0
  400826:	4573      	cmp	r3, lr
  400828:	d183      	bne.n	400732 <computeWaveletPitch+0x14e>
  40082a:	9f01      	ldr	r7, [sp, #4]
  40082c:	f06f 4140 	mvn.w	r1, #3221225472	; 0xc0000000
							mins[nbMins++] = i - 1;
  400830:	f8df 9024 	ldr.w	r9, [pc, #36]	; 400858 <computeWaveletPitch+0x274>
  400834:	46a6      	mov	lr, r4
  400836:	4419      	add	r1, r3
  400838:	eb07 0181 	add.w	r1, r7, r1, lsl #2
  40083c:	e01a      	b.n	400874 <computeWaveletPitch+0x290>
  40083e:	bf00      	nop
  400840:	20402600 	.word	0x20402600
  400844:	004054d5 	.word	0x004054d5
  400848:	00405605 	.word	0x00405605
  40084c:	00405529 	.word	0x00405529
  400850:	41784444 	.word	0x41784444
  400854:	c47a0000 	.word	0xc47a0000
  400858:	20401e00 	.word	0x20401e00
  40085c:	20401600 	.word	0x20401600
  400860:	20400e00 	.word	0x20400e00
  400864:	fff0bdc0 	.word	0xfff0bdc0
						if (i -1 > lastmaxIndex + delta) 
  400868:	2201      	movs	r2, #1
		for (i = 1; i < curSamNb; i++) 
  40086a:	3301      	adds	r3, #1
			dv = si - si1;
  40086c:	eeb0 7a67 	vmov.f32	s14, s15
		for (i = 1; i < curSamNb; i++) 
  400870:	459a      	cmp	sl, r3
  400872:	dd65      	ble.n	400940 <computeWaveletPitch+0x35c>
			si = sam[i]; // - theDC;
  400874:	edd1 7a01 	vldr	s15, [r1, #4]
  400878:	1e5f      	subs	r7, r3, #1
			si1 = sam[i-1]; // - theDC;
  40087a:	ecf1 6a01 	vldmia	r1!, {s13}
			if (si1 <= 0 && si > 0) {findMax = 1; findMin = 0; }
  40087e:	eef5 7a40 	vcmp.f32	s15, #0.0
  400882:	eef1 fa10 	vmrs	APSR_nzcv, fpscr
  400886:	dd06      	ble.n	400896 <computeWaveletPitch+0x2b2>
  400888:	eef5 6ac0 	vcmpe.f32	s13, #0.0
  40088c:	eef1 fa10 	vmrs	APSR_nzcv, fpscr
  400890:	d801      	bhi.n	400896 <computeWaveletPitch+0x2b2>
  400892:	2000      	movs	r0, #0
  400894:	2201      	movs	r2, #1
			if (si1 >= 0 && si < 0) {findMin = 1; findMax = 0; }
  400896:	eef5 7a40 	vcmp.f32	s15, #0.0
  40089a:	eef1 fa10 	vmrs	APSR_nzcv, fpscr
  40089e:	d506      	bpl.n	4008ae <computeWaveletPitch+0x2ca>
  4008a0:	eef5 6ac0 	vcmpe.f32	s13, #0.0
  4008a4:	eef1 fa10 	vmrs	APSR_nzcv, fpscr
  4008a8:	db01      	blt.n	4008ae <computeWaveletPitch+0x2ca>
  4008aa:	2001      	movs	r0, #1
  4008ac:	2200      	movs	r2, #0
			if (previousDV > -1000.0f) 
  4008ae:	eeb4 7ac8 	vcmpe.f32	s14, s16
			dv = si - si1;
  4008b2:	ee77 7ae6 	vsub.f32	s15, s15, s13
			if (previousDV > -1000.0f) 
  4008b6:	eef1 fa10 	vmrs	APSR_nzcv, fpscr
  4008ba:	ddd6      	ble.n	40086a <computeWaveletPitch+0x286>
				if (findMin && previousDV < 0.0f && dv >= 0.0f) 
  4008bc:	eeb5 7ac0 	vcmpe.f32	s14, #0.0
  4008c0:	f000 0401 	and.w	r4, r0, #1
  4008c4:	eef1 fa10 	vmrs	APSR_nzcv, fpscr
  4008c8:	bf58      	it	pl
  4008ca:	2400      	movpl	r4, #0
  4008cc:	b1a4      	cbz	r4, 4008f8 <computeWaveletPitch+0x314>
  4008ce:	eef5 7a40 	vcmp.f32	s15, #0.0
  4008d2:	eef1 fa10 	vmrs	APSR_nzcv, fpscr
  4008d6:	db0f      	blt.n	4008f8 <computeWaveletPitch+0x314>
					if (Abs(si1) >= ampltitudeThreshold) 
  4008d8:	eeb0 6ae6 	vabs.f32	s12, s13
  4008dc:	eeb4 9ac6 	vcmpe.f32	s18, s12
  4008e0:	eef1 fa10 	vmrs	APSR_nzcv, fpscr
  4008e4:	d808      	bhi.n	4008f8 <computeWaveletPitch+0x314>
						if (i - 1 > lastMinIndex + delta)
  4008e6:	eb0e 040c 	add.w	r4, lr, ip
  4008ea:	42bc      	cmp	r4, r7
  4008ec:	da04      	bge.n	4008f8 <computeWaveletPitch+0x314>
							mins[nbMins++] = i - 1;
  4008ee:	f849 7025 	str.w	r7, [r9, r5, lsl #2]
  4008f2:	46bc      	mov	ip, r7
  4008f4:	3501      	adds	r5, #1
							findMin = 0;
  4008f6:	2000      	movs	r0, #0
				if (findMax && previousDV > 0.0f && dv <= 0.0f) 
  4008f8:	eeb5 7a40 	vcmp.f32	s14, #0.0
  4008fc:	eef1 fa10 	vmrs	APSR_nzcv, fpscr
  400900:	ddb3      	ble.n	40086a <computeWaveletPitch+0x286>
  400902:	2a00      	cmp	r2, #0
  400904:	d0b1      	beq.n	40086a <computeWaveletPitch+0x286>
  400906:	eef5 7ac0 	vcmpe.f32	s15, #0.0
  40090a:	eef1 fa10 	vmrs	APSR_nzcv, fpscr
  40090e:	d8ab      	bhi.n	400868 <computeWaveletPitch+0x284>
					if (Abs(si1) >= ampltitudeThreshold) 
  400910:	eef0 6ae6 	vabs.f32	s13, s13
  400914:	eeb4 9ae6 	vcmpe.f32	s18, s13
  400918:	eef1 fa10 	vmrs	APSR_nzcv, fpscr
  40091c:	d8a4      	bhi.n	400868 <computeWaveletPitch+0x284>
						if (i -1 > lastmaxIndex + delta) 
  40091e:	eb0e 0208 	add.w	r2, lr, r8
  400922:	42ba      	cmp	r2, r7
  400924:	daa0      	bge.n	400868 <computeWaveletPitch+0x284>
		for (i = 1; i < curSamNb; i++) 
  400926:	3301      	adds	r3, #1
							maxs[nbMaxs++] = i - 1;
  400928:	4aac      	ldr	r2, [pc, #688]	; (400bdc <computeWaveletPitch+0x5f8>)
  40092a:	46b8      	mov	r8, r7
			dv = si - si1;
  40092c:	eeb0 7a67 	vmov.f32	s14, s15
		for (i = 1; i < curSamNb; i++) 
  400930:	459a      	cmp	sl, r3
							maxs[nbMaxs++] = i - 1;
  400932:	f842 7026 	str.w	r7, [r2, r6, lsl #2]
  400936:	f106 0601 	add.w	r6, r6, #1
							findMax = 0;
  40093a:	f04f 0200 	mov.w	r2, #0
		for (i = 1; i < curSamNb; i++) 
  40093e:	dc99      	bgt.n	400874 <computeWaveletPitch+0x290>
  400940:	4674      	mov	r4, lr
		if (nbMins == 0 && nbMaxs == 0) 
  400942:	b915      	cbnz	r5, 40094a <computeWaveletPitch+0x366>
  400944:	2e00      	cmp	r6, #0
  400946:	f000 8106 	beq.w	400b56 <computeWaveletPitch+0x572>
		memset(distances, 0, WIN_SIZE*sizeof(int32_t));
  40094a:	f44f 6200 	mov.w	r2, #2048	; 0x800
  40094e:	2100      	movs	r1, #0
  400950:	4658      	mov	r0, fp
  400952:	4ba3      	ldr	r3, [pc, #652]	; (400be0 <computeWaveletPitch+0x5fc>)
  400954:	4798      	blx	r3
		for (i = 0 ; i < nbMins ; i++) 
  400956:	b34d      	cbz	r5, 4009ac <computeWaveletPitch+0x3c8>
  400958:	f8df e298 	ldr.w	lr, [pc, #664]	; 400bf4 <computeWaveletPitch+0x610>
  40095c:	2202      	movs	r2, #2
  40095e:	2700      	movs	r7, #0
  400960:	4671      	mov	r1, lr
  400962:	e012      	b.n	40098a <computeWaveletPitch+0x3a6>
					d = Abs(mins[i] - mins[i+j]);
  400964:	f8d1 c000 	ldr.w	ip, [r1]
  400968:	684b      	ldr	r3, [r1, #4]
  40096a:	ebac 0303 	sub.w	r3, ip, r3
  40096e:	2b00      	cmp	r3, #0
  400970:	bfb8      	it	lt
  400972:	425b      	neglt	r3, r3
				if (i+j < nbMins) 
  400974:	42aa      	cmp	r2, r5
					distances[d]++; 
  400976:	f85b 0023 	ldr.w	r0, [fp, r3, lsl #2]
  40097a:	f100 0001 	add.w	r0, r0, #1
  40097e:	f84b 0023 	str.w	r0, [fp, r3, lsl #2]
				if (i+j < nbMins) 
  400982:	f2c0 80cc 	blt.w	400b1e <computeWaveletPitch+0x53a>
  400986:	3104      	adds	r1, #4
  400988:	3201      	adds	r2, #1
  40098a:	3701      	adds	r7, #1
  40098c:	42af      	cmp	r7, r5
  40098e:	dbe9      	blt.n	400964 <computeWaveletPitch+0x380>
  400990:	42aa      	cmp	r2, r5
  400992:	da0b      	bge.n	4009ac <computeWaveletPitch+0x3c8>
					d = Abs(mins[i] - mins[i+j]);
  400994:	f85e 2022 	ldr.w	r2, [lr, r2, lsl #2]
  400998:	680b      	ldr	r3, [r1, #0]
  40099a:	1a9b      	subs	r3, r3, r2
  40099c:	2b00      	cmp	r3, #0
  40099e:	bfb8      	it	lt
  4009a0:	425b      	neglt	r3, r3
					distances[d]++; 
  4009a2:	f85b 2023 	ldr.w	r2, [fp, r3, lsl #2]
  4009a6:	3201      	adds	r2, #1
  4009a8:	f84b 2023 	str.w	r2, [fp, r3, lsl #2]
		for (i = 0 ; i < nbMaxs ; i++) 
  4009ac:	b346      	cbz	r6, 400a00 <computeWaveletPitch+0x41c>
  4009ae:	4d8b      	ldr	r5, [pc, #556]	; (400bdc <computeWaveletPitch+0x5f8>)
  4009b0:	2202      	movs	r2, #2
  4009b2:	2700      	movs	r7, #0
  4009b4:	4629      	mov	r1, r5
  4009b6:	e012      	b.n	4009de <computeWaveletPitch+0x3fa>
					d = Abs(maxs[i] - maxs[i+j]);
  4009b8:	f8d1 e000 	ldr.w	lr, [r1]
  4009bc:	684b      	ldr	r3, [r1, #4]
  4009be:	ebae 0303 	sub.w	r3, lr, r3
  4009c2:	2b00      	cmp	r3, #0
  4009c4:	bfb8      	it	lt
  4009c6:	425b      	neglt	r3, r3
				if (i+j < nbMaxs) 
  4009c8:	42b2      	cmp	r2, r6
					distances[d]++; 
  4009ca:	f85b 0023 	ldr.w	r0, [fp, r3, lsl #2]
  4009ce:	f100 0001 	add.w	r0, r0, #1
  4009d2:	f84b 0023 	str.w	r0, [fp, r3, lsl #2]
				if (i+j < nbMaxs) 
  4009d6:	f2c0 8193 	blt.w	400d00 <computeWaveletPitch+0x71c>
  4009da:	3104      	adds	r1, #4
  4009dc:	3201      	adds	r2, #1
  4009de:	3701      	adds	r7, #1
  4009e0:	42b7      	cmp	r7, r6
  4009e2:	dbe9      	blt.n	4009b8 <computeWaveletPitch+0x3d4>
  4009e4:	42b2      	cmp	r2, r6
  4009e6:	da0b      	bge.n	400a00 <computeWaveletPitch+0x41c>
					d = Abs(maxs[i] - maxs[i+j]);
  4009e8:	f855 2022 	ldr.w	r2, [r5, r2, lsl #2]
  4009ec:	680b      	ldr	r3, [r1, #0]
  4009ee:	1a9b      	subs	r3, r3, r2
  4009f0:	2b00      	cmp	r3, #0
  4009f2:	bfb8      	it	lt
  4009f4:	425b      	neglt	r3, r3
					distances[d]++; 
  4009f6:	f85b 2023 	ldr.w	r2, [fp, r3, lsl #2]
  4009fa:	3201      	adds	r2, #1
  4009fc:	f84b 2023 	str.w	r2, [fp, r3, lsl #2]
		for (i = 0 ; i < nbMaxs ; i++) 
  400a00:	f04f 36ff 	mov.w	r6, #4294967295
  400a04:	f1c4 0e00 	rsb	lr, r4, #0
  400a08:	2500      	movs	r5, #0
  400a0a:	f104 0c01 	add.w	ip, r4, #1
  400a0e:	4637      	mov	r7, r6
			for (j = -delta ; j <= delta ; j++) 
  400a10:	4574      	cmp	r4, lr
  400a12:	f2c0 8082 	blt.w	400b1a <computeWaveletPitch+0x536>
  400a16:	1b2b      	subs	r3, r5, r4
  400a18:	eb0c 0205 	add.w	r2, ip, r5
  400a1c:	2100      	movs	r1, #0
				if (i+j >=0 && i+j < curSamNb)
  400a1e:	4553      	cmp	r3, sl
  400a20:	da04      	bge.n	400a2c <computeWaveletPitch+0x448>
  400a22:	2b00      	cmp	r3, #0
  400a24:	db02      	blt.n	400a2c <computeWaveletPitch+0x448>
					summed += distances[i+j];
  400a26:	f85b 0023 	ldr.w	r0, [fp, r3, lsl #2]
  400a2a:	4401      	add	r1, r0
  400a2c:	3301      	adds	r3, #1
			for (j = -delta ; j <= delta ; j++) 
  400a2e:	4293      	cmp	r3, r2
  400a30:	d1f5      	bne.n	400a1e <computeWaveletPitch+0x43a>
			if (summed == bestValue) 
  400a32:	42b9      	cmp	r1, r7
  400a34:	d06c      	beq.n	400b10 <computeWaveletPitch+0x52c>
			else if (summed > bestValue) 
  400a36:	dd01      	ble.n	400a3c <computeWaveletPitch+0x458>
  400a38:	460f      	mov	r7, r1
  400a3a:	462e      	mov	r6, r5
		for (i = 0; i< curSamNb; i++) 
  400a3c:	3501      	adds	r5, #1
  400a3e:	4555      	cmp	r5, sl
  400a40:	d1e6      	bne.n	400a10 <computeWaveletPitch+0x42c>
		for (j = -delta ; j <= delta ; j++) 
  400a42:	4574      	cmp	r4, lr
  400a44:	f2c0 80aa 	blt.w	400b9c <computeWaveletPitch+0x5b8>
  400a48:	ed9f 7a66 	vldr	s14, [pc, #408]	; 400be4 <computeWaveletPitch+0x600>
  400a4c:	1c62      	adds	r2, r4, #1
  400a4e:	1b33      	subs	r3, r6, r4
  400a50:	eef0 6a47 	vmov.f32	s13, s14
  400a54:	4416      	add	r6, r2
			if (bestDistance+j >=0 && bestDistance+j < WIN_SIZE) 
  400a56:	f5b3 7f00 	cmp.w	r3, #512	; 0x200
  400a5a:	d211      	bcs.n	400a80 <computeWaveletPitch+0x49c>
				int32_t nbDist = distances[bestDistance+j];
  400a5c:	f85b 2023 	ldr.w	r2, [fp, r3, lsl #2]
					distAvg += (bestDistance+j)*nbDist;
  400a60:	fb02 f103 	mul.w	r1, r2, r3
					nbDists += nbDist;
  400a64:	ee06 2a10 	vmov	s12, r2
				if (nbDist > 0) {
  400a68:	2a00      	cmp	r2, #0
					distAvg += (bestDistance+j)*nbDist;
  400a6a:	ee07 1a90 	vmov	s15, r1
					nbDists += nbDist;
  400a6e:	eeb8 6ac6 	vcvt.f32.s32	s12, s12
					distAvg += (bestDistance+j)*nbDist;
  400a72:	eef8 7ae7 	vcvt.f32.s32	s15, s15
				if (nbDist > 0) {
  400a76:	dd03      	ble.n	400a80 <computeWaveletPitch+0x49c>
					nbDists += nbDist;
  400a78:	ee76 6a86 	vadd.f32	s13, s13, s12
					distAvg += (bestDistance+j)*nbDist;
  400a7c:	ee37 7a27 	vadd.f32	s14, s14, s15
  400a80:	3301      	adds	r3, #1
		for (j = -delta ; j <= delta ; j++) 
  400a82:	42b3      	cmp	r3, r6
  400a84:	d1e7      	bne.n	400a56 <computeWaveletPitch+0x472>
  400a86:	ee87 6a26 	vdiv.f32	s12, s14, s13
				pitchF = DYW_SAMPLING_RATE/(_2power(curLevel-1)*curModeDistance);
  400a8a:	9b00      	ldr	r3, [sp, #0]
		if (curModeDistance > -1.0f) 
  400a8c:	eeff 7a00 	vmov.f32	s15, #240	; 0xbf800000 -1.0
  400a90:	eef4 9ae7 	vcmpe.f32	s19, s15
  400a94:	eef1 fa10 	vmrs	APSR_nzcv, fpscr
  400a98:	dd12      	ble.n	400ac0 <computeWaveletPitch+0x4dc>
			float similarity = Abs(distAvg*2 - curModeDistance);
  400a9a:	eeb0 7a00 	vmov.f32	s14, #0	; 0x40000000  2.0
			if (similarity <= 2*delta) 
  400a9e:	0064      	lsls	r4, r4, #1
			float similarity = Abs(distAvg*2 - curModeDistance);
  400aa0:	eef0 6a69 	vmov.f32	s13, s19
			if (similarity <= 2*delta) 
  400aa4:	ee07 4a90 	vmov	s15, r4
			float similarity = Abs(distAvg*2 - curModeDistance);
  400aa8:	eed6 6a07 	vfnms.f32	s13, s12, s14
			if (similarity <= 2*delta) 
  400aac:	eef8 7ae7 	vcvt.f32.s32	s15, s15
			float similarity = Abs(distAvg*2 - curModeDistance);
  400ab0:	eeb0 7ae6 	vabs.f32	s14, s13
			if (similarity <= 2*delta) 
  400ab4:	eeb4 7ae7 	vcmpe.f32	s14, s15
  400ab8:	eef1 fa10 	vmrs	APSR_nzcv, fpscr
  400abc:	f240 80a0 	bls.w	400c00 <computeWaveletPitch+0x61c>
		curLevel = curLevel + 1;
  400ac0:	3301      	adds	r3, #1
		if (curLevel >= maxFLWTlevels) 
  400ac2:	2b06      	cmp	r3, #6
		curLevel = curLevel + 1;
  400ac4:	9300      	str	r3, [sp, #0]
		if (curLevel >= maxFLWTlevels) 
  400ac6:	d046      	beq.n	400b56 <computeWaveletPitch+0x572>
  400ac8:	9b01      	ldr	r3, [sp, #4]
		for (i = 0; i < curSamNb/2; i++)
  400aca:	ea4f 0a6a 	mov.w	sl, sl, asr #1
  400ace:	4a46      	ldr	r2, [pc, #280]	; (400be8 <computeWaveletPitch+0x604>)
			sam[i] = (sam[2*i] + sam[2*i + 1]) * 0.5f;
  400ad0:	eef6 6a00 	vmov.f32	s13, #96	; 0x3f000000  0.5
  400ad4:	eb03 01ca 	add.w	r1, r3, sl, lsl #3
		for (i = 0; i < curSamNb/2; i++)
  400ad8:	4613      	mov	r3, r2
			sam[i] = (sam[2*i] + sam[2*i + 1]) * 0.5f;
  400ada:	ed93 7a00 	vldr	s14, [r3]
  400ade:	3308      	adds	r3, #8
  400ae0:	ed53 7a01 	vldr	s15, [r3, #-4]
		for (i = 0; i < curSamNb/2; i++)
  400ae4:	428b      	cmp	r3, r1
			sam[i] = (sam[2*i] + sam[2*i + 1]) * 0.5f;
  400ae6:	ee77 7a27 	vadd.f32	s15, s14, s15
  400aea:	ee67 7aa6 	vmul.f32	s15, s15, s13
  400aee:	ece2 7a01 	vstmia	r2!, {s15}
		for (i = 0; i < curSamNb/2; i++)
  400af2:	d1f2      	bne.n	400ada <computeWaveletPitch+0x4f6>
	for (j = 0; j < i; j++) res <<= 1;
  400af4:	9b00      	ldr	r3, [sp, #0]
  400af6:	2b01      	cmp	r3, #1
  400af8:	d057      	beq.n	400baa <computeWaveletPitch+0x5c6>
  400afa:	2b02      	cmp	r3, #2
  400afc:	d053      	beq.n	400ba6 <computeWaveletPitch+0x5c2>
  400afe:	2b03      	cmp	r3, #3
  400b00:	d04f      	beq.n	400ba2 <computeWaveletPitch+0x5be>
  400b02:	2b05      	cmp	r3, #5
  400b04:	bf0c      	ite	eq
  400b06:	2320      	moveq	r3, #32
  400b08:	2310      	movne	r3, #16
		curModeDistance = distAvg;
  400b0a:	eef0 9a46 	vmov.f32	s19, s12
  400b0e:	e597      	b.n	400640 <computeWaveletPitch+0x5c>
				if (i == 2*bestDistance)
  400b10:	ebb5 0f46 	cmp.w	r5, r6, lsl #1
  400b14:	bf08      	it	eq
  400b16:	462e      	moveq	r6, r5
  400b18:	e790      	b.n	400a3c <computeWaveletPitch+0x458>
			int32_t summed = 0;
  400b1a:	2100      	movs	r1, #0
  400b1c:	e789      	b.n	400a32 <computeWaveletPitch+0x44e>
					d = Abs(mins[i] - mins[i+j]);
  400b1e:	f85e 3022 	ldr.w	r3, [lr, r2, lsl #2]
  400b22:	ebac 0303 	sub.w	r3, ip, r3
  400b26:	ea83 70e3 	eor.w	r0, r3, r3, asr #31
  400b2a:	eba0 70e3 	sub.w	r0, r0, r3, asr #31
					distances[d]++; 
  400b2e:	f85b 3020 	ldr.w	r3, [fp, r0, lsl #2]
  400b32:	3301      	adds	r3, #1
  400b34:	f84b 3020 	str.w	r3, [fp, r0, lsl #2]
  400b38:	e725      	b.n	400986 <computeWaveletPitch+0x3a2>
		if (curSamNb < 2) return pitchF;
  400b3a:	2000      	movs	r0, #0
  400b3c:	492a      	ldr	r1, [pc, #168]	; (400be8 <computeWaveletPitch+0x604>)
  400b3e:	f8df 80b8 	ldr.w	r8, [pc, #184]	; 400bf8 <computeWaveletPitch+0x614>
  400b42:	eeb0 7a48 	vmov.f32	s14, s16
  400b46:	2301      	movs	r3, #1
  400b48:	4602      	mov	r2, r0
  400b4a:	4606      	mov	r6, r0
  400b4c:	4605      	mov	r5, r0
  400b4e:	46c4      	mov	ip, r8
  400b50:	9101      	str	r1, [sp, #4]
  400b52:	460f      	mov	r7, r1
  400b54:	e66a      	b.n	40082c <computeWaveletPitch+0x248>
		if (pitchtracker._prevPitch > -1.0f) 
  400b56:	4a25      	ldr	r2, [pc, #148]	; (400bec <computeWaveletPitch+0x608>)
  400b58:	eebf 7a00 	vmov.f32	s14, #240	; 0xbf800000 -1.0
  400b5c:	edd2 7a00 	vldr	s15, [r2]
  400b60:	eef4 7ac7 	vcmpe.f32	s15, s14
  400b64:	eef1 fa10 	vmrs	APSR_nzcv, fpscr
  400b68:	dd21      	ble.n	400bae <computeWaveletPitch+0x5ca>
			if (pitchtracker._pitchConfidence >= 1) 
  400b6a:	6853      	ldr	r3, [r2, #4]
  400b6c:	2b00      	cmp	r3, #0
  400b6e:	dd27      	ble.n	400bc0 <computeWaveletPitch+0x5dc>
				pitchtracker._pitchConfidence = Max(0, pitchtracker._pitchConfidence - 1);
  400b70:	3b01      	subs	r3, #1
  400b72:	6053      	str	r3, [r2, #4]
	if (pitchtracker._pitchConfidence >= 1) 
  400b74:	2b00      	cmp	r3, #0
  400b76:	dd1a      	ble.n	400bae <computeWaveletPitch+0x5ca>
	if (pitch < -1.0f) pitch = 0.0f;
  400b78:	eeff 6a00 	vmov.f32	s13, #240	; 0xbf800000 -1.0
  400b7c:	ed9f 7a19 	vldr	s14, [pc, #100]	; 400be4 <computeWaveletPitch+0x600>
  400b80:	eef4 7a66 	vcmp.f32	s15, s13
  400b84:	eef1 fa10 	vmrs	APSR_nzcv, fpscr
  400b88:	bf48      	it	mi
  400b8a:	eef0 7a47 	vmovmi.f32	s15, s14
	return _dywapitch_dynamicprocess(get_raw_pitch(samples)); 
  400b8e:	ee17 0a90 	vmov	r0, s15
  400b92:	b007      	add	sp, #28
  400b94:	ecbd 8b04 	vpop	{d8-d9}
  400b98:	e8bd 8ff0 	ldmia.w	sp!, {r4, r5, r6, r7, r8, r9, sl, fp, pc}
		for (j = -delta ; j <= delta ; j++) 
  400b9c:	ed9f 6a14 	vldr	s12, [pc, #80]	; 400bf0 <computeWaveletPitch+0x60c>
  400ba0:	e773      	b.n	400a8a <computeWaveletPitch+0x4a6>
	for (j = 0; j < i; j++) res <<= 1;
  400ba2:	2308      	movs	r3, #8
  400ba4:	e7b1      	b.n	400b0a <computeWaveletPitch+0x526>
  400ba6:	2304      	movs	r3, #4
  400ba8:	e7af      	b.n	400b0a <computeWaveletPitch+0x526>
  400baa:	2302      	movs	r3, #2
  400bac:	e7ad      	b.n	400b0a <computeWaveletPitch+0x526>
	float estimatedPitch = -1.0f;
  400bae:	eeff 7a00 	vmov.f32	s15, #240	; 0xbf800000 -1.0
  400bb2:	ee17 0a90 	vmov	r0, s15
  400bb6:	b007      	add	sp, #28
  400bb8:	ecbd 8b04 	vpop	{d8-d9}
  400bbc:	e8bd 8ff0 	ldmia.w	sp!, {r4, r5, r6, r7, r8, r9, sl, fp, pc}
		pitch = -1.0f;
  400bc0:	eef0 7a47 	vmov.f32	s15, s14
				pitchtracker._pitchConfidence = 0;
  400bc4:	2300      	movs	r3, #0
				pitchtracker._prevPitch = -1.0f;
  400bc6:	ed82 7a00 	vstr	s14, [r2]
				pitchtracker._pitchConfidence = 0;
  400bca:	6053      	str	r3, [r2, #4]
  400bcc:	ee17 0a90 	vmov	r0, s15
  400bd0:	b007      	add	sp, #28
  400bd2:	ecbd 8b04 	vpop	{d8-d9}
  400bd6:	e8bd 8ff0 	ldmia.w	sp!, {r4, r5, r6, r7, r8, r9, sl, fp, pc}
  400bda:	bf00      	nop
  400bdc:	20401600 	.word	0x20401600
  400be0:	00405f81 	.word	0x00405f81
  400be4:	00000000 	.word	0x00000000
  400be8:	20402600 	.word	0x20402600
  400bec:	20400020 	.word	0x20400020
  400bf0:	7fc00000 	.word	0x7fc00000
  400bf4:	20401e00 	.word	0x20401e00
  400bf8:	fff0bdc0 	.word	0xfff0bdc0
  400bfc:	4735d600 	.word	0x4735d600
				pitchF = DYW_SAMPLING_RATE/(_2power(curLevel-1)*curModeDistance);
  400c00:	3b01      	subs	r3, #1
	for (j = 0; j < i; j++) res <<= 1;
  400c02:	2b00      	cmp	r3, #0
  400c04:	dd79      	ble.n	400cfa <computeWaveletPitch+0x716>
  400c06:	2b01      	cmp	r3, #1
  400c08:	f000 808a 	beq.w	400d20 <computeWaveletPitch+0x73c>
  400c0c:	2b02      	cmp	r3, #2
  400c0e:	f000 8085 	beq.w	400d1c <computeWaveletPitch+0x738>
  400c12:	2b04      	cmp	r3, #4
  400c14:	bf0c      	ite	eq
  400c16:	2310      	moveq	r3, #16
  400c18:	2308      	movne	r3, #8
  400c1a:	ee07 3a90 	vmov	s15, r3
  400c1e:	eef8 7ae7 	vcvt.f32.s32	s15, s15
				pitchF = DYW_SAMPLING_RATE/(_2power(curLevel-1)*curModeDistance);
  400c22:	ee69 9aa7 	vmul.f32	s19, s19, s15
  400c26:	ed5f 6a0b 	vldr	s13, [pc, #-44]	; 400bfc <computeWaveletPitch+0x618>
	if (pitch < 1.0f) pitch = -1.0f;
  400c2a:	eeb7 7a00 	vmov.f32	s14, #112	; 0x3f800000  1.0
				pitchF = DYW_SAMPLING_RATE/(_2power(curLevel-1)*curModeDistance);
  400c2e:	eec6 7aa9 	vdiv.f32	s15, s13, s19
	if (pitch < 1.0f) pitch = -1.0f;
  400c32:	eef4 7ac7 	vcmpe.f32	s15, s14
  400c36:	eef1 fa10 	vmrs	APSR_nzcv, fpscr
  400c3a:	d48c      	bmi.n	400b56 <computeWaveletPitch+0x572>
	if (pitch > -1.0) {
  400c3c:	eebf 7a00 	vmov.f32	s14, #240	; 0xbf800000 -1.0
  400c40:	eef4 7ac7 	vcmpe.f32	s15, s14
  400c44:	eef1 fa10 	vmrs	APSR_nzcv, fpscr
  400c48:	dd85      	ble.n	400b56 <computeWaveletPitch+0x572>
		if (pitchtracker._prevPitch < 0.0f) 
  400c4a:	4a36      	ldr	r2, [pc, #216]	; (400d24 <computeWaveletPitch+0x740>)
  400c4c:	edd2 6a00 	vldr	s13, [r2]
  400c50:	eef5 6ac0 	vcmpe.f32	s13, #0.0
  400c54:	eef1 fa10 	vmrs	APSR_nzcv, fpscr
  400c58:	d426      	bmi.n	400ca8 <computeWaveletPitch+0x6c4>
		else if (abs(pitchtracker._prevPitch - pitch)/pitch < acceptedError) 
  400c5a:	ee36 7ae7 	vsub.f32	s14, s13, s15
  400c5e:	ed9f 6a32 	vldr	s12, [pc, #200]	; 400d28 <computeWaveletPitch+0x744>
  400c62:	eebd 7ac7 	vcvt.s32.f32	s14, s14
  400c66:	ee17 3a10 	vmov	r3, s14
  400c6a:	2b00      	cmp	r3, #0
  400c6c:	bfb8      	it	lt
  400c6e:	425b      	neglt	r3, r3
  400c70:	ee07 3a10 	vmov	s14, r3
			pitchtracker._pitchConfidence = Min(maxConfidence, pitchtracker._pitchConfidence + 1); // maximum 3
  400c74:	6853      	ldr	r3, [r2, #4]
		else if (abs(pitchtracker._prevPitch - pitch)/pitch < acceptedError) 
  400c76:	eeb8 7ac7 	vcvt.f32.s32	s14, s14
  400c7a:	eec7 5a27 	vdiv.f32	s11, s14, s15
  400c7e:	eef4 5ac6 	vcmpe.f32	s11, s12
  400c82:	eef1 fa10 	vmrs	APSR_nzcv, fpscr
  400c86:	d507      	bpl.n	400c98 <computeWaveletPitch+0x6b4>
			pitchtracker._pitchConfidence = Min(maxConfidence, pitchtracker._pitchConfidence + 1); // maximum 3
  400c88:	2b04      	cmp	r3, #4
			pitchtracker._prevPitch = pitch;
  400c8a:	edc2 7a00 	vstr	s15, [r2]
			pitchtracker._pitchConfidence = Min(maxConfidence, pitchtracker._pitchConfidence + 1); // maximum 3
  400c8e:	bfd4      	ite	le
  400c90:	3301      	addle	r3, #1
  400c92:	2305      	movgt	r3, #5
				pitchtracker._pitchConfidence = max(0, pitchtracker._pitchConfidence - 1);
  400c94:	6053      	str	r3, [r2, #4]
  400c96:	e76d      	b.n	400b74 <computeWaveletPitch+0x590>
		else if ((pitchtracker._pitchConfidence >= maxConfidence-2) && Abs(pitchtracker._prevPitch - 2.0f*pitch)/(2.0f*pitch) < acceptedError) 
  400c98:	2b02      	cmp	r3, #2
  400c9a:	dc0a      	bgt.n	400cb2 <computeWaveletPitch+0x6ce>
			if (pitchtracker._pitchConfidence >= 1) 
  400c9c:	2b00      	cmp	r3, #0
  400c9e:	dd03      	ble.n	400ca8 <computeWaveletPitch+0x6c4>
				pitchtracker._pitchConfidence = max(0, pitchtracker._pitchConfidence - 1);
  400ca0:	3b01      	subs	r3, #1
				estimatedPitch = pitchtracker._prevPitch;
  400ca2:	eef0 7a66 	vmov.f32	s15, s13
  400ca6:	e7f5      	b.n	400c94 <computeWaveletPitch+0x6b0>
				pitchtracker._pitchConfidence = 1;
  400ca8:	2301      	movs	r3, #1
				pitchtracker._prevPitch = pitch;
  400caa:	edc2 7a00 	vstr	s15, [r2]
				pitchtracker._pitchConfidence = 1;
  400cae:	6053      	str	r3, [r2, #4]
  400cb0:	e762      	b.n	400b78 <computeWaveletPitch+0x594>
		else if ((pitchtracker._pitchConfidence >= maxConfidence-2) && Abs(pitchtracker._prevPitch - 2.0f*pitch)/(2.0f*pitch) < acceptedError) 
  400cb2:	ee37 7aa7 	vadd.f32	s14, s15, s15
  400cb6:	ee76 5ac7 	vsub.f32	s11, s13, s14
  400cba:	eef0 5ae5 	vabs.f32	s11, s11
  400cbe:	ee85 5a87 	vdiv.f32	s10, s11, s14
  400cc2:	eeb4 5ac6 	vcmpe.f32	s10, s12
  400cc6:	eef1 fa10 	vmrs	APSR_nzcv, fpscr
  400cca:	d504      	bpl.n	400cd6 <computeWaveletPitch+0x6f2>
			pitchtracker._prevPitch = estimatedPitch;
  400ccc:	ed82 7a00 	vstr	s14, [r2]
			estimatedPitch = 2.0f*pitch;
  400cd0:	eef0 7a47 	vmov.f32	s15, s14
  400cd4:	e750      	b.n	400b78 <computeWaveletPitch+0x594>
		else if ((pitchtracker._pitchConfidence >= maxConfidence-2) && Abs(pitchtracker._prevPitch - 0.5f*pitch)/(0.5f*pitch) < acceptedError) 
  400cd6:	eeb6 7a00 	vmov.f32	s14, #96	; 0x3f000000  0.5
  400cda:	ee67 7a87 	vmul.f32	s15, s15, s14
  400cde:	ee36 7ae7 	vsub.f32	s14, s13, s15
  400ce2:	eeb0 7ac7 	vabs.f32	s14, s14
  400ce6:	eec7 5a27 	vdiv.f32	s11, s14, s15
  400cea:	eef4 5ac6 	vcmpe.f32	s11, s12
  400cee:	eef1 fa10 	vmrs	APSR_nzcv, fpscr
  400cf2:	d5d5      	bpl.n	400ca0 <computeWaveletPitch+0x6bc>
			pitchtracker._prevPitch = estimatedPitch;
  400cf4:	edc2 7a00 	vstr	s15, [r2]
  400cf8:	e73e      	b.n	400b78 <computeWaveletPitch+0x594>
	for (j = 0; j < i; j++) res <<= 1;
  400cfa:	eef7 7a00 	vmov.f32	s15, #112	; 0x3f800000  1.0
  400cfe:	e790      	b.n	400c22 <computeWaveletPitch+0x63e>
					d = Abs(maxs[i] - maxs[i+j]);
  400d00:	f855 3022 	ldr.w	r3, [r5, r2, lsl #2]
  400d04:	ebae 0303 	sub.w	r3, lr, r3
  400d08:	ea83 70e3 	eor.w	r0, r3, r3, asr #31
  400d0c:	eba0 70e3 	sub.w	r0, r0, r3, asr #31
					distances[d]++; 
  400d10:	f85b 3020 	ldr.w	r3, [fp, r0, lsl #2]
  400d14:	3301      	adds	r3, #1
  400d16:	f84b 3020 	str.w	r3, [fp, r0, lsl #2]
  400d1a:	e65e      	b.n	4009da <computeWaveletPitch+0x3f6>
	for (j = 0; j < i; j++) res <<= 1;
  400d1c:	2304      	movs	r3, #4
  400d1e:	e77c      	b.n	400c1a <computeWaveletPitch+0x636>
  400d20:	2302      	movs	r3, #2
  400d22:	e77a      	b.n	400c1a <computeWaveletPitch+0x636>
  400d24:	20400020 	.word	0x20400020
  400d28:	3e4ccccd 	.word	0x3e4ccccd

00400d2c <gfx_set_clipping>:
static gfx_ext_draw_handler_t gfx_ext_draw_func;

/* This function is documented in gfx.h */
void gfx_set_clipping(gfx_coord_t min_x, gfx_coord_t min_y,
		gfx_coord_t max_x, gfx_coord_t max_y)
{
  400d2c:	b4f0      	push	{r4, r5, r6, r7}

	if (min_y < 0) {
		min_y = 0;
	}

	if (max_x >= gfx_width) {
  400d2e:	4c0e      	ldr	r4, [pc, #56]	; (400d68 <gfx_set_clipping+0x3c>)
  400d30:	ea20 70e0 	bic.w	r0, r0, r0, asr #31
  400d34:	ea21 71e1 	bic.w	r1, r1, r1, asr #31
  400d38:	f9b4 4000 	ldrsh.w	r4, [r4]
  400d3c:	4294      	cmp	r4, r2
  400d3e:	dc01      	bgt.n	400d44 <gfx_set_clipping+0x18>
		max_x = gfx_width - 1;
  400d40:	1e62      	subs	r2, r4, #1
  400d42:	b212      	sxth	r2, r2
	}

	if (max_y >= gfx_height) {
  400d44:	4c09      	ldr	r4, [pc, #36]	; (400d6c <gfx_set_clipping+0x40>)
  400d46:	f9b4 4000 	ldrsh.w	r4, [r4]
  400d4a:	429c      	cmp	r4, r3
  400d4c:	dc01      	bgt.n	400d52 <gfx_set_clipping+0x26>
		max_y = gfx_height - 1;
  400d4e:	3c01      	subs	r4, #1
  400d50:	b223      	sxth	r3, r4
	}

	gfx_min_x = min_x;
  400d52:	4f07      	ldr	r7, [pc, #28]	; (400d70 <gfx_set_clipping+0x44>)
	gfx_min_y = min_y;
  400d54:	4e07      	ldr	r6, [pc, #28]	; (400d74 <gfx_set_clipping+0x48>)
	gfx_max_x = max_x;
  400d56:	4d08      	ldr	r5, [pc, #32]	; (400d78 <gfx_set_clipping+0x4c>)
	gfx_max_y = max_y;
  400d58:	4c08      	ldr	r4, [pc, #32]	; (400d7c <gfx_set_clipping+0x50>)
	gfx_min_x = min_x;
  400d5a:	8038      	strh	r0, [r7, #0]
	gfx_min_y = min_y;
  400d5c:	8031      	strh	r1, [r6, #0]
	gfx_max_x = max_x;
  400d5e:	802a      	strh	r2, [r5, #0]
	gfx_max_y = max_y;
  400d60:	8023      	strh	r3, [r4, #0]
#endif
}
  400d62:	bcf0      	pop	{r4, r5, r6, r7}
  400d64:	4770      	bx	lr
  400d66:	bf00      	nop
  400d68:	2042c000 	.word	0x2042c000
  400d6c:	2042c00a 	.word	0x2042c00a
  400d70:	2042c002 	.word	0x2042c002
  400d74:	2042c006 	.word	0x2042c006
  400d78:	2042c004 	.word	0x2042c004
  400d7c:	2042c008 	.word	0x2042c008

00400d80 <gfx_generic_draw_filled_rect>:

/* This function is documented in gfx.h */
void gfx_generic_draw_filled_rect(gfx_coord_t x, gfx_coord_t y,
		gfx_coord_t width, gfx_coord_t height,
		gfx_color_t color)
{
  400d80:	e92d 47f0 	stmdb	sp!, {r4, r5, r6, r7, r8, r9, sl, lr}
  400d84:	f8bd 7020 	ldrh.w	r7, [sp, #32]
	gfx_coord_t x2;
	gfx_coord_t y2;

	if ((width == 0) || (height == 0)) {
  400d88:	2a00      	cmp	r2, #0
  400d8a:	d047      	beq.n	400e1c <gfx_generic_draw_filled_rect+0x9c>
  400d8c:	461d      	mov	r5, r3
  400d8e:	2b00      	cmp	r3, #0
  400d90:	d044      	beq.n	400e1c <gfx_generic_draw_filled_rect+0x9c>
		return;
	}

	/* Invert if width or height is negative. */
	if (width < 0) {
  400d92:	2a00      	cmp	r2, #0
  400d94:	4614      	mov	r4, r2
  400d96:	db4f      	blt.n	400e38 <gfx_generic_draw_filled_rect+0xb8>
		width = -width;
		x -= width - 1;
	}

	if (height < 0) {
  400d98:	2d00      	cmp	r5, #0
  400d9a:	db41      	blt.n	400e20 <gfx_generic_draw_filled_rect+0xa0>
		y -= height - 1;
	}

#ifdef CONF_GFX_USE_CLIPPING
	/* Nothing to do if entire rectangle is outside clipping region. */
	if ((x > gfx_max_x) || (y > gfx_max_y) ||
  400d9c:	4b32      	ldr	r3, [pc, #200]	; (400e68 <gfx_generic_draw_filled_rect+0xe8>)
  400d9e:	f9b3 6000 	ldrsh.w	r6, [r3]
  400da2:	4286      	cmp	r6, r0
  400da4:	db3a      	blt.n	400e1c <gfx_generic_draw_filled_rect+0x9c>
  400da6:	4b31      	ldr	r3, [pc, #196]	; (400e6c <gfx_generic_draw_filled_rect+0xec>)
  400da8:	f9b3 e000 	ldrsh.w	lr, [r3]
  400dac:	458e      	cmp	lr, r1
  400dae:	db35      	blt.n	400e1c <gfx_generic_draw_filled_rect+0x9c>
			((x + width) <= gfx_min_x) ||
  400db0:	4b2f      	ldr	r3, [pc, #188]	; (400e70 <gfx_generic_draw_filled_rect+0xf0>)
  400db2:	1902      	adds	r2, r0, r4
  400db4:	f9b3 3000 	ldrsh.w	r3, [r3]
	if ((x > gfx_max_x) || (y > gfx_max_y) ||
  400db8:	429a      	cmp	r2, r3
  400dba:	dd2f      	ble.n	400e1c <gfx_generic_draw_filled_rect+0x9c>
			((y + height) <= gfx_min_y)) {
  400dbc:	f8df c0bc 	ldr.w	ip, [pc, #188]	; 400e7c <gfx_generic_draw_filled_rect+0xfc>
  400dc0:	eb01 0a05 	add.w	sl, r1, r5
  400dc4:	f9bc 9000 	ldrsh.w	r9, [ip]
			((x + width) <= gfx_min_x) ||
  400dc8:	45ca      	cmp	sl, r9
  400dca:	dd27      	ble.n	400e1c <gfx_generic_draw_filled_rect+0x9c>
		return;
	}

	/* Clip if outside left X limit. */
	if (x < gfx_min_x) {
  400dcc:	4298      	cmp	r0, r3
  400dce:	db3d      	blt.n	400e4c <gfx_generic_draw_filled_rect+0xcc>
  400dd0:	fa1f fc80 	uxth.w	ip, r0
		width -= gfx_min_x - x;
		x = gfx_min_x;
	}

	/* Clip if outside top Y limit. */
	if (y < gfx_min_y) {
  400dd4:	4549      	cmp	r1, r9
  400dd6:	db40      	blt.n	400e5a <gfx_generic_draw_filled_rect+0xda>
  400dd8:	fa1f f881 	uxth.w	r8, r1
		y = gfx_min_y;
	}
#endif

	/*  Compute bottom right point. */
	x2 = x + width - 1;
  400ddc:	f10c 32ff 	add.w	r2, ip, #4294967295
	y2 = y + height - 1;
  400de0:	f108 33ff 	add.w	r3, r8, #4294967295
	x2 = x + width - 1;
  400de4:	4422      	add	r2, r4
	y2 = y + height - 1;
  400de6:	442b      	add	r3, r5
	x2 = x + width - 1;
  400de8:	b212      	sxth	r2, r2
	y2 = y + height - 1;
  400dea:	b21b      	sxth	r3, r3

#ifdef CONF_GFX_USE_CLIPPING
	/* Clip if outside right X limit. */
	if (x2 > gfx_max_x) {
  400dec:	4296      	cmp	r6, r2
  400dee:	da04      	bge.n	400dfa <gfx_generic_draw_filled_rect+0x7a>
		x2 = gfx_max_x;
		width = x2 - x + 1;
  400df0:	1c74      	adds	r4, r6, #1
  400df2:	4632      	mov	r2, r6
  400df4:	eba4 040c 	sub.w	r4, r4, ip
  400df8:	b224      	sxth	r4, r4
	}

	/* Clip if outside bottom Y limit. */
	if (y2 > gfx_max_y) {
  400dfa:	459e      	cmp	lr, r3
  400dfc:	da05      	bge.n	400e0a <gfx_generic_draw_filled_rect+0x8a>
		y2 = gfx_max_y;
		height = y2 - y + 1;
  400dfe:	f10e 0501 	add.w	r5, lr, #1
  400e02:	4673      	mov	r3, lr
  400e04:	eba5 0508 	sub.w	r5, r5, r8
  400e08:	b22d      	sxth	r5, r5
	}
#endif

	/* Set up draw area and duplicate pixel color until area is full. */
	gfx_set_limits(x, y, x2, y2);
  400e0a:	4e1a      	ldr	r6, [pc, #104]	; (400e74 <gfx_generic_draw_filled_rect+0xf4>)
  400e0c:	47b0      	blx	r6
	gfx_duplicate_pixel(color, (uint32_t)width * height);
  400e0e:	fb04 f105 	mul.w	r1, r4, r5
  400e12:	4638      	mov	r0, r7
  400e14:	4b18      	ldr	r3, [pc, #96]	; (400e78 <gfx_generic_draw_filled_rect+0xf8>)
}
  400e16:	e8bd 47f0 	ldmia.w	sp!, {r4, r5, r6, r7, r8, r9, sl, lr}
	gfx_duplicate_pixel(color, (uint32_t)width * height);
  400e1a:	4718      	bx	r3
  400e1c:	e8bd 87f0 	ldmia.w	sp!, {r4, r5, r6, r7, r8, r9, sl, pc}
		height = -height;
  400e20:	b2ab      	uxth	r3, r5
		y -= height - 1;
  400e22:	3101      	adds	r1, #1
		height = -height;
  400e24:	425d      	negs	r5, r3
		y -= height - 1;
  400e26:	4419      	add	r1, r3
	if ((x > gfx_max_x) || (y > gfx_max_y) ||
  400e28:	4b0f      	ldr	r3, [pc, #60]	; (400e68 <gfx_generic_draw_filled_rect+0xe8>)
		height = -height;
  400e2a:	b22d      	sxth	r5, r5
	if ((x > gfx_max_x) || (y > gfx_max_y) ||
  400e2c:	f9b3 6000 	ldrsh.w	r6, [r3]
		y -= height - 1;
  400e30:	b209      	sxth	r1, r1
	if ((x > gfx_max_x) || (y > gfx_max_y) ||
  400e32:	4286      	cmp	r6, r0
  400e34:	dab7      	bge.n	400da6 <gfx_generic_draw_filled_rect+0x26>
  400e36:	e7f1      	b.n	400e1c <gfx_generic_draw_filled_rect+0x9c>
		width = -width;
  400e38:	b293      	uxth	r3, r2
		x -= width - 1;
  400e3a:	3001      	adds	r0, #1
	if (height < 0) {
  400e3c:	2d00      	cmp	r5, #0
		width = -width;
  400e3e:	f1c3 0400 	rsb	r4, r3, #0
		x -= width - 1;
  400e42:	4418      	add	r0, r3
		width = -width;
  400e44:	b224      	sxth	r4, r4
		x -= width - 1;
  400e46:	b200      	sxth	r0, r0
	if (height < 0) {
  400e48:	daa8      	bge.n	400d9c <gfx_generic_draw_filled_rect+0x1c>
  400e4a:	e7e9      	b.n	400e20 <gfx_generic_draw_filled_rect+0xa0>
		width -= gfx_min_x - x;
  400e4c:	fa1f fc83 	uxth.w	ip, r3
  400e50:	4618      	mov	r0, r3
  400e52:	eba2 040c 	sub.w	r4, r2, ip
  400e56:	b224      	sxth	r4, r4
  400e58:	e7bc      	b.n	400dd4 <gfx_generic_draw_filled_rect+0x54>
		height -= gfx_min_y - y;
  400e5a:	fa1f f889 	uxth.w	r8, r9
  400e5e:	4649      	mov	r1, r9
  400e60:	ebaa 0508 	sub.w	r5, sl, r8
  400e64:	b22d      	sxth	r5, r5
  400e66:	e7b9      	b.n	400ddc <gfx_generic_draw_filled_rect+0x5c>
  400e68:	2042c004 	.word	0x2042c004
  400e6c:	2042c008 	.word	0x2042c008
  400e70:	2042c002 	.word	0x2042c002
  400e74:	00401de9 	.word	0x00401de9
  400e78:	00401e69 	.word	0x00401e69
  400e7c:	2042c006 	.word	0x2042c006

00400e80 <gfx_ili9488_init>:
	pio_set(PIN_EBI_CDS_PIO, PIN_EBI_CDS_MASK);
	LCD_MULTI_WD(us_data, size);
}

void gfx_ili9488_init(void)
{
  400e80:	e92d 47f0 	stmdb	sp!, {r4, r5, r6, r7, r8, r9, sl, lr}
  400e84:	b086      	sub	sp, #24

	/* Initialize display parameter */
	g_ili9488_display_opt.ul_width= ILI9488_LCD_WIDTH;
	g_ili9488_display_opt.ul_height = ILI9488_LCD_HEIGHT;
	g_ili9488_display_opt.foreground_color= COLOR_WHITE;
	g_ili9488_display_opt.background_color = COLOR_BLACK;
  400e86:	2400      	movs	r4, #0
	gfx_width = ILI9488_LCD_WIDTH;
  400e88:	4d28      	ldr	r5, [pc, #160]	; (400f2c <gfx_ili9488_init+0xac>)
	g_ili9488_display_opt.foreground_color= COLOR_WHITE;
  400e8a:	f06f 427f 	mvn.w	r2, #4278190080	; 0xff000000
	gfx_height = ILI9488_LCD_HEIGHT;
  400e8e:	4e28      	ldr	r6, [pc, #160]	; (400f30 <gfx_ili9488_init+0xb0>)
	gfx_width = ILI9488_LCD_WIDTH;
  400e90:	f44f 78a0 	mov.w	r8, #320	; 0x140
	gfx_height = ILI9488_LCD_HEIGHT;
  400e94:	f44f 77f0 	mov.w	r7, #480	; 0x1e0
	pio_clear(PIN_EBI_CDS_PIO, PIN_EBI_CDS_MASK);
  400e98:	f8df a0b4 	ldr.w	sl, [pc, #180]	; 400f50 <gfx_ili9488_init+0xd0>

	ili9488_init(&g_ili9488_display_opt);
  400e9c:	a802      	add	r0, sp, #8
  400e9e:	4b25      	ldr	r3, [pc, #148]	; (400f34 <gfx_ili9488_init+0xb4>)
	g_ili9488_display_opt.foreground_color= COLOR_WHITE;
  400ea0:	9204      	str	r2, [sp, #16]

/* Define EBI access for ILI9488 16-bit System Interface.*/
#ifdef ILI9488_EBIMODE
	static inline void LCD_IR(uint8_t lcd_index)
	{
		*((volatile uint16_t *)(BOARD_ILI9488_ADDR)) = lcd_index; /* ILI9488 index register address */
  400ea2:	f04f 49c6 	mov.w	r9, #1660944384	; 0x63000000
	gfx_width = ILI9488_LCD_WIDTH;
  400ea6:	f8a5 8000 	strh.w	r8, [r5]
	g_ili9488_display_opt.background_color = COLOR_BLACK;
  400eaa:	9405      	str	r4, [sp, #20]
	g_ili9488_display_opt.ul_width= ILI9488_LCD_WIDTH;
  400eac:	f8cd 8008 	str.w	r8, [sp, #8]
	gfx_height = ILI9488_LCD_HEIGHT;
  400eb0:	8037      	strh	r7, [r6, #0]
	g_ili9488_display_opt.ul_height = ILI9488_LCD_HEIGHT;
  400eb2:	9703      	str	r7, [sp, #12]
	ili9488_init(&g_ili9488_display_opt);
  400eb4:	4798      	blx	r3
	pio_clear(PIN_EBI_CDS_PIO, PIN_EBI_CDS_MASK);
  400eb6:	4650      	mov	r0, sl
  400eb8:	f04f 4180 	mov.w	r1, #1073741824	; 0x40000000
  400ebc:	4b1e      	ldr	r3, [pc, #120]	; (400f38 <gfx_ili9488_init+0xb8>)
  400ebe:	4798      	blx	r3
  400ec0:	2353      	movs	r3, #83	; 0x53
	pio_set(PIN_EBI_CDS_PIO, PIN_EBI_CDS_MASK);
  400ec2:	f04f 4180 	mov.w	r1, #1073741824	; 0x40000000
  400ec6:	4650      	mov	r0, sl
  400ec8:	f8a9 3000 	strh.w	r3, [r9]
  400ecc:	4b1b      	ldr	r3, [pc, #108]	; (400f3c <gfx_ili9488_init+0xbc>)
  400ece:	4798      	blx	r3
		*(volatile uint16_t *)(BOARD_ILI9488_ADDR) = lcd_data;
	}
	static inline void LCD_MULTI_WD(const uint16_t *lcd_data, uint32_t size)
	{
		while(size--) {
			*((volatile uint16_t *)(BOARD_ILI9488_ADDR)) = *lcd_data++;
  400ed0:	2224      	movs	r2, #36	; 0x24
	
	/* Attempt to make display brighter :( */ 
	ili9488_color_t param = 0x24;
	ili9488_write_register(ILI9488_CMD_WRITE_CTRL_DISPLAY, &param, 1); 
	ili9488_write_brightness(0xFFFF);
  400ed2:	f64f 70ff 	movw	r0, #65535	; 0xffff
  400ed6:	4b1a      	ldr	r3, [pc, #104]	; (400f40 <gfx_ili9488_init+0xc0>)
  400ed8:	f8a9 2000 	strh.w	r2, [r9]
  400edc:	4798      	blx	r3

	ili9488_display_on();
  400ede:	4b19      	ldr	r3, [pc, #100]	; (400f44 <gfx_ili9488_init+0xc4>)
  400ee0:	4798      	blx	r3

	/* Set clipping area to whole screen initially */
	gfx_set_clipping(0, 0, gfx_width, gfx_height);
  400ee2:	f8df 9070 	ldr.w	r9, [pc, #112]	; 400f54 <gfx_ili9488_init+0xd4>
  400ee6:	4621      	mov	r1, r4
  400ee8:	f9b5 2000 	ldrsh.w	r2, [r5]
  400eec:	f9b6 3000 	ldrsh.w	r3, [r6]
  400ef0:	4620      	mov	r0, r4
  400ef2:	47c8      	blx	r9
	ili9488_set_orientation(flags);
  400ef4:	2002      	movs	r0, #2
  400ef6:	4b14      	ldr	r3, [pc, #80]	; (400f48 <gfx_ili9488_init+0xc8>)
  400ef8:	4798      	blx	r3
	gfx_set_clipping(0, 0, gfx_width - 1, gfx_height - 1);
  400efa:	4621      	mov	r1, r4
  400efc:	4620      	mov	r0, r4
  400efe:	f240 133f 	movw	r3, #319	; 0x13f
  400f02:	f240 12df 	movw	r2, #479	; 0x1df
		gfx_width = ILI9488_SWITCH_XY_HEIGHT;
  400f06:	802f      	strh	r7, [r5, #0]
		gfx_height = ILI9488_SWITCH_XY_WIDTH;
  400f08:	f8a6 8000 	strh.w	r8, [r6]
	gfx_set_clipping(0, 0, gfx_width - 1, gfx_height - 1);
  400f0c:	47c8      	blx	r9

	gfx_set_orientation(GFX_FLIP_Y);
	gfx_draw_filled_rect(0, 0, gfx_width, gfx_height, g_ili9488_display_opt.background_color);			
  400f0e:	f9b5 2000 	ldrsh.w	r2, [r5]
  400f12:	4621      	mov	r1, r4
  400f14:	f8bd 5014 	ldrh.w	r5, [sp, #20]
  400f18:	4620      	mov	r0, r4
  400f1a:	f9b6 3000 	ldrsh.w	r3, [r6]
  400f1e:	4c0b      	ldr	r4, [pc, #44]	; (400f4c <gfx_ili9488_init+0xcc>)
  400f20:	9500      	str	r5, [sp, #0]
  400f22:	47a0      	blx	r4
}
  400f24:	b006      	add	sp, #24
  400f26:	e8bd 87f0 	ldmia.w	sp!, {r4, r5, r6, r7, r8, r9, sl, pc}
  400f2a:	bf00      	nop
  400f2c:	2042c000 	.word	0x2042c000
  400f30:	2042c00a 	.word	0x2042c00a
  400f34:	00401c71 	.word	0x00401c71
  400f38:	00402709 	.word	0x00402709
  400f3c:	00402705 	.word	0x00402705
  400f40:	00401db5 	.word	0x00401db5
  400f44:	00401bb9 	.word	0x00401bb9
  400f48:	00401e11 	.word	0x00401e11
  400f4c:	00400d81 	.word	0x00400d81
  400f50:	400e1200 	.word	0x400e1200
  400f54:	00400d2d 	.word	0x00400d2d

00400f58 <lcd_init>:
#include "LCDLib.h"
#include "asf.h"

/*********************************** Public Functions Start ***********************************/
void lcd_init(void)
{
  400f58:	b510      	push	{r4, lr}
	gfx_init();
  400f5a:	4b03      	ldr	r3, [pc, #12]	; (400f68 <lcd_init+0x10>)
  400f5c:	4798      	blx	r3
	mxt_init();
  400f5e:	4b03      	ldr	r3, [pc, #12]	; (400f6c <lcd_init+0x14>)
}
  400f60:	e8bd 4010 	ldmia.w	sp!, {r4, lr}
	mxt_init();
  400f64:	4718      	bx	r3
  400f66:	bf00      	nop
  400f68:	00400e81 	.word	0x00400e81
  400f6c:	00400f71 	.word	0x00400f71

00400f70 <mxt_init>:
	else 
		return false; 
}

void mxt_init(void)
{
  400f70:	e92d 43f0 	stmdb	sp!, {r4, r5, r6, r7, r8, r9, lr}
	enum status_code status;

	/* T8 configuration object data */
	uint8_t t8_object[] = {
  400f74:	4c57      	ldr	r4, [pc, #348]	; (4010d4 <mxt_init+0x164>)
{
  400f76:	b09f      	sub	sp, #124	; 0x7c
	mxt_write_config_reg(&device, mxt_get_object_address(&device,
			MXT_GEN_COMMANDPROCESSOR_T6, 0)
			+ MXT_GEN_COMMANDPROCESSOR_RESET, 0x01);

	/* Wait for the reset of the device to complete */
	delay_ms(MXT_RESET_TIME);
  400f78:	f8df 9190 	ldr.w	r9, [pc, #400]	; 40110c <mxt_init+0x19c>
	uint8_t t9_object[] = {
  400f7c:	f104 050c 	add.w	r5, r4, #12
	uint8_t t8_object[] = {
  400f80:	ab06      	add	r3, sp, #24
	uint8_t t9_object[] = {
  400f82:	af15      	add	r7, sp, #84	; 0x54
	uint8_t t46_object[] = {
  400f84:	f104 0c30 	add.w	ip, r4, #48	; 0x30
  400f88:	46ee      	mov	lr, sp
	uint8_t t56_object[] = {
  400f8a:	ae0c      	add	r6, sp, #48	; 0x30
			MXT_GEN_POWERCONFIG_T7, 0) + 2, 0x4b);
	mxt_write_config_reg(&device, mxt_get_object_address(&device,
			MXT_GEN_POWERCONFIG_T7, 0) + 3, 0x84);

	// Write predefined configuration data to configuration objects 
	mxt_write_config_object(&device, mxt_get_object_address(&device,
  400f8c:	f8df 8180 	ldr.w	r8, [pc, #384]	; 401110 <mxt_init+0x1a0>
	uint8_t t8_object[] = {
  400f90:	e894 0007 	ldmia.w	r4, {r0, r1, r2}
  400f94:	c303      	stmia	r3!, {r0, r1}
  400f96:	801a      	strh	r2, [r3, #0]
	uint8_t t56_object[] = {
  400f98:	343c      	adds	r4, #60	; 0x3c
	uint8_t t9_object[] = {
  400f9a:	cd0f      	ldmia	r5!, {r0, r1, r2, r3}
  400f9c:	c70f      	stmia	r7!, {r0, r1, r2, r3}
  400f9e:	cd0f      	ldmia	r5!, {r0, r1, r2, r3}
  400fa0:	c70f      	stmia	r7!, {r0, r1, r2, r3}
	uint8_t t46_object[] = {
  400fa2:	e89c 0007 	ldmia.w	ip, {r0, r1, r2}
	uint8_t t9_object[] = {
  400fa6:	682b      	ldr	r3, [r5, #0]
	twihs_master_options_t twi_opt = {
  400fa8:	2500      	movs	r5, #0
	uint8_t t46_object[] = {
  400faa:	e8ae 0003 	stmia.w	lr!, {r0, r1}
	uint8_t t9_object[] = {
  400fae:	603b      	str	r3, [r7, #0]
	twihs_master_options_t twi_opt = {
  400fb0:	274a      	movs	r7, #74	; 0x4a
	uint8_t t46_object[] = {
  400fb2:	f88e 2000 	strb.w	r2, [lr]
	twihs_master_options_t twi_opt = {
  400fb6:	f8df e15c 	ldr.w	lr, [pc, #348]	; 401114 <mxt_init+0x1a4>
	uint8_t t56_object[] = {
  400fba:	cc0f      	ldmia	r4!, {r0, r1, r2, r3}
  400fbc:	c60f      	stmia	r6!, {r0, r1, r2, r3}
  400fbe:	cc0f      	ldmia	r4!, {r0, r1, r2, r3}
  400fc0:	f8d4 c000 	ldr.w	ip, [r4]
	pio_configure(PIOD, PIO_INPUT, PIO_PD28, PIO_PULLUP);
  400fc4:	4c44      	ldr	r4, [pc, #272]	; (4010d8 <mxt_init+0x168>)
	twihs_master_options_t twi_opt = {
  400fc6:	f8cd e028 	str.w	lr, [sp, #40]	; 0x28
  400fca:	950b      	str	r5, [sp, #44]	; 0x2c
  400fcc:	9509      	str	r5, [sp, #36]	; 0x24
  400fce:	f88d 702c 	strb.w	r7, [sp, #44]	; 0x2c
	uint8_t t56_object[] = {
  400fd2:	c60f      	stmia	r6!, {r0, r1, r2, r3}
	pio_configure(PIOD, PIO_INPUT, PIO_PD28, PIO_PULLUP);
  400fd4:	f04f 5120 	mov.w	r1, #671088640	; 0x28000000
  400fd8:	2301      	movs	r3, #1
  400fda:	f04f 5280 	mov.w	r2, #268435456	; 0x10000000
  400fde:	483f      	ldr	r0, [pc, #252]	; (4010dc <mxt_init+0x16c>)
	uint8_t t56_object[] = {
  400fe0:	f886 c000 	strb.w	ip, [r6]
	pio_configure(PIOD, PIO_INPUT, PIO_PD28, PIO_PULLUP);
  400fe4:	47a0      	blx	r4
typedef twihs_packet_t twihs_package_t;

static inline uint32_t twihs_master_setup(twihs_master_t p_twihs,
		twihs_master_options_t *p_opt)
{
	p_opt->master_clk = sysclk_get_peripheral_hz();
  400fe6:	4a3e      	ldr	r2, [pc, #248]	; (4010e0 <mxt_init+0x170>)
 *
 * \param ul_id Id (number) of the peripheral clock.
 */
static inline void sysclk_enable_peripheral_clock(uint32_t ul_id)
{
	pmc_enable_periph_clk(ul_id);
  400fe8:	2013      	movs	r0, #19
  400fea:	4b3e      	ldr	r3, [pc, #248]	; (4010e4 <mxt_init+0x174>)

	// Issue recalibration command to maXTouch device by writing a non-zero
	 // value to the calibrate register 
	mxt_write_config_reg(&device, mxt_get_object_address(&device, MXT_GEN_COMMANDPROCESSOR_T6, 0) + MXT_GEN_COMMANDPROCESSOR_CALIBRATE, 0x01); 
	
	delay_ms(100); 
  400fec:	f44f 74af 	mov.w	r4, #350	; 0x15e
  400ff0:	9209      	str	r2, [sp, #36]	; 0x24
	p_opt->smbus      = 0;
  400ff2:	f88d 502d 	strb.w	r5, [sp, #45]	; 0x2d
  400ff6:	4798      	blx	r3
#endif		
	} else {
		// Do Nothing
	}
#endif
	return (twihs_master_init(p_twihs, p_opt));
  400ff8:	a909      	add	r1, sp, #36	; 0x24
  400ffa:	4b3b      	ldr	r3, [pc, #236]	; (4010e8 <mxt_init+0x178>)
  400ffc:	483b      	ldr	r0, [pc, #236]	; (4010ec <mxt_init+0x17c>)
  400ffe:	4798      	blx	r3
	status = mxt_init_device(&device, MAXTOUCH_TWI_INTERFACE,
  401000:	4e3b      	ldr	r6, [pc, #236]	; (4010f0 <mxt_init+0x180>)
  401002:	237c      	movs	r3, #124	; 0x7c
  401004:	463a      	mov	r2, r7
  401006:	4939      	ldr	r1, [pc, #228]	; (4010ec <mxt_init+0x17c>)
  401008:	483a      	ldr	r0, [pc, #232]	; (4010f4 <mxt_init+0x184>)
  40100a:	47b0      	blx	r6
	mxt_write_config_reg(&device, mxt_get_object_address(&device,
  40100c:	4e3a      	ldr	r6, [pc, #232]	; (4010f8 <mxt_init+0x188>)
  40100e:	462a      	mov	r2, r5
  401010:	2106      	movs	r1, #6
  401012:	4838      	ldr	r0, [pc, #224]	; (4010f4 <mxt_init+0x184>)
  401014:	4f39      	ldr	r7, [pc, #228]	; (4010fc <mxt_init+0x18c>)
  401016:	47b0      	blx	r6
  401018:	2201      	movs	r2, #1
  40101a:	4601      	mov	r1, r0
  40101c:	4835      	ldr	r0, [pc, #212]	; (4010f4 <mxt_init+0x184>)
  40101e:	47b8      	blx	r7
	delay_ms(MXT_RESET_TIME);
  401020:	4837      	ldr	r0, [pc, #220]	; (401100 <mxt_init+0x190>)
  401022:	47c8      	blx	r9
	mxt_write_config_reg(&device, mxt_get_object_address(&device,
  401024:	462a      	mov	r2, r5
  401026:	2107      	movs	r1, #7
  401028:	4832      	ldr	r0, [pc, #200]	; (4010f4 <mxt_init+0x184>)
  40102a:	47b0      	blx	r6
  40102c:	2220      	movs	r2, #32
  40102e:	4601      	mov	r1, r0
  401030:	4830      	ldr	r0, [pc, #192]	; (4010f4 <mxt_init+0x184>)
  401032:	47b8      	blx	r7
	mxt_write_config_reg(&device, mxt_get_object_address(&device,
  401034:	462a      	mov	r2, r5
  401036:	2107      	movs	r1, #7
  401038:	482e      	ldr	r0, [pc, #184]	; (4010f4 <mxt_init+0x184>)
  40103a:	47b0      	blx	r6
  40103c:	1c41      	adds	r1, r0, #1
  40103e:	2210      	movs	r2, #16
  401040:	482c      	ldr	r0, [pc, #176]	; (4010f4 <mxt_init+0x184>)
  401042:	b289      	uxth	r1, r1
  401044:	47b8      	blx	r7
	mxt_write_config_reg(&device, mxt_get_object_address(&device,
  401046:	462a      	mov	r2, r5
  401048:	2107      	movs	r1, #7
  40104a:	482a      	ldr	r0, [pc, #168]	; (4010f4 <mxt_init+0x184>)
  40104c:	47b0      	blx	r6
  40104e:	1c81      	adds	r1, r0, #2
  401050:	224b      	movs	r2, #75	; 0x4b
  401052:	4828      	ldr	r0, [pc, #160]	; (4010f4 <mxt_init+0x184>)
  401054:	b289      	uxth	r1, r1
  401056:	47b8      	blx	r7
	mxt_write_config_reg(&device, mxt_get_object_address(&device,
  401058:	462a      	mov	r2, r5
  40105a:	2107      	movs	r1, #7
  40105c:	4825      	ldr	r0, [pc, #148]	; (4010f4 <mxt_init+0x184>)
  40105e:	47b0      	blx	r6
  401060:	1cc1      	adds	r1, r0, #3
  401062:	2284      	movs	r2, #132	; 0x84
  401064:	4823      	ldr	r0, [pc, #140]	; (4010f4 <mxt_init+0x184>)
  401066:	b289      	uxth	r1, r1
  401068:	47b8      	blx	r7
	mxt_write_config_object(&device, mxt_get_object_address(&device,
  40106a:	462a      	mov	r2, r5
  40106c:	2108      	movs	r1, #8
  40106e:	4821      	ldr	r0, [pc, #132]	; (4010f4 <mxt_init+0x184>)
  401070:	47b0      	blx	r6
  401072:	aa06      	add	r2, sp, #24
  401074:	4601      	mov	r1, r0
  401076:	481f      	ldr	r0, [pc, #124]	; (4010f4 <mxt_init+0x184>)
  401078:	47c0      	blx	r8
	mxt_write_config_object(&device, mxt_get_object_address(&device,
  40107a:	462a      	mov	r2, r5
  40107c:	2109      	movs	r1, #9
  40107e:	481d      	ldr	r0, [pc, #116]	; (4010f4 <mxt_init+0x184>)
  401080:	47b0      	blx	r6
  401082:	aa15      	add	r2, sp, #84	; 0x54
  401084:	4601      	mov	r1, r0
  401086:	481b      	ldr	r0, [pc, #108]	; (4010f4 <mxt_init+0x184>)
  401088:	47c0      	blx	r8
	mxt_write_config_object(&device, mxt_get_object_address(&device,
  40108a:	462a      	mov	r2, r5
  40108c:	212e      	movs	r1, #46	; 0x2e
  40108e:	4819      	ldr	r0, [pc, #100]	; (4010f4 <mxt_init+0x184>)
  401090:	47b0      	blx	r6
  401092:	466a      	mov	r2, sp
  401094:	4601      	mov	r1, r0
  401096:	4817      	ldr	r0, [pc, #92]	; (4010f4 <mxt_init+0x184>)
  401098:	47c0      	blx	r8
	mxt_write_config_object(&device, mxt_get_object_address(&device,
  40109a:	462a      	mov	r2, r5
  40109c:	2138      	movs	r1, #56	; 0x38
  40109e:	4815      	ldr	r0, [pc, #84]	; (4010f4 <mxt_init+0x184>)
  4010a0:	47b0      	blx	r6
  4010a2:	aa0c      	add	r2, sp, #48	; 0x30
  4010a4:	4601      	mov	r1, r0
  4010a6:	4813      	ldr	r0, [pc, #76]	; (4010f4 <mxt_init+0x184>)
  4010a8:	47c0      	blx	r8
	mxt_write_config_reg(&device, mxt_get_object_address(&device, MXT_GEN_COMMANDPROCESSOR_T6, 0) + MXT_GEN_COMMANDPROCESSOR_CALIBRATE, 0x01); 
  4010aa:	462a      	mov	r2, r5
  4010ac:	2106      	movs	r1, #6
  4010ae:	4811      	ldr	r0, [pc, #68]	; (4010f4 <mxt_init+0x184>)
  4010b0:	47b0      	blx	r6
  4010b2:	1c81      	adds	r1, r0, #2
  4010b4:	2201      	movs	r2, #1
  4010b6:	480f      	ldr	r0, [pc, #60]	; (4010f4 <mxt_init+0x184>)
  4010b8:	b289      	uxth	r1, r1
  4010ba:	4e12      	ldr	r6, [pc, #72]	; (401104 <mxt_init+0x194>)
  4010bc:	47b8      	blx	r7
	delay_ms(100); 
  4010be:	4812      	ldr	r0, [pc, #72]	; (401108 <mxt_init+0x198>)
		mxt_read_message(data, &message);
  4010c0:	4d0c      	ldr	r5, [pc, #48]	; (4010f4 <mxt_init+0x184>)
	delay_ms(100); 
  4010c2:	47c8      	blx	r9
		mxt_read_message(data, &message);
  4010c4:	a903      	add	r1, sp, #12
  4010c6:	4628      	mov	r0, r5
  4010c8:	47b0      	blx	r6
	} while (--count);
  4010ca:	3c01      	subs	r4, #1
  4010cc:	d1fa      	bne.n	4010c4 <mxt_init+0x154>
	
	// Make chg pin high 
	mxt_make_highchg(&device);
}
  4010ce:	b01f      	add	sp, #124	; 0x7c
  4010d0:	e8bd 83f0 	ldmia.w	sp!, {r4, r5, r6, r7, r8, r9, pc}
  4010d4:	00408690 	.word	0x00408690
  4010d8:	0040270d 	.word	0x0040270d
  4010dc:	400e1400 	.word	0x400e1400
  4010e0:	08f0d180 	.word	0x08f0d180
  4010e4:	00402e99 	.word	0x00402e99
  4010e8:	00402021 	.word	0x00402021
  4010ec:	40018000 	.word	0x40018000
  4010f0:	004013f1 	.word	0x004013f1
  4010f4:	20402e00 	.word	0x20402e00
  4010f8:	004017f5 	.word	0x004017f5
  4010fc:	004018b9 	.word	0x004018b9
  401100:	003228d8 	.word	0x003228d8
  401104:	00401901 	.word	0x00401901
  401108:	004d2b25 	.word	0x004d2b25
  40110c:	20400001 	.word	0x20400001
  401110:	0040183d 	.word	0x0040183d
  401114:	00061a80 	.word	0x00061a80

00401118 <PSOLA_init>:
static uint32_t prev_num_shifts; 
static float window[10*WIN_SIZE]; // sufficiently large window function 
/************************ Static variables *********************/

void PSOLA_init(void)
{
  401118:	b5f8      	push	{r3, r4, r5, r6, r7, lr}
	arm_fill_f32(0.0f, input_ring_buffer, RING_BUFFER_SIZE); 
  40111a:	2500      	movs	r5, #0
  40111c:	4c15      	ldr	r4, [pc, #84]	; (401174 <PSOLA_init+0x5c>)
  40111e:	f44f 4280 	mov.w	r2, #16384	; 0x4000
  401122:	4915      	ldr	r1, [pc, #84]	; (401178 <PSOLA_init+0x60>)
  401124:	4628      	mov	r0, r5
	arm_fill_f32(0.0f, output_ring_buffer, RING_BUFFER_SIZE);
	arm_fill_f32(0.0f, window, 10*WIN_SIZE); 
	
	readPos = RING_BUFFER_SIZE - WIN_SIZE; 
	inPtr = 0; 
  401126:	4f15      	ldr	r7, [pc, #84]	; (40117c <PSOLA_init+0x64>)
	arm_fill_f32(0.0f, input_ring_buffer, RING_BUFFER_SIZE); 
  401128:	47a0      	blx	r4
	arm_fill_f32(0.0f, output_ring_buffer, RING_BUFFER_SIZE);
  40112a:	4628      	mov	r0, r5
  40112c:	f44f 4280 	mov.w	r2, #16384	; 0x4000
  401130:	4913      	ldr	r1, [pc, #76]	; (401180 <PSOLA_init+0x68>)
  401132:	47a0      	blx	r4
	arm_fill_f32(0.0f, window, 10*WIN_SIZE); 
  401134:	4628      	mov	r0, r5
  401136:	f44f 52a0 	mov.w	r2, #5120	; 0x1400
  40113a:	4912      	ldr	r1, [pc, #72]	; (401184 <PSOLA_init+0x6c>)
  40113c:	47a0      	blx	r4
	outPtr = 0; 
	samplesLeftInPeriod = 0; 
	inputPeriodLength = 100; 
	currentPitch = MINIMUM_PITCH; 
	currentShifts[0] = 1.0f; 
  40113e:	4a12      	ldr	r2, [pc, #72]	; (401188 <PSOLA_init+0x70>)
	currentShifts[1] = -1.0f; 
  401140:	4912      	ldr	r1, [pc, #72]	; (40118c <PSOLA_init+0x74>)
	currentShifts[0] = 1.0f; 
  401142:	f04f 507e 	mov.w	r0, #1065353216	; 0x3f800000
	inPtr = 0; 
  401146:	2300      	movs	r3, #0
	readPos = RING_BUFFER_SIZE - WIN_SIZE; 
  401148:	f8df e058 	ldr.w	lr, [pc, #88]	; 4011a4 <PSOLA_init+0x8c>
	currentShifts[0] = 1.0f; 
  40114c:	6010      	str	r0, [r2, #0]
	readPos = RING_BUFFER_SIZE - WIN_SIZE; 
  40114e:	f44f 5c78 	mov.w	ip, #15872	; 0x3e00
	currentShifts[1] = -1.0f; 
  401152:	6051      	str	r1, [r2, #4]
	inputPeriodLength = 100; 
  401154:	2464      	movs	r4, #100	; 0x64
	currentShifts[10] = -1.0f; // should never change 
  401156:	6291      	str	r1, [r2, #40]	; 0x28
	outPtr = 0; 
  401158:	4e0d      	ldr	r6, [pc, #52]	; (401190 <PSOLA_init+0x78>)
	samplesLeftInPeriod = 0; 
  40115a:	4d0e      	ldr	r5, [pc, #56]	; (401194 <PSOLA_init+0x7c>)
	inputPeriodLength = 100; 
  40115c:	480e      	ldr	r0, [pc, #56]	; (401198 <PSOLA_init+0x80>)
	currentPitch = MINIMUM_PITCH; 
  40115e:	4a0f      	ldr	r2, [pc, #60]	; (40119c <PSOLA_init+0x84>)
  401160:	490f      	ldr	r1, [pc, #60]	; (4011a0 <PSOLA_init+0x88>)
	readPos = RING_BUFFER_SIZE - WIN_SIZE; 
  401162:	f8ce c000 	str.w	ip, [lr]
	inPtr = 0; 
  401166:	603b      	str	r3, [r7, #0]
	outPtr = 0; 
  401168:	6033      	str	r3, [r6, #0]
	samplesLeftInPeriod = 0; 
  40116a:	602b      	str	r3, [r5, #0]
	inputPeriodLength = 100; 
  40116c:	6004      	str	r4, [r0, #0]
	currentPitch = MINIMUM_PITCH; 
  40116e:	6011      	str	r1, [r2, #0]
  401170:	bdf8      	pop	{r3, r4, r5, r6, r7, pc}
  401172:	bf00      	nop
  401174:	004054a5 	.word	0x004054a5
  401178:	20402e58 	.word	0x20402e58
  40117c:	20402e50 	.word	0x20402e50
  401180:	20412e5c 	.word	0x20412e5c
  401184:	20422e64 	.word	0x20422e64
  401188:	20402e24 	.word	0x20402e24
  40118c:	bf800000 	.word	0xbf800000
  401190:	20412e58 	.word	0x20412e58
  401194:	20422e60 	.word	0x20422e60
  401198:	20402e54 	.word	0x20402e54
  40119c:	20402e20 	.word	0x20402e20
  4011a0:	42200000 	.word	0x42200000
  4011a4:	20422e5c 	.word	0x20422e5c

004011a8 <create_harmonies>:
	prev_num_shifts = 1; 
}

// assumes valid pitch shifts 
void create_harmonies(float* input, float *output, float inputPitch, float *pitch_shifts_in) 
{
  4011a8:	e92d 4ff0 	stmdb	sp!, {r4, r5, r6, r7, r8, r9, sl, fp, lr}
  4011ac:	ed2d 8b04 	vpush	{d8-d9}
  4011b0:	b08b      	sub	sp, #44	; 0x2c
  4011b2:	4f81      	ldr	r7, [pc, #516]	; (4013b8 <create_harmonies+0x210>)
  4011b4:	9208      	str	r2, [sp, #32]
	uint32_t i, w; 
	int32_t olaIdx; 
	uint32_t saved_inPtr = inPtr; 
  4011b6:	4a81      	ldr	r2, [pc, #516]	; (4013bc <create_harmonies+0x214>)
{
  4011b8:	9107      	str	r1, [sp, #28]
	uint32_t saved_inPtr = inPtr; 
  4011ba:	6812      	ldr	r2, [r2, #0]
{
  4011bc:	9309      	str	r3, [sp, #36]	; 0x24
	uint32_t saved_inPtr = inPtr; 
  4011be:	9203      	str	r2, [sp, #12]
	uint32_t saved_outPtr = outPtr; 
	uint32_t saved_samplesLeftInPeriod = samplesLeftInPeriod; 
	uint32_t pitch_idx = 0; 
	
	uint32_t starting_input_ptr = inPtr + WIN_SIZE; 
  4011c0:	f502 7300 	add.w	r3, r2, #512	; 0x200
  4011c4:	f502 6180 	add.w	r1, r2, #1024	; 0x400
	uint32_t saved_outPtr = outPtr; 
  4011c8:	4a7d      	ldr	r2, [pc, #500]	; (4013c0 <create_harmonies+0x218>)
  4011ca:	6812      	ldr	r2, [r2, #0]
  4011cc:	9204      	str	r2, [sp, #16]
	uint32_t saved_samplesLeftInPeriod = samplesLeftInPeriod; 
  4011ce:	4a7d      	ldr	r2, [pc, #500]	; (4013c4 <create_harmonies+0x21c>)
  4011d0:	6812      	ldr	r2, [r2, #0]
  4011d2:	9205      	str	r2, [sp, #20]
	for (i = 0; i < WIN_SIZE; i++)
	{
		input_ring_buffer[(starting_input_ptr++) & RING_BUFFER_MASK] = input[i]; 
  4011d4:	f3c3 020d 	ubfx	r2, r3, #0, #14
  4011d8:	3301      	adds	r3, #1
  4011da:	f850 4b04 	ldr.w	r4, [r0], #4
  4011de:	eb07 0282 	add.w	r2, r7, r2, lsl #2
	for (i = 0; i < WIN_SIZE; i++)
  4011e2:	428b      	cmp	r3, r1
		input_ring_buffer[(starting_input_ptr++) & RING_BUFFER_MASK] = input[i]; 
  4011e4:	6014      	str	r4, [r2, #0]
	for (i = 0; i < WIN_SIZE; i++)
  4011e6:	d1f5      	bne.n	4011d4 <create_harmonies+0x2c>
	}
		
	uint32_t outLag;
	uint32_t inHalfAway;
	float periodRatio;
	float inputPeriodLengthRecip = 1.0f / inputPeriodLength;
  4011e8:	4b77      	ldr	r3, [pc, #476]	; (4013c8 <create_harmonies+0x220>)
  4011ea:	f8d3 c000 	ldr.w	ip, [r3]
	
	// create window function
	for (olaIdx = -inputPeriodLength, w = 0; olaIdx < inputPeriodLength; olaIdx++, w++)
  4011ee:	f1cc 0400 	rsb	r4, ip, #0
	float inputPeriodLengthRecip = 1.0f / inputPeriodLength;
  4011f2:	ee07 ca90 	vmov	s15, ip
	for (olaIdx = -inputPeriodLength, w = 0; olaIdx < inputPeriodLength; olaIdx++, w++)
  4011f6:	45a4      	cmp	ip, r4
	float inputPeriodLengthRecip = 1.0f / inputPeriodLength;
  4011f8:	eef8 7ae7 	vcvt.f32.s32	s15, s15
	for (olaIdx = -inputPeriodLength, w = 0; olaIdx < inputPeriodLength; olaIdx++, w++)
  4011fc:	46a3      	mov	fp, r4
  4011fe:	dd22      	ble.n	401246 <create_harmonies+0x9e>
  401200:	ed9f 7a72 	vldr	s14, [pc, #456]	; 4013cc <create_harmonies+0x224>
	{
		window[w] = (1.0f + arm_cos_f32(PI_F * (float)olaIdx * inputPeriodLengthRecip)) * 0.5f;
  401204:	eeb7 9a00 	vmov.f32	s18, #112	; 0x3f800000  1.0
  401208:	eef6 8a00 	vmov.f32	s17, #96	; 0x3f000000  0.5
  40120c:	4d70      	ldr	r5, [pc, #448]	; (4013d0 <create_harmonies+0x228>)
  40120e:	ee87 8a27 	vdiv.f32	s16, s14, s15
  401212:	4e70      	ldr	r6, [pc, #448]	; (4013d4 <create_harmonies+0x22c>)
  401214:	ee07 4a90 	vmov	s15, r4
	for (olaIdx = -inputPeriodLength, w = 0; olaIdx < inputPeriodLength; olaIdx++, w++)
  401218:	3401      	adds	r4, #1
		window[w] = (1.0f + arm_cos_f32(PI_F * (float)olaIdx * inputPeriodLengthRecip)) * 0.5f;
  40121a:	eef8 7ae7 	vcvt.f32.s32	s15, s15
  40121e:	ee67 7a88 	vmul.f32	s15, s15, s16
  401222:	ee17 0a90 	vmov	r0, s15
  401226:	47b0      	blx	r6
  401228:	ee07 0a90 	vmov	s15, r0
	for (olaIdx = -inputPeriodLength, w = 0; olaIdx < inputPeriodLength; olaIdx++, w++)
  40122c:	4b66      	ldr	r3, [pc, #408]	; (4013c8 <create_harmonies+0x220>)
		window[w] = (1.0f + arm_cos_f32(PI_F * (float)olaIdx * inputPeriodLengthRecip)) * 0.5f;
  40122e:	ee77 7a89 	vadd.f32	s15, s15, s18
	for (olaIdx = -inputPeriodLength, w = 0; olaIdx < inputPeriodLength; olaIdx++, w++)
  401232:	681b      	ldr	r3, [r3, #0]
		window[w] = (1.0f + arm_cos_f32(PI_F * (float)olaIdx * inputPeriodLengthRecip)) * 0.5f;
  401234:	ee67 7aa8 	vmul.f32	s15, s15, s17
	for (olaIdx = -inputPeriodLength, w = 0; olaIdx < inputPeriodLength; olaIdx++, w++)
  401238:	42a3      	cmp	r3, r4
		window[w] = (1.0f + arm_cos_f32(PI_F * (float)olaIdx * inputPeriodLengthRecip)) * 0.5f;
  40123a:	ece5 7a01 	vstmia	r5!, {s15}
	for (olaIdx = -inputPeriodLength, w = 0; olaIdx < inputPeriodLength; olaIdx++, w++)
  40123e:	dce9      	bgt.n	401214 <create_harmonies+0x6c>
  401240:	469c      	mov	ip, r3
  401242:	f1c3 0b00 	rsb	fp, r3, #0
  401246:	4b5e      	ldr	r3, [pc, #376]	; (4013c0 <create_harmonies+0x218>)
  401248:	ee07 ca90 	vmov	s15, ip
	}
	
	// for each pitch shift 
	while(currentShifts[pitch_idx] > 0.0f && pitch_idx < 10)
	{
		periodRatio = 1.0f / currentShifts[pitch_idx++]; 
  40124c:	2200      	movs	r2, #0
  40124e:	495b      	ldr	r1, [pc, #364]	; (4013bc <create_harmonies+0x214>)
  401250:	f8d3 e000 	ldr.w	lr, [r3]
  401254:	eeb8 6ae7 	vcvt.f32.s32	s12, s15
  401258:	4b5a      	ldr	r3, [pc, #360]	; (4013c4 <create_harmonies+0x21c>)
  40125a:	4610      	mov	r0, r2
  40125c:	f8d1 a000 	ldr.w	sl, [r1]
  401260:	681b      	ldr	r3, [r3, #0]
  401262:	495d      	ldr	r1, [pc, #372]	; (4013d8 <create_harmonies+0x230>)
  401264:	4e5d      	ldr	r6, [pc, #372]	; (4013dc <create_harmonies+0x234>)
  401266:	9201      	str	r2, [sp, #4]
  401268:	9102      	str	r1, [sp, #8]
	while(currentShifts[pitch_idx] > 0.0f && pitch_idx < 10)
  40126a:	ecf1 7a01 	vldmia	r1!, {s15}
  40126e:	eef5 7ac0 	vcmpe.f32	s15, #0.0
  401272:	9102      	str	r1, [sp, #8]
  401274:	eef1 fa10 	vmrs	APSR_nzcv, fpscr
  401278:	bfcc      	ite	gt
  40127a:	2101      	movgt	r1, #1
  40127c:	2100      	movle	r1, #0
  40127e:	280a      	cmp	r0, #10
  401280:	bf0c      	ite	eq
  401282:	2100      	moveq	r1, #0
  401284:	f001 0101 	andne.w	r1, r1, #1
  401288:	9106      	str	r1, [sp, #24]
  40128a:	2900      	cmp	r1, #0
  40128c:	d05e      	beq.n	40134c <create_harmonies+0x1a4>
  40128e:	ee86 7a27 	vdiv.f32	s14, s12, s15
  401292:	4603      	mov	r3, r0
		periodRatio = 1.0f / currentShifts[pitch_idx++]; 
  401294:	f44f 7200 	mov.w	r2, #512	; 0x200
		samplesLeftInPeriod = saved_samplesLeftInPeriod; 
		inPtr = saved_inPtr; 
		outPtr = saved_outPtr; 
  401298:	f8dd e010 	ldr.w	lr, [sp, #16]
		periodRatio = 1.0f / currentShifts[pitch_idx++]; 
  40129c:	3301      	adds	r3, #1
  40129e:	f8dd a00c 	ldr.w	sl, [sp, #12]
  4012a2:	9200      	str	r2, [sp, #0]
  4012a4:	9301      	str	r3, [sp, #4]
  4012a6:	9b05      	ldr	r3, [sp, #20]
  4012a8:	eefc 7ac7 	vcvt.u32.f32	s15, s14
  4012ac:	ee17 9a90 	vmov	r9, s15
		for (i = 0; i < WIN_SIZE; i++)
		{		
			if (samplesLeftInPeriod == 0)
  4012b0:	b95b      	cbnz	r3, 4012ca <create_harmonies+0x122>
			{
				outLag = 1; 
			
				inHalfAway = (inPtr + RING_BUFFER_SIZE_D2) & RING_BUFFER_MASK;
  4012b2:	f50a 5800 	add.w	r8, sl, #8192	; 0x2000
  4012b6:	f3c8 080d 	ubfx	r8, r8, #0, #14
                
				if (inHalfAway < RING_BUFFER_SIZE_D2) 
  4012ba:	f5b8 5f00 	cmp.w	r8, #8192	; 0x2000
  4012be:	d240      	bcs.n	401342 <create_harmonies+0x19a>
				{
					/* The zero element of the input buffer lies
						in (inptr, inHalfAway] */
					if (outPtr < inHalfAway || outPtr > inPtr) {
  4012c0:	45f2      	cmp	sl, lr
  4012c2:	d301      	bcc.n	4012c8 <create_harmonies+0x120>
  4012c4:	45f0      	cmp	r8, lr
  4012c6:	d914      	bls.n	4012f2 <create_harmonies+0x14a>
		periodRatio = 1.0f / currentShifts[pitch_idx++]; 
  4012c8:	4663      	mov	r3, ip
		for (i = 0; i < WIN_SIZE; i++)
  4012ca:	9a00      	ldr	r2, [sp, #0]
			}
		
			--samplesLeftInPeriod; 
		
			// inc/wrap input ring buffer index 
			inPtr = (inPtr+1) & RING_BUFFER_MASK; 		
  4012cc:	f10a 0a01 	add.w	sl, sl, #1
			--samplesLeftInPeriod; 
  4012d0:	3b01      	subs	r3, #1
		for (i = 0; i < WIN_SIZE; i++)
  4012d2:	3a01      	subs	r2, #1
			inPtr = (inPtr+1) & RING_BUFFER_MASK; 		
  4012d4:	f3ca 0a0d 	ubfx	sl, sl, #0, #14
		for (i = 0; i < WIN_SIZE; i++)
  4012d8:	9200      	str	r2, [sp, #0]
  4012da:	d1e9      	bne.n	4012b0 <create_harmonies+0x108>
  4012dc:	9a06      	ldr	r2, [sp, #24]
  4012de:	9902      	ldr	r1, [sp, #8]
  4012e0:	9801      	ldr	r0, [sp, #4]
  4012e2:	e7c2      	b.n	40126a <create_harmonies+0xc2>
					if (inHalfAway < RING_BUFFER_SIZE_D2) 
  4012e4:	f5b8 5f00 	cmp.w	r8, #8192	; 0x2000
  4012e8:	d228      	bcs.n	40133c <create_harmonies+0x194>
						if (outPtr < inHalfAway || outPtr > inPtr) {
  4012ea:	45f0      	cmp	r8, lr
  4012ec:	d8ec      	bhi.n	4012c8 <create_harmonies+0x120>
  4012ee:	45d6      	cmp	lr, sl
  4012f0:	d8ea      	bhi.n	4012c8 <create_harmonies+0x120>
					outPtr = (outPtr + (uint32_t)((float)inputPeriodLength * periodRatio)) & RING_BUFFER_MASK; 
  4012f2:	44ce      	add	lr, r9
					for (olaIdx = -inputPeriodLength, w = 0; olaIdx < inputPeriodLength; olaIdx++, w++)
  4012f4:	45dc      	cmp	ip, fp
					outPtr = (outPtr + (uint32_t)((float)inputPeriodLength * periodRatio)) & RING_BUFFER_MASK; 
  4012f6:	f3ce 0e0d 	ubfx	lr, lr, #0, #14
					for (olaIdx = -inputPeriodLength, w = 0; olaIdx < inputPeriodLength; olaIdx++, w++)
  4012fa:	ddf3      	ble.n	4012e4 <create_harmonies+0x13c>
  4012fc:	ebae 020c 	sub.w	r2, lr, ip
  401300:	4833      	ldr	r0, [pc, #204]	; (4013d0 <create_harmonies+0x228>)
  401302:	eb0e 050c 	add.w	r5, lr, ip
  401306:	ebaa 040e 	sub.w	r4, sl, lr
							window[w] * input_ring_buffer[(uint32_t)(olaIdx + (int64_t)inPtr) & RING_BUFFER_MASK]; 
  40130a:	18a3      	adds	r3, r4, r2
						output_ring_buffer[(uint32_t)(olaIdx + (int64_t)outPtr) & RING_BUFFER_MASK] += 
  40130c:	f3c2 010d 	ubfx	r1, r2, #0, #14
							window[w] * input_ring_buffer[(uint32_t)(olaIdx + (int64_t)inPtr) & RING_BUFFER_MASK]; 
  401310:	ecf0 6a01 	vldmia	r0!, {s13}
  401314:	3201      	adds	r2, #1
  401316:	f3c3 030d 	ubfx	r3, r3, #0, #14
						output_ring_buffer[(uint32_t)(olaIdx + (int64_t)outPtr) & RING_BUFFER_MASK] += 
  40131a:	eb06 0181 	add.w	r1, r6, r1, lsl #2
					for (olaIdx = -inputPeriodLength, w = 0; olaIdx < inputPeriodLength; olaIdx++, w++)
  40131e:	4295      	cmp	r5, r2
							window[w] * input_ring_buffer[(uint32_t)(olaIdx + (int64_t)inPtr) & RING_BUFFER_MASK]; 
  401320:	eb07 0383 	add.w	r3, r7, r3, lsl #2
						output_ring_buffer[(uint32_t)(olaIdx + (int64_t)outPtr) & RING_BUFFER_MASK] += 
  401324:	edd1 7a00 	vldr	s15, [r1]
  401328:	ed93 7a00 	vldr	s14, [r3]
  40132c:	eee6 7a87 	vfma.f32	s15, s13, s14
  401330:	edc1 7a00 	vstr	s15, [r1]
					for (olaIdx = -inputPeriodLength, w = 0; olaIdx < inputPeriodLength; olaIdx++, w++)
  401334:	d1e9      	bne.n	40130a <create_harmonies+0x162>
					if (inHalfAway < RING_BUFFER_SIZE_D2) 
  401336:	f5b8 5f00 	cmp.w	r8, #8192	; 0x2000
  40133a:	d3d6      	bcc.n	4012ea <create_harmonies+0x142>
						if (outPtr > inPtr && outPtr < inHalfAway) {
  40133c:	45d6      	cmp	lr, sl
  40133e:	d8c1      	bhi.n	4012c4 <create_harmonies+0x11c>
  401340:	e7d7      	b.n	4012f2 <create_harmonies+0x14a>
					if (outPtr > inPtr && outPtr < inHalfAway) {
  401342:	45f0      	cmp	r8, lr
  401344:	d9d5      	bls.n	4012f2 <create_harmonies+0x14a>
  401346:	45f2      	cmp	sl, lr
  401348:	d3be      	bcc.n	4012c8 <create_harmonies+0x120>
  40134a:	e7d2      	b.n	4012f2 <create_harmonies+0x14a>
  40134c:	b13a      	cbz	r2, 40135e <create_harmonies+0x1b6>
  40134e:	4a1c      	ldr	r2, [pc, #112]	; (4013c0 <create_harmonies+0x218>)
  401350:	f8c2 e000 	str.w	lr, [r2]
  401354:	4a1b      	ldr	r2, [pc, #108]	; (4013c4 <create_harmonies+0x21c>)
  401356:	6013      	str	r3, [r2, #0]
  401358:	4b18      	ldr	r3, [pc, #96]	; (4013bc <create_harmonies+0x214>)
  40135a:	f8c3 a000 	str.w	sl, [r3]
  40135e:	9a07      	ldr	r2, [sp, #28]
	}
	
	for(i = 0; i < WIN_SIZE; i++)
	{
		output[i] = output_ring_buffer[readPos]; 	
		output_ring_buffer[readPos] = 0.0f;
  401360:	2500      	movs	r5, #0
  401362:	491f      	ldr	r1, [pc, #124]	; (4013e0 <create_harmonies+0x238>)
  401364:	f502 6400 	add.w	r4, r2, #2048	; 0x800
  401368:	680b      	ldr	r3, [r1, #0]
		output[i] = output_ring_buffer[readPos]; 	
  40136a:	eb06 0083 	add.w	r0, r6, r3, lsl #2
		readPos = (readPos+1) & RING_BUFFER_MASK;
  40136e:	3301      	adds	r3, #1
		output[i] = output_ring_buffer[readPos]; 	
  401370:	6807      	ldr	r7, [r0, #0]
		readPos = (readPos+1) & RING_BUFFER_MASK;
  401372:	f3c3 030d 	ubfx	r3, r3, #0, #14
		output[i] = output_ring_buffer[readPos]; 	
  401376:	f842 7b04 	str.w	r7, [r2], #4
	for(i = 0; i < WIN_SIZE; i++)
  40137a:	42a2      	cmp	r2, r4
		output_ring_buffer[readPos] = 0.0f;
  40137c:	6005      	str	r5, [r0, #0]
	for(i = 0; i < WIN_SIZE; i++)
  40137e:	d1f4      	bne.n	40136a <create_harmonies+0x1c2>
	//if (prev_num_shifts < 1) prev_num_shifts = 1; // just in case 
	//arm_scale_f32(output, 1.0f / (float)prev_num_shifts, output, WIN_SIZE); 
	//prev_num_shifts = pitch_idx; 
	
	// variables for next harmonization  
	inputPeriodLength = (uint32_t)((float)PSOLA_SAMPLE_RATE / currentPitch);
  401380:	4c18      	ldr	r4, [pc, #96]	; (4013e4 <create_harmonies+0x23c>)
	currentPitch = inputPitch; 
	arm_copy_f32(pitch_shifts_in, currentShifts, MAX_NUM_SHIFTS); 
  401382:	220a      	movs	r2, #10
	inputPeriodLength = (uint32_t)((float)PSOLA_SAMPLE_RATE / currentPitch);
  401384:	eddf 6a18 	vldr	s13, [pc, #96]	; 4013e8 <create_harmonies+0x240>
  401388:	ed94 7a00 	vldr	s14, [r4]
  40138c:	600b      	str	r3, [r1, #0]
  40138e:	eec6 7a87 	vdiv.f32	s15, s13, s14
	currentPitch = inputPitch; 
  401392:	ed9d 7a08 	vldr	s14, [sp, #32]
	arm_copy_f32(pitch_shifts_in, currentShifts, MAX_NUM_SHIFTS); 
  401396:	9809      	ldr	r0, [sp, #36]	; 0x24
	currentPitch = inputPitch; 
  401398:	ed84 7a00 	vstr	s14, [r4]
	arm_copy_f32(pitch_shifts_in, currentShifts, MAX_NUM_SHIFTS); 
  40139c:	490e      	ldr	r1, [pc, #56]	; (4013d8 <create_harmonies+0x230>)
	inputPeriodLength = (uint32_t)((float)PSOLA_SAMPLE_RATE / currentPitch);
  40139e:	4c0a      	ldr	r4, [pc, #40]	; (4013c8 <create_harmonies+0x220>)
	arm_copy_f32(pitch_shifts_in, currentShifts, MAX_NUM_SHIFTS); 
  4013a0:	4b12      	ldr	r3, [pc, #72]	; (4013ec <create_harmonies+0x244>)
	inputPeriodLength = (uint32_t)((float)PSOLA_SAMPLE_RATE / currentPitch);
  4013a2:	eefc 7ae7 	vcvt.u32.f32	s15, s15
  4013a6:	edc4 7a00 	vstr	s15, [r4]
}
  4013aa:	b00b      	add	sp, #44	; 0x2c
  4013ac:	ecbd 8b04 	vpop	{d8-d9}
  4013b0:	e8bd 4ff0 	ldmia.w	sp!, {r4, r5, r6, r7, r8, r9, sl, fp, lr}
	arm_copy_f32(pitch_shifts_in, currentShifts, MAX_NUM_SHIFTS); 
  4013b4:	4718      	bx	r3
  4013b6:	bf00      	nop
  4013b8:	20402e58 	.word	0x20402e58
  4013bc:	20402e50 	.word	0x20402e50
  4013c0:	20412e58 	.word	0x20412e58
  4013c4:	20422e60 	.word	0x20422e60
  4013c8:	20402e54 	.word	0x20402e54
  4013cc:	40490fdb 	.word	0x40490fdb
  4013d0:	20422e64 	.word	0x20422e64
  4013d4:	004056e1 	.word	0x004056e1
  4013d8:	20402e24 	.word	0x20402e24
  4013dc:	20412e5c 	.word	0x20412e5c
  4013e0:	20422e5c 	.word	0x20422e5c
  4013e4:	20402e20 	.word	0x20402e20
  4013e8:	4735d600 	.word	0x4735d600
  4013ec:	004054d5 	.word	0x004054d5

004013f0 <mxt_init_device>:
 * \param chgpin IOPORT pin instance attached to the maXTouch device's /CHG pin
 * \return Operation result status code
 */
status_code_t mxt_init_device(struct mxt_device *device,
		twihs_master_t interface, uint8_t chip_adr, uint32_t chgpin)
{
  4013f0:	e92d 4ff0 	stmdb	sp!, {r4, r5, r6, r7, r8, r9, sl, fp, lr}
  4013f4:	4604      	mov	r4, r0

	/* Set TWI interface, TWI address and CHG-pin of the maXTouch device. */
	device->interface = interface;
	device->mxt_chip_adr = chip_adr;
	device->chgpin = chgpin;
	device->handler = NULL;
  4013f6:	2500      	movs	r5, #0
	device->chgpin = chgpin;
  4013f8:	6183      	str	r3, [r0, #24]
			malloc(sizeof(struct mxt_info_object));
  4013fa:	2007      	movs	r0, #7
{
  4013fc:	b089      	sub	sp, #36	; 0x24
	device->interface = interface;
  4013fe:	60a1      	str	r1, [r4, #8]
	device->handler = NULL;
  401400:	6125      	str	r5, [r4, #16]
{
  401402:	468a      	mov	sl, r1
	device->mxt_chip_adr = chip_adr;
  401404:	7322      	strb	r2, [r4, #12]
{
  401406:	4617      	mov	r7, r2
			malloc(sizeof(struct mxt_info_object));
  401408:	4e4e      	ldr	r6, [pc, #312]	; (401544 <mxt_init_device+0x154>)
	twihs_package_t packet = {
  40140a:	4681      	mov	r9, r0
			malloc(sizeof(struct mxt_info_object));
  40140c:	47b0      	blx	r6
  40140e:	4603      	mov	r3, r0
	twihs_package_t packet = {
  401410:	f04f 0802 	mov.w	r8, #2
  401414:	9507      	str	r5, [sp, #28]
  401416:	9503      	str	r5, [sp, #12]
	if (twihs_master_read(device->interface, &packet) != STATUS_OK) {
  401418:	4650      	mov	r0, sl
	device->info_object = (struct mxt_info_object *)
  40141a:	6023      	str	r3, [r4, #0]
	if (twihs_master_read(device->interface, &packet) != STATUS_OK) {
  40141c:	a903      	add	r1, sp, #12
  40141e:	4d4a      	ldr	r5, [pc, #296]	; (401548 <mxt_init_device+0x158>)
	twihs_package_t packet = {
  401420:	9305      	str	r3, [sp, #20]
  401422:	f88d 701c 	strb.w	r7, [sp, #28]
  401426:	f8cd 8010 	str.w	r8, [sp, #16]
  40142a:	f8cd 9018 	str.w	r9, [sp, #24]
	if (twihs_master_read(device->interface, &packet) != STATUS_OK) {
  40142e:	47a8      	blx	r5
  401430:	2800      	cmp	r0, #0
  401432:	f040 81d7 	bne.w	4017e4 <mxt_init_device+0x3f4>
			malloc(device->info_object->obj_count *
  401436:	f8d4 a000 	ldr.w	sl, [r4]
  40143a:	4607      	mov	r7, r0
  40143c:	f89a 0006 	ldrb.w	r0, [sl, #6]
  401440:	eb00 0040 	add.w	r0, r0, r0, lsl #1
  401444:	0040      	lsls	r0, r0, #1
  401446:	47b0      	blx	r6
	twihs_package_t packet = {
  401448:	9703      	str	r7, [sp, #12]
	device->object_list = (struct mxt_object *)
  40144a:	6060      	str	r0, [r4, #4]
	if (twihs_master_read(device->interface, &packet) != STATUS_OK) {
  40144c:	a903      	add	r1, sp, #12
	twihs_package_t packet = {
  40144e:	9005      	str	r0, [sp, #20]
  401450:	9706      	str	r7, [sp, #24]
  401452:	9707      	str	r7, [sp, #28]
  401454:	f88d 900c 	strb.w	r9, [sp, #12]
  401458:	f8cd 8010 	str.w	r8, [sp, #16]
		.length       = device->info_object->obj_count *
  40145c:	f89a 3006 	ldrb.w	r3, [sl, #6]
	twihs_package_t packet = {
  401460:	7b22      	ldrb	r2, [r4, #12]
		.length       = device->info_object->obj_count *
  401462:	eb03 0343 	add.w	r3, r3, r3, lsl #1
	if (twihs_master_read(device->interface, &packet) != STATUS_OK) {
  401466:	68a0      	ldr	r0, [r4, #8]
	twihs_package_t packet = {
  401468:	f88d 201c 	strb.w	r2, [sp, #28]
		.length       = device->info_object->obj_count *
  40146c:	005b      	lsls	r3, r3, #1
	twihs_package_t packet = {
  40146e:	9306      	str	r3, [sp, #24]
	if (twihs_master_read(device->interface, &packet) != STATUS_OK) {
  401470:	47a8      	blx	r5
  401472:	2800      	cmp	r0, #0
  401474:	f040 81b6 	bne.w	4017e4 <mxt_init_device+0x3f4>
  401478:	e894 0088 	ldmia.w	r4, {r3, r7}
	data_word = (uint16_t)((uint16_t)(byte2 << 8u) | byte1);
  40147c:	7819      	ldrb	r1, [r3, #0]
  40147e:	7858      	ldrb	r0, [r3, #1]
  401480:	78da      	ldrb	r2, [r3, #3]
	result = ((crc << 1u) ^ (uint32_t)data_word);
  401482:	ea41 2000 	orr.w	r0, r1, r0, lsl #8
	data_word = (uint16_t)((uint16_t)(byte2 << 8u) | byte1);
  401486:	7899      	ldrb	r1, [r3, #2]
  401488:	f893 e005 	ldrb.w	lr, [r3, #5]
	result = ((crc << 1u) ^ (uint32_t)data_word);
  40148c:	ea41 2102 	orr.w	r1, r1, r2, lsl #8
	data_word = (uint16_t)((uint16_t)(byte2 << 8u) | byte1);
  401490:	791a      	ldrb	r2, [r3, #4]
			(device->info_object->obj_count *
  401492:	799b      	ldrb	r3, [r3, #6]
	result = ((crc << 1u) ^ (uint32_t)data_word);
  401494:	ea81 0140 	eor.w	r1, r1, r0, lsl #1
	data_word = (uint16_t)((uint16_t)(byte2 << 8u) | byte1);
  401498:	7838      	ldrb	r0, [r7, #0]
	result = ((crc << 1u) ^ (uint32_t)data_word);
  40149a:	ea42 220e 	orr.w	r2, r2, lr, lsl #8
			(device->info_object->obj_count *
  40149e:	eb03 0c43 	add.w	ip, r3, r3, lsl #1
	result = ((crc << 1u) ^ (uint32_t)data_word);
  4014a2:	ea82 0241 	eor.w	r2, r2, r1, lsl #1
		result ^= crcpoly;
  4014a6:	4929      	ldr	r1, [pc, #164]	; (40154c <mxt_init_device+0x15c>)
	result = ((crc << 1u) ^ (uint32_t)data_word);
  4014a8:	ea43 2300 	orr.w	r3, r3, r0, lsl #8
			(device->info_object->obj_count *
  4014ac:	ea4f 0c4c 	mov.w	ip, ip, lsl #1
	result = ((crc << 1u) ^ (uint32_t)data_word);
  4014b0:	ea83 0342 	eor.w	r3, r3, r2, lsl #1
	crc_area_size = MXT_ID_BLOCK_SIZE +
  4014b4:	f10c 0c07 	add.w	ip, ip, #7
	if (result & 0x1000000) {
  4014b8:	01da      	lsls	r2, r3, #7
	crc_area_size = MXT_ID_BLOCK_SIZE +
  4014ba:	fa1f fc8c 	uxth.w	ip, ip
	if (result & 0x1000000) {
  4014be:	d43e      	bmi.n	40153e <mxt_init_device+0x14e>
	for (i = 1; i < (crc_area_size - MXT_ID_BLOCK_SIZE - 1); i += 2) {
  4014c0:	f1ac 0e08 	sub.w	lr, ip, #8
  4014c4:	f1be 0f01 	cmp.w	lr, #1
  4014c8:	dd13      	ble.n	4014f2 <mxt_init_device+0x102>
  4014ca:	2001      	movs	r0, #1
		result ^= crcpoly;
  4014cc:	f8df 807c 	ldr.w	r8, [pc, #124]	; 40154c <mxt_init_device+0x15c>
		crc_tmp = mxt_crc_24(crc_tmp, objects_pointer[i],
  4014d0:	1839      	adds	r1, r7, r0
	data_word = (uint16_t)((uint16_t)(byte2 << 8u) | byte1);
  4014d2:	5c3a      	ldrb	r2, [r7, r0]
	for (i = 1; i < (crc_area_size - MXT_ID_BLOCK_SIZE - 1); i += 2) {
  4014d4:	3002      	adds	r0, #2
	data_word = (uint16_t)((uint16_t)(byte2 << 8u) | byte1);
  4014d6:	7849      	ldrb	r1, [r1, #1]
	for (i = 1; i < (crc_area_size - MXT_ID_BLOCK_SIZE - 1); i += 2) {
  4014d8:	b280      	uxth	r0, r0
	result = ((crc << 1u) ^ (uint32_t)data_word);
  4014da:	ea42 2201 	orr.w	r2, r2, r1, lsl #8
  4014de:	ea82 0343 	eor.w	r3, r2, r3, lsl #1
  4014e2:	f013 7f80 	tst.w	r3, #16777216	; 0x1000000
		result ^= crcpoly;
  4014e6:	ea83 0208 	eor.w	r2, r3, r8
  4014ea:	bf18      	it	ne
  4014ec:	4613      	movne	r3, r2
	for (i = 1; i < (crc_area_size - MXT_ID_BLOCK_SIZE - 1); i += 2) {
  4014ee:	4570      	cmp	r0, lr
  4014f0:	dbee      	blt.n	4014d0 <mxt_init_device+0xe0>
	crc_tmp = mxt_crc_24(crc_tmp,
  4014f2:	4467      	add	r7, ip
	result = ((crc << 1u) ^ (uint32_t)data_word);
  4014f4:	f817 7c08 	ldrb.w	r7, [r7, #-8]
  4014f8:	ea87 0743 	eor.w	r7, r7, r3, lsl #1
	if (result & 0x1000000) {
  4014fc:	01f9      	lsls	r1, r7, #7
  4014fe:	d503      	bpl.n	401508 <mxt_init_device+0x118>
		result ^= crcpoly;
  401500:	f487 0700 	eor.w	r7, r7, #8388608	; 0x800000
  401504:	f087 071b 	eor.w	r7, r7, #27
	twihs_package_t packet = {
  401508:	2002      	movs	r0, #2
  40150a:	2300      	movs	r3, #0
  40150c:	ea4f 2e1c 	mov.w	lr, ip, lsr #8
  401510:	2203      	movs	r2, #3
  401512:	9004      	str	r0, [sp, #16]
  401514:	a802      	add	r0, sp, #8
  401516:	9303      	str	r3, [sp, #12]
	if (twihs_master_read(device->interface, &packet) != STATUS_OK) {
  401518:	a903      	add	r1, sp, #12
	twihs_package_t packet = {
  40151a:	9307      	str	r3, [sp, #28]
  40151c:	7b23      	ldrb	r3, [r4, #12]
  40151e:	9005      	str	r0, [sp, #20]
	if (twihs_master_read(device->interface, &packet) != STATUS_OK) {
  401520:	68a0      	ldr	r0, [r4, #8]
	twihs_package_t packet = {
  401522:	f88d c00c 	strb.w	ip, [sp, #12]
  401526:	f88d e00d 	strb.w	lr, [sp, #13]
  40152a:	9206      	str	r2, [sp, #24]
  40152c:	f88d 301c 	strb.w	r3, [sp, #28]
	if (twihs_master_read(device->interface, &packet) != STATUS_OK) {
  401530:	47a8      	blx	r5
  401532:	b168      	cbz	r0, 401550 <mxt_init_device+0x160>
		return ERR_BAD_DATA;
  401534:	f06f 0003 	mvn.w	r0, #3
	}

	device->multitouch_report_offset = status;

	return STATUS_OK;
}
  401538:	b009      	add	sp, #36	; 0x24
  40153a:	e8bd 8ff0 	ldmia.w	sp!, {r4, r5, r6, r7, r8, r9, sl, fp, pc}
		result ^= crcpoly;
  40153e:	404b      	eors	r3, r1
  401540:	e7be      	b.n	4014c0 <mxt_init_device+0xd0>
  401542:	bf00      	nop
  401544:	004058dd 	.word	0x004058dd
  401548:	00402101 	.word	0x00402101
  40154c:	0080001b 	.word	0x0080001b
		return ((uint32_t)crc[2] << 16) | ((uint16_t)crc[1] << 8) | crc[0];
  401550:	f89d 500a 	ldrb.w	r5, [sp, #10]
	*crc = (crc_tmp & 0x00FFFFFF);
  401554:	f027 437f 	bic.w	r3, r7, #4278190080	; 0xff000000
		return ((uint32_t)crc[2] << 16) | ((uint16_t)crc[1] << 8) | crc[0];
  401558:	f89d 2008 	ldrb.w	r2, [sp, #8]
  40155c:	f89d 1009 	ldrb.w	r1, [sp, #9]
  401560:	ea42 4205 	orr.w	r2, r2, r5, lsl #16
  401564:	ea42 2201 	orr.w	r2, r2, r1, lsl #8
	if (crc_calculated != crc_read) {
  401568:	429a      	cmp	r2, r3
  40156a:	d1e3      	bne.n	401534 <mxt_init_device+0x144>
  40156c:	6823      	ldr	r3, [r4, #0]
	for (i = 0; i < device->info_object->obj_count; ++i) {
  40156e:	799f      	ldrb	r7, [r3, #6]
  401570:	9301      	str	r3, [sp, #4]
  401572:	2f00      	cmp	r7, #0
  401574:	f000 8139 	beq.w	4017ea <mxt_init_device+0x3fa>
  401578:	f1a7 0a08 	sub.w	sl, r7, #8
  40157c:	1e7b      	subs	r3, r7, #1
  40157e:	f8d4 8004 	ldr.w	r8, [r4, #4]
  401582:	f3ca 0ac4 	ubfx	sl, sl, #3, #5
  401586:	2b43      	cmp	r3, #67	; 0x43
  401588:	4603      	mov	r3, r0
  40158a:	f10a 0a01 	add.w	sl, sl, #1
  40158e:	ea4f 02ca 	mov.w	r2, sl, lsl #3
  401592:	b2d2      	uxtb	r2, r2
  401594:	f240 8116 	bls.w	4017c4 <mxt_init_device+0x3d4>
  401598:	f108 0935 	add.w	r9, r8, #53	; 0x35
  40159c:	4686      	mov	lr, r0
  40159e:	4601      	mov	r1, r0
		tot_report_ids += (device->object_list[i].num_report_ids);
  4015a0:	2000      	movs	r0, #0
  4015a2:	f819 cc18 	ldrb.w	ip, [r9, #-24]
  4015a6:	f819 bc30 	ldrb.w	fp, [r9, #-48]
  4015aa:	3301      	adds	r3, #1
  4015ac:	4605      	mov	r5, r0
  4015ae:	f109 0930 	add.w	r9, r9, #48	; 0x30
  4015b2:	f36b 0007 	bfi	r0, fp, #0, #8
  4015b6:	f819 bc42 	ldrb.w	fp, [r9, #-66]
  4015ba:	f36c 0507 	bfi	r5, ip, #0, #8
  4015be:	f819 cc5a 	ldrb.w	ip, [r9, #-90]
  4015c2:	f36b 250f 	bfi	r5, fp, #8, #8
  4015c6:	f819 bc3c 	ldrb.w	fp, [r9, #-60]
  4015ca:	f36c 200f 	bfi	r0, ip, #8, #8
  4015ce:	f819 cc54 	ldrb.w	ip, [r9, #-84]
  4015d2:	f36b 4517 	bfi	r5, fp, #16, #8
  4015d6:	f819 bc36 	ldrb.w	fp, [r9, #-54]
  4015da:	f36c 4017 	bfi	r0, ip, #16, #8
  4015de:	f819 cc4e 	ldrb.w	ip, [r9, #-78]
  4015e2:	f36b 651f 	bfi	r5, fp, #24, #8
  4015e6:	f001 3b7f 	and.w	fp, r1, #2139062143	; 0x7f7f7f7f
  4015ea:	f36c 601f 	bfi	r0, ip, #24, #8
  4015ee:	f005 3c7f 	and.w	ip, r5, #2139062143	; 0x7f7f7f7f
  4015f2:	4069      	eors	r1, r5
  4015f4:	f000 357f 	and.w	r5, r0, #2139062143	; 0x7f7f7f7f
  4015f8:	ea80 000e 	eor.w	r0, r0, lr
  4015fc:	44dc      	add	ip, fp
  4015fe:	f00e 3e7f 	and.w	lr, lr, #2139062143	; 0x7f7f7f7f
  401602:	fa5f fb83 	uxtb.w	fp, r3
  401606:	f001 3180 	and.w	r1, r1, #2155905152	; 0x80808080
  40160a:	f000 3080 	and.w	r0, r0, #2155905152	; 0x80808080
  40160e:	44ae      	add	lr, r5
  401610:	45da      	cmp	sl, fp
  401612:	ea8c 0101 	eor.w	r1, ip, r1
  401616:	ea8e 0e00 	eor.w	lr, lr, r0
  40161a:	d8c1      	bhi.n	4015a0 <mxt_init_device+0x1b0>
  40161c:	f3ce 2307 	ubfx	r3, lr, #8, #8
  401620:	f3ce 4c07 	ubfx	ip, lr, #16, #8
  401624:	f3c1 2507 	ubfx	r5, r1, #8, #8
  401628:	f3c1 4007 	ubfx	r0, r1, #16, #8
  40162c:	4473      	add	r3, lr
  40162e:	4297      	cmp	r7, r2
  401630:	4463      	add	r3, ip
  401632:	eb03 631e 	add.w	r3, r3, lr, lsr #24
  401636:	440b      	add	r3, r1
  401638:	442b      	add	r3, r5
  40163a:	4403      	add	r3, r0
  40163c:	eb03 6311 	add.w	r3, r3, r1, lsr #24
  401640:	b2db      	uxtb	r3, r3
  401642:	d00a      	beq.n	40165a <mxt_init_device+0x26a>
  401644:	eb02 0142 	add.w	r1, r2, r2, lsl #1
	for (i = 0; i < device->info_object->obj_count; ++i) {
  401648:	3201      	adds	r2, #1
		tot_report_ids += (device->object_list[i].num_report_ids);
  40164a:	eb08 0141 	add.w	r1, r8, r1, lsl #1
	for (i = 0; i < device->info_object->obj_count; ++i) {
  40164e:	b2d2      	uxtb	r2, r2
		tot_report_ids += (device->object_list[i].num_report_ids);
  401650:	7949      	ldrb	r1, [r1, #5]
	for (i = 0; i < device->info_object->obj_count; ++i) {
  401652:	4297      	cmp	r7, r2
		tot_report_ids += (device->object_list[i].num_report_ids);
  401654:	440b      	add	r3, r1
  401656:	b2db      	uxtb	r3, r3
	for (i = 0; i < device->info_object->obj_count; ++i) {
  401658:	d8f4      	bhi.n	401644 <mxt_init_device+0x254>
  40165a:	0058      	lsls	r0, r3, #1
			malloc(sizeof(struct mxt_report_id_map) *
  40165c:	47b0      	blx	r6
	for (i = 0; i < device->info_object->obj_count; ++i) {
  40165e:	9b01      	ldr	r3, [sp, #4]
	device->report_id_map = (struct mxt_report_id_map *)
  401660:	6160      	str	r0, [r4, #20]
	for (i = 0; i < device->info_object->obj_count; ++i) {
  401662:	799b      	ldrb	r3, [r3, #6]
  401664:	2b00      	cmp	r3, #0
  401666:	f43f af65 	beq.w	401534 <mxt_init_device+0x144>
  40166a:	6860      	ldr	r0, [r4, #4]
  40166c:	f04f 0c00 	mov.w	ip, #0
  401670:	2701      	movs	r7, #1
		for (j = 0; j <= device->object_list[i].instances; ++j) {
  401672:	eb0c 0e4c 	add.w	lr, ip, ip, lsl #1
  401676:	2500      	movs	r5, #0
  401678:	ea4f 0e4e 	mov.w	lr, lr, lsl #1
  40167c:	eb00 010e 	add.w	r1, r0, lr
			if (device->object_list[i].num_report_ids != 0) {
  401680:	794b      	ldrb	r3, [r1, #5]
  401682:	b1a3      	cbz	r3, 4016ae <mxt_init_device+0x2be>
				for (k = 0; k < device->object_list[i].num_report_ids; ++k) {
  401684:	463b      	mov	r3, r7
					device->report_id_map[id_index].object_type =
  401686:	b218      	sxth	r0, r3
  401688:	6962      	ldr	r2, [r4, #20]
							device->object_list[i].type;
  40168a:	7809      	ldrb	r1, [r1, #0]
					id_index++;
  40168c:	3301      	adds	r3, #1
					device->report_id_map[id_index].object_type =
  40168e:	f802 1010 	strb.w	r1, [r2, r0, lsl #1]
					id_index++;
  401692:	b2db      	uxtb	r3, r3
					device->report_id_map[id_index].instance = j;
  401694:	6961      	ldr	r1, [r4, #20]
				for (k = 0; k < device->object_list[i].num_report_ids; ++k) {
  401696:	1bda      	subs	r2, r3, r7
					device->report_id_map[id_index].instance = j;
  401698:	eb01 0140 	add.w	r1, r1, r0, lsl #1
				for (k = 0; k < device->object_list[i].num_report_ids; ++k) {
  40169c:	b2d2      	uxtb	r2, r2
					device->report_id_map[id_index].instance = j;
  40169e:	704d      	strb	r5, [r1, #1]
				for (k = 0; k < device->object_list[i].num_report_ids; ++k) {
  4016a0:	6860      	ldr	r0, [r4, #4]
  4016a2:	eb00 010e 	add.w	r1, r0, lr
  4016a6:	794e      	ldrb	r6, [r1, #5]
  4016a8:	4296      	cmp	r6, r2
  4016aa:	d8ec      	bhi.n	401686 <mxt_init_device+0x296>
					id_index++;
  4016ac:	461f      	mov	r7, r3
		for (j = 0; j <= device->object_list[i].instances; ++j) {
  4016ae:	3501      	adds	r5, #1
  4016b0:	790b      	ldrb	r3, [r1, #4]
  4016b2:	b2ed      	uxtb	r5, r5
  4016b4:	42ab      	cmp	r3, r5
  4016b6:	d2e3      	bcs.n	401680 <mxt_init_device+0x290>
	for (i = 0; i < device->info_object->obj_count; ++i) {
  4016b8:	f10c 0c01 	add.w	ip, ip, #1
  4016bc:	6823      	ldr	r3, [r4, #0]
  4016be:	fa5f fc8c 	uxtb.w	ip, ip
  4016c2:	7999      	ldrb	r1, [r3, #6]
  4016c4:	458c      	cmp	ip, r1
  4016c6:	d3d4      	bcc.n	401672 <mxt_init_device+0x282>
	for (i = 0; i < device->info_object->obj_count; ++i) {
  4016c8:	2900      	cmp	r1, #0
  4016ca:	f43f af33 	beq.w	401534 <mxt_init_device+0x144>
  4016ce:	f1a1 0c08 	sub.w	ip, r1, #8
  4016d2:	1e4b      	subs	r3, r1, #1
  4016d4:	f3cc 0cc4 	ubfx	ip, ip, #3, #5
  4016d8:	2b43      	cmp	r3, #67	; 0x43
  4016da:	f10c 0c01 	add.w	ip, ip, #1
  4016de:	ea4f 05cc 	mov.w	r5, ip, lsl #3
  4016e2:	b2ed      	uxtb	r5, r5
  4016e4:	d970      	bls.n	4017c8 <mxt_init_device+0x3d8>
  4016e6:	f04f 0800 	mov.w	r8, #0
  4016ea:	f100 0735 	add.w	r7, r0, #53	; 0x35
  4016ee:	4642      	mov	r2, r8
  4016f0:	4646      	mov	r6, r8
		tot_report_ids += (device->object_list[i].num_report_ids);
  4016f2:	2300      	movs	r3, #0
  4016f4:	f817 9c18 	ldrb.w	r9, [r7, #-24]
  4016f8:	f817 ac30 	ldrb.w	sl, [r7, #-48]
  4016fc:	f108 0801 	add.w	r8, r8, #1
  401700:	469e      	mov	lr, r3
  401702:	3730      	adds	r7, #48	; 0x30
  401704:	f36a 0307 	bfi	r3, sl, #0, #8
  401708:	f817 ac42 	ldrb.w	sl, [r7, #-66]
  40170c:	f369 0e07 	bfi	lr, r9, #0, #8
  401710:	f817 9c5a 	ldrb.w	r9, [r7, #-90]
  401714:	f36a 2e0f 	bfi	lr, sl, #8, #8
  401718:	f369 230f 	bfi	r3, r9, #8, #8
  40171c:	f817 ac3c 	ldrb.w	sl, [r7, #-60]
  401720:	f817 9c54 	ldrb.w	r9, [r7, #-84]
  401724:	f36a 4e17 	bfi	lr, sl, #16, #8
  401728:	f817 ac36 	ldrb.w	sl, [r7, #-54]
  40172c:	f369 4317 	bfi	r3, r9, #16, #8
  401730:	f817 9c4e 	ldrb.w	r9, [r7, #-78]
  401734:	f36a 6e1f 	bfi	lr, sl, #24, #8
  401738:	f006 3a7f 	and.w	sl, r6, #2139062143	; 0x7f7f7f7f
  40173c:	f369 631f 	bfi	r3, r9, #24, #8
  401740:	ea8e 0606 	eor.w	r6, lr, r6
  401744:	f00e 397f 	and.w	r9, lr, #2139062143	; 0x7f7f7f7f
  401748:	f003 3b7f 	and.w	fp, r3, #2139062143	; 0x7f7f7f7f
  40174c:	fa5f fe88 	uxtb.w	lr, r8
  401750:	4053      	eors	r3, r2
  401752:	f002 327f 	and.w	r2, r2, #2139062143	; 0x7f7f7f7f
  401756:	f006 3680 	and.w	r6, r6, #2155905152	; 0x80808080
  40175a:	44d1      	add	r9, sl
  40175c:	f003 3380 	and.w	r3, r3, #2155905152	; 0x80808080
  401760:	445a      	add	r2, fp
  401762:	45f4      	cmp	ip, lr
  401764:	ea89 0606 	eor.w	r6, r9, r6
  401768:	ea82 0203 	eor.w	r2, r2, r3
  40176c:	d8c1      	bhi.n	4016f2 <mxt_init_device+0x302>
  40176e:	f3c2 2307 	ubfx	r3, r2, #8, #8
  401772:	f3c2 4c07 	ubfx	ip, r2, #16, #8
  401776:	f3c6 2e07 	ubfx	lr, r6, #8, #8
  40177a:	f3c6 4707 	ubfx	r7, r6, #16, #8
  40177e:	4413      	add	r3, r2
  401780:	42a9      	cmp	r1, r5
  401782:	4463      	add	r3, ip
  401784:	eb03 6312 	add.w	r3, r3, r2, lsr #24
  401788:	4433      	add	r3, r6
  40178a:	4473      	add	r3, lr
  40178c:	443b      	add	r3, r7
  40178e:	eb03 6316 	add.w	r3, r3, r6, lsr #24
  401792:	b2db      	uxtb	r3, r3
  401794:	d11a      	bne.n	4017cc <mxt_init_device+0x3dc>
	for (i = 0; i < tot_rpt_id; ++i) {
  401796:	2b00      	cmp	r3, #0
  401798:	f43f aecc 	beq.w	401534 <mxt_init_device+0x144>
		if (device->report_id_map[i].object_type == object_type) {
  40179c:	6961      	ldr	r1, [r4, #20]
  40179e:	780a      	ldrb	r2, [r1, #0]
  4017a0:	2a09      	cmp	r2, #9
  4017a2:	d024      	beq.n	4017ee <mxt_init_device+0x3fe>
  4017a4:	2200      	movs	r2, #0
	for (i = 0; i < tot_rpt_id; ++i) {
  4017a6:	3201      	adds	r2, #1
  4017a8:	b2d2      	uxtb	r2, r2
  4017aa:	429a      	cmp	r2, r3
  4017ac:	f43f aec2 	beq.w	401534 <mxt_init_device+0x144>
		if (device->report_id_map[i].object_type == object_type) {
  4017b0:	f811 0f02 	ldrb.w	r0, [r1, #2]!
  4017b4:	2809      	cmp	r0, #9
  4017b6:	d1f6      	bne.n	4017a6 <mxt_init_device+0x3b6>
  4017b8:	b252      	sxtb	r2, r2
	return STATUS_OK;
  4017ba:	2000      	movs	r0, #0
	device->multitouch_report_offset = status;
  4017bc:	7722      	strb	r2, [r4, #28]
}
  4017be:	b009      	add	sp, #36	; 0x24
  4017c0:	e8bd 8ff0 	ldmia.w	sp!, {r4, r5, r6, r7, r8, r9, sl, fp, pc}
	for (i = 0; i < device->info_object->obj_count; ++i) {
  4017c4:	4602      	mov	r2, r0
  4017c6:	e73d      	b.n	401644 <mxt_init_device+0x254>
	for (i = 0; i < device->info_object->obj_count; ++i) {
  4017c8:	2300      	movs	r3, #0
  4017ca:	461d      	mov	r5, r3
		tot_report_ids += (device->object_list[i].num_report_ids);
  4017cc:	eb05 0245 	add.w	r2, r5, r5, lsl #1
	for (i = 0; i < device->info_object->obj_count; ++i) {
  4017d0:	3501      	adds	r5, #1
		tot_report_ids += (device->object_list[i].num_report_ids);
  4017d2:	eb00 0242 	add.w	r2, r0, r2, lsl #1
	for (i = 0; i < device->info_object->obj_count; ++i) {
  4017d6:	b2ed      	uxtb	r5, r5
		tot_report_ids += (device->object_list[i].num_report_ids);
  4017d8:	7952      	ldrb	r2, [r2, #5]
	for (i = 0; i < device->info_object->obj_count; ++i) {
  4017da:	42a9      	cmp	r1, r5
		tot_report_ids += (device->object_list[i].num_report_ids);
  4017dc:	4413      	add	r3, r2
  4017de:	b2db      	uxtb	r3, r3
	for (i = 0; i < device->info_object->obj_count; ++i) {
  4017e0:	d8f4      	bhi.n	4017cc <mxt_init_device+0x3dc>
  4017e2:	e7d8      	b.n	401796 <mxt_init_device+0x3a6>
  4017e4:	f04f 30ff 	mov.w	r0, #4294967295
  4017e8:	e6a6      	b.n	401538 <mxt_init_device+0x148>
	for (i = 0; i < device->info_object->obj_count; ++i) {
  4017ea:	4638      	mov	r0, r7
  4017ec:	e736      	b.n	40165c <mxt_init_device+0x26c>
		if (device->report_id_map[i].object_type == object_type) {
  4017ee:	2200      	movs	r2, #0
  4017f0:	e7e3      	b.n	4017ba <mxt_init_device+0x3ca>
  4017f2:	bf00      	nop

004017f4 <mxt_get_object_address>:
uint16_t mxt_get_object_address(struct mxt_device *device, uint8_t object_id,
		uint8_t instance)
{
	uint8_t i;

	for (i = 0; i < device->info_object->obj_count; i++) {
  4017f4:	6803      	ldr	r3, [r0, #0]
  4017f6:	799b      	ldrb	r3, [r3, #6]
  4017f8:	b1eb      	cbz	r3, 401836 <mxt_get_object_address+0x42>
{
  4017fa:	b410      	push	{r4}
		if (object_id == device->object_list[i].type) {
  4017fc:	6844      	ldr	r4, [r0, #4]
  4017fe:	7822      	ldrb	r2, [r4, #0]
  401800:	428a      	cmp	r2, r1
  401802:	d013      	beq.n	40182c <mxt_get_object_address+0x38>
  401804:	1e5a      	subs	r2, r3, #1
  401806:	1da3      	adds	r3, r4, #6
  401808:	b2d2      	uxtb	r2, r2
  40180a:	3201      	adds	r2, #1
  40180c:	eb02 0242 	add.w	r2, r2, r2, lsl #1
  401810:	eb04 0242 	add.w	r2, r4, r2, lsl #1
  401814:	e003      	b.n	40181e <mxt_get_object_address+0x2a>
  401816:	f813 0b06 	ldrb.w	r0, [r3], #6
  40181a:	4288      	cmp	r0, r1
  40181c:	d006      	beq.n	40182c <mxt_get_object_address+0x38>
	for (i = 0; i < device->info_object->obj_count; i++) {
  40181e:	4293      	cmp	r3, r2
		if (object_id == device->object_list[i].type) {
  401820:	461c      	mov	r4, r3
	for (i = 0; i < device->info_object->obj_count; i++) {
  401822:	d1f8      	bne.n	401816 <mxt_get_object_address+0x22>
			return device->object_list[i].start_address;
		}
	}

	return 0;
  401824:	2000      	movs	r0, #0
}
  401826:	f85d 4b04 	ldr.w	r4, [sp], #4
  40182a:	4770      	bx	lr
			return device->object_list[i].start_address;
  40182c:	f8b4 0001 	ldrh.w	r0, [r4, #1]
}
  401830:	f85d 4b04 	ldr.w	r4, [sp], #4
  401834:	4770      	bx	lr
	return 0;
  401836:	4618      	mov	r0, r3
  401838:	4770      	bx	lr
  40183a:	bf00      	nop

0040183c <mxt_write_config_object>:
 * \param *obj_data Pointer to memory buffer containing object data
 * \result Operation result status code
 */
status_code_t mxt_write_config_object(struct mxt_device *device,
		mxt_memory_adr memory_adr, void *obj_data)
{
  40183c:	b530      	push	{r4, r5, lr}
	/* Initializing the TWI packet to send to the slave */
	twihs_package_t packet = {
  40183e:	2300      	movs	r3, #0
{
  401840:	b087      	sub	sp, #28
	for (i = 0; i < device->info_object->obj_count; ++i) {
  401842:	6804      	ldr	r4, [r0, #0]
	twihs_package_t packet = {
  401844:	2502      	movs	r5, #2
  401846:	9301      	str	r3, [sp, #4]
  401848:	9203      	str	r2, [sp, #12]
  40184a:	0a0a      	lsrs	r2, r1, #8
  40184c:	9304      	str	r3, [sp, #16]
  40184e:	9305      	str	r3, [sp, #20]
  401850:	9502      	str	r5, [sp, #8]
	for (i = 0; i < device->info_object->obj_count; ++i) {
  401852:	79a3      	ldrb	r3, [r4, #6]
	twihs_package_t packet = {
  401854:	f88d 1004 	strb.w	r1, [sp, #4]
  401858:	f88d 2005 	strb.w	r2, [sp, #5]
	for (i = 0; i < device->info_object->obj_count; ++i) {
  40185c:	b1bb      	cbz	r3, 40188e <mxt_write_config_object+0x52>
		if (device->object_list[i].start_address == mem_adr) {
  40185e:	6844      	ldr	r4, [r0, #4]
  401860:	f8b4 2001 	ldrh.w	r2, [r4, #1]
  401864:	428a      	cmp	r2, r1
  401866:	d020      	beq.n	4018aa <mxt_write_config_object+0x6e>
  401868:	1e5a      	subs	r2, r3, #1
  40186a:	1da3      	adds	r3, r4, #6
  40186c:	b2d2      	uxtb	r2, r2
  40186e:	3201      	adds	r2, #1
  401870:	eb02 0242 	add.w	r2, r2, r2, lsl #1
  401874:	eb04 0242 	add.w	r2, r4, r2, lsl #1
  401878:	e003      	b.n	401882 <mxt_write_config_object+0x46>
  40187a:	f8b4 5001 	ldrh.w	r5, [r4, #1]
  40187e:	428d      	cmp	r5, r1
  401880:	d013      	beq.n	4018aa <mxt_write_config_object+0x6e>
	for (i = 0; i < device->info_object->obj_count; ++i) {
  401882:	429a      	cmp	r2, r3
		if (device->object_list[i].start_address == mem_adr) {
  401884:	461c      	mov	r4, r3
  401886:	f103 0306 	add.w	r3, r3, #6
	for (i = 0; i < device->info_object->obj_count; ++i) {
  40188a:	d1f6      	bne.n	40187a <mxt_write_config_object+0x3e>
  40188c:	2300      	movs	r3, #0
	twihs_package_t packet = {
  40188e:	7b04      	ldrb	r4, [r0, #12]
		.chip         = device->mxt_chip_adr,
		.buffer       = obj_data,
		.length       = mxt_get_object_size(device, memory_adr)
	};

	if (twihs_master_write(device->interface, &packet) != STATUS_OK) {
  401890:	a901      	add	r1, sp, #4
  401892:	4a08      	ldr	r2, [pc, #32]	; (4018b4 <mxt_write_config_object+0x78>)
  401894:	6880      	ldr	r0, [r0, #8]
	twihs_package_t packet = {
  401896:	9304      	str	r3, [sp, #16]
  401898:	f88d 4014 	strb.w	r4, [sp, #20]
	if (twihs_master_write(device->interface, &packet) != STATUS_OK) {
  40189c:	4790      	blx	r2
  40189e:	3000      	adds	r0, #0
  4018a0:	bf18      	it	ne
  4018a2:	2001      	movne	r0, #1
		return ERR_IO_ERROR;
	} else {
		return STATUS_OK;
	}

}
  4018a4:	4240      	negs	r0, r0
  4018a6:	b007      	add	sp, #28
  4018a8:	bd30      	pop	{r4, r5, pc}
			return (device->object_list[i].size + 1);
  4018aa:	78e3      	ldrb	r3, [r4, #3]
  4018ac:	3301      	adds	r3, #1
  4018ae:	b2db      	uxtb	r3, r3
  4018b0:	e7ed      	b.n	40188e <mxt_write_config_object+0x52>
  4018b2:	bf00      	nop
  4018b4:	004021b5 	.word	0x004021b5

004018b8 <mxt_write_config_reg>:
 * \param value Value to be written to register
 * \result Operation result status code
 */
status_code_t mxt_write_config_reg(struct mxt_device *device,
		mxt_memory_adr memory_adr, uint8_t value)
{
  4018b8:	b5f0      	push	{r4, r5, r6, r7, lr}
  4018ba:	b089      	sub	sp, #36	; 0x24
  4018bc:	460c      	mov	r4, r1
	/* Initializing the TWI packet to send to the slave */
	twihs_package_t packet = {
  4018be:	2300      	movs	r3, #0
  4018c0:	0a09      	lsrs	r1, r1, #8
  4018c2:	7b07      	ldrb	r7, [r0, #12]
  4018c4:	2602      	movs	r6, #2
{
  4018c6:	f88d 2007 	strb.w	r2, [sp, #7]
	twihs_package_t packet = {
  4018ca:	f10d 0507 	add.w	r5, sp, #7
  4018ce:	2201      	movs	r2, #1
  4018d0:	9303      	str	r3, [sp, #12]
  4018d2:	9307      	str	r3, [sp, #28]
  4018d4:	f88d 100d 	strb.w	r1, [sp, #13]
		.chip         = device->mxt_chip_adr,
		.buffer       = &value,
		.length       = sizeof(value)
	};

	if (twihs_master_write(device->interface, &packet) != STATUS_OK) {
  4018d8:	a903      	add	r1, sp, #12
  4018da:	4b08      	ldr	r3, [pc, #32]	; (4018fc <mxt_write_config_reg+0x44>)
  4018dc:	6880      	ldr	r0, [r0, #8]
	twihs_package_t packet = {
  4018de:	f88d 400c 	strb.w	r4, [sp, #12]
  4018e2:	f88d 701c 	strb.w	r7, [sp, #28]
  4018e6:	9604      	str	r6, [sp, #16]
  4018e8:	9505      	str	r5, [sp, #20]
  4018ea:	9206      	str	r2, [sp, #24]
	if (twihs_master_write(device->interface, &packet) != STATUS_OK) {
  4018ec:	4798      	blx	r3
  4018ee:	3000      	adds	r0, #0
  4018f0:	bf18      	it	ne
  4018f2:	2001      	movne	r0, #1
		return ERR_IO_ERROR;
	} else {
		return STATUS_OK;
	}
}
  4018f4:	4240      	negs	r0, r0
  4018f6:	b009      	add	sp, #36	; 0x24
  4018f8:	bdf0      	pop	{r4, r5, r6, r7, pc}
  4018fa:	bf00      	nop
  4018fc:	004021b5 	.word	0x004021b5

00401900 <mxt_read_message>:
 * \param *message Pointer to mxt_message instance
 * \return Operation result status code
 */
status_code_t mxt_read_message(struct mxt_device *device,
		struct mxt_conf_messageprocessor_t5 *message)
{
  401900:	b5f0      	push	{r4, r5, r6, r7, lr}
	for (i = 0; i < device->info_object->obj_count; i++) {
  401902:	6803      	ldr	r3, [r0, #0]
{
  401904:	b087      	sub	sp, #28
	for (i = 0; i < device->info_object->obj_count; i++) {
  401906:	799b      	ldrb	r3, [r3, #6]
  401908:	2b00      	cmp	r3, #0
  40190a:	d033      	beq.n	401974 <mxt_read_message+0x74>
		if (object_id == device->object_list[i].type) {
  40190c:	6845      	ldr	r5, [r0, #4]
  40190e:	782a      	ldrb	r2, [r5, #0]
  401910:	2a05      	cmp	r2, #5
  401912:	d02a      	beq.n	40196a <mxt_read_message+0x6a>
  401914:	1e5a      	subs	r2, r3, #1
  401916:	1dab      	adds	r3, r5, #6
  401918:	b2d2      	uxtb	r2, r2
  40191a:	3201      	adds	r2, #1
  40191c:	eb02 0242 	add.w	r2, r2, r2, lsl #1
  401920:	eb05 0242 	add.w	r2, r5, r2, lsl #1
  401924:	e003      	b.n	40192e <mxt_read_message+0x2e>
  401926:	f813 4b06 	ldrb.w	r4, [r3], #6
  40192a:	2c05      	cmp	r4, #5
  40192c:	d01d      	beq.n	40196a <mxt_read_message+0x6a>
	for (i = 0; i < device->info_object->obj_count; i++) {
  40192e:	4293      	cmp	r3, r2
		if (object_id == device->object_list[i].type) {
  401930:	461d      	mov	r5, r3
	for (i = 0; i < device->info_object->obj_count; i++) {
  401932:	d1f8      	bne.n	401926 <mxt_read_message+0x26>
  401934:	2300      	movs	r3, #0
  401936:	461f      	mov	r7, r3
	uint16_t obj_adr = mxt_get_object_address(device,
			MXT_GEN_MESSAGEPROCESSOR_T5, 0);

	/* Initializing the TWI packet to send to the slave */
	twihs_package_t packet = {
  401938:	2200      	movs	r2, #0
  40193a:	7b04      	ldrb	r4, [r0, #12]
  40193c:	2602      	movs	r6, #2
  40193e:	2509      	movs	r5, #9
  401940:	9201      	str	r2, [sp, #4]
  401942:	9205      	str	r2, [sp, #20]
  401944:	9103      	str	r1, [sp, #12]
		.buffer       = message,
		.length       = MXT_TWI_MSG_SIZE_T5
	};

	/* Read information from the slave */
	if (twihs_master_read(device->interface, &packet) != STATUS_OK) {
  401946:	a901      	add	r1, sp, #4
  401948:	4a0b      	ldr	r2, [pc, #44]	; (401978 <mxt_read_message+0x78>)
  40194a:	6880      	ldr	r0, [r0, #8]
	twihs_package_t packet = {
  40194c:	f88d 7004 	strb.w	r7, [sp, #4]
  401950:	f88d 3005 	strb.w	r3, [sp, #5]
  401954:	9602      	str	r6, [sp, #8]
  401956:	9504      	str	r5, [sp, #16]
  401958:	f88d 4014 	strb.w	r4, [sp, #20]
	if (twihs_master_read(device->interface, &packet) != STATUS_OK) {
  40195c:	4790      	blx	r2
  40195e:	3000      	adds	r0, #0
  401960:	bf18      	it	ne
  401962:	2001      	movne	r0, #1
		return mxt_validate_message(&packet);
#else
		return STATUS_OK;
#endif
	}
}
  401964:	4240      	negs	r0, r0
  401966:	b007      	add	sp, #28
  401968:	bdf0      	pop	{r4, r5, r6, r7, pc}
			return device->object_list[i].start_address;
  40196a:	f8b5 3001 	ldrh.w	r3, [r5, #1]
  40196e:	b2df      	uxtb	r7, r3
  401970:	0a1b      	lsrs	r3, r3, #8
  401972:	e7e1      	b.n	401938 <mxt_read_message+0x38>
	for (i = 0; i < device->info_object->obj_count; i++) {
  401974:	461f      	mov	r7, r3
  401976:	e7df      	b.n	401938 <mxt_read_message+0x38>
  401978:	00402101 	.word	0x00402101

0040197c <_read>:
int __attribute__((weak))
_read (int file, char * ptr, int len); // Remove GCC compiler warning

int __attribute__((weak))
_read (int file, char * ptr, int len)
{
  40197c:	e92d 41f0 	stmdb	sp!, {r4, r5, r6, r7, r8, lr}
	int nChars = 0;

	if (file != 0) {
  401980:	b990      	cbnz	r0, 4019a8 <_read+0x2c>
		return -1;
	}

	for (; len > 0; --len) {
  401982:	2a00      	cmp	r2, #0
  401984:	4690      	mov	r8, r2
  401986:	dd0d      	ble.n	4019a4 <_read+0x28>
  401988:	460c      	mov	r4, r1
  40198a:	188f      	adds	r7, r1, r2
  40198c:	4e08      	ldr	r6, [pc, #32]	; (4019b0 <_read+0x34>)
  40198e:	4d09      	ldr	r5, [pc, #36]	; (4019b4 <_read+0x38>)
		ptr_get(stdio_base, ptr);
  401990:	4621      	mov	r1, r4
		ptr++;
  401992:	3401      	adds	r4, #1
		ptr_get(stdio_base, ptr);
  401994:	6830      	ldr	r0, [r6, #0]
  401996:	682b      	ldr	r3, [r5, #0]
  401998:	4798      	blx	r3
	for (; len > 0; --len) {
  40199a:	42bc      	cmp	r4, r7
  40199c:	d1f8      	bne.n	401990 <_read+0x14>
		nChars++;
	}
	return nChars;
}
  40199e:	4640      	mov	r0, r8
  4019a0:	e8bd 81f0 	ldmia.w	sp!, {r4, r5, r6, r7, r8, pc}
	for (; len > 0; --len) {
  4019a4:	4680      	mov	r8, r0
  4019a6:	e7fa      	b.n	40199e <_read+0x22>
		return -1;
  4019a8:	f04f 38ff 	mov.w	r8, #4294967295
  4019ac:	e7f7      	b.n	40199e <_read+0x22>
  4019ae:	bf00      	nop
  4019b0:	2042c014 	.word	0x2042c014
  4019b4:	2042c00c 	.word	0x2042c00c

004019b8 <_write>:
int __attribute__((weak))
_write (int file, const char *ptr, int len)
{
	int nChars = 0;

	if ((file != 1) && (file != 2) && (file!=3)) {
  4019b8:	3801      	subs	r0, #1
  4019ba:	2802      	cmp	r0, #2
  4019bc:	d81e      	bhi.n	4019fc <_write+0x44>
{
  4019be:	e92d 41f0 	stmdb	sp!, {r4, r5, r6, r7, r8, lr}
  4019c2:	4615      	mov	r5, r2
		return -1;
	}

	for (; len != 0; --len) {
  4019c4:	b1ba      	cbz	r2, 4019f6 <_write+0x3e>
  4019c6:	460e      	mov	r6, r1
  4019c8:	460c      	mov	r4, r1
  4019ca:	f8df 803c 	ldr.w	r8, [pc, #60]	; 401a08 <_write+0x50>
  4019ce:	4f0d      	ldr	r7, [pc, #52]	; (401a04 <_write+0x4c>)
  4019d0:	e001      	b.n	4019d6 <_write+0x1e>
  4019d2:	3d01      	subs	r5, #1
  4019d4:	d00d      	beq.n	4019f2 <_write+0x3a>
		if (ptr_put(stdio_base, *ptr++) < 0) {
  4019d6:	f814 1b01 	ldrb.w	r1, [r4], #1
  4019da:	f8d8 0000 	ldr.w	r0, [r8]
  4019de:	683b      	ldr	r3, [r7, #0]
  4019e0:	4798      	blx	r3
  4019e2:	2800      	cmp	r0, #0
  4019e4:	eba4 0006 	sub.w	r0, r4, r6
  4019e8:	daf3      	bge.n	4019d2 <_write+0x1a>
		return -1;
  4019ea:	f04f 30ff 	mov.w	r0, #4294967295
  4019ee:	e8bd 81f0 	ldmia.w	sp!, {r4, r5, r6, r7, r8, pc}
  4019f2:	e8bd 81f0 	ldmia.w	sp!, {r4, r5, r6, r7, r8, pc}
	for (; len != 0; --len) {
  4019f6:	4610      	mov	r0, r2
			return -1;
		}
		++nChars;
	}
	return nChars;
}
  4019f8:	e8bd 81f0 	ldmia.w	sp!, {r4, r5, r6, r7, r8, pc}
		return -1;
  4019fc:	f04f 30ff 	mov.w	r0, #4294967295
}
  401a00:	4770      	bx	lr
  401a02:	bf00      	nop
  401a04:	2042c010 	.word	0x2042c010
  401a08:	2042c014 	.word	0x2042c014

00401a0c <wm8904_write_register>:
 *
 * \param uc_register_address Register address to write
 * \param us_data Data to write.
 */
void wm8904_write_register(uint8_t uc_register_address, uint16_t us_data)
{
  401a0c:	b570      	push	{r4, r5, r6, lr}
  401a0e:	460b      	mov	r3, r1
  401a10:	b086      	sub	sp, #24
	uint8_t uc_temp_data[2];
	twihs_packet_t packet;

	uc_temp_data[0] = (us_data & 0xff00) >> 8;
  401a12:	0a0e      	lsrs	r6, r1, #8

	packet.addr[0]     = uc_register_address;
	packet.addr_length = 0x1;
	packet.buffer      = uc_temp_data;
	packet.length      = 0x2;
	packet.chip        = WM8904_SLAVE_ADDRESS;
  401a14:	221a      	movs	r2, #26
	uc_temp_data[1] = us_data & 0xff;
  401a16:	f88d 3001 	strb.w	r3, [sp, #1]
	packet.addr_length = 0x1;
  401a1a:	2501      	movs	r5, #1
	packet.length      = 0x2;
  401a1c:	2402      	movs	r4, #2

	twihs_master_write(WM8904_TWIHS, &packet);
  401a1e:	a901      	add	r1, sp, #4
  401a20:	4b07      	ldr	r3, [pc, #28]	; (401a40 <wm8904_write_register+0x34>)
	packet.addr[0]     = uc_register_address;
  401a22:	f88d 0004 	strb.w	r0, [sp, #4]
	twihs_master_write(WM8904_TWIHS, &packet);
  401a26:	4807      	ldr	r0, [pc, #28]	; (401a44 <wm8904_write_register+0x38>)
	uc_temp_data[0] = (us_data & 0xff00) >> 8;
  401a28:	f88d 6000 	strb.w	r6, [sp]
	packet.addr_length = 0x1;
  401a2c:	9502      	str	r5, [sp, #8]
	packet.buffer      = uc_temp_data;
  401a2e:	f8cd d00c 	str.w	sp, [sp, #12]
	packet.length      = 0x2;
  401a32:	9404      	str	r4, [sp, #16]
	packet.chip        = WM8904_SLAVE_ADDRESS;
  401a34:	f88d 2014 	strb.w	r2, [sp, #20]
	twihs_master_write(WM8904_TWIHS, &packet);
  401a38:	4798      	blx	r3
}
  401a3a:	b006      	add	sp, #24
  401a3c:	bd70      	pop	{r4, r5, r6, pc}
  401a3e:	bf00      	nop
  401a40:	004021b5 	.word	0x004021b5
  401a44:	40018000 	.word	0x40018000

00401a48 <wm8904_read_register>:
 *
 * \param uc_register_address Register address to write
 * \retun Register value.
 */
uint16_t wm8904_read_register(uint8_t uc_register_address)
{
  401a48:	b530      	push	{r4, r5, lr}
  401a4a:	b087      	sub	sp, #28

	packet.addr[0]     = uc_register_address;
	packet.addr_length = 0x1;
	packet.buffer      = uc_temp_data;
	packet.length      = 0x2;
	packet.chip        = WM8904_SLAVE_ADDRESS;
  401a4c:	221a      	movs	r2, #26
	packet.addr_length = 0x1;
  401a4e:	2501      	movs	r5, #1
	packet.length      = 0x2;
  401a50:	2402      	movs	r4, #2
	packet.addr[0]     = uc_register_address;
  401a52:	f88d 0004 	strb.w	r0, [sp, #4]

	twihs_master_read(WM8904_TWIHS, &packet);
  401a56:	a901      	add	r1, sp, #4
  401a58:	4b08      	ldr	r3, [pc, #32]	; (401a7c <wm8904_read_register+0x34>)
  401a5a:	4809      	ldr	r0, [pc, #36]	; (401a80 <wm8904_read_register+0x38>)
	packet.addr_length = 0x1;
  401a5c:	9502      	str	r5, [sp, #8]
	packet.buffer      = uc_temp_data;
  401a5e:	f8cd d00c 	str.w	sp, [sp, #12]
	packet.length      = 0x2;
  401a62:	9404      	str	r4, [sp, #16]
	packet.chip        = WM8904_SLAVE_ADDRESS;
  401a64:	f88d 2014 	strb.w	r2, [sp, #20]
	twihs_master_read(WM8904_TWIHS, &packet);
  401a68:	4798      	blx	r3
	us_data = (((uint16_t)uc_temp_data[0] << 8) & 0xff00) | uc_temp_data[1];
  401a6a:	f89d 0000 	ldrb.w	r0, [sp]
  401a6e:	f89d 3001 	ldrb.w	r3, [sp, #1]

	return us_data;
}
  401a72:	ea43 2000 	orr.w	r0, r3, r0, lsl #8
  401a76:	b007      	add	sp, #28
  401a78:	bd30      	pop	{r4, r5, pc}
  401a7a:	bf00      	nop
  401a7c:	00402101 	.word	0x00402101
  401a80:	40018000 	.word	0x40018000

00401a84 <wm8904_twi_init>:
 * \brief Initialize TWIHS connect to WM8904.
 *
 * \retun TWIHS_SUCCESS if initialization is complete, error code otherwise.
 */
uint32_t wm8904_twi_init(void)
{
  401a84:	b510      	push	{r4, lr}
	pio_configure_pin(WM8904_TK_PIO, WM8904_TK_FLAGS);
  401a86:	f04f 5100 	mov.w	r1, #536870912	; 0x20000000
{
  401a8a:	b084      	sub	sp, #16
	pio_configure_pin(WM8904_TK_PIO, WM8904_TK_FLAGS);
  401a8c:	4c15      	ldr	r4, [pc, #84]	; (401ae4 <wm8904_twi_init+0x60>)
  401a8e:	2021      	movs	r0, #33	; 0x21
  401a90:	47a0      	blx	r4
	pio_configure_pin(WM8904_TF_PIO, WM8904_TF_FLAGS);
  401a92:	f04f 5100 	mov.w	r1, #536870912	; 0x20000000
  401a96:	2020      	movs	r0, #32
  401a98:	47a0      	blx	r4
	pio_configure_pin(WM8904_TD_PIO, WM8904_TD_FLAGS);
  401a9a:	f04f 5180 	mov.w	r1, #268435456	; 0x10000000
  401a9e:	207a      	movs	r0, #122	; 0x7a
  401aa0:	47a0      	blx	r4
	pio_configure_pin(WM8904_RK_PIO, WM8904_RK_FLAGS);
  401aa2:	f04f 6100 	mov.w	r1, #134217728	; 0x8000000
  401aa6:	2016      	movs	r0, #22
  401aa8:	47a0      	blx	r4
	pio_configure_pin(WM8904_RF_PIO, WM8904_RF_FLAGS);
  401aaa:	f04f 5180 	mov.w	r1, #268435456	; 0x10000000
  401aae:	2078      	movs	r0, #120	; 0x78
  401ab0:	47a0      	blx	r4
	pio_configure_pin(WM8904_RD_PIO, WM8904_RD_FLAGS);
  401ab2:	f04f 51c0 	mov.w	r1, #402653184	; 0x18000000
  401ab6:	200a      	movs	r0, #10
  401ab8:	47a0      	blx	r4
	pio_configure_pin(WM8904_PCK2_PIO, WM8904_PCK2_FLAGS);
  401aba:	f04f 5180 	mov.w	r1, #268435456	; 0x10000000
  401abe:	2012      	movs	r0, #18
  401ac0:	47a0      	blx	r4
	p_opt->smbus      = 0;
  401ac2:	2200      	movs	r2, #0
	p_opt->master_clk = sysclk_get_peripheral_hz();
  401ac4:	4908      	ldr	r1, [pc, #32]	; (401ae8 <wm8904_twi_init+0x64>)
  401ac6:	2013      	movs	r0, #19

	twihs_options_t opt;
	opt.master_clk = sysclk_get_cpu_hz();
	opt.speed = WM8904_TWIHS_CLK;
  401ac8:	4c08      	ldr	r4, [pc, #32]	; (401aec <wm8904_twi_init+0x68>)
  401aca:	4b09      	ldr	r3, [pc, #36]	; (401af0 <wm8904_twi_init+0x6c>)
  401acc:	9101      	str	r1, [sp, #4]
	p_opt->smbus      = 0;
  401ace:	f88d 200d 	strb.w	r2, [sp, #13]
  401ad2:	9402      	str	r4, [sp, #8]
  401ad4:	4798      	blx	r3
	return (twihs_master_init(p_twihs, p_opt));
  401ad6:	a901      	add	r1, sp, #4
  401ad8:	4b06      	ldr	r3, [pc, #24]	; (401af4 <wm8904_twi_init+0x70>)
  401ada:	4807      	ldr	r0, [pc, #28]	; (401af8 <wm8904_twi_init+0x74>)
  401adc:	4798      	blx	r3
	return twihs_master_setup(WM8904_TWIHS, &opt);
}
  401ade:	b004      	add	sp, #16
  401ae0:	bd10      	pop	{r4, pc}
  401ae2:	bf00      	nop
  401ae4:	00402841 	.word	0x00402841
  401ae8:	08f0d180 	.word	0x08f0d180
  401aec:	00061a80 	.word	0x00061a80
  401af0:	00402e99 	.word	0x00402e99
  401af4:	00402021 	.word	0x00402021
  401af8:	40018000 	.word	0x40018000

00401afc <ili9488_set_window>:
 * \Param y start position.
 * \Param width  Width of window.
 * \Param height Height of window.
 */
void ili9488_set_window(uint16_t x, uint16_t y, uint16_t width, uint16_t height )
{
  401afc:	e92d 4ff0 	stmdb	sp!, {r4, r5, r6, r7, r8, r9, sl, fp, lr}
	ili9488_color_t buf[4];

	cnt = sizeof(buf)/sizeof(ili9488_color_t);

	col_start  =  x ;
	col_end    =  width + x - 1;
  401b00:	3a01      	subs	r2, #1
{
  401b02:	460c      	mov	r4, r1

	row_start = y ;
	row_end   = height + y - 1;
  401b04:	3b01      	subs	r3, #1
	pio_clear(PIN_EBI_CDS_PIO, PIN_EBI_CDS_MASK);
  401b06:	4f29      	ldr	r7, [pc, #164]	; (401bac <ili9488_set_window+0xb0>)
{
  401b08:	b085      	sub	sp, #20
	col_end    =  width + x - 1;
  401b0a:	4402      	add	r2, r0
{
  401b0c:	4605      	mov	r5, r0
	row_end   = height + y - 1;
  401b0e:	4423      	add	r3, r4
	pio_clear(PIN_EBI_CDS_PIO, PIN_EBI_CDS_MASK);
  401b10:	f8df 80a0 	ldr.w	r8, [pc, #160]	; 401bb4 <ili9488_set_window+0xb8>
  401b14:	4638      	mov	r0, r7
  401b16:	f04f 4180 	mov.w	r1, #1073741824	; 0x40000000

	buf[0] = get_8b_to_16b(col_start);
	buf[1] = get_0b_to_8b(col_start);
	buf[2] = get_8b_to_16b(col_end);
  401b1a:	f3c2 2a07 	ubfx	sl, r2, #8, #8
	buf[3] = get_0b_to_8b(col_end);
  401b1e:	b2d6      	uxtb	r6, r2
	col_end    =  width + x - 1;
  401b20:	f8ad 200a 	strh.w	r2, [sp, #10]
	row_end   = height + y - 1;
  401b24:	f8ad 300e 	strh.w	r3, [sp, #14]
	buf[0] = get_8b_to_16b(col_start);
  401b28:	ea4f 2b15 	mov.w	fp, r5, lsr #8
	col_start  =  x ;
  401b2c:	f8ad 5008 	strh.w	r5, [sp, #8]
	buf[1] = get_0b_to_8b(col_start);
  401b30:	b2ed      	uxtb	r5, r5
	row_start = y ;
  401b32:	f8ad 400c 	strh.w	r4, [sp, #12]
		*((volatile uint16_t *)(BOARD_ILI9488_ADDR)) = lcd_index; /* ILI9488 index register address */
  401b36:	f04f 44c6 	mov.w	r4, #1660944384	; 0x63000000
	pio_clear(PIN_EBI_CDS_PIO, PIN_EBI_CDS_MASK);
  401b3a:	47c0      	blx	r8
  401b3c:	222a      	movs	r2, #42	; 0x2a
	pio_set(PIN_EBI_CDS_PIO, PIN_EBI_CDS_MASK);
  401b3e:	4b1c      	ldr	r3, [pc, #112]	; (401bb0 <ili9488_set_window+0xb4>)
  401b40:	4638      	mov	r0, r7
  401b42:	8022      	strh	r2, [r4, #0]
  401b44:	f04f 0900 	mov.w	r9, #0
  401b48:	f04f 4180 	mov.w	r1, #1073741824	; 0x40000000
  401b4c:	9301      	str	r3, [sp, #4]
  401b4e:	4798      	blx	r3
			*((volatile uint16_t *)(BOARD_ILI9488_ADDR)) = *lcd_data++;
  401b50:	f8a4 b000 	strh.w	fp, [r4]
	pio_clear(PIN_EBI_CDS_PIO, PIN_EBI_CDS_MASK);
  401b54:	4638      	mov	r0, r7
  401b56:	8025      	strh	r5, [r4, #0]
  401b58:	f04f 4180 	mov.w	r1, #1073741824	; 0x40000000
  401b5c:	f8a4 a000 	strh.w	sl, [r4]
  401b60:	8026      	strh	r6, [r4, #0]
  401b62:	47c0      	blx	r8
		*((volatile uint16_t *)(BOARD_ILI9488_ADDR)) = lcd_index; /* ILI9488 index register address */
  401b64:	f8a4 9000 	strh.w	r9, [r4]
  401b68:	4638      	mov	r0, r7
  401b6a:	f04f 4180 	mov.w	r1, #1073741824	; 0x40000000
	ili9488_write_register(ILI9488_CMD_COLUMN_ADDRESS_SET, buf, cnt);
	ili9488_write_register(ILI9488_CMD_NOP, 0, 0);

	/* Set Horizontal Address End Position */
	buf[0] = get_8b_to_16b(row_start);
  401b6e:	f89d b00d 	ldrb.w	fp, [sp, #13]
	buf[1] = get_0b_to_8b(row_start);
  401b72:	f89d a00c 	ldrb.w	sl, [sp, #12]
	buf[2] = get_8b_to_16b(row_end);
  401b76:	f89d 600f 	ldrb.w	r6, [sp, #15]
	buf[3] = get_0b_to_8b(row_end);
  401b7a:	f89d 500e 	ldrb.w	r5, [sp, #14]
	pio_clear(PIN_EBI_CDS_PIO, PIN_EBI_CDS_MASK);
  401b7e:	47c0      	blx	r8
  401b80:	222b      	movs	r2, #43	; 0x2b
	pio_set(PIN_EBI_CDS_PIO, PIN_EBI_CDS_MASK);
  401b82:	4638      	mov	r0, r7
  401b84:	f04f 4180 	mov.w	r1, #1073741824	; 0x40000000
  401b88:	8022      	strh	r2, [r4, #0]
  401b8a:	9b01      	ldr	r3, [sp, #4]
  401b8c:	4798      	blx	r3
	pio_clear(PIN_EBI_CDS_PIO, PIN_EBI_CDS_MASK);
  401b8e:	4638      	mov	r0, r7
  401b90:	f04f 4180 	mov.w	r1, #1073741824	; 0x40000000
			*((volatile uint16_t *)(BOARD_ILI9488_ADDR)) = *lcd_data++;
  401b94:	f8a4 b000 	strh.w	fp, [r4]
  401b98:	f8a4 a000 	strh.w	sl, [r4]
  401b9c:	8026      	strh	r6, [r4, #0]
  401b9e:	8025      	strh	r5, [r4, #0]
  401ba0:	47c0      	blx	r8
		*((volatile uint16_t *)(BOARD_ILI9488_ADDR)) = lcd_index; /* ILI9488 index register address */
  401ba2:	f8a4 9000 	strh.w	r9, [r4]
	ili9488_write_register(ILI9488_CMD_PAGE_ADDRESS_SET, buf, cnt);
	ili9488_write_register(ILI9488_CMD_NOP, 0, 0);
}
  401ba6:	b005      	add	sp, #20
  401ba8:	e8bd 8ff0 	ldmia.w	sp!, {r4, r5, r6, r7, r8, r9, sl, fp, pc}
  401bac:	400e1200 	.word	0x400e1200
  401bb0:	00402705 	.word	0x00402705
  401bb4:	00402709 	.word	0x00402709

00401bb8 <ili9488_display_on>:

/**
 * \brief Turn on the LCD.
 */
void ili9488_display_on(void)
{
  401bb8:	b508      	push	{r3, lr}
	pio_clear(PIN_EBI_CDS_PIO, PIN_EBI_CDS_MASK);
  401bba:	f04f 4180 	mov.w	r1, #1073741824	; 0x40000000
  401bbe:	4b04      	ldr	r3, [pc, #16]	; (401bd0 <ili9488_display_on+0x18>)
  401bc0:	4804      	ldr	r0, [pc, #16]	; (401bd4 <ili9488_display_on+0x1c>)
  401bc2:	4798      	blx	r3
  401bc4:	f04f 43c6 	mov.w	r3, #1660944384	; 0x63000000
  401bc8:	2229      	movs	r2, #41	; 0x29
  401bca:	801a      	strh	r2, [r3, #0]
  401bcc:	bd08      	pop	{r3, pc}
  401bce:	bf00      	nop
  401bd0:	00402709 	.word	0x00402709
  401bd4:	400e1200 	.word	0x400e1200

00401bd8 <ili9488_set_cursor_position>:
 *
 * \param x X coordinate of upper-left corner on LCD.
 * \param y Y coordinate of upper-left corner on LCD.
 */
void ili9488_set_cursor_position(uint16_t x, uint16_t y)
{
  401bd8:	e92d 47f0 	stmdb	sp!, {r4, r5, r6, r7, r8, r9, sl, lr}
	pio_clear(PIN_EBI_CDS_PIO, PIN_EBI_CDS_MASK);
  401bdc:	4d21      	ldr	r5, [pc, #132]	; (401c64 <ili9488_set_cursor_position+0x8c>)
{
  401bde:	b082      	sub	sp, #8
  401be0:	4606      	mov	r6, r0
	pio_clear(PIN_EBI_CDS_PIO, PIN_EBI_CDS_MASK);
  401be2:	4f21      	ldr	r7, [pc, #132]	; (401c68 <ili9488_set_cursor_position+0x90>)
{
  401be4:	f8ad 1004 	strh.w	r1, [sp, #4]
	pio_clear(PIN_EBI_CDS_PIO, PIN_EBI_CDS_MASK);
  401be8:	4628      	mov	r0, r5
  401bea:	f04f 4180 	mov.w	r1, #1073741824	; 0x40000000
  401bee:	f04f 44c6 	mov.w	r4, #1660944384	; 0x63000000
{
  401bf2:	f8ad 6006 	strh.w	r6, [sp, #6]
	pio_clear(PIN_EBI_CDS_PIO, PIN_EBI_CDS_MASK);
  401bf6:	47b8      	blx	r7
  401bf8:	232a      	movs	r3, #42	; 0x2a
	uint32_t cnt = 0;

	ili9488_color_t buf[4];
	cnt = sizeof(buf)/sizeof(ili9488_color_t);

	buf[0] = get_8b_to_16b(x);
  401bfa:	ea4f 2916 	mov.w	r9, r6, lsr #8
	buf[1] = get_0b_to_8b(x);
  401bfe:	b2f6      	uxtb	r6, r6
	pio_set(PIN_EBI_CDS_PIO, PIN_EBI_CDS_MASK);
  401c00:	4628      	mov	r0, r5
  401c02:	8023      	strh	r3, [r4, #0]
  401c04:	f04f 0800 	mov.w	r8, #0
  401c08:	f8df a060 	ldr.w	sl, [pc, #96]	; 401c6c <ili9488_set_cursor_position+0x94>
  401c0c:	f04f 4180 	mov.w	r1, #1073741824	; 0x40000000
  401c10:	47d0      	blx	sl
			*((volatile uint16_t *)(BOARD_ILI9488_ADDR)) = *lcd_data++;
  401c12:	f8a4 9000 	strh.w	r9, [r4]
	pio_clear(PIN_EBI_CDS_PIO, PIN_EBI_CDS_MASK);
  401c16:	4628      	mov	r0, r5
  401c18:	8026      	strh	r6, [r4, #0]
  401c1a:	f04f 4180 	mov.w	r1, #1073741824	; 0x40000000
  401c1e:	f8a4 9000 	strh.w	r9, [r4]
  401c22:	8026      	strh	r6, [r4, #0]
  401c24:	47b8      	blx	r7
		*((volatile uint16_t *)(BOARD_ILI9488_ADDR)) = lcd_index; /* ILI9488 index register address */
  401c26:	f8a4 8000 	strh.w	r8, [r4]
  401c2a:	4628      	mov	r0, r5
  401c2c:	f04f 4180 	mov.w	r1, #1073741824	; 0x40000000
	ili9488_write_register(ILI9488_CMD_COLUMN_ADDRESS_SET, buf, cnt);
	ili9488_write_register(ILI9488_CMD_NOP, 0, 0);


	/* Set Horizontal Address End Position */
	buf[0] = get_8b_to_16b(y);
  401c30:	f89d 9005 	ldrb.w	r9, [sp, #5]
	buf[1] = get_0b_to_8b(y);
  401c34:	f89d 6004 	ldrb.w	r6, [sp, #4]
	pio_clear(PIN_EBI_CDS_PIO, PIN_EBI_CDS_MASK);
  401c38:	47b8      	blx	r7
  401c3a:	232b      	movs	r3, #43	; 0x2b
	pio_set(PIN_EBI_CDS_PIO, PIN_EBI_CDS_MASK);
  401c3c:	4628      	mov	r0, r5
  401c3e:	f04f 4180 	mov.w	r1, #1073741824	; 0x40000000
  401c42:	8023      	strh	r3, [r4, #0]
  401c44:	47d0      	blx	sl
	pio_clear(PIN_EBI_CDS_PIO, PIN_EBI_CDS_MASK);
  401c46:	4628      	mov	r0, r5
  401c48:	f04f 4180 	mov.w	r1, #1073741824	; 0x40000000
			*((volatile uint16_t *)(BOARD_ILI9488_ADDR)) = *lcd_data++;
  401c4c:	f8a4 9000 	strh.w	r9, [r4]
  401c50:	8026      	strh	r6, [r4, #0]
  401c52:	f8a4 9000 	strh.w	r9, [r4]
  401c56:	8026      	strh	r6, [r4, #0]
  401c58:	47b8      	blx	r7
		*((volatile uint16_t *)(BOARD_ILI9488_ADDR)) = lcd_index; /* ILI9488 index register address */
  401c5a:	f8a4 8000 	strh.w	r8, [r4]
	buf[2] = get_8b_to_16b(y);
	buf[3] = get_0b_to_8b(y);
	ili9488_write_register(ILI9488_CMD_PAGE_ADDRESS_SET, buf, cnt);
	ili9488_write_register(ILI9488_CMD_NOP, 0, 0);
}
  401c5e:	b002      	add	sp, #8
  401c60:	e8bd 87f0 	ldmia.w	sp!, {r4, r5, r6, r7, r8, r9, sl, pc}
  401c64:	400e1200 	.word	0x400e1200
  401c68:	00402709 	.word	0x00402709
  401c6c:	00402705 	.word	0x00402705

00401c70 <ili9488_init>:
{
  401c70:	e92d 43f8 	stmdb	sp!, {r3, r4, r5, r6, r7, r8, r9, lr}
  401c74:	4607      	mov	r7, r0
	pmc_enable_periph_clk(ID_SMC);
  401c76:	4b40      	ldr	r3, [pc, #256]	; (401d78 <ili9488_init+0x108>)
  401c78:	2009      	movs	r0, #9
	pio_clear(PIN_EBI_CDS_PIO, PIN_EBI_CDS_MASK);
  401c7a:	4d40      	ldr	r5, [pc, #256]	; (401d7c <ili9488_init+0x10c>)
	pmc_enable_periph_clk(ID_SMC);
  401c7c:	4798      	blx	r3
	smc_set_setup_timing(SMC, BOARD_ILI9488_EBI_NPCS, SMC_SETUP_NWE_SETUP(0)
  401c7e:	2200      	movs	r2, #0
  401c80:	2103      	movs	r1, #3
  401c82:	483f      	ldr	r0, [pc, #252]	; (401d80 <ili9488_init+0x110>)
  401c84:	4b3f      	ldr	r3, [pc, #252]	; (401d84 <ili9488_init+0x114>)
  401c86:	f04f 44c6 	mov.w	r4, #1660944384	; 0x63000000
  401c8a:	4798      	blx	r3
	smc_set_pulse_timing(SMC, BOARD_ILI9488_EBI_NPCS , SMC_PULSE_NWE_PULSE(3)
  401c8c:	4a3e      	ldr	r2, [pc, #248]	; (401d88 <ili9488_init+0x118>)
  401c8e:	2103      	movs	r1, #3
  401c90:	483b      	ldr	r0, [pc, #236]	; (401d80 <ili9488_init+0x110>)
  401c92:	4b3e      	ldr	r3, [pc, #248]	; (401d8c <ili9488_init+0x11c>)
  401c94:	f04f 0936 	mov.w	r9, #54	; 0x36
  401c98:	4798      	blx	r3
	smc_set_cycle_timing(SMC, BOARD_ILI9488_EBI_NPCS, SMC_CYCLE_NWE_CYCLE(0x4)
  401c9a:	4a3d      	ldr	r2, [pc, #244]	; (401d90 <ili9488_init+0x120>)
  401c9c:	2103      	movs	r1, #3
  401c9e:	4838      	ldr	r0, [pc, #224]	; (401d80 <ili9488_init+0x110>)
  401ca0:	4b3c      	ldr	r3, [pc, #240]	; (401d94 <ili9488_init+0x124>)
			*((volatile uint16_t *)(BOARD_ILI9488_ADDR)) = *lcd_data++;
  401ca2:	f04f 0848 	mov.w	r8, #72	; 0x48
  401ca6:	4798      	blx	r3
	smc_set_mode(SMC, BOARD_ILI9488_EBI_NPCS, SMC_MODE_READ_MODE
  401ca8:	4a3b      	ldr	r2, [pc, #236]	; (401d98 <ili9488_init+0x128>)
  401caa:	4b3c      	ldr	r3, [pc, #240]	; (401d9c <ili9488_init+0x12c>)
  401cac:	2103      	movs	r1, #3
  401cae:	4834      	ldr	r0, [pc, #208]	; (401d80 <ili9488_init+0x110>)
  401cb0:	4798      	blx	r3
	pio_clear(PIN_EBI_CDS_PIO, PIN_EBI_CDS_MASK);
  401cb2:	f04f 4180 	mov.w	r1, #1073741824	; 0x40000000
  401cb6:	483a      	ldr	r0, [pc, #232]	; (401da0 <ili9488_init+0x130>)
  401cb8:	47a8      	blx	r5
		*((volatile uint16_t *)(BOARD_ILI9488_ADDR)) = lcd_index; /* ILI9488 index register address */
  401cba:	2301      	movs	r3, #1
  401cbc:	f04f 4180 	mov.w	r1, #1073741824	; 0x40000000
  401cc0:	4837      	ldr	r0, [pc, #220]	; (401da0 <ili9488_init+0x130>)
  401cc2:	8023      	strh	r3, [r4, #0]
  401cc4:	47a8      	blx	r5
  401cc6:	2311      	movs	r3, #17
  401cc8:	f04f 4180 	mov.w	r1, #1073741824	; 0x40000000
  401ccc:	4834      	ldr	r0, [pc, #208]	; (401da0 <ili9488_init+0x130>)
  401cce:	8023      	strh	r3, [r4, #0]
  401cd0:	47a8      	blx	r5
	pio_set(PIN_EBI_CDS_PIO, PIN_EBI_CDS_MASK);
  401cd2:	4e34      	ldr	r6, [pc, #208]	; (401da4 <ili9488_init+0x134>)
  401cd4:	f8a4 9000 	strh.w	r9, [r4]
  401cd8:	f04f 4180 	mov.w	r1, #1073741824	; 0x40000000
  401cdc:	4830      	ldr	r0, [pc, #192]	; (401da0 <ili9488_init+0x130>)
  401cde:	47b0      	blx	r6
			*((volatile uint16_t *)(BOARD_ILI9488_ADDR)) = *lcd_data++;
  401ce0:	f8a4 8000 	strh.w	r8, [r4]
	pio_clear(PIN_EBI_CDS_PIO, PIN_EBI_CDS_MASK);
  401ce4:	f04f 4180 	mov.w	r1, #1073741824	; 0x40000000
  401ce8:	482d      	ldr	r0, [pc, #180]	; (401da0 <ili9488_init+0x130>)
  401cea:	47a8      	blx	r5
		*((volatile uint16_t *)(BOARD_ILI9488_ADDR)) = lcd_index; /* ILI9488 index register address */
  401cec:	23cf      	movs	r3, #207	; 0xcf
	pio_set(PIN_EBI_CDS_PIO, PIN_EBI_CDS_MASK);
  401cee:	f04f 4180 	mov.w	r1, #1073741824	; 0x40000000
  401cf2:	482b      	ldr	r0, [pc, #172]	; (401da0 <ili9488_init+0x130>)
  401cf4:	8023      	strh	r3, [r4, #0]
  401cf6:	47b0      	blx	r6
			*((volatile uint16_t *)(BOARD_ILI9488_ADDR)) = *lcd_data++;
  401cf8:	2304      	movs	r3, #4
	pio_clear(PIN_EBI_CDS_PIO, PIN_EBI_CDS_MASK);
  401cfa:	f04f 4180 	mov.w	r1, #1073741824	; 0x40000000
  401cfe:	4828      	ldr	r0, [pc, #160]	; (401da0 <ili9488_init+0x130>)
  401d00:	8023      	strh	r3, [r4, #0]
  401d02:	47a8      	blx	r5
		*((volatile uint16_t *)(BOARD_ILI9488_ADDR)) = lcd_index; /* ILI9488 index register address */
  401d04:	233a      	movs	r3, #58	; 0x3a
	pio_set(PIN_EBI_CDS_PIO, PIN_EBI_CDS_MASK);
  401d06:	f04f 4180 	mov.w	r1, #1073741824	; 0x40000000
  401d0a:	4825      	ldr	r0, [pc, #148]	; (401da0 <ili9488_init+0x130>)
  401d0c:	8023      	strh	r3, [r4, #0]
  401d0e:	47b0      	blx	r6
			*((volatile uint16_t *)(BOARD_ILI9488_ADDR)) = *lcd_data++;
  401d10:	2305      	movs	r3, #5
	pio_clear(PIN_EBI_CDS_PIO, PIN_EBI_CDS_MASK);
  401d12:	f04f 4180 	mov.w	r1, #1073741824	; 0x40000000
  401d16:	4822      	ldr	r0, [pc, #136]	; (401da0 <ili9488_init+0x130>)
  401d18:	8023      	strh	r3, [r4, #0]
  401d1a:	47a8      	blx	r5
		*((volatile uint16_t *)(BOARD_ILI9488_ADDR)) = lcd_index; /* ILI9488 index register address */
  401d1c:	2312      	movs	r3, #18
  401d1e:	f04f 4180 	mov.w	r1, #1073741824	; 0x40000000
  401d22:	481f      	ldr	r0, [pc, #124]	; (401da0 <ili9488_init+0x130>)
  401d24:	8023      	strh	r3, [r4, #0]
  401d26:	47a8      	blx	r5
  401d28:	2329      	movs	r3, #41	; 0x29
  401d2a:	f04f 4180 	mov.w	r1, #1073741824	; 0x40000000
  401d2e:	481c      	ldr	r0, [pc, #112]	; (401da0 <ili9488_init+0x130>)
  401d30:	8023      	strh	r3, [r4, #0]
  401d32:	47a8      	blx	r5
  401d34:	f8a4 9000 	strh.w	r9, [r4]
	pio_set(PIN_EBI_CDS_PIO, PIN_EBI_CDS_MASK);
  401d38:	f04f 4180 	mov.w	r1, #1073741824	; 0x40000000
  401d3c:	4818      	ldr	r0, [pc, #96]	; (401da0 <ili9488_init+0x130>)
  401d3e:	47b0      	blx	r6
	ili9488_set_window(0, 0,p_opt->ul_width,p_opt->ul_height);
  401d40:	2100      	movs	r1, #0
			*((volatile uint16_t *)(BOARD_ILI9488_ADDR)) = *lcd_data++;
  401d42:	f8a4 8000 	strh.w	r8, [r4]
  401d46:	4608      	mov	r0, r1
  401d48:	88bb      	ldrh	r3, [r7, #4]
  401d4a:	883a      	ldrh	r2, [r7, #0]
  401d4c:	4c16      	ldr	r4, [pc, #88]	; (401da8 <ili9488_init+0x138>)
  401d4e:	47a0      	blx	r4
  401d50:	8938      	ldrh	r0, [r7, #8]
  401d52:	2200      	movs	r2, #0
	ili9488_set_foreground_color(p_opt->foreground_color);
  401d54:	4b15      	ldr	r3, [pc, #84]	; (401dac <ili9488_init+0x13c>)
  401d56:	f360 020f 	bfi	r2, r0, #0, #16
  401d5a:	f503 7120 	add.w	r1, r3, #640	; 0x280
  401d5e:	f360 421f 	bfi	r2, r0, #16, #16
		g_ul_pixel_cache[i] = ul_color;
  401d62:	f843 2b04 	str.w	r2, [r3], #4
  401d66:	428b      	cmp	r3, r1
  401d68:	d1fb      	bne.n	401d62 <ili9488_init+0xf2>
	ili9488_set_cursor_position(0, 0);
  401d6a:	2100      	movs	r1, #0
  401d6c:	4b10      	ldr	r3, [pc, #64]	; (401db0 <ili9488_init+0x140>)
  401d6e:	4608      	mov	r0, r1
  401d70:	4798      	blx	r3
}
  401d72:	2000      	movs	r0, #0
  401d74:	e8bd 83f8 	ldmia.w	sp!, {r3, r4, r5, r6, r7, r8, r9, pc}
  401d78:	00402e99 	.word	0x00402e99
  401d7c:	00402709 	.word	0x00402709
  401d80:	40080000 	.word	0x40080000
  401d84:	00401ee1 	.word	0x00401ee1
  401d88:	0a0a0403 	.word	0x0a0a0403
  401d8c:	00401ee9 	.word	0x00401ee9
  401d90:	000a0004 	.word	0x000a0004
  401d94:	00401ef1 	.word	0x00401ef1
  401d98:	000f1003 	.word	0x000f1003
  401d9c:	00401ef9 	.word	0x00401ef9
  401da0:	400e1200 	.word	0x400e1200
  401da4:	00402705 	.word	0x00402705
  401da8:	00401afd 	.word	0x00401afd
  401dac:	20427e64 	.word	0x20427e64
  401db0:	00401bd9 	.word	0x00401bd9

00401db4 <ili9488_write_brightness>:
 * Configures the display for a given brightness value
 *
 * \param us_value brightness value need to written.
 */
void ili9488_write_brightness(uint16_t us_value)
{
  401db4:	b570      	push	{r4, r5, r6, lr}
	pio_clear(PIN_EBI_CDS_PIO, PIN_EBI_CDS_MASK);
  401db6:	4d09      	ldr	r5, [pc, #36]	; (401ddc <ili9488_write_brightness+0x28>)
{
  401db8:	4606      	mov	r6, r0
	pio_clear(PIN_EBI_CDS_PIO, PIN_EBI_CDS_MASK);
  401dba:	f04f 4180 	mov.w	r1, #1073741824	; 0x40000000
  401dbe:	4b08      	ldr	r3, [pc, #32]	; (401de0 <ili9488_write_brightness+0x2c>)
  401dc0:	4628      	mov	r0, r5
		*((volatile uint16_t *)(BOARD_ILI9488_ADDR)) = lcd_index; /* ILI9488 index register address */
  401dc2:	f04f 44c6 	mov.w	r4, #1660944384	; 0x63000000
  401dc6:	4798      	blx	r3
  401dc8:	2351      	movs	r3, #81	; 0x51
	pio_set(PIN_EBI_CDS_PIO, PIN_EBI_CDS_MASK);
  401dca:	4628      	mov	r0, r5
  401dcc:	f04f 4180 	mov.w	r1, #1073741824	; 0x40000000
  401dd0:	8023      	strh	r3, [r4, #0]
  401dd2:	4b04      	ldr	r3, [pc, #16]	; (401de4 <ili9488_write_brightness+0x30>)
  401dd4:	4798      	blx	r3
			*((volatile uint16_t *)(BOARD_ILI9488_ADDR)) = *lcd_data++;
  401dd6:	8026      	strh	r6, [r4, #0]
  401dd8:	bd70      	pop	{r4, r5, r6, pc}
  401dda:	bf00      	nop
  401ddc:	400e1200 	.word	0x400e1200
  401de0:	00402709 	.word	0x00402709
  401de4:	00402705 	.word	0x00402705

00401de8 <ili9488_set_limits>:
 * \param end_x The x coordinate of the bottom right corner
 * \param end_y The y coordinate of the bottom right corner
 */
void ili9488_set_limits(ili9488_coord_t start_x, ili9488_coord_t start_y,
		ili9488_coord_t end_x, ili9488_coord_t end_y)
{
  401de8:	b4f0      	push	{r4, r5, r6, r7}
	limit_start_x = start_x;
  401dea:	4f05      	ldr	r7, [pc, #20]	; (401e00 <ili9488_set_limits+0x18>)
	limit_start_y = start_y;
  401dec:	4e05      	ldr	r6, [pc, #20]	; (401e04 <ili9488_set_limits+0x1c>)
	limit_end_x = end_x;
  401dee:	4d06      	ldr	r5, [pc, #24]	; (401e08 <ili9488_set_limits+0x20>)
	limit_end_y = end_y;
  401df0:	4c06      	ldr	r4, [pc, #24]	; (401e0c <ili9488_set_limits+0x24>)
	limit_start_x = start_x;
  401df2:	8038      	strh	r0, [r7, #0]
	limit_start_y = start_y;
  401df4:	8031      	strh	r1, [r6, #0]
	limit_end_x = end_x;
  401df6:	802a      	strh	r2, [r5, #0]
	limit_end_y = end_y;
  401df8:	8023      	strh	r3, [r4, #0]
}
  401dfa:	bcf0      	pop	{r4, r5, r6, r7}
  401dfc:	4770      	bx	lr
  401dfe:	bf00      	nop
  401e00:	204280e8 	.word	0x204280e8
  401e04:	204280ea 	.word	0x204280ea
  401e08:	204280e4 	.word	0x204280e4
  401e0c:	204280e6 	.word	0x204280e6

00401e10 <ili9488_set_orientation>:
 *
 * \param flags Orientation flags to use, see \ref ILI9488_FLIP_X, \ref ILI9488_FLIP_Y
 *        and \ref ILI9488_SWITCH_XY.
 */
void ili9488_set_orientation(uint8_t flags)
{
  401e10:	b538      	push	{r3, r4, r5, lr}
	/* Flip X/Y and reverse X orientation and set BGR mode*/
	ili9488_color_t madctl = 0x68;

	if (flags & ILI9488_FLIP_X) {
  401e12:	f000 0301 	and.w	r3, r0, #1
  401e16:	2b00      	cmp	r3, #0
  401e18:	bf0b      	itete	eq
  401e1a:	2448      	moveq	r4, #72	; 0x48
  401e1c:	2408      	movne	r4, #8
  401e1e:	21c8      	moveq	r1, #200	; 0xc8
  401e20:	2188      	movne	r1, #136	; 0x88
  401e22:	bf0b      	itete	eq
  401e24:	22e8      	moveq	r2, #232	; 0xe8
  401e26:	22a8      	movne	r2, #168	; 0xa8
  401e28:	2368      	moveq	r3, #104	; 0x68
  401e2a:	2328      	movne	r3, #40	; 0x28
		madctl &= ~(1 << 6);
	}

	if (flags & ILI9488_FLIP_Y) {
  401e2c:	0785      	lsls	r5, r0, #30
  401e2e:	d501      	bpl.n	401e34 <ili9488_set_orientation+0x24>
  401e30:	460c      	mov	r4, r1
		madctl |= 1 << 7;
  401e32:	4613      	mov	r3, r2
	}

	if (flags & ILI9488_SWITCH_XY) {
  401e34:	f010 0f04 	tst.w	r0, #4
	pio_clear(PIN_EBI_CDS_PIO, PIN_EBI_CDS_MASK);
  401e38:	f04f 4180 	mov.w	r1, #1073741824	; 0x40000000
  401e3c:	4807      	ldr	r0, [pc, #28]	; (401e5c <ili9488_set_orientation+0x4c>)
		*((volatile uint16_t *)(BOARD_ILI9488_ADDR)) = lcd_index; /* ILI9488 index register address */
  401e3e:	f04f 45c6 	mov.w	r5, #1660944384	; 0x63000000
  401e42:	4a07      	ldr	r2, [pc, #28]	; (401e60 <ili9488_set_orientation+0x50>)
	if (flags & ILI9488_SWITCH_XY) {
  401e44:	bf08      	it	eq
  401e46:	461c      	moveq	r4, r3
	pio_clear(PIN_EBI_CDS_PIO, PIN_EBI_CDS_MASK);
  401e48:	4790      	blx	r2
  401e4a:	2336      	movs	r3, #54	; 0x36
	pio_set(PIN_EBI_CDS_PIO, PIN_EBI_CDS_MASK);
  401e4c:	f04f 4180 	mov.w	r1, #1073741824	; 0x40000000
  401e50:	4802      	ldr	r0, [pc, #8]	; (401e5c <ili9488_set_orientation+0x4c>)
  401e52:	802b      	strh	r3, [r5, #0]
  401e54:	4b03      	ldr	r3, [pc, #12]	; (401e64 <ili9488_set_orientation+0x54>)
  401e56:	4798      	blx	r3
			*((volatile uint16_t *)(BOARD_ILI9488_ADDR)) = *lcd_data++;
  401e58:	802c      	strh	r4, [r5, #0]
  401e5a:	bd38      	pop	{r3, r4, r5, pc}
  401e5c:	400e1200 	.word	0x400e1200
  401e60:	00402709 	.word	0x00402709
  401e64:	00402705 	.word	0x00402705

00401e68 <ili9488_duplicate_pixel>:
 * \param color The color to write to the display
 * \param count The number of pixels to write with this color
 */
void ili9488_duplicate_pixel(const uint16_t color, uint32_t count)
{
	ili9488_set_window(limit_start_x, limit_start_y, (limit_end_x - limit_start_x) + 1, (limit_end_y - limit_start_y) + 1);
  401e68:	4b15      	ldr	r3, [pc, #84]	; (401ec0 <ili9488_duplicate_pixel+0x58>)
  401e6a:	4a16      	ldr	r2, [pc, #88]	; (401ec4 <ili9488_duplicate_pixel+0x5c>)
{
  401e6c:	e92d 41f0 	stmdb	sp!, {r4, r5, r6, r7, r8, lr}
  401e70:	4606      	mov	r6, r0
	ili9488_set_window(limit_start_x, limit_start_y, (limit_end_x - limit_start_x) + 1, (limit_end_y - limit_start_y) + 1);
  401e72:	881b      	ldrh	r3, [r3, #0]
  401e74:	8812      	ldrh	r2, [r2, #0]
{
  401e76:	460f      	mov	r7, r1
	ili9488_set_window(limit_start_x, limit_start_y, (limit_end_x - limit_start_x) + 1, (limit_end_y - limit_start_y) + 1);
  401e78:	4813      	ldr	r0, [pc, #76]	; (401ec8 <ili9488_duplicate_pixel+0x60>)
  401e7a:	3301      	adds	r3, #1
  401e7c:	4913      	ldr	r1, [pc, #76]	; (401ecc <ili9488_duplicate_pixel+0x64>)
  401e7e:	3201      	adds	r2, #1
  401e80:	8800      	ldrh	r0, [r0, #0]
  401e82:	8809      	ldrh	r1, [r1, #0]
  401e84:	1a12      	subs	r2, r2, r0
  401e86:	4d12      	ldr	r5, [pc, #72]	; (401ed0 <ili9488_duplicate_pixel+0x68>)
  401e88:	1a5b      	subs	r3, r3, r1
  401e8a:	b292      	uxth	r2, r2
  401e8c:	b29b      	uxth	r3, r3
  401e8e:	47a8      	blx	r5
	pio_clear(PIN_EBI_CDS_PIO, PIN_EBI_CDS_MASK);
  401e90:	4b10      	ldr	r3, [pc, #64]	; (401ed4 <ili9488_duplicate_pixel+0x6c>)
  401e92:	f04f 4180 	mov.w	r1, #1073741824	; 0x40000000
  401e96:	4810      	ldr	r0, [pc, #64]	; (401ed8 <ili9488_duplicate_pixel+0x70>)
  401e98:	4798      	blx	r3
		*((volatile uint16_t *)(BOARD_ILI9488_ADDR)) = lcd_index; /* ILI9488 index register address */
  401e9a:	f04f 45c6 	mov.w	r5, #1660944384	; 0x63000000
  401e9e:	232c      	movs	r3, #44	; 0x2c
  401ea0:	802b      	strh	r3, [r5, #0]
	ili9488_write_ram_prepare();

#ifdef ILI9488_EBIMODE
	while (count--) {
  401ea2:	b15f      	cbz	r7, 401ebc <ili9488_duplicate_pixel+0x54>
  401ea4:	1e7c      	subs	r4, r7, #1
  401ea6:	f8df 8034 	ldr.w	r8, [pc, #52]	; 401edc <ili9488_duplicate_pixel+0x74>
	pio_set(PIN_EBI_CDS_PIO, PIN_EBI_CDS_MASK);
  401eaa:	4f0b      	ldr	r7, [pc, #44]	; (401ed8 <ili9488_duplicate_pixel+0x70>)
	while (count--) {
  401eac:	3c01      	subs	r4, #1
	pio_set(PIN_EBI_CDS_PIO, PIN_EBI_CDS_MASK);
  401eae:	f04f 4180 	mov.w	r1, #1073741824	; 0x40000000
  401eb2:	4638      	mov	r0, r7
  401eb4:	47c0      	blx	r8
	while (count--) {
  401eb6:	1c63      	adds	r3, r4, #1
		*(volatile uint16_t *)(BOARD_ILI9488_ADDR) = lcd_data;
  401eb8:	802e      	strh	r6, [r5, #0]
  401eba:	d1f7      	bne.n	401eac <ili9488_duplicate_pixel+0x44>
  401ebc:	e8bd 81f0 	ldmia.w	sp!, {r4, r5, r6, r7, r8, pc}
  401ec0:	204280e6 	.word	0x204280e6
  401ec4:	204280e4 	.word	0x204280e4
  401ec8:	204280e8 	.word	0x204280e8
  401ecc:	204280ea 	.word	0x204280ea
  401ed0:	00401afd 	.word	0x00401afd
  401ed4:	00402709 	.word	0x00402709
  401ed8:	400e1200 	.word	0x400e1200
  401edc:	00402705 	.word	0x00402705

00401ee0 <smc_set_setup_timing>:
 * \param ul_setup_timing Setup timing for NWE, NCS, NRD.
 */
void smc_set_setup_timing(Smc *p_smc, uint32_t ul_cs,
		uint32_t ul_setup_timing)
{
	p_smc->SMC_CS_NUMBER[ul_cs].SMC_SETUP = ul_setup_timing;
  401ee0:	0109      	lsls	r1, r1, #4
  401ee2:	5042      	str	r2, [r0, r1]
  401ee4:	4770      	bx	lr
  401ee6:	bf00      	nop

00401ee8 <smc_set_pulse_timing>:
 * \param ul_pulse_timing Pulse timing for NWE,NCS,NRD.
 */
void smc_set_pulse_timing(Smc *p_smc, uint32_t ul_cs,
		uint32_t ul_pulse_timing)
{
	p_smc->SMC_CS_NUMBER[ul_cs].SMC_PULSE = ul_pulse_timing;
  401ee8:	eb00 1101 	add.w	r1, r0, r1, lsl #4
  401eec:	604a      	str	r2, [r1, #4]
  401eee:	4770      	bx	lr

00401ef0 <smc_set_cycle_timing>:
 * \param ul_cycle_timing Cycle timing for NWE and NRD.
 */
void smc_set_cycle_timing(Smc *p_smc, uint32_t ul_cs,
		uint32_t ul_cycle_timing)
{
	p_smc->SMC_CS_NUMBER[ul_cs].SMC_CYCLE = ul_cycle_timing;
  401ef0:	eb00 1101 	add.w	r1, r0, r1, lsl #4
  401ef4:	608a      	str	r2, [r1, #8]
  401ef6:	4770      	bx	lr

00401ef8 <smc_set_mode>:
 * \param ul_cs Chip select number to be set.
 * \param ul_mode SMC mode.
 */
void smc_set_mode(Smc *p_smc, uint32_t ul_cs, uint32_t ul_mode)
{
	p_smc->SMC_CS_NUMBER[ul_cs].SMC_MODE = ul_mode;
  401ef8:	eb00 1101 	add.w	r1, r0, r1, lsl #4
  401efc:	60ca      	str	r2, [r1, #12]
  401efe:	4770      	bx	lr

00401f00 <ssc_reset>:
 * \param p_ssc Pointer to an SSC instance.
 */
void ssc_reset(Ssc *p_ssc)
{
	p_ssc->SSC_CR = SSC_CR_SWRST;
	p_ssc->SSC_CMR = 0;
  401f00:	2300      	movs	r3, #0
	p_ssc->SSC_CR = SSC_CR_SWRST;
  401f02:	f44f 4200 	mov.w	r2, #32768	; 0x8000
  401f06:	6002      	str	r2, [r0, #0]
	p_ssc->SSC_CMR = 0;
  401f08:	6043      	str	r3, [r0, #4]
	p_ssc->SSC_RCMR = 0;
  401f0a:	6103      	str	r3, [r0, #16]
	p_ssc->SSC_RFMR = 0;
  401f0c:	6143      	str	r3, [r0, #20]
	p_ssc->SSC_TCMR = 0;
  401f0e:	6183      	str	r3, [r0, #24]
	p_ssc->SSC_TFMR = 0;
  401f10:	61c3      	str	r3, [r0, #28]
  401f12:	4770      	bx	lr

00401f14 <ssc_enable_rx>:
 *
 * \param p_ssc Pointer to an SSC instance.
 */
void ssc_enable_rx(Ssc *p_ssc)
{
	p_ssc->SSC_CR = SSC_CR_RXEN;
  401f14:	2301      	movs	r3, #1
  401f16:	6003      	str	r3, [r0, #0]
  401f18:	4770      	bx	lr
  401f1a:	bf00      	nop

00401f1c <ssc_disable_rx>:
 *
 * \param p_ssc Pointer to an SSC instance.
 */
void ssc_disable_rx(Ssc *p_ssc)
{
	p_ssc->SSC_CR = SSC_CR_RXDIS;
  401f1c:	2302      	movs	r3, #2
  401f1e:	6003      	str	r3, [r0, #0]
  401f20:	4770      	bx	lr
  401f22:	bf00      	nop

00401f24 <ssc_enable_tx>:
 *
 * \param p_ssc Pointer to an SSC instance.
 */
void ssc_enable_tx(Ssc *p_ssc)
{
	p_ssc->SSC_CR = SSC_CR_TXEN;
  401f24:	f44f 7380 	mov.w	r3, #256	; 0x100
  401f28:	6003      	str	r3, [r0, #0]
  401f2a:	4770      	bx	lr

00401f2c <ssc_disable_tx>:
 *
 * \param p_ssc Pointer to an SSC instance.
 */
void ssc_disable_tx(Ssc *p_ssc)
{
	p_ssc->SSC_CR = SSC_CR_TXDIS;
  401f2c:	f44f 7300 	mov.w	r3, #512	; 0x200
  401f30:	6003      	str	r3, [r0, #0]
  401f32:	4770      	bx	lr

00401f34 <ssc_set_receiver>:
 * \param p_rx_clk_opt Pointer to the receiver clock configuration structure.
 * \param p_rx_data_frame Pointer to the receiver data frame configuration structure.
 */
void ssc_set_receiver(Ssc *p_ssc, clock_opt_t *p_rx_clk_opt,
		data_frame_opt_t *p_rx_data_frame)
{
  401f34:	b4f0      	push	{r4, r5, r6, r7}
	if (p_rx_clk_opt == NULL) {
  401f36:	2900      	cmp	r1, #0
  401f38:	d02f      	beq.n	401f9a <ssc_set_receiver+0x66>
		p_ssc->SSC_RCMR = 0;
	} else {
		p_ssc->SSC_RCMR |= p_rx_clk_opt->ul_cks |
  401f3a:	6904      	ldr	r4, [r0, #16]
  401f3c:	68cf      	ldr	r7, [r1, #12]
  401f3e:	698e      	ldr	r6, [r1, #24]
  401f40:	e891 0028 	ldmia.w	r1, {r3, r5}
  401f44:	432b      	orrs	r3, r5
  401f46:	688d      	ldr	r5, [r1, #8]
  401f48:	4323      	orrs	r3, r4
				p_rx_clk_opt->ul_cko | p_rx_clk_opt->ul_cki |
				p_rx_clk_opt->ul_ckg |
				p_rx_clk_opt->ul_start_sel |
				SSC_RCMR_PERIOD(p_rx_clk_opt->ul_period) |
				SSC_RCMR_STTDLY(p_rx_clk_opt->ul_sttdly);
  401f4a:	694c      	ldr	r4, [r1, #20]
		p_ssc->SSC_RCMR |= p_rx_clk_opt->ul_cks |
  401f4c:	432b      	orrs	r3, r5
				SSC_RCMR_PERIOD(p_rx_clk_opt->ul_period) |
  401f4e:	690d      	ldr	r5, [r1, #16]
				SSC_RCMR_STTDLY(p_rx_clk_opt->ul_sttdly);
  401f50:	0421      	lsls	r1, r4, #16
		p_ssc->SSC_RCMR |= p_rx_clk_opt->ul_cks |
  401f52:	433b      	orrs	r3, r7
				SSC_RCMR_STTDLY(p_rx_clk_opt->ul_sttdly);
  401f54:	f401 017f 	and.w	r1, r1, #16711680	; 0xff0000
		p_ssc->SSC_RCMR |= p_rx_clk_opt->ul_cks |
  401f58:	4333      	orrs	r3, r6
  401f5a:	ea43 6305 	orr.w	r3, r3, r5, lsl #24
  401f5e:	430b      	orrs	r3, r1
  401f60:	6103      	str	r3, [r0, #16]
	}

	if (p_rx_data_frame == NULL) {
  401f62:	b1ea      	cbz	r2, 401fa0 <ssc_set_receiver+0x6c>
		p_ssc->SSC_RFMR = 0;
	} else {
		p_ssc->SSC_RFMR |= SSC_RFMR_DATLEN(p_rx_data_frame->ul_datlen) |
  401f64:	6954      	ldr	r4, [r2, #20]
  401f66:	6853      	ldr	r3, [r2, #4]
  401f68:	6991      	ldr	r1, [r2, #24]
  401f6a:	4323      	orrs	r3, r4
  401f6c:	6946      	ldr	r6, [r0, #20]
  401f6e:	6814      	ldr	r4, [r2, #0]
  401f70:	430b      	orrs	r3, r1
				p_rx_data_frame->ul_msbf |
				SSC_RFMR_DATNB(p_rx_data_frame->ul_datnb) |
  401f72:	6891      	ldr	r1, [r2, #8]
		p_ssc->SSC_RFMR |= SSC_RFMR_DATLEN(p_rx_data_frame->ul_datlen) |
  401f74:	f004 041f 	and.w	r4, r4, #31
				SSC_RFMR_FSLEN(p_rx_data_frame->ul_fslen) |
				SSC_RFMR_FSLEN_EXT(p_rx_data_frame->ul_fslen_ext) |
  401f78:	6915      	ldr	r5, [r2, #16]
		p_ssc->SSC_RFMR |= SSC_RFMR_DATLEN(p_rx_data_frame->ul_datlen) |
  401f7a:	4333      	orrs	r3, r6
				SSC_RFMR_FSLEN(p_rx_data_frame->ul_fslen) |
  401f7c:	68d2      	ldr	r2, [r2, #12]
				SSC_RFMR_DATNB(p_rx_data_frame->ul_datnb) |
  401f7e:	0209      	lsls	r1, r1, #8
		p_ssc->SSC_RFMR |= SSC_RFMR_DATLEN(p_rx_data_frame->ul_datlen) |
  401f80:	4323      	orrs	r3, r4
				SSC_RFMR_FSLEN(p_rx_data_frame->ul_fslen) |
  401f82:	0412      	lsls	r2, r2, #16
				SSC_RFMR_DATNB(p_rx_data_frame->ul_datnb) |
  401f84:	f401 6170 	and.w	r1, r1, #3840	; 0xf00
		p_ssc->SSC_RFMR |= SSC_RFMR_DATLEN(p_rx_data_frame->ul_datlen) |
  401f88:	ea43 7305 	orr.w	r3, r3, r5, lsl #28
				SSC_RFMR_FSLEN(p_rx_data_frame->ul_fslen) |
  401f8c:	f402 2270 	and.w	r2, r2, #983040	; 0xf0000
		p_ssc->SSC_RFMR |= SSC_RFMR_DATLEN(p_rx_data_frame->ul_datlen) |
  401f90:	430b      	orrs	r3, r1
  401f92:	4313      	orrs	r3, r2
				p_rx_data_frame->ul_fsos |
				p_rx_data_frame->ul_fsedge;
	}
}
  401f94:	bcf0      	pop	{r4, r5, r6, r7}
		p_ssc->SSC_RFMR |= SSC_RFMR_DATLEN(p_rx_data_frame->ul_datlen) |
  401f96:	6143      	str	r3, [r0, #20]
}
  401f98:	4770      	bx	lr
		p_ssc->SSC_RCMR = 0;
  401f9a:	6101      	str	r1, [r0, #16]
	if (p_rx_data_frame == NULL) {
  401f9c:	2a00      	cmp	r2, #0
  401f9e:	d1e1      	bne.n	401f64 <ssc_set_receiver+0x30>
		p_ssc->SSC_RFMR = 0;
  401fa0:	6142      	str	r2, [r0, #20]
}
  401fa2:	bcf0      	pop	{r4, r5, r6, r7}
  401fa4:	4770      	bx	lr
  401fa6:	bf00      	nop

00401fa8 <ssc_set_transmitter>:
 * \param p_tx_clk_opt Pointer to the transmitter clock configuration structure.
 * \param p_tx_data_frame Pointer to the transmitter data frame configuration structure.
 */
void ssc_set_transmitter(Ssc *p_ssc, clock_opt_t *p_tx_clk_opt,
		data_frame_opt_t *p_tx_data_frame)
{
  401fa8:	b4f0      	push	{r4, r5, r6, r7}
	if (p_tx_clk_opt == NULL) {
  401faa:	2900      	cmp	r1, #0
  401fac:	d02f      	beq.n	40200e <ssc_set_transmitter+0x66>
		p_ssc->SSC_TCMR = 0;
	} else {
		p_ssc->SSC_TCMR |= p_tx_clk_opt->ul_cks |
  401fae:	6984      	ldr	r4, [r0, #24]
  401fb0:	68cf      	ldr	r7, [r1, #12]
  401fb2:	698e      	ldr	r6, [r1, #24]
  401fb4:	e891 0028 	ldmia.w	r1, {r3, r5}
  401fb8:	432b      	orrs	r3, r5
  401fba:	688d      	ldr	r5, [r1, #8]
  401fbc:	4323      	orrs	r3, r4
				p_tx_clk_opt->ul_cko | p_tx_clk_opt->ul_cki |
				p_tx_clk_opt->ul_ckg |
				p_tx_clk_opt->ul_start_sel |
				SSC_TCMR_PERIOD(p_tx_clk_opt->ul_period) |
				SSC_TCMR_STTDLY(p_tx_clk_opt->ul_sttdly);
  401fbe:	694c      	ldr	r4, [r1, #20]
		p_ssc->SSC_TCMR |= p_tx_clk_opt->ul_cks |
  401fc0:	432b      	orrs	r3, r5
				SSC_TCMR_PERIOD(p_tx_clk_opt->ul_period) |
  401fc2:	690d      	ldr	r5, [r1, #16]
				SSC_TCMR_STTDLY(p_tx_clk_opt->ul_sttdly);
  401fc4:	0421      	lsls	r1, r4, #16
		p_ssc->SSC_TCMR |= p_tx_clk_opt->ul_cks |
  401fc6:	433b      	orrs	r3, r7
				SSC_TCMR_STTDLY(p_tx_clk_opt->ul_sttdly);
  401fc8:	f401 017f 	and.w	r1, r1, #16711680	; 0xff0000
		p_ssc->SSC_TCMR |= p_tx_clk_opt->ul_cks |
  401fcc:	4333      	orrs	r3, r6
  401fce:	ea43 6305 	orr.w	r3, r3, r5, lsl #24
  401fd2:	430b      	orrs	r3, r1
  401fd4:	6183      	str	r3, [r0, #24]
	}

	if (p_tx_data_frame == NULL) {
  401fd6:	b1ea      	cbz	r2, 402014 <ssc_set_transmitter+0x6c>
		p_ssc->SSC_TFMR = 0;
	} else {
		p_ssc->SSC_TFMR |= SSC_RFMR_DATLEN(p_tx_data_frame->ul_datlen) |
  401fd8:	6954      	ldr	r4, [r2, #20]
  401fda:	6853      	ldr	r3, [r2, #4]
  401fdc:	6991      	ldr	r1, [r2, #24]
  401fde:	4323      	orrs	r3, r4
  401fe0:	69c6      	ldr	r6, [r0, #28]
  401fe2:	6814      	ldr	r4, [r2, #0]
  401fe4:	430b      	orrs	r3, r1
				p_tx_data_frame->ul_msbf |
				SSC_TFMR_DATNB(p_tx_data_frame->ul_datnb) |
  401fe6:	6891      	ldr	r1, [r2, #8]
		p_ssc->SSC_TFMR |= SSC_RFMR_DATLEN(p_tx_data_frame->ul_datlen) |
  401fe8:	f004 041f 	and.w	r4, r4, #31
				SSC_TFMR_FSLEN(p_tx_data_frame->ul_fslen) |
				SSC_TFMR_FSLEN_EXT(p_tx_data_frame->ul_fslen_ext) |
  401fec:	6915      	ldr	r5, [r2, #16]
		p_ssc->SSC_TFMR |= SSC_RFMR_DATLEN(p_tx_data_frame->ul_datlen) |
  401fee:	4333      	orrs	r3, r6
				SSC_TFMR_FSLEN(p_tx_data_frame->ul_fslen) |
  401ff0:	68d2      	ldr	r2, [r2, #12]
				SSC_TFMR_DATNB(p_tx_data_frame->ul_datnb) |
  401ff2:	0209      	lsls	r1, r1, #8
		p_ssc->SSC_TFMR |= SSC_RFMR_DATLEN(p_tx_data_frame->ul_datlen) |
  401ff4:	4323      	orrs	r3, r4
				SSC_TFMR_FSLEN(p_tx_data_frame->ul_fslen) |
  401ff6:	0412      	lsls	r2, r2, #16
				SSC_TFMR_DATNB(p_tx_data_frame->ul_datnb) |
  401ff8:	f401 6170 	and.w	r1, r1, #3840	; 0xf00
		p_ssc->SSC_TFMR |= SSC_RFMR_DATLEN(p_tx_data_frame->ul_datlen) |
  401ffc:	ea43 7305 	orr.w	r3, r3, r5, lsl #28
				SSC_TFMR_FSLEN(p_tx_data_frame->ul_fslen) |
  402000:	f402 2270 	and.w	r2, r2, #983040	; 0xf0000
		p_ssc->SSC_TFMR |= SSC_RFMR_DATLEN(p_tx_data_frame->ul_datlen) |
  402004:	430b      	orrs	r3, r1
  402006:	4313      	orrs	r3, r2
				p_tx_data_frame->ul_fsos |
				p_tx_data_frame->ul_fsedge;
	}
}
  402008:	bcf0      	pop	{r4, r5, r6, r7}
		p_ssc->SSC_TFMR |= SSC_RFMR_DATLEN(p_tx_data_frame->ul_datlen) |
  40200a:	61c3      	str	r3, [r0, #28]
}
  40200c:	4770      	bx	lr
		p_ssc->SSC_TCMR = 0;
  40200e:	6181      	str	r1, [r0, #24]
	if (p_tx_data_frame == NULL) {
  402010:	2a00      	cmp	r2, #0
  402012:	d1e1      	bne.n	401fd8 <ssc_set_transmitter+0x30>
		p_ssc->SSC_TFMR = 0;
  402014:	61c2      	str	r2, [r0, #28]
}
  402016:	bcf0      	pop	{r4, r5, r6, r7}
  402018:	4770      	bx	lr
  40201a:	bf00      	nop

0040201c <ssc_disable_interrupt>:
 * \param p_ssc Pointer to an SSC instance.
 * \param ul_sources Interrupts to be enabled.
 */
void ssc_disable_interrupt(Ssc *p_ssc, uint32_t ul_sources)
{
	p_ssc->SSC_IDR = ul_sources;
  40201c:	6481      	str	r1, [r0, #72]	; 0x48
  40201e:	4770      	bx	lr

00402020 <twihs_master_init>:
 * \param p_opt Options for initializing the TWIHS module (see \ref twihs_options_t).
 *
 * \return TWIHS_SUCCESS if initialization is complete, error code otherwise.
 */
uint32_t twihs_master_init(Twihs *p_twihs, const twihs_options_t *p_opt)
{
  402020:	b4f0      	push	{r4, r5, r6, r7}
	uint32_t status = TWIHS_SUCCESS;

	/* Disable TWIHS interrupts */
	p_twihs->TWIHS_IDR = ~0UL;
  402022:	f04f 33ff 	mov.w	r3, #4294967295
 * \param p_twihs Pointer to a TWIHS instance.
 */
void twihs_reset(Twihs *p_twihs)
{
	/* Set SWRST bit to reset TWIHS peripheral */
	p_twihs->TWIHS_CR = TWIHS_CR_SWRST;
  402026:	2680      	movs	r6, #128	; 0x80
	p_twihs->TWIHS_CR = TWIHS_CR_MSEN;
  402028:	2204      	movs	r2, #4
	p_twihs->TWIHS_CR = TWIHS_CR_MSDIS;
  40202a:	2508      	movs	r5, #8
	p_twihs->TWIHS_CR = TWIHS_CR_SVDIS;
  40202c:	2420      	movs	r4, #32
	p_twihs->TWIHS_IDR = ~0UL;
  40202e:	6283      	str	r3, [r0, #40]	; 0x28
	if (ul_speed > I2C_FAST_MODE_SPEED) {
  402030:	4b2f      	ldr	r3, [pc, #188]	; (4020f0 <twihs_master_init+0xd0>)
	p_twihs->TWIHS_SR;
  402032:	6a07      	ldr	r7, [r0, #32]
	p_twihs->TWIHS_CR = TWIHS_CR_SWRST;
  402034:	6006      	str	r6, [r0, #0]
	p_twihs->TWIHS_RHR;
  402036:	6b06      	ldr	r6, [r0, #48]	; 0x30
	p_twihs->TWIHS_CR = TWIHS_CR_MSDIS;
  402038:	6005      	str	r5, [r0, #0]
	p_twihs->TWIHS_CR = TWIHS_CR_SVDIS;
  40203a:	6004      	str	r4, [r0, #0]
	p_twihs->TWIHS_CR = TWIHS_CR_MSEN;
  40203c:	6002      	str	r2, [r0, #0]
	if (twihs_set_speed(p_twihs, p_opt->speed, p_opt->master_clk) == FAIL) {
  40203e:	684a      	ldr	r2, [r1, #4]
	if (ul_speed > I2C_FAST_MODE_SPEED) {
  402040:	429a      	cmp	r2, r3
  402042:	d84d      	bhi.n	4020e0 <twihs_master_init+0xc0>
	if (ul_speed > LOW_LEVEL_TIME_LIMIT) {
  402044:	4c2b      	ldr	r4, [pc, #172]	; (4020f4 <twihs_master_init+0xd4>)
	if (twihs_set_speed(p_twihs, p_opt->speed, p_opt->master_clk) == FAIL) {
  402046:	680b      	ldr	r3, [r1, #0]
	if (ul_speed > LOW_LEVEL_TIME_LIMIT) {
  402048:	42a2      	cmp	r2, r4
  40204a:	d92e      	bls.n	4020aa <twihs_master_init+0x8a>
		chdiv = ul_mck / ((ul_speed + (ul_speed - LOW_LEVEL_TIME_LIMIT)) * TWIHS_CLK_DIVIDER) - TWIHS_CLK_CALC_ARGU;
  40204c:	4c2a      	ldr	r4, [pc, #168]	; (4020f8 <twihs_master_init+0xd8>)
		cldiv = ul_mck / (LOW_LEVEL_TIME_LIMIT * TWIHS_CLK_DIVIDER) - TWIHS_CLK_CALC_ARGU;
  40204e:	492b      	ldr	r1, [pc, #172]	; (4020fc <twihs_master_init+0xdc>)
		chdiv = ul_mck / ((ul_speed + (ul_speed - LOW_LEVEL_TIME_LIMIT)) * TWIHS_CLK_DIVIDER) - TWIHS_CLK_CALC_ARGU;
  402050:	4414      	add	r4, r2
		cldiv = ul_mck / (LOW_LEVEL_TIME_LIMIT * TWIHS_CLK_DIVIDER) - TWIHS_CLK_CALC_ARGU;
  402052:	fba1 2103 	umull	r2, r1, r1, r3
		chdiv = ul_mck / ((ul_speed + (ul_speed - LOW_LEVEL_TIME_LIMIT)) * TWIHS_CLK_DIVIDER) - TWIHS_CLK_CALC_ARGU;
  402056:	00a4      	lsls	r4, r4, #2
		cldiv = ul_mck / (LOW_LEVEL_TIME_LIMIT * TWIHS_CLK_DIVIDER) - TWIHS_CLK_CALC_ARGU;
  402058:	0b89      	lsrs	r1, r1, #14
		chdiv = ul_mck / ((ul_speed + (ul_speed - LOW_LEVEL_TIME_LIMIT)) * TWIHS_CLK_DIVIDER) - TWIHS_CLK_CALC_ARGU;
  40205a:	fbb3 f3f4 	udiv	r3, r3, r4
		cldiv = ul_mck / (LOW_LEVEL_TIME_LIMIT * TWIHS_CLK_DIVIDER) - TWIHS_CLK_CALC_ARGU;
  40205e:	3903      	subs	r1, #3
		chdiv = ul_mck / ((ul_speed + (ul_speed - LOW_LEVEL_TIME_LIMIT)) * TWIHS_CLK_DIVIDER) - TWIHS_CLK_CALC_ARGU;
  402060:	3b03      	subs	r3, #3
		while ((cldiv > TWIHS_CLK_DIV_MAX) && (ckdiv < TWIHS_CLK_DIV_MIN)) {
  402062:	29ff      	cmp	r1, #255	; 0xff
  402064:	d940      	bls.n	4020e8 <twihs_master_init+0xc8>
  402066:	2200      	movs	r2, #0
  402068:	e000      	b.n	40206c <twihs_master_init+0x4c>
  40206a:	b13c      	cbz	r4, 40207c <twihs_master_init+0x5c>
			ckdiv++;
  40206c:	3201      	adds	r2, #1
			cldiv /= TWIHS_CLK_DIVIDER;
  40206e:	0849      	lsrs	r1, r1, #1
		while ((cldiv > TWIHS_CLK_DIV_MAX) && (ckdiv < TWIHS_CLK_DIV_MIN)) {
  402070:	2a06      	cmp	r2, #6
  402072:	bf8c      	ite	hi
  402074:	2400      	movhi	r4, #0
  402076:	2401      	movls	r4, #1
  402078:	29ff      	cmp	r1, #255	; 0xff
  40207a:	d8f6      	bhi.n	40206a <twihs_master_init+0x4a>
		while ((chdiv > TWIHS_CLK_DIV_MAX) && (ckdiv < TWIHS_CLK_DIV_MIN)) {
  40207c:	2bff      	cmp	r3, #255	; 0xff
  40207e:	d907      	bls.n	402090 <twihs_master_init+0x70>
  402080:	b914      	cbnz	r4, 402088 <twihs_master_init+0x68>
  402082:	e005      	b.n	402090 <twihs_master_init+0x70>
  402084:	2a06      	cmp	r2, #6
  402086:	d803      	bhi.n	402090 <twihs_master_init+0x70>
			chdiv /= TWIHS_CLK_DIVIDER;
  402088:	085b      	lsrs	r3, r3, #1
			ckdiv++;
  40208a:	3201      	adds	r2, #1
		while ((chdiv > TWIHS_CLK_DIV_MAX) && (ckdiv < TWIHS_CLK_DIV_MIN)) {
  40208c:	2bff      	cmp	r3, #255	; 0xff
  40208e:	d8f9      	bhi.n	402084 <twihs_master_init+0x64>
				TWIHS_CWGR_CLDIV(cldiv) | TWIHS_CWGR_CHDIV(chdiv) |
  402090:	021b      	lsls	r3, r3, #8
	uint32_t status = TWIHS_SUCCESS;
  402092:	2400      	movs	r4, #0
				TWIHS_CWGR_CKDIV(ckdiv);
  402094:	0412      	lsls	r2, r2, #16
				TWIHS_CWGR_CLDIV(cldiv) | TWIHS_CWGR_CHDIV(chdiv) |
  402096:	b29b      	uxth	r3, r3
				TWIHS_CWGR_CKDIV(ckdiv);
  402098:	f402 22e0 	and.w	r2, r2, #458752	; 0x70000
				TWIHS_CWGR_CLDIV(cldiv) | TWIHS_CWGR_CHDIV(chdiv) |
  40209c:	b2c9      	uxtb	r1, r1
  40209e:	4313      	orrs	r3, r2
  4020a0:	430b      	orrs	r3, r1
		p_twihs->TWIHS_CWGR =
  4020a2:	6103      	str	r3, [r0, #16]
}
  4020a4:	4620      	mov	r0, r4
  4020a6:	bcf0      	pop	{r4, r5, r6, r7}
  4020a8:	4770      	bx	lr
		c_lh_div = ul_mck / (ul_speed * TWIHS_CLK_DIVIDER) - TWIHS_CLK_CALC_ARGU;
  4020aa:	0052      	lsls	r2, r2, #1
  4020ac:	fbb3 f3f2 	udiv	r3, r3, r2
  4020b0:	3b03      	subs	r3, #3
		while ((c_lh_div > TWIHS_CLK_DIV_MAX) && (ckdiv < TWIHS_CLK_DIV_MIN)) {
  4020b2:	2200      	movs	r2, #0
  4020b4:	2bff      	cmp	r3, #255	; 0xff
  4020b6:	d802      	bhi.n	4020be <twihs_master_init+0x9e>
  4020b8:	e008      	b.n	4020cc <twihs_master_init+0xac>
  4020ba:	2a06      	cmp	r2, #6
  4020bc:	d803      	bhi.n	4020c6 <twihs_master_init+0xa6>
			c_lh_div /= TWIHS_CLK_DIVIDER;
  4020be:	085b      	lsrs	r3, r3, #1
			ckdiv++;
  4020c0:	3201      	adds	r2, #1
		while ((c_lh_div > TWIHS_CLK_DIV_MAX) && (ckdiv < TWIHS_CLK_DIV_MIN)) {
  4020c2:	2bff      	cmp	r3, #255	; 0xff
  4020c4:	d8f9      	bhi.n	4020ba <twihs_master_init+0x9a>
  4020c6:	0412      	lsls	r2, r2, #16
  4020c8:	f402 22e0 	and.w	r2, r2, #458752	; 0x70000
				TWIHS_CWGR_CLDIV(c_lh_div) | TWIHS_CWGR_CHDIV(c_lh_div) |
  4020cc:	0219      	lsls	r1, r3, #8
	uint32_t status = TWIHS_SUCCESS;
  4020ce:	2400      	movs	r4, #0
				TWIHS_CWGR_CLDIV(c_lh_div) | TWIHS_CWGR_CHDIV(c_lh_div) |
  4020d0:	b2db      	uxtb	r3, r3
  4020d2:	b289      	uxth	r1, r1
  4020d4:	4313      	orrs	r3, r2
  4020d6:	430b      	orrs	r3, r1
		p_twihs->TWIHS_CWGR =
  4020d8:	6103      	str	r3, [r0, #16]
}
  4020da:	4620      	mov	r0, r4
  4020dc:	bcf0      	pop	{r4, r5, r6, r7}
  4020de:	4770      	bx	lr
		status = TWIHS_INVALID_ARGUMENT;
  4020e0:	2401      	movs	r4, #1
}
  4020e2:	4620      	mov	r0, r4
  4020e4:	bcf0      	pop	{r4, r5, r6, r7}
  4020e6:	4770      	bx	lr
		while ((cldiv > TWIHS_CLK_DIV_MAX) && (ckdiv < TWIHS_CLK_DIV_MIN)) {
  4020e8:	2401      	movs	r4, #1
	uint32_t ckdiv = 0;
  4020ea:	2200      	movs	r2, #0
  4020ec:	e7c6      	b.n	40207c <twihs_master_init+0x5c>
  4020ee:	bf00      	nop
  4020f0:	00061a80 	.word	0x00061a80
  4020f4:	0005dc00 	.word	0x0005dc00
  4020f8:	3ffd1200 	.word	0x3ffd1200
  4020fc:	057619f1 	.word	0x057619f1

00402100 <twihs_master_read>:
	uint32_t status, cnt = p_packet->length;
  402100:	68ca      	ldr	r2, [r1, #12]
	if (cnt == 0) {
  402102:	2a00      	cmp	r2, #0
  402104:	d053      	beq.n	4021ae <twihs_master_read+0xae>
{
  402106:	b470      	push	{r4, r5, r6}
	p_twihs->TWIHS_MMR = 0;
  402108:	2600      	movs	r6, #0
	uint8_t *buffer = p_packet->buffer;
  40210a:	688c      	ldr	r4, [r1, #8]
	p_twihs->TWIHS_MMR = 0;
  40210c:	6046      	str	r6, [r0, #4]
			((p_packet->addr_length << TWIHS_MMR_IADRSZ_Pos) &
  40210e:	684b      	ldr	r3, [r1, #4]
	p_twihs->TWIHS_MMR = TWIHS_MMR_MREAD | TWIHS_MMR_DADR(p_packet->chip) |
  402110:	7c0d      	ldrb	r5, [r1, #16]
			((p_packet->addr_length << TWIHS_MMR_IADRSZ_Pos) &
  402112:	021b      	lsls	r3, r3, #8
	p_twihs->TWIHS_MMR = TWIHS_MMR_MREAD | TWIHS_MMR_DADR(p_packet->chip) |
  402114:	042d      	lsls	r5, r5, #16
			((p_packet->addr_length << TWIHS_MMR_IADRSZ_Pos) &
  402116:	f403 7340 	and.w	r3, r3, #768	; 0x300
	p_twihs->TWIHS_MMR = TWIHS_MMR_MREAD | TWIHS_MMR_DADR(p_packet->chip) |
  40211a:	f405 05fe 	and.w	r5, r5, #8323072	; 0x7f0000
  40211e:	f443 5380 	orr.w	r3, r3, #4096	; 0x1000
  402122:	432b      	orrs	r3, r5
  402124:	6043      	str	r3, [r0, #4]
	p_twihs->TWIHS_IADR = 0;
  402126:	60c6      	str	r6, [r0, #12]
	p_twihs->TWIHS_IADR = twihs_mk_addr(p_packet->addr, p_packet->addr_length);
  402128:	684b      	ldr	r3, [r1, #4]
	if (len == 0)
  40212a:	b99b      	cbnz	r3, 402154 <twihs_master_read+0x54>
		return 0;
  40212c:	461d      	mov	r5, r3
	p_twihs->TWIHS_CR = TWIHS_CR_START;
  40212e:	2301      	movs	r3, #1
	p_twihs->TWIHS_IADR = twihs_mk_addr(p_packet->addr, p_packet->addr_length);
  402130:	60c5      	str	r5, [r0, #12]
	p_twihs->TWIHS_CR = TWIHS_CR_START;
  402132:	6003      	str	r3, [r0, #0]
		status = p_twihs->TWIHS_SR;
  402134:	6a03      	ldr	r3, [r0, #32]
		if (status & TWIHS_SR_NACK) {
  402136:	05d9      	lsls	r1, r3, #23
  402138:	d41f      	bmi.n	40217a <twihs_master_read+0x7a>
  40213a:	2a01      	cmp	r2, #1
  40213c:	d020      	beq.n	402180 <twihs_master_read+0x80>
  40213e:	f247 5130 	movw	r1, #30000	; 0x7530
		if (!(status & TWIHS_SR_RXRDY)) {
  402142:	079e      	lsls	r6, r3, #30
  402144:	d412      	bmi.n	40216c <twihs_master_read+0x6c>
		status = p_twihs->TWIHS_SR;
  402146:	6a03      	ldr	r3, [r0, #32]
		if (status & TWIHS_SR_NACK) {
  402148:	05dd      	lsls	r5, r3, #23
  40214a:	d416      	bmi.n	40217a <twihs_master_read+0x7a>
		if (!timeout--) {
  40214c:	3901      	subs	r1, #1
  40214e:	d1f8      	bne.n	402142 <twihs_master_read+0x42>
			return TWIHS_ERROR_TIMEOUT;
  402150:	2009      	movs	r0, #9
  402152:	e02a      	b.n	4021aa <twihs_master_read+0xaa>
	if (len > 1) {
  402154:	2b01      	cmp	r3, #1
	val = addr[0];
  402156:	780d      	ldrb	r5, [r1, #0]
	if (len > 1) {
  402158:	dde9      	ble.n	40212e <twihs_master_read+0x2e>
		val |= addr[1];
  40215a:	784e      	ldrb	r6, [r1, #1]
	if (len > 2) {
  40215c:	2b02      	cmp	r3, #2
		val |= addr[1];
  40215e:	ea46 2505 	orr.w	r5, r6, r5, lsl #8
	if (len > 2) {
  402162:	d0e4      	beq.n	40212e <twihs_master_read+0x2e>
		val |= addr[2];
  402164:	788b      	ldrb	r3, [r1, #2]
  402166:	ea43 2505 	orr.w	r5, r3, r5, lsl #8
  40216a:	e7e0      	b.n	40212e <twihs_master_read+0x2e>
		*buffer++ = p_twihs->TWIHS_RHR;
  40216c:	6b03      	ldr	r3, [r0, #48]	; 0x30
		cnt--;
  40216e:	3a01      	subs	r2, #1
		*buffer++ = p_twihs->TWIHS_RHR;
  402170:	f804 3b01 	strb.w	r3, [r4], #1
		status = p_twihs->TWIHS_SR;
  402174:	6a03      	ldr	r3, [r0, #32]
		if (status & TWIHS_SR_NACK) {
  402176:	05d9      	lsls	r1, r3, #23
  402178:	d5df      	bpl.n	40213a <twihs_master_read+0x3a>
			return TWIHS_RECEIVE_NACK;
  40217a:	2005      	movs	r0, #5
}
  40217c:	bc70      	pop	{r4, r5, r6}
  40217e:	4770      	bx	lr
			p_twihs->TWIHS_CR = TWIHS_CR_STOP;
  402180:	2102      	movs	r1, #2
		if (!(status & TWIHS_SR_RXRDY)) {
  402182:	079d      	lsls	r5, r3, #30
		if (status & TWIHS_SR_NACK) {
  402184:	f247 5230 	movw	r2, #30000	; 0x7530
			p_twihs->TWIHS_CR = TWIHS_CR_STOP;
  402188:	6001      	str	r1, [r0, #0]
		if (!(status & TWIHS_SR_RXRDY)) {
  40218a:	d407      	bmi.n	40219c <twihs_master_read+0x9c>
		status = p_twihs->TWIHS_SR;
  40218c:	6a03      	ldr	r3, [r0, #32]
		if (status & TWIHS_SR_NACK) {
  40218e:	05de      	lsls	r6, r3, #23
  402190:	d4f3      	bmi.n	40217a <twihs_master_read+0x7a>
		if (!timeout--) {
  402192:	3a01      	subs	r2, #1
  402194:	d0dc      	beq.n	402150 <twihs_master_read+0x50>
		if (!(status & TWIHS_SR_RXRDY)) {
  402196:	079d      	lsls	r5, r3, #30
			p_twihs->TWIHS_CR = TWIHS_CR_STOP;
  402198:	6001      	str	r1, [r0, #0]
		if (!(status & TWIHS_SR_RXRDY)) {
  40219a:	d5f7      	bpl.n	40218c <twihs_master_read+0x8c>
		*buffer++ = p_twihs->TWIHS_RHR;
  40219c:	6b03      	ldr	r3, [r0, #48]	; 0x30
  40219e:	7023      	strb	r3, [r4, #0]
	while (!(p_twihs->TWIHS_SR & TWIHS_SR_TXCOMP)) {
  4021a0:	6a03      	ldr	r3, [r0, #32]
  4021a2:	07db      	lsls	r3, r3, #31
  4021a4:	d5fc      	bpl.n	4021a0 <twihs_master_read+0xa0>
	p_twihs->TWIHS_SR;
  4021a6:	6a03      	ldr	r3, [r0, #32]
	return TWIHS_SUCCESS;
  4021a8:	2000      	movs	r0, #0
}
  4021aa:	bc70      	pop	{r4, r5, r6}
  4021ac:	4770      	bx	lr
		return TWIHS_INVALID_ARGUMENT;
  4021ae:	2001      	movs	r0, #1
  4021b0:	4770      	bx	lr
  4021b2:	bf00      	nop

004021b4 <twihs_master_write>:
{
  4021b4:	4603      	mov	r3, r0
	uint32_t status, cnt = p_packet->length;
  4021b6:	68c8      	ldr	r0, [r1, #12]
	if (cnt == 0) {
  4021b8:	2800      	cmp	r0, #0
  4021ba:	d034      	beq.n	402226 <twihs_master_write+0x72>
{
  4021bc:	b470      	push	{r4, r5, r6}
	p_twihs->TWIHS_MMR = 0;
  4021be:	2600      	movs	r6, #0
	uint8_t *buffer = p_packet->buffer;
  4021c0:	688c      	ldr	r4, [r1, #8]
	p_twihs->TWIHS_MMR = 0;
  4021c2:	605e      	str	r6, [r3, #4]
	p_twihs->TWIHS_MMR = TWIHS_MMR_DADR(p_packet->chip) |
  4021c4:	7c0a      	ldrb	r2, [r1, #16]
			((p_packet->addr_length << TWIHS_MMR_IADRSZ_Pos) &
  4021c6:	684d      	ldr	r5, [r1, #4]
	p_twihs->TWIHS_MMR = TWIHS_MMR_DADR(p_packet->chip) |
  4021c8:	0412      	lsls	r2, r2, #16
			((p_packet->addr_length << TWIHS_MMR_IADRSZ_Pos) &
  4021ca:	022d      	lsls	r5, r5, #8
	p_twihs->TWIHS_MMR = TWIHS_MMR_DADR(p_packet->chip) |
  4021cc:	f402 02fe 	and.w	r2, r2, #8323072	; 0x7f0000
			((p_packet->addr_length << TWIHS_MMR_IADRSZ_Pos) &
  4021d0:	f405 7540 	and.w	r5, r5, #768	; 0x300
	p_twihs->TWIHS_MMR = TWIHS_MMR_DADR(p_packet->chip) |
  4021d4:	432a      	orrs	r2, r5
  4021d6:	605a      	str	r2, [r3, #4]
	p_twihs->TWIHS_IADR = 0;
  4021d8:	60de      	str	r6, [r3, #12]
	p_twihs->TWIHS_IADR = twihs_mk_addr(p_packet->addr, p_packet->addr_length);
  4021da:	684a      	ldr	r2, [r1, #4]
	if (len == 0)
  4021dc:	b98a      	cbnz	r2, 402202 <twihs_master_write+0x4e>
		return 0;
  4021de:	4615      	mov	r5, r2
	p_twihs->TWIHS_IADR = twihs_mk_addr(p_packet->addr, p_packet->addr_length);
  4021e0:	60dd      	str	r5, [r3, #12]
		status = p_twihs->TWIHS_SR;
  4021e2:	6a1a      	ldr	r2, [r3, #32]
		if (status & TWIHS_SR_NACK) {
  4021e4:	05d6      	lsls	r6, r2, #23
  4021e6:	d409      	bmi.n	4021fc <twihs_master_write+0x48>
		if (!(status & TWIHS_SR_TXRDY)) {
  4021e8:	0755      	lsls	r5, r2, #29
  4021ea:	d5fa      	bpl.n	4021e2 <twihs_master_write+0x2e>
		p_twihs->TWIHS_THR = *buffer++;
  4021ec:	f814 2b01 	ldrb.w	r2, [r4], #1
	while (cnt > 0) {
  4021f0:	3801      	subs	r0, #1
		p_twihs->TWIHS_THR = *buffer++;
  4021f2:	635a      	str	r2, [r3, #52]	; 0x34
	while (cnt > 0) {
  4021f4:	d013      	beq.n	40221e <twihs_master_write+0x6a>
		status = p_twihs->TWIHS_SR;
  4021f6:	6a1a      	ldr	r2, [r3, #32]
		if (status & TWIHS_SR_NACK) {
  4021f8:	05d6      	lsls	r6, r2, #23
  4021fa:	d5f5      	bpl.n	4021e8 <twihs_master_write+0x34>
			return TWIHS_RECEIVE_NACK;
  4021fc:	2005      	movs	r0, #5
}
  4021fe:	bc70      	pop	{r4, r5, r6}
  402200:	4770      	bx	lr
	if (len > 1) {
  402202:	2a01      	cmp	r2, #1
	val = addr[0];
  402204:	780d      	ldrb	r5, [r1, #0]
	if (len > 1) {
  402206:	ddeb      	ble.n	4021e0 <twihs_master_write+0x2c>
		val |= addr[1];
  402208:	784e      	ldrb	r6, [r1, #1]
	if (len > 2) {
  40220a:	2a02      	cmp	r2, #2
		val |= addr[1];
  40220c:	ea46 2505 	orr.w	r5, r6, r5, lsl #8
	if (len > 2) {
  402210:	d0e6      	beq.n	4021e0 <twihs_master_write+0x2c>
		val |= addr[2];
  402212:	788a      	ldrb	r2, [r1, #2]
  402214:	ea42 2505 	orr.w	r5, r2, r5, lsl #8
  402218:	e7e2      	b.n	4021e0 <twihs_master_write+0x2c>
		if (status & TWIHS_SR_TXRDY) {
  40221a:	0751      	lsls	r1, r2, #29
  40221c:	d405      	bmi.n	40222a <twihs_master_write+0x76>
		status = p_twihs->TWIHS_SR;
  40221e:	6a1a      	ldr	r2, [r3, #32]
		if (status & TWIHS_SR_NACK) {
  402220:	05d4      	lsls	r4, r2, #23
  402222:	d4eb      	bmi.n	4021fc <twihs_master_write+0x48>
  402224:	e7f9      	b.n	40221a <twihs_master_write+0x66>
		return TWIHS_INVALID_ARGUMENT;
  402226:	2001      	movs	r0, #1
  402228:	4770      	bx	lr
	p_twihs->TWIHS_CR = TWIHS_CR_STOP;
  40222a:	2202      	movs	r2, #2
  40222c:	601a      	str	r2, [r3, #0]
	while (!(p_twihs->TWIHS_SR & TWIHS_SR_TXCOMP)) {
  40222e:	6a1a      	ldr	r2, [r3, #32]
  402230:	07d2      	lsls	r2, r2, #31
  402232:	d5fc      	bpl.n	40222e <twihs_master_write+0x7a>
}
  402234:	bc70      	pop	{r4, r5, r6}
  402236:	4770      	bx	lr

00402238 <usart_init_rs232>:
 * \retval 0 on success.
 * \retval 1 on failure.
 */
uint32_t usart_init_rs232(Usart *p_usart,
		const sam_usart_opt_t *p_usart_opt, uint32_t ul_mck)
{
  402238:	b5f0      	push	{r4, r5, r6, r7, lr}
  40223a:	4603      	mov	r3, r0
 *
 * \param p_usart Pointer to a USART instance.
 */
void usart_disable_writeprotect(Usart *p_usart)
{
	p_usart->US_WPMR = US_WPMR_WPKEY_PASSWD;
  40223c:	4c24      	ldr	r4, [pc, #144]	; (4022d0 <usart_init_rs232+0x98>)
	p_usart->US_MR = 0;
  40223e:	2000      	movs	r0, #0
	p_usart->US_CR = US_CR_RSTTX | US_CR_TXDIS;
  402240:	f04f 0e88 	mov.w	lr, #136	; 0x88
	p_usart->US_WPMR = US_WPMR_WPKEY_PASSWD;
  402244:	f8c3 40e4 	str.w	r4, [r3, #228]	; 0xe4
	p_usart->US_CR = US_CR_RSTRX | US_CR_RXDIS;
  402248:	2724      	movs	r7, #36	; 0x24
	p_usart->US_CR = US_CR_RSTSTA;
  40224a:	f44f 7680 	mov.w	r6, #256	; 0x100
	p_usart->US_CR = US_CR_RTSDIS;
  40224e:	f44f 2500 	mov.w	r5, #524288	; 0x80000
	ul_reg_val = 0;
  402252:	4c20      	ldr	r4, [pc, #128]	; (4022d4 <usart_init_rs232+0x9c>)
	p_usart->US_MR = 0;
  402254:	6058      	str	r0, [r3, #4]
	ul_reg_val = 0;
  402256:	6020      	str	r0, [r4, #0]
	p_usart->US_RTOR = 0;
  402258:	6258      	str	r0, [r3, #36]	; 0x24
	p_usart->US_TTGR = 0;
  40225a:	6298      	str	r0, [r3, #40]	; 0x28
	p_usart->US_CR = US_CR_RSTTX | US_CR_TXDIS;
  40225c:	f8c3 e000 	str.w	lr, [r3]
	p_usart->US_CR = US_CR_RSTRX | US_CR_RXDIS;
  402260:	601f      	str	r7, [r3, #0]
	p_usart->US_CR = US_CR_RSTSTA;
  402262:	601e      	str	r6, [r3, #0]
	p_usart->US_CR = US_CR_RTSDIS;
  402264:	601d      	str	r5, [r3, #0]
	if (!p_usart_opt || usart_set_async_baudrate(p_usart,
  402266:	b361      	cbz	r1, 4022c2 <usart_init_rs232+0x8a>
  402268:	6808      	ldr	r0, [r1, #0]
	if (ul_mck >= HIGH_FRQ_SAMPLE_DIV * baudrate) {
  40226a:	0105      	lsls	r5, r0, #4
  40226c:	42aa      	cmp	r2, r5
  40226e:	d31c      	bcc.n	4022aa <usart_init_rs232+0x72>
	cd_fp = (8 * ul_mck + (over * baudrate) / 2) / (over * baudrate);
  402270:	0868      	lsrs	r0, r5, #1
	if (cd < MIN_CD_VALUE || cd > MAX_CD_VALUE) {
  402272:	f64f 76fe 	movw	r6, #65534	; 0xfffe
	cd_fp = (8 * ul_mck + (over * baudrate) / 2) / (over * baudrate);
  402276:	eb00 02c2 	add.w	r2, r0, r2, lsl #3
  40227a:	fbb2 f2f5 	udiv	r2, r2, r5
	cd = cd_fp >> 3;
  40227e:	08d5      	lsrs	r5, r2, #3
	if (cd < MIN_CD_VALUE || cd > MAX_CD_VALUE) {
  402280:	1e68      	subs	r0, r5, #1
  402282:	42b0      	cmp	r0, r6
  402284:	d81d      	bhi.n	4022c2 <usart_init_rs232+0x8a>
	p_usart->US_BRGR = (cd << US_BRGR_CD_Pos) | (fp << US_BRGR_FP_Pos);
  402286:	0412      	lsls	r2, r2, #16
	p_usart->US_MR |= ul_reg_val;
  402288:	2000      	movs	r0, #0
	p_usart->US_BRGR = (cd << US_BRGR_CD_Pos) | (fp << US_BRGR_FP_Pos);
  40228a:	f402 22e0 	and.w	r2, r2, #458752	; 0x70000
  40228e:	432a      	orrs	r2, r5
  402290:	621a      	str	r2, [r3, #32]
	ul_reg_val |= p_usart_opt->char_length | p_usart_opt->parity_type |
  402292:	684d      	ldr	r5, [r1, #4]
  402294:	688a      	ldr	r2, [r1, #8]
  402296:	690f      	ldr	r7, [r1, #16]
  402298:	432a      	orrs	r2, r5
			p_usart_opt->channel_mode | p_usart_opt->stop_bits;
  40229a:	68ce      	ldr	r6, [r1, #12]
	p_usart->US_MR |= ul_reg_val;
  40229c:	6859      	ldr	r1, [r3, #4]
	ul_reg_val |= p_usart_opt->char_length | p_usart_opt->parity_type |
  40229e:	433a      	orrs	r2, r7
			p_usart_opt->channel_mode | p_usart_opt->stop_bits;
  4022a0:	4332      	orrs	r2, r6
	p_usart->US_MR |= ul_reg_val;
  4022a2:	4311      	orrs	r1, r2
	ul_reg_val |= p_usart_opt->char_length | p_usart_opt->parity_type |
  4022a4:	6022      	str	r2, [r4, #0]
	p_usart->US_MR |= ul_reg_val;
  4022a6:	6059      	str	r1, [r3, #4]
  4022a8:	bdf0      	pop	{r4, r5, r6, r7, pc}
	cd_fp = (8 * ul_mck + (over * baudrate) / 2) / (over * baudrate);
  4022aa:	00c0      	lsls	r0, r0, #3
	if (cd < MIN_CD_VALUE || cd > MAX_CD_VALUE) {
  4022ac:	f64f 76fe 	movw	r6, #65534	; 0xfffe
	cd_fp = (8 * ul_mck + (over * baudrate) / 2) / (over * baudrate);
  4022b0:	00d2      	lsls	r2, r2, #3
  4022b2:	eb02 0250 	add.w	r2, r2, r0, lsr #1
  4022b6:	fbb2 f2f0 	udiv	r2, r2, r0
	cd = cd_fp >> 3;
  4022ba:	08d5      	lsrs	r5, r2, #3
	if (cd < MIN_CD_VALUE || cd > MAX_CD_VALUE) {
  4022bc:	1e68      	subs	r0, r5, #1
  4022be:	42b0      	cmp	r0, r6
  4022c0:	d901      	bls.n	4022c6 <usart_init_rs232+0x8e>
		return 1;
  4022c2:	2001      	movs	r0, #1
  4022c4:	bdf0      	pop	{r4, r5, r6, r7, pc}
		p_usart->US_MR |= US_MR_OVER;
  4022c6:	6858      	ldr	r0, [r3, #4]
  4022c8:	f440 2000 	orr.w	r0, r0, #524288	; 0x80000
  4022cc:	6058      	str	r0, [r3, #4]
  4022ce:	e7da      	b.n	402286 <usart_init_rs232+0x4e>
  4022d0:	55534100 	.word	0x55534100
  4022d4:	204280ec 	.word	0x204280ec

004022d8 <usart_enable_tx>:
	p_usart->US_CR = US_CR_TXEN;
  4022d8:	2340      	movs	r3, #64	; 0x40
  4022da:	6003      	str	r3, [r0, #0]
  4022dc:	4770      	bx	lr
  4022de:	bf00      	nop

004022e0 <usart_enable_rx>:
	p_usart->US_CR = US_CR_RXEN;
  4022e0:	2310      	movs	r3, #16
  4022e2:	6003      	str	r3, [r0, #0]
  4022e4:	4770      	bx	lr
  4022e6:	bf00      	nop

004022e8 <usart_enable_interrupt>:
	p_usart->US_IER = ul_sources;
  4022e8:	6081      	str	r1, [r0, #8]
  4022ea:	4770      	bx	lr

004022ec <usart_get_status>:
	return p_usart->US_CSR;
  4022ec:	6940      	ldr	r0, [r0, #20]
}
  4022ee:	4770      	bx	lr

004022f0 <usart_read>:
	if (!(p_usart->US_CSR & US_CSR_RXRDY)) {
  4022f0:	6943      	ldr	r3, [r0, #20]
  4022f2:	07db      	lsls	r3, r3, #31
  4022f4:	d505      	bpl.n	402302 <usart_read+0x12>
	*c = p_usart->US_RHR & US_RHR_RXCHR_Msk;
  4022f6:	6983      	ldr	r3, [r0, #24]
	return 0;
  4022f8:	2000      	movs	r0, #0
	*c = p_usart->US_RHR & US_RHR_RXCHR_Msk;
  4022fa:	f3c3 0308 	ubfx	r3, r3, #0, #9
  4022fe:	600b      	str	r3, [r1, #0]
	return 0;
  402300:	4770      	bx	lr
		return 1;
  402302:	2001      	movs	r0, #1
}
  402304:	4770      	bx	lr
  402306:	bf00      	nop

00402308 <xdmac_configure_transfer>:
	return xdmac->XDMAC_CHID[channel_num].XDMAC_CIS;
  402308:	eb00 1181 	add.w	r1, r0, r1, lsl #6
	Assert(xdmac);
	Assert(channel_num < XDMACCHID_NUMBER);
	Assert(cfg);
	
	xdmac_channel_get_interrupt_status( xdmac, channel_num);
	xdmac_channel_set_source_addr(xdmac, channel_num, cfg->mbr_sa);
  40230c:	6853      	ldr	r3, [r2, #4]
  40230e:	6dc8      	ldr	r0, [r1, #92]	; 0x5c
	xdmac->XDMAC_CHID[channel_num].XDMAC_CSA = src_addr;
  402310:	660b      	str	r3, [r1, #96]	; 0x60
	xdmac_channel_set_destination_addr(xdmac, channel_num, cfg->mbr_da);
  402312:	6893      	ldr	r3, [r2, #8]
	xdmac->XDMAC_CHID[channel_num].XDMAC_CDA = dst_addr;
  402314:	664b      	str	r3, [r1, #100]	; 0x64
 */
static inline void xdmac_channel_set_microblock_control(Xdmac *xdmac, uint32_t channel_num, uint32_t ublen)
{
	Assert(xdmac);
	Assert(channel_num < XDMACCHID_NUMBER);
	xdmac->XDMAC_CHID[channel_num].XDMAC_CUBC = XDMAC_CUBC_UBLEN(ublen);
  402316:	6813      	ldr	r3, [r2, #0]
  402318:	f023 437f 	bic.w	r3, r3, #4278190080	; 0xff000000
  40231c:	670b      	str	r3, [r1, #112]	; 0x70
 */
static inline void xdmac_channel_set_block_control(Xdmac *xdmac, uint32_t channel_num, uint32_t blen)
{
	Assert(xdmac);
	Assert(channel_num < XDMACCHID_NUMBER);
	xdmac->XDMAC_CHID[channel_num].XDMAC_CBC = XDMAC_CBC_BLEN(blen);
  40231e:	6913      	ldr	r3, [r2, #16]
  402320:	f3c3 030b 	ubfx	r3, r3, #0, #12
  402324:	674b      	str	r3, [r1, #116]	; 0x74
	xdmac_channel_set_microblock_control(xdmac, channel_num, cfg->mbr_ubc);
	xdmac_channel_set_block_control(xdmac, channel_num, cfg->mbr_bc);
	xdmac_channel_set_datastride_mempattern(xdmac, channel_num, cfg->mbr_ds);
  402326:	6953      	ldr	r3, [r2, #20]
 */
static inline void xdmac_channel_set_datastride_mempattern(Xdmac *xdmac, uint32_t channel_num, uint32_t dds_msp)
{
	Assert(xdmac);
	Assert(channel_num < XDMACCHID_NUMBER);
	xdmac->XDMAC_CHID[channel_num].XDMAC_CDS_MSP = dds_msp;
  402328:	67cb      	str	r3, [r1, #124]	; 0x7c
static inline void xdmac_channel_set_source_microblock_stride(Xdmac *xdmac,
		uint32_t channel_num, uint32_t subs)
{
	Assert(xdmac);
	Assert(channel_num < XDMACCHID_NUMBER);
	xdmac->XDMAC_CHID[channel_num].XDMAC_CSUS = XDMAC_CSUS_SUBS(subs);
  40232a:	6993      	ldr	r3, [r2, #24]
  40232c:	f023 437f 	bic.w	r3, r3, #4278190080	; 0xff000000
  402330:	f8c1 3080 	str.w	r3, [r1, #128]	; 0x80
static inline void xdmac_channel_set_destination_microblock_stride(Xdmac *xdmac,
		uint32_t channel_num, uint32_t dubs)
{
	Assert(xdmac);
	Assert(channel_num < XDMACCHID_NUMBER);
	xdmac->XDMAC_CHID[channel_num].XDMAC_CDUS = XDMAC_CDUS_DUBS(dubs);
  402334:	69d3      	ldr	r3, [r2, #28]
  402336:	f023 437f 	bic.w	r3, r3, #4278190080	; 0xff000000
  40233a:	f8c1 3084 	str.w	r3, [r1, #132]	; 0x84
	xdmac_channel_set_source_microblock_stride(xdmac, channel_num, cfg->mbr_sus);
	xdmac_channel_set_destination_microblock_stride(xdmac, channel_num, cfg->mbr_dus);
	xdmac_channel_set_config(xdmac, channel_num, cfg->mbr_cfg );
  40233e:	68d3      	ldr	r3, [r2, #12]
	xdmac->XDMAC_CHID[channel_num].XDMAC_CC = config;
  402340:	678b      	str	r3, [r1, #120]	; 0x78
  402342:	4770      	bx	lr

00402344 <sysclk_init>:
	pmc_disable_udpck();
}
#endif // CONFIG_USBCLK_SOURCE

void sysclk_init(void)
{
  402344:	b570      	push	{r4, r5, r6, lr}
	struct pll_config pllcfg;

	/* Set flash wait state to max in case the below clock switching. */
	system_init_flash(CHIP_FREQ_CPU_MAX);
  402346:	4810      	ldr	r0, [pc, #64]	; (402388 <sysclk_init+0x44>)
  402348:	4d10      	ldr	r5, [pc, #64]	; (40238c <sysclk_init+0x48>)
  40234a:	47a8      	blx	r5
		pmc_switch_mainck_to_fastrc(CKGR_MOR_MOSCRCF_12_MHz);
		break;


	case OSC_MAINCK_XTAL:
		pmc_switch_mainck_to_xtal(PMC_OSC_XTAL,
  40234c:	213e      	movs	r1, #62	; 0x3e
  40234e:	2000      	movs	r0, #0
  402350:	4b0f      	ldr	r3, [pc, #60]	; (402390 <sysclk_init+0x4c>)
  402352:	4c10      	ldr	r4, [pc, #64]	; (402394 <sysclk_init+0x50>)
  402354:	4798      	blx	r3
	case OSC_MAINCK_4M_RC:
	case OSC_MAINCK_8M_RC:
	case OSC_MAINCK_12M_RC:
	case OSC_MAINCK_XTAL:
	case OSC_MAINCK_BYPASS:
		return pmc_osc_is_ready_mainck();
  402356:	47a0      	blx	r4
 *
 * \param id A number identifying the oscillator to wait for.
 */
static inline void osc_wait_ready(uint8_t id)
{
	while (!osc_is_ready(id)) {
  402358:	2800      	cmp	r0, #0
  40235a:	d0fc      	beq.n	402356 <sysclk_init+0x12>
static inline void pll_enable(const struct pll_config *p_cfg, uint32_t ul_pll_id)
{
	Assert(ul_pll_id < NR_PLLS);

	if (ul_pll_id == PLLA_ID) {
		pmc_disable_pllack(); // Always stop PLL first!
  40235c:	4b0e      	ldr	r3, [pc, #56]	; (402398 <sysclk_init+0x54>)
  40235e:	4798      	blx	r3
  402360:	4c0e      	ldr	r4, [pc, #56]	; (40239c <sysclk_init+0x58>)
		PMC->CKGR_PLLAR = CKGR_PLLAR_ONE | p_cfg->ctrl;
  402362:	4b0f      	ldr	r3, [pc, #60]	; (4023a0 <sysclk_init+0x5c>)
  402364:	4a0f      	ldr	r2, [pc, #60]	; (4023a4 <sysclk_init+0x60>)
  402366:	629a      	str	r2, [r3, #40]	; 0x28
static inline uint32_t pll_is_locked(uint32_t ul_pll_id)
{
	Assert(ul_pll_id < NR_PLLS);

	if (ul_pll_id == PLLA_ID) {
	return pmc_is_locked_pllack();
  402368:	47a0      	blx	r4
 */
static inline int pll_wait_for_lock(unsigned int pll_id)
{
	Assert(pll_id < NR_PLLS);

	while (!pll_is_locked(pll_id)) {
  40236a:	2800      	cmp	r0, #0
  40236c:	d0fc      	beq.n	402368 <sysclk_init+0x24>
	else if (CONFIG_SYSCLK_SOURCE == SYSCLK_SRC_PLLACK) {
		pll_enable_source(CONFIG_PLL0_SOURCE);
		pll_config_defaults(&pllcfg, 0);
		pll_enable(&pllcfg, 0);
		pll_wait_for_lock(0);
		pmc_mck_set_division(CONFIG_SYSCLK_DIV);
  40236e:	2002      	movs	r0, #2
  402370:	4b0d      	ldr	r3, [pc, #52]	; (4023a8 <sysclk_init+0x64>)
  402372:	4798      	blx	r3
		pmc_switch_mck_to_pllack(CONFIG_SYSCLK_PRES);
  402374:	4b0d      	ldr	r3, [pc, #52]	; (4023ac <sysclk_init+0x68>)
  402376:	2000      	movs	r0, #0
  402378:	4798      	blx	r3
		pll_wait_for_lock(1);
		pmc_mck_set_division(CONFIG_SYSCLK_DIV);
		pmc_switch_mck_to_upllck(CONFIG_SYSCLK_PRES);
	}
	/* Update the SystemFrequency variable */
	SystemCoreClockUpdate();
  40237a:	4b0d      	ldr	r3, [pc, #52]	; (4023b0 <sysclk_init+0x6c>)
  40237c:	4798      	blx	r3

	/* Set a flash wait state depending on the new cpu frequency */
	system_init_flash(sysclk_get_cpu_hz());
  40237e:	462b      	mov	r3, r5
  402380:	4801      	ldr	r0, [pc, #4]	; (402388 <sysclk_init+0x44>)

#if (defined CONFIG_SYSCLK_DEFAULT_RETURNS_SLOW_OSC)
	/* Signal that the internal frequencies are setup */
	sysclk_initialized = 1;
#endif
}
  402382:	e8bd 4070 	ldmia.w	sp!, {r4, r5, r6, lr}
	system_init_flash(sysclk_get_cpu_hz());
  402386:	4718      	bx	r3
  402388:	11e1a300 	.word	0x11e1a300
  40238c:	00403105 	.word	0x00403105
  402390:	00402e15 	.word	0x00402e15
  402394:	00402e69 	.word	0x00402e69
  402398:	00402e79 	.word	0x00402e79
  40239c:	00402e89 	.word	0x00402e89
  4023a0:	400e0600 	.word	0x400e0600
  4023a4:	20183f01 	.word	0x20183f01
  4023a8:	00402d91 	.word	0x00402d91
  4023ac:	00402dc1 	.word	0x00402dc1
  4023b0:	0040301d 	.word	0x0040301d

004023b4 <board_init>:

void board_init(void)
{
#ifndef CONF_BOARD_KEEP_WATCHDOG_AT_INIT
	/* Disable the watchdog */
	WDT->WDT_MR = WDT_MR_WDDIS;
  4023b4:	4ba4      	ldr	r3, [pc, #656]	; (402648 <board_init+0x294>)
  4023b6:	f44f 4200 	mov.w	r2, #32768	; 0x8000
{
  4023ba:	e92d 47f0 	stmdb	sp!, {r4, r5, r6, r7, r8, r9, sl, lr}
	WDT->WDT_MR = WDT_MR_WDDIS;
  4023be:	605a      	str	r2, [r3, #4]
    This function ensures the apparent order of the explicit memory operations before
    and after the instruction, without ensuring their completion.
 */
__attribute__( ( always_inline ) ) __STATIC_INLINE void __DMB(void)
{
  __ASM volatile ("dmb");
  4023c0:	f3bf 8f5f 	dmb	sy
		mpu_cal_mpu_region_size(ITCM_END_ADDRESS - ITCM_START_ADDRESS) |
  4023c4:	f8df 82f4 	ldr.w	r8, [pc, #756]	; 4026bc <board_init+0x308>
	dw_region_attr =
  4023c8:	4fa0      	ldr	r7, [pc, #640]	; (40264c <board_init+0x298>)
		mpu_cal_mpu_region_size(ITCM_END_ADDRESS - ITCM_START_ADDRESS) |
  4023ca:	4ea1      	ldr	r6, [pc, #644]	; (402650 <board_init+0x29c>)
  4023cc:	4640      	mov	r0, r8
	mpu_set_region( dw_region_base_addr, dw_region_attr);
  4023ce:	4da1      	ldr	r5, [pc, #644]	; (402654 <board_init+0x2a0>)
		mpu_cal_mpu_region_size(ITCM_END_ADDRESS - ITCM_START_ADDRESS) |
  4023d0:	47b0      	blx	r6
	mpu_set_region( dw_region_base_addr, dw_region_attr);
  4023d2:	ea40 0107 	orr.w	r1, r0, r7
  4023d6:	2011      	movs	r0, #17
  4023d8:	47a8      	blx	r5
		mpu_cal_mpu_region_size(IFLASH_END_ADDRESS - IFLASH_START_ADDRESS) |
  4023da:	489f      	ldr	r0, [pc, #636]	; (402658 <board_init+0x2a4>)
  4023dc:	47b0      	blx	r6
	mpu_set_region( dw_region_base_addr, dw_region_attr);
  4023de:	499f      	ldr	r1, [pc, #636]	; (40265c <board_init+0x2a8>)
	dw_region_attr =
  4023e0:	4c9f      	ldr	r4, [pc, #636]	; (402660 <board_init+0x2ac>)
	mpu_set_region( dw_region_base_addr, dw_region_attr);
  4023e2:	4301      	orrs	r1, r0
  4023e4:	489f      	ldr	r0, [pc, #636]	; (402664 <board_init+0x2b0>)
  4023e6:	47a8      	blx	r5
		mpu_cal_mpu_region_size(DTCM_END_ADDRESS - DTCM_START_ADDRESS) |
  4023e8:	4640      	mov	r0, r8
  4023ea:	47b0      	blx	r6
	mpu_set_region( dw_region_base_addr, dw_region_attr);
  4023ec:	ea40 0107 	orr.w	r1, r0, r7
  4023f0:	489d      	ldr	r0, [pc, #628]	; (402668 <board_init+0x2b4>)
  4023f2:	47a8      	blx	r5
		mpu_cal_mpu_region_size(SRAM_FIRST_END_ADDRESS - SRAM_FIRST_START_ADDRESS)
  4023f4:	489d      	ldr	r0, [pc, #628]	; (40266c <board_init+0x2b8>)
  4023f6:	47b0      	blx	r6
	mpu_set_region( dw_region_base_addr, dw_region_attr);
  4023f8:	ea40 0104 	orr.w	r1, r0, r4
  4023fc:	489c      	ldr	r0, [pc, #624]	; (402670 <board_init+0x2bc>)
  4023fe:	47a8      	blx	r5
		mpu_cal_mpu_region_size(SRAM_SECOND_END_ADDRESS - SRAM_SECOND_START_ADDRESS) |
  402400:	489c      	ldr	r0, [pc, #624]	; (402674 <board_init+0x2c0>)
  402402:	47b0      	blx	r6
	mpu_set_region( dw_region_base_addr, dw_region_attr);
  402404:	ea40 0104 	orr.w	r1, r0, r4
  402408:	489b      	ldr	r0, [pc, #620]	; (402678 <board_init+0x2c4>)
  40240a:	47a8      	blx	r5
		mpu_cal_mpu_region_size(PERIPHERALS_END_ADDRESS - PERIPHERALS_START_ADDRESS)
  40240c:	f06f 4060 	mvn.w	r0, #3758096384	; 0xe0000000
  402410:	47b0      	blx	r6
	mpu_set_region( dw_region_base_addr, dw_region_attr);
  402412:	499a      	ldr	r1, [pc, #616]	; (40267c <board_init+0x2c8>)
	SCB->SHCSR |= (SCB_SHCSR_MEMFAULTENA_Msk | SCB_SHCSR_BUSFAULTENA_Msk
  402414:	4c9a      	ldr	r4, [pc, #616]	; (402680 <board_init+0x2cc>)
	mpu_set_region( dw_region_base_addr, dw_region_attr);
  402416:	4301      	orrs	r1, r0
  402418:	489a      	ldr	r0, [pc, #616]	; (402684 <board_init+0x2d0>)
  40241a:	47a8      	blx	r5
		mpu_cal_mpu_region_size(EXT_EBI_END_ADDRESS - EXT_EBI_START_ADDRESS) |
  40241c:	f06f 4070 	mvn.w	r0, #4026531840	; 0xf0000000
  402420:	47b0      	blx	r6
	mpu_set_region( dw_region_base_addr, dw_region_attr);
  402422:	4999      	ldr	r1, [pc, #612]	; (402688 <board_init+0x2d4>)
  402424:	4301      	orrs	r1, r0
  402426:	4899      	ldr	r0, [pc, #612]	; (40268c <board_init+0x2d8>)
  402428:	47a8      	blx	r5
	SCB->SHCSR |= (SCB_SHCSR_MEMFAULTENA_Msk | SCB_SHCSR_BUSFAULTENA_Msk
  40242a:	6a63      	ldr	r3, [r4, #36]	; 0x24
	mpu_enable( MPU_ENABLE | MPU_PRIVDEFENA);
  40242c:	2005      	movs	r0, #5
  40242e:	4a98      	ldr	r2, [pc, #608]	; (402690 <board_init+0x2dc>)
	SCB->SHCSR |= (SCB_SHCSR_MEMFAULTENA_Msk | SCB_SHCSR_BUSFAULTENA_Msk
  402430:	f443 23e0 	orr.w	r3, r3, #458752	; 0x70000
  402434:	6263      	str	r3, [r4, #36]	; 0x24
	mpu_enable( MPU_ENABLE | MPU_PRIVDEFENA);
  402436:	4790      	blx	r2
  __ASM volatile ("dsb");
  402438:	f3bf 8f4f 	dsb	sy
  __ASM volatile ("isb");
  40243c:	f3bf 8f6f 	isb	sy
  __ASM volatile ("dsb");
  402440:	f3bf 8f4f 	dsb	sy
  __ASM volatile ("isb");
  402444:	f3bf 8f6f 	isb	sy
__STATIC_INLINE void SCB_EnableICache(void)
{
  #if (__ICACHE_PRESENT == 1)
    __DSB();
    __ISB();
    SCB->ICIALLU = 0;                       // invalidate I-Cache
  402448:	f04f 0900 	mov.w	r9, #0
  40244c:	f8c4 9250 	str.w	r9, [r4, #592]	; 0x250
    SCB->CCR |=  SCB_CCR_IC_Msk;            // enable I-Cache
  402450:	6963      	ldr	r3, [r4, #20]
  402452:	f443 3300 	orr.w	r3, r3, #131072	; 0x20000
  402456:	6163      	str	r3, [r4, #20]
  __ASM volatile ("dsb");
  402458:	f3bf 8f4f 	dsb	sy
  __ASM volatile ("isb");
  40245c:	f3bf 8f6f 	isb	sy
		*dst++ = *src++;
	}
#endif
#else
	/* TCM Configuration */
	EFC->EEFC_FCR = (EEFC_FCR_FKEY_PASSWD | EEFC_FCR_FCMD_CGPB 
  402460:	4b8c      	ldr	r3, [pc, #560]	; (402694 <board_init+0x2e0>)
  402462:	498d      	ldr	r1, [pc, #564]	; (402698 <board_init+0x2e4>)
					| EEFC_FCR_FARG(8));
	EFC->EEFC_FCR = (EEFC_FCR_FKEY_PASSWD | EEFC_FCR_FCMD_CGPB 
  402464:	4a8d      	ldr	r2, [pc, #564]	; (40269c <board_init+0x2e8>)
	EFC->EEFC_FCR = (EEFC_FCR_FKEY_PASSWD | EEFC_FCR_FCMD_CGPB 
  402466:	6059      	str	r1, [r3, #4]
	EFC->EEFC_FCR = (EEFC_FCR_FKEY_PASSWD | EEFC_FCR_FCMD_CGPB 
  402468:	605a      	str	r2, [r3, #4]
  __ASM volatile ("dsb");
  40246a:	f3bf 8f4f 	dsb	sy
  __ASM volatile ("isb");
  40246e:	f3bf 8f6f 	isb	sy
	SCB->ITCMCR &= ~(uint32_t)(1UL);
  402472:	f8d4 3290 	ldr.w	r3, [r4, #656]	; 0x290
  402476:	f023 0301 	bic.w	r3, r3, #1
  40247a:	f8c4 3290 	str.w	r3, [r4, #656]	; 0x290
	SCB->DTCMCR &= ~(uint32_t)SCB_DTCMCR_EN_Msk;
  40247e:	f8d4 3294 	ldr.w	r3, [r4, #660]	; 0x294
  402482:	f023 0301 	bic.w	r3, r3, #1
  402486:	f8c4 3294 	str.w	r3, [r4, #660]	; 0x294
  __ASM volatile ("dsb");
  40248a:	f3bf 8f4f 	dsb	sy
  __ASM volatile ("isb");
  40248e:	f3bf 8f6f 	isb	sy
  402492:	4c83      	ldr	r4, [pc, #524]	; (4026a0 <board_init+0x2ec>)
  402494:	200a      	movs	r0, #10
  402496:	47a0      	blx	r4
  402498:	200b      	movs	r0, #11
  40249a:	47a0      	blx	r4
  40249c:	200c      	movs	r0, #12
  40249e:	47a0      	blx	r4
  4024a0:	2010      	movs	r0, #16
  4024a2:	47a0      	blx	r4
  4024a4:	2011      	movs	r0, #17
  4024a6:	47a0      	blx	r4
		enum ioport_direction dir)
{
	Pio *base = arch_ioport_pin_to_base(pin);

	if (dir == IOPORT_DIR_OUTPUT) {
		base->PIO_OER = arch_ioport_pin_to_mask(pin);
  4024a8:	f44f 7500 	mov.w	r5, #512	; 0x200
  4024ac:	4c7d      	ldr	r4, [pc, #500]	; (4026a4 <board_init+0x2f0>)
  4024ae:	f44f 0300 	mov.w	r3, #8388608	; 0x800000
  4024b2:	4f7d      	ldr	r7, [pc, #500]	; (4026a8 <board_init+0x2f4>)
		base->PIO_PUDR = mask;
  4024b4:	f44f 1100 	mov.w	r1, #2097152	; 0x200000
		base->PIO_OER = arch_ioport_pin_to_mask(pin);
  4024b8:	6123      	str	r3, [r4, #16]
		base->PIO_PUDR = mask;
  4024ba:	2610      	movs	r6, #16
	} else if (dir == IOPORT_DIR_INPUT) {
		base->PIO_ODR = arch_ioport_pin_to_mask(pin);
	}

	base->PIO_OWER = arch_ioport_pin_to_mask(pin);
  4024bc:	f8c4 30a0 	str.w	r3, [r4, #160]	; 0xa0
		base->PIO_PUDR = mask;
  4024c0:	f04f 0e08 	mov.w	lr, #8
		bool level)
{
	Pio *base = arch_ioport_pin_to_base(pin);

	if (level) {
		base->PIO_SODR = arch_ioport_pin_to_mask(pin);
  4024c4:	6323      	str	r3, [r4, #48]	; 0x30
	ioport_set_pin_mode(SD_MMC_0_CD_GPIO, SD_MMC_0_CD_FLAGS);
#endif

#ifdef CONF_BOARD_ILI9488
	/**LCD pin configure on EBI*/
	pio_configure(PIN_EBI_RESET_PIO, PIN_EBI_RESET_TYPE, PIN_EBI_RESET_MASK, PIN_EBI_RESET_ATTRI);
  4024c6:	4638      	mov	r0, r7
		base->PIO_OER = arch_ioport_pin_to_mask(pin);
  4024c8:	613d      	str	r5, [r7, #16]
  4024ca:	464b      	mov	r3, r9
	base->PIO_OWER = arch_ioport_pin_to_mask(pin);
  4024cc:	f8c7 50a0 	str.w	r5, [r7, #160]	; 0xa0
  4024d0:	f44f 5200 	mov.w	r2, #8192	; 0x2000
		base->PIO_SODR = arch_ioport_pin_to_mask(pin);
  4024d4:	633d      	str	r5, [r7, #48]	; 0x30
		base->PIO_ODR = arch_ioport_pin_to_mask(pin);
  4024d6:	6165      	str	r5, [r4, #20]
	base->PIO_OWER = arch_ioport_pin_to_mask(pin);
  4024d8:	f8c4 50a0 	str.w	r5, [r4, #160]	; 0xa0
		base->PIO_PUER = mask;
  4024dc:	6665      	str	r5, [r4, #100]	; 0x64
		base->PIO_PPDDR = mask;
  4024de:	f8c4 5090 	str.w	r5, [r4, #144]	; 0x90
		base->PIO_MDDR = mask;
  4024e2:	6565      	str	r5, [r4, #84]	; 0x54
		base->PIO_IFER = mask;
  4024e4:	6225      	str	r5, [r4, #32]
		base->PIO_IFSCER = mask;
  4024e6:	f8c4 5084 	str.w	r5, [r4, #132]	; 0x84
		base->PIO_ABCDSR[0] &= ~mask;
  4024ea:	f8d4 c070 	ldr.w	ip, [r4, #112]	; 0x70
	MATRIX->CCFG_SYSIO |= CCFG_SYSIO_SYSIO4;
  4024ee:	f8df 81d0 	ldr.w	r8, [pc, #464]	; 4026c0 <board_init+0x30c>
  4024f2:	f42c 7c00 	bic.w	ip, ip, #512	; 0x200
  4024f6:	f8c4 c070 	str.w	ip, [r4, #112]	; 0x70
		base->PIO_ABCDSR[1] &= ~mask;
  4024fa:	f8d4 c074 	ldr.w	ip, [r4, #116]	; 0x74
  4024fe:	f42c 7c00 	bic.w	ip, ip, #512	; 0x200
  402502:	f8c4 c074 	str.w	ip, [r4, #116]	; 0x74
	case IOPORT_SENSE_FALLING:
		base->PIO_ESR = mask;
		base->PIO_FELLSR = mask;
		break;
	case IOPORT_SENSE_RISING:
		base->PIO_ESR = mask;
  402506:	f8c4 50c0 	str.w	r5, [r4, #192]	; 0xc0
		base->PIO_REHLSR = mask;
  40250a:	f8c4 50d4 	str.w	r5, [r4, #212]	; 0xd4
		break;
	default:
		base->PIO_AIMDR = mask;
		return;
	}
	base->PIO_AIMER = mask;
  40250e:	f8c4 50b0 	str.w	r5, [r4, #176]	; 0xb0
		base->PIO_PUDR = mask;
  402512:	6621      	str	r1, [r4, #96]	; 0x60
		base->PIO_PPDDR = mask;
  402514:	f8c4 1090 	str.w	r1, [r4, #144]	; 0x90
		base->PIO_MDDR = mask;
  402518:	6561      	str	r1, [r4, #84]	; 0x54
		base->PIO_IFDR = mask;
  40251a:	6261      	str	r1, [r4, #36]	; 0x24
		base->PIO_IFSCDR = mask;
  40251c:	f8c4 1080 	str.w	r1, [r4, #128]	; 0x80
		base->PIO_ABCDSR[0] &= ~mask;
  402520:	f8d4 c070 	ldr.w	ip, [r4, #112]	; 0x70
  402524:	f42c 1c00 	bic.w	ip, ip, #2097152	; 0x200000
  402528:	f8c4 c070 	str.w	ip, [r4, #112]	; 0x70
		base->PIO_ABCDSR[1] &= ~mask;
  40252c:	f8d4 c074 	ldr.w	ip, [r4, #116]	; 0x74
  402530:	f42c 1c00 	bic.w	ip, ip, #2097152	; 0x200000
  402534:	f8c4 c074 	str.w	ip, [r4, #116]	; 0x74
	arch_ioport_port_to_base(port)->PIO_PDR = mask;
  402538:	6061      	str	r1, [r4, #4]
  40253a:	f8d8 1114 	ldr.w	r1, [r8, #276]	; 0x114
  40253e:	ea41 0c06 	orr.w	ip, r1, r6
		base->PIO_PUDR = mask;
  402542:	495a      	ldr	r1, [pc, #360]	; (4026ac <board_init+0x2f8>)
  402544:	f8c8 c114 	str.w	ip, [r8, #276]	; 0x114
  402548:	660e      	str	r6, [r1, #96]	; 0x60
		base->PIO_PPDDR = mask;
  40254a:	f8c1 6090 	str.w	r6, [r1, #144]	; 0x90
		base->PIO_MDDR = mask;
  40254e:	654e      	str	r6, [r1, #84]	; 0x54
		base->PIO_IFDR = mask;
  402550:	624e      	str	r6, [r1, #36]	; 0x24
		base->PIO_IFSCDR = mask;
  402552:	f8c1 6080 	str.w	r6, [r1, #128]	; 0x80
		base->PIO_ABCDSR[0] |= mask;
  402556:	f8d1 c070 	ldr.w	ip, [r1, #112]	; 0x70
	pio_configure(PIN_EBI_RESET_PIO, PIN_EBI_RESET_TYPE, PIN_EBI_RESET_MASK, PIN_EBI_RESET_ATTRI);
  40255a:	f8df 8168 	ldr.w	r8, [pc, #360]	; 4026c4 <board_init+0x310>
  40255e:	ea4c 0c06 	orr.w	ip, ip, r6
  402562:	f8c1 c070 	str.w	ip, [r1, #112]	; 0x70
		base->PIO_ABCDSR[1] |= mask;
  402566:	f8d1 c074 	ldr.w	ip, [r1, #116]	; 0x74
  40256a:	ea4c 0c06 	orr.w	ip, ip, r6
  40256e:	f8c1 c074 	str.w	ip, [r1, #116]	; 0x74
	arch_ioport_port_to_base(port)->PIO_PDR = mask;
  402572:	604e      	str	r6, [r1, #4]
  402574:	f04f 5160 	mov.w	r1, #939524096	; 0x38000000
		base->PIO_PUDR = mask;
  402578:	f8c4 e060 	str.w	lr, [r4, #96]	; 0x60
		base->PIO_PPDDR = mask;
  40257c:	f8c4 e090 	str.w	lr, [r4, #144]	; 0x90
		base->PIO_MDDR = mask;
  402580:	f8c4 e054 	str.w	lr, [r4, #84]	; 0x54
		base->PIO_IFDR = mask;
  402584:	f8c4 e024 	str.w	lr, [r4, #36]	; 0x24
		base->PIO_IFSCDR = mask;
  402588:	f8c4 e080 	str.w	lr, [r4, #128]	; 0x80
		base->PIO_ABCDSR[0] &= ~mask;
  40258c:	f8d4 c070 	ldr.w	ip, [r4, #112]	; 0x70
  402590:	f02c 0c08 	bic.w	ip, ip, #8
  402594:	f8c4 c070 	str.w	ip, [r4, #112]	; 0x70
		base->PIO_ABCDSR[1] &= ~mask;
  402598:	f8d4 c074 	ldr.w	ip, [r4, #116]	; 0x74
  40259c:	f02c 0c08 	bic.w	ip, ip, #8
  4025a0:	f8c4 c074 	str.w	ip, [r4, #116]	; 0x74
	arch_ioport_port_to_base(port)->PIO_PDR = mask;
  4025a4:	f8c4 e004 	str.w	lr, [r4, #4]
		base->PIO_PUDR = mask;
  4025a8:	6626      	str	r6, [r4, #96]	; 0x60
		base->PIO_PPDDR = mask;
  4025aa:	f8c4 6090 	str.w	r6, [r4, #144]	; 0x90
		base->PIO_MDDR = mask;
  4025ae:	6566      	str	r6, [r4, #84]	; 0x54
		base->PIO_IFDR = mask;
  4025b0:	6266      	str	r6, [r4, #36]	; 0x24
		base->PIO_IFSCDR = mask;
  4025b2:	f8c4 6080 	str.w	r6, [r4, #128]	; 0x80
		base->PIO_ABCDSR[0] &= ~mask;
  4025b6:	f8d4 e070 	ldr.w	lr, [r4, #112]	; 0x70
  4025ba:	f02e 0e10 	bic.w	lr, lr, #16
  4025be:	f8c4 e070 	str.w	lr, [r4, #112]	; 0x70
		base->PIO_ABCDSR[1] &= ~mask;
  4025c2:	f8d4 e074 	ldr.w	lr, [r4, #116]	; 0x74
  4025c6:	f02e 0e10 	bic.w	lr, lr, #16
  4025ca:	f8c4 e074 	str.w	lr, [r4, #116]	; 0x74
	arch_ioport_port_to_base(port)->PIO_PDR = mask;
  4025ce:	6066      	str	r6, [r4, #4]
  4025d0:	47c0      	blx	r8
	pio_configure(PIN_EBI_CDS_PIO, PIN_EBI_CDS_TYPE, PIN_EBI_CDS_MASK, PIN_EBI_CDS_ATTRI);
  4025d2:	464b      	mov	r3, r9
  4025d4:	4638      	mov	r0, r7
  4025d6:	f04f 4280 	mov.w	r2, #1073741824	; 0x40000000
  4025da:	f04f 5160 	mov.w	r1, #939524096	; 0x38000000
  4025de:	47c0      	blx	r8
	pio_configure(PIN_EBI_DATAL_PIO, PIN_EBI_DATAL_TYPE, PIN_EBI_DATAL_MASK, PIN_EBI_DATAL_ATTRI);
  4025e0:	4638      	mov	r0, r7
  4025e2:	2301      	movs	r3, #1
  4025e4:	22ff      	movs	r2, #255	; 0xff
  4025e6:	f04f 6100 	mov.w	r1, #134217728	; 0x8000000
  4025ea:	47c0      	blx	r8
	pio_configure(PIN_EBI_DATAH_0_PIO, PIN_EBI_DATAH_0_TYPE, PIN_EBI_DATAH_0_MASK, PIN_EBI_DATAH_0_ATTRI);
  4025ec:	2301      	movs	r3, #1
  4025ee:	223f      	movs	r2, #63	; 0x3f
  4025f0:	f04f 6100 	mov.w	r1, #134217728	; 0x8000000
  4025f4:	482e      	ldr	r0, [pc, #184]	; (4026b0 <board_init+0x2fc>)
  4025f6:	47c0      	blx	r8
	pio_configure(PIN_EBI_DATAH_1_PIO, PIN_EBI_DATAH_1_TYPE, PIN_EBI_DATAH_1_MASK, PIN_EBI_DATAH_1_ATTRI);
  4025f8:	4620      	mov	r0, r4
  4025fa:	2301      	movs	r3, #1
  4025fc:	f44f 32c0 	mov.w	r2, #98304	; 0x18000
  402600:	f04f 6100 	mov.w	r1, #134217728	; 0x8000000
  402604:	47c0      	blx	r8
	pio_configure(PIN_EBI_NWE_PIO, PIN_EBI_NWE_TYPE, PIN_EBI_NWE_MASK, PIN_EBI_NWE_ATTRI);
  402606:	4638      	mov	r0, r7
  402608:	2301      	movs	r3, #1
  40260a:	f44f 7280 	mov.w	r2, #256	; 0x100
  40260e:	f04f 6100 	mov.w	r1, #134217728	; 0x8000000
  402612:	47c0      	blx	r8
	pio_configure(PIN_EBI_NRD_PIO, PIN_EBI_NRD_TYPE, PIN_EBI_NRD_MASK, PIN_EBI_NRD_ATTRI);
  402614:	4638      	mov	r0, r7
  402616:	2301      	movs	r3, #1
  402618:	f44f 6200 	mov.w	r2, #2048	; 0x800
  40261c:	f04f 6100 	mov.w	r1, #134217728	; 0x8000000
  402620:	47c0      	blx	r8
	pio_configure(PIN_EBI_CS_PIO, PIN_EBI_CS_TYPE, PIN_EBI_CS_MASK, PIN_EBI_CS_ATTRI);
  402622:	2301      	movs	r3, #1
  402624:	f44f 2200 	mov.w	r2, #524288	; 0x80000
  402628:	f04f 6100 	mov.w	r1, #134217728	; 0x8000000
  40262c:	4821      	ldr	r0, [pc, #132]	; (4026b4 <board_init+0x300>)
  40262e:	47c0      	blx	r8
	pio_configure(PIN_EBI_BACKLIGHT_PIO, PIN_EBI_BACKLIGHT_TYPE, PIN_EBI_BACKLIGHT_MASK, PIN_EBI_BACKLIGHT_ATTRI);
  402630:	464b      	mov	r3, r9
  402632:	462a      	mov	r2, r5
  402634:	4638      	mov	r0, r7
  402636:	f04f 5180 	mov.w	r1, #268435456	; 0x10000000
  40263a:	47c0      	blx	r8
	pio_set(PIN_EBI_BACKLIGHT_PIO, PIN_EBI_BACKLIGHT_MASK);
  40263c:	4629      	mov	r1, r5
  40263e:	4638      	mov	r0, r7
  402640:	4b1d      	ldr	r3, [pc, #116]	; (4026b8 <board_init+0x304>)
	pio_configure_pin(ISI_PCK_PIO, ISI_PCK_FLAGS);
	pio_configure_pin(ISI_PCK0_PIO, ISI_PCK0_FLAGS);
	pio_configure_pin(OV_PWD_GPIO, OV_PWD_FLAGS);
	pio_configure_pin(OV_RST_GPIO, OV_RST_FLAGS);
#endif
}
  402642:	e8bd 47f0 	ldmia.w	sp!, {r4, r5, r6, r7, r8, r9, sl, lr}
	pio_set(PIN_EBI_BACKLIGHT_PIO, PIN_EBI_BACKLIGHT_MASK);
  402646:	4718      	bx	r3
  402648:	400e1850 	.word	0x400e1850
  40264c:	01000001 	.word	0x01000001
  402650:	004026e1 	.word	0x004026e1
  402654:	004026d5 	.word	0x004026d5
  402658:	001fffff 	.word	0x001fffff
  40265c:	06230001 	.word	0x06230001
  402660:	03230001 	.word	0x03230001
  402664:	00400012 	.word	0x00400012
  402668:	20000013 	.word	0x20000013
  40266c:	0003ffff 	.word	0x0003ffff
  402670:	20400014 	.word	0x20400014
  402674:	0001ffff 	.word	0x0001ffff
  402678:	20440015 	.word	0x20440015
  40267c:	13010001 	.word	0x13010001
  402680:	e000ed00 	.word	0xe000ed00
  402684:	40000016 	.word	0x40000016
  402688:	03000001 	.word	0x03000001
  40268c:	60000017 	.word	0x60000017
  402690:	004026c9 	.word	0x004026c9
  402694:	400e0c00 	.word	0x400e0c00
  402698:	5a00080c 	.word	0x5a00080c
  40269c:	5a00070c 	.word	0x5a00070c
  4026a0:	00402e99 	.word	0x00402e99
  4026a4:	400e0e00 	.word	0x400e0e00
  4026a8:	400e1200 	.word	0x400e1200
  4026ac:	400e1000 	.word	0x400e1000
  4026b0:	400e1600 	.word	0x400e1600
  4026b4:	400e1400 	.word	0x400e1400
  4026b8:	00402705 	.word	0x00402705
  4026bc:	003fffff 	.word	0x003fffff
  4026c0:	40088000 	.word	0x40088000
  4026c4:	0040270d 	.word	0x0040270d

004026c8 <mpu_enable>:
 *
 * \param dwMPUEnable  Enable/Disable the memory region.
 */
void mpu_enable(uint32_t dw_mpu_enable)
{
	MPU->CTRL = dw_mpu_enable ;
  4026c8:	4b01      	ldr	r3, [pc, #4]	; (4026d0 <mpu_enable+0x8>)
  4026ca:	6058      	str	r0, [r3, #4]
  4026cc:	4770      	bx	lr
  4026ce:	bf00      	nop
  4026d0:	e000ed90 	.word	0xe000ed90

004026d4 <mpu_set_region>:
 * \param dwRegionBaseAddr  Memory region base address.
 * \param dwRegionAttr  Memory region attributes.
 */
void mpu_set_region(uint32_t dw_region_base_addr, uint32_t dw_region_attr)
{
	MPU->RBAR = dw_region_base_addr;
  4026d4:	4b01      	ldr	r3, [pc, #4]	; (4026dc <mpu_set_region+0x8>)
  4026d6:	60d8      	str	r0, [r3, #12]
	MPU->RASR = dw_region_attr;
  4026d8:	6119      	str	r1, [r3, #16]
  4026da:	4770      	bx	lr
  4026dc:	e000ed90 	.word	0xe000ed90

004026e0 <mpu_cal_mpu_region_size>:
{
	uint32_t dwRegionSize = 32;
	uint32_t dwReturnValue = 4;

	while( dwReturnValue < 31 ) {
		if( dw_actual_size_in_bytes <= dwRegionSize ) {
  4026e0:	2820      	cmp	r0, #32
  4026e2:	d90d      	bls.n	402700 <mpu_cal_mpu_region_size+0x20>
  4026e4:	2240      	movs	r2, #64	; 0x40
  4026e6:	2305      	movs	r3, #5
  4026e8:	e002      	b.n	4026f0 <mpu_cal_mpu_region_size+0x10>
			break;
		} else {
			dwReturnValue++;
  4026ea:	3301      	adds	r3, #1
	while( dwReturnValue < 31 ) {
  4026ec:	2b1f      	cmp	r3, #31
  4026ee:	d005      	beq.n	4026fc <mpu_cal_mpu_region_size+0x1c>
		if( dw_actual_size_in_bytes <= dwRegionSize ) {
  4026f0:	4290      	cmp	r0, r2
		}
		dwRegionSize <<= 1;
  4026f2:	ea4f 0242 	mov.w	r2, r2, lsl #1
		if( dw_actual_size_in_bytes <= dwRegionSize ) {
  4026f6:	d8f8      	bhi.n	4026ea <mpu_cal_mpu_region_size+0xa>
  4026f8:	0058      	lsls	r0, r3, #1
  4026fa:	4770      	bx	lr
  4026fc:	203e      	movs	r0, #62	; 0x3e
  4026fe:	4770      	bx	lr
  402700:	2008      	movs	r0, #8
	}

	return ( dwReturnValue << 1 );
}
  402702:	4770      	bx	lr

00402704 <pio_set>:
  402704:	6301      	str	r1, [r0, #48]	; 0x30
  402706:	4770      	bx	lr

00402708 <pio_clear>:
  402708:	6341      	str	r1, [r0, #52]	; 0x34
  40270a:	4770      	bx	lr

0040270c <pio_configure>:
 */
uint32_t pio_configure(Pio *p_pio, const pio_type_t ul_type,
		const uint32_t ul_mask, const uint32_t ul_attribute)
{
	/* Configure pins */
	switch (ul_type) {
  40270c:	f1b1 5f00 	cmp.w	r1, #536870912	; 0x20000000
{
  402710:	b430      	push	{r4, r5}
	switch (ul_type) {
  402712:	d03b      	beq.n	40278c <pio_configure+0x80>
  402714:	d931      	bls.n	40277a <pio_configure+0x6e>
  402716:	f1b1 5f40 	cmp.w	r1, #805306368	; 0x30000000
  40271a:	d01b      	beq.n	402754 <pio_configure+0x48>
  40271c:	f1b1 5f60 	cmp.w	r1, #939524096	; 0x38000000
  402720:	d018      	beq.n	402754 <pio_configure+0x48>
  402722:	f1b1 5f20 	cmp.w	r1, #671088640	; 0x28000000
  402726:	d003      	beq.n	402730 <pio_configure+0x24>
				(ul_attribute & PIO_OPENDRAIN) ? 1 : 0,
				(ul_attribute & PIO_PULLUP) ? 1 : 0);
		break;

	default:
		return 0;
  402728:	2300      	movs	r3, #0
	}

	return 1;
}
  40272a:	bc30      	pop	{r4, r5}
  40272c:	4618      	mov	r0, r3
  40272e:	4770      	bx	lr
	if (ul_pull_up_enable) {
  402730:	07dd      	lsls	r5, r3, #31
 * \param p_pio Pointer to a PIO instance.
 * \param ul_mask Interrupt sources bit map.
 */
void pio_disable_interrupt(Pio *p_pio, const uint32_t ul_mask)
{
	p_pio->PIO_IDR = ul_mask;
  402732:	6442      	str	r2, [r0, #68]	; 0x44
	if (ul_pull_up_enable) {
  402734:	d448      	bmi.n	4027c8 <pio_configure+0xbc>
	if (ul_attribute & (PIO_DEGLITCH | PIO_DEBOUNCE)) {
  402736:	f013 0f0a 	tst.w	r3, #10
		p_pio->PIO_PUDR = ul_mask;
  40273a:	6602      	str	r2, [r0, #96]	; 0x60
	if (ul_attribute & (PIO_DEGLITCH | PIO_DEBOUNCE)) {
  40273c:	d048      	beq.n	4027d0 <pio_configure+0xc4>
	if (ul_attribute & PIO_DEGLITCH) {
  40273e:	079c      	lsls	r4, r3, #30
		p_pio->PIO_IFER = ul_mask;
  402740:	6202      	str	r2, [r0, #32]
	if (ul_attribute & PIO_DEGLITCH) {
  402742:	d548      	bpl.n	4027d6 <pio_configure+0xca>
		p_pio->PIO_IFSCDR = ul_mask;
  402744:	f8c0 2080 	str.w	r2, [r0, #128]	; 0x80
	return 1;
  402748:	2301      	movs	r3, #1
	p_pio->PIO_ODR = ul_mask;
  40274a:	6142      	str	r2, [r0, #20]
	p_pio->PIO_PER = ul_mask;
  40274c:	6002      	str	r2, [r0, #0]
}
  40274e:	4618      	mov	r0, r3
  402750:	bc30      	pop	{r4, r5}
  402752:	4770      	bx	lr
				(ul_attribute & PIO_OPENDRAIN) ? 1 : 0,
  402754:	f003 0404 	and.w	r4, r3, #4
	if (ul_pull_up_enable) {
  402758:	07db      	lsls	r3, r3, #31
	p_pio->PIO_IDR = ul_mask;
  40275a:	6442      	str	r2, [r0, #68]	; 0x44
	if (ul_pull_up_enable) {
  40275c:	d52f      	bpl.n	4027be <pio_configure+0xb2>
		p_pio->PIO_PUER = ul_mask;
  40275e:	6642      	str	r2, [r0, #100]	; 0x64
	if (ul_multidrive_enable) {
  402760:	2c00      	cmp	r4, #0
  402762:	d02f      	beq.n	4027c4 <pio_configure+0xb8>
		p_pio->PIO_MDER = ul_mask;
  402764:	6502      	str	r2, [r0, #80]	; 0x50
	if (ul_default_level) {
  402766:	f1b1 5f60 	cmp.w	r1, #939524096	; 0x38000000
  40276a:	d04e      	beq.n	40280a <pio_configure+0xfe>
		p_pio->PIO_CODR = ul_mask;
  40276c:	6342      	str	r2, [r0, #52]	; 0x34
	return 1;
  40276e:	2301      	movs	r3, #1
	p_pio->PIO_OER = ul_mask;
  402770:	6102      	str	r2, [r0, #16]
	p_pio->PIO_PER = ul_mask;
  402772:	6002      	str	r2, [r0, #0]
}
  402774:	4618      	mov	r0, r3
  402776:	bc30      	pop	{r4, r5}
  402778:	4770      	bx	lr
	switch (ul_type) {
  40277a:	f1b1 5f80 	cmp.w	r1, #268435456	; 0x10000000
  40277e:	d005      	beq.n	40278c <pio_configure+0x80>
  402780:	f1b1 5fc0 	cmp.w	r1, #402653184	; 0x18000000
  402784:	d002      	beq.n	40278c <pio_configure+0x80>
  402786:	f1b1 6f00 	cmp.w	r1, #134217728	; 0x8000000
  40278a:	d1cd      	bne.n	402728 <pio_configure+0x1c>
	switch (ul_type) {
  40278c:	f1b1 5f80 	cmp.w	r1, #268435456	; 0x10000000
	p_pio->PIO_IDR = ul_mask;
  402790:	6442      	str	r2, [r0, #68]	; 0x44
	switch (ul_type) {
  402792:	d03c      	beq.n	40280e <pio_configure+0x102>
  402794:	d924      	bls.n	4027e0 <pio_configure+0xd4>
  402796:	f1b1 5fc0 	cmp.w	r1, #402653184	; 0x18000000
  40279a:	d042      	beq.n	402822 <pio_configure+0x116>
  40279c:	f1b1 5f00 	cmp.w	r1, #536870912	; 0x20000000
  4027a0:	d105      	bne.n	4027ae <pio_configure+0xa2>
		ul_sr = p_pio->PIO_ABCDSR[0];
  4027a2:	6f01      	ldr	r1, [r0, #112]	; 0x70
		p_pio->PIO_ABCDSR[0] = (ul_mask | ul_sr);
  4027a4:	4311      	orrs	r1, r2
  4027a6:	6701      	str	r1, [r0, #112]	; 0x70
		ul_sr = p_pio->PIO_ABCDSR[1];
  4027a8:	6f41      	ldr	r1, [r0, #116]	; 0x74
		p_pio->PIO_ABCDSR[1] = (ul_mask | ul_sr);
  4027aa:	4311      	orrs	r1, r2
  4027ac:	6741      	str	r1, [r0, #116]	; 0x74
	if (ul_pull_up_enable) {
  4027ae:	07db      	lsls	r3, r3, #31
	p_pio->PIO_PDR = ul_mask;
  4027b0:	6042      	str	r2, [r0, #4]
	if (ul_pull_up_enable) {
  4027b2:	d525      	bpl.n	402800 <pio_configure+0xf4>
	return 1;
  4027b4:	2301      	movs	r3, #1
		p_pio->PIO_PUER = ul_mask;
  4027b6:	6642      	str	r2, [r0, #100]	; 0x64
}
  4027b8:	4618      	mov	r0, r3
  4027ba:	bc30      	pop	{r4, r5}
  4027bc:	4770      	bx	lr
		p_pio->PIO_PUDR = ul_mask;
  4027be:	6602      	str	r2, [r0, #96]	; 0x60
	if (ul_multidrive_enable) {
  4027c0:	2c00      	cmp	r4, #0
  4027c2:	d1cf      	bne.n	402764 <pio_configure+0x58>
		p_pio->PIO_MDDR = ul_mask;
  4027c4:	6542      	str	r2, [r0, #84]	; 0x54
  4027c6:	e7ce      	b.n	402766 <pio_configure+0x5a>
	if (ul_attribute & (PIO_DEGLITCH | PIO_DEBOUNCE)) {
  4027c8:	f013 0f0a 	tst.w	r3, #10
		p_pio->PIO_PUER = ul_mask;
  4027cc:	6642      	str	r2, [r0, #100]	; 0x64
	if (ul_attribute & (PIO_DEGLITCH | PIO_DEBOUNCE)) {
  4027ce:	d1b6      	bne.n	40273e <pio_configure+0x32>
	if (ul_attribute & PIO_DEGLITCH) {
  4027d0:	079c      	lsls	r4, r3, #30
		p_pio->PIO_IFDR = ul_mask;
  4027d2:	6242      	str	r2, [r0, #36]	; 0x24
	if (ul_attribute & PIO_DEGLITCH) {
  4027d4:	d4b6      	bmi.n	402744 <pio_configure+0x38>
		if (ul_attribute & PIO_DEBOUNCE) {
  4027d6:	0719      	lsls	r1, r3, #28
  4027d8:	d5b6      	bpl.n	402748 <pio_configure+0x3c>
			p_pio->PIO_IFSCER = ul_mask;
  4027da:	f8c0 2084 	str.w	r2, [r0, #132]	; 0x84
  4027de:	e7b3      	b.n	402748 <pio_configure+0x3c>
	switch (ul_type) {
  4027e0:	f1b1 6f00 	cmp.w	r1, #134217728	; 0x8000000
  4027e4:	d1e3      	bne.n	4027ae <pio_configure+0xa2>
		ul_sr = p_pio->PIO_ABCDSR[0];
  4027e6:	6f04      	ldr	r4, [r0, #112]	; 0x70
		p_pio->PIO_ABCDSR[0] &= (~ul_mask & ul_sr);
  4027e8:	43d1      	mvns	r1, r2
  4027ea:	6f05      	ldr	r5, [r0, #112]	; 0x70
  4027ec:	402c      	ands	r4, r5
  4027ee:	460d      	mov	r5, r1
  4027f0:	400c      	ands	r4, r1
  4027f2:	6704      	str	r4, [r0, #112]	; 0x70
		ul_sr = p_pio->PIO_ABCDSR[1];
  4027f4:	6f41      	ldr	r1, [r0, #116]	; 0x74
		p_pio->PIO_ABCDSR[1] &= (~ul_mask & ul_sr);
  4027f6:	6f44      	ldr	r4, [r0, #116]	; 0x74
  4027f8:	4021      	ands	r1, r4
  4027fa:	4029      	ands	r1, r5
  4027fc:	6741      	str	r1, [r0, #116]	; 0x74
  4027fe:	e7d6      	b.n	4027ae <pio_configure+0xa2>
	return 1;
  402800:	2301      	movs	r3, #1
		p_pio->PIO_PUDR = ul_mask;
  402802:	6602      	str	r2, [r0, #96]	; 0x60
}
  402804:	4618      	mov	r0, r3
  402806:	bc30      	pop	{r4, r5}
  402808:	4770      	bx	lr
		p_pio->PIO_SODR = ul_mask;
  40280a:	6302      	str	r2, [r0, #48]	; 0x30
  40280c:	e7af      	b.n	40276e <pio_configure+0x62>
		ul_sr = p_pio->PIO_ABCDSR[0];
  40280e:	6f01      	ldr	r1, [r0, #112]	; 0x70
		p_pio->PIO_ABCDSR[0] = (ul_mask | ul_sr);
  402810:	4311      	orrs	r1, r2
  402812:	6701      	str	r1, [r0, #112]	; 0x70
		ul_sr = p_pio->PIO_ABCDSR[1];
  402814:	6f41      	ldr	r1, [r0, #116]	; 0x74
		p_pio->PIO_ABCDSR[1] &= (~ul_mask & ul_sr);
  402816:	6f44      	ldr	r4, [r0, #116]	; 0x74
  402818:	4021      	ands	r1, r4
  40281a:	ea21 0102 	bic.w	r1, r1, r2
  40281e:	6741      	str	r1, [r0, #116]	; 0x74
  402820:	e7c5      	b.n	4027ae <pio_configure+0xa2>
		ul_sr = p_pio->PIO_ABCDSR[0];
  402822:	6f01      	ldr	r1, [r0, #112]	; 0x70
		p_pio->PIO_ABCDSR[0] &= (~ul_mask & ul_sr);
  402824:	6f04      	ldr	r4, [r0, #112]	; 0x70
  402826:	4021      	ands	r1, r4
  402828:	ea21 0102 	bic.w	r1, r1, r2
  40282c:	6701      	str	r1, [r0, #112]	; 0x70
		ul_sr = p_pio->PIO_ABCDSR[1];
  40282e:	6f41      	ldr	r1, [r0, #116]	; 0x74
		p_pio->PIO_ABCDSR[1] = (ul_mask | ul_sr);
  402830:	4311      	orrs	r1, r2
  402832:	6741      	str	r1, [r0, #116]	; 0x74
  402834:	e7bb      	b.n	4027ae <pio_configure+0xa2>
  402836:	bf00      	nop

00402838 <pio_get_interrupt_status>:
 *
 * \return The interrupt status value.
 */
uint32_t pio_get_interrupt_status(const Pio *p_pio)
{
	return p_pio->PIO_ISR;
  402838:	6cc0      	ldr	r0, [r0, #76]	; 0x4c
}
  40283a:	4770      	bx	lr

0040283c <pio_get_interrupt_mask>:
 *
 * \return The interrupt mask value.
 */
uint32_t pio_get_interrupt_mask(const Pio *p_pio)
{
	return p_pio->PIO_IMR;
  40283c:	6c80      	ldr	r0, [r0, #72]	; 0x48
}
  40283e:	4770      	bx	lr

00402840 <pio_configure_pin>:
		p_pio = PIOC;
	} else {
		p_pio = (Pio *)((uint32_t)PIOA + (PIO_DELTA * (ul_pin >> 5)));
	}
#else
	p_pio = (Pio *)((uint32_t)PIOA + (PIO_DELTA * (ul_pin >> 5)));
  402840:	4b53      	ldr	r3, [pc, #332]	; (402990 <pio_configure_pin+0x150>)
	switch (ul_flags & PIO_TYPE_Msk) {
  402842:	f001 42f0 	and.w	r2, r1, #2013265920	; 0x78000000
	p_pio = (Pio *)((uint32_t)PIOA + (PIO_DELTA * (ul_pin >> 5)));
  402846:	eb03 1350 	add.w	r3, r3, r0, lsr #5
	switch (ul_flags & PIO_TYPE_Msk) {
  40284a:	f1b2 5f00 	cmp.w	r2, #536870912	; 0x20000000
{
  40284e:	b470      	push	{r4, r5, r6}
	p_pio = (Pio *)((uint32_t)PIOA + (PIO_DELTA * (ul_pin >> 5)));
  402850:	ea4f 2343 	mov.w	r3, r3, lsl #9
	switch (ul_flags & PIO_TYPE_Msk) {
  402854:	d06d      	beq.n	402932 <pio_configure_pin+0xf2>
  402856:	d80b      	bhi.n	402870 <pio_configure_pin+0x30>
  402858:	f1b2 5f80 	cmp.w	r2, #268435456	; 0x10000000
  40285c:	d027      	beq.n	4028ae <pio_configure_pin+0x6e>
  40285e:	f1b2 5fc0 	cmp.w	r2, #402653184	; 0x18000000
  402862:	d052      	beq.n	40290a <pio_configure_pin+0xca>
  402864:	f1b2 6f00 	cmp.w	r2, #134217728	; 0x8000000
  402868:	d038      	beq.n	4028dc <pio_configure_pin+0x9c>
		return 0;
  40286a:	2000      	movs	r0, #0
}
  40286c:	bc70      	pop	{r4, r5, r6}
  40286e:	4770      	bx	lr
	switch (ul_flags & PIO_TYPE_Msk) {
  402870:	f1b2 5f40 	cmp.w	r2, #805306368	; 0x30000000
  402874:	d066      	beq.n	402944 <pio_configure_pin+0x104>
  402876:	f1b2 5f60 	cmp.w	r2, #939524096	; 0x38000000
  40287a:	d063      	beq.n	402944 <pio_configure_pin+0x104>
  40287c:	f1b2 5f20 	cmp.w	r2, #671088640	; 0x28000000
  402880:	d1f3      	bne.n	40286a <pio_configure_pin+0x2a>
		pio_set_input(p_pio, (1 << (ul_pin & 0x1F)), ul_flags);
  402882:	f000 001f 	and.w	r0, r0, #31
  402886:	2201      	movs	r2, #1
	if (ul_pull_up_enable) {
  402888:	07cd      	lsls	r5, r1, #31
		pio_set_input(p_pio, (1 << (ul_pin & 0x1F)), ul_flags);
  40288a:	fa02 f200 	lsl.w	r2, r2, r0
	p_pio->PIO_IDR = ul_mask;
  40288e:	645a      	str	r2, [r3, #68]	; 0x44
	if (ul_pull_up_enable) {
  402890:	d573      	bpl.n	40297a <pio_configure_pin+0x13a>
		p_pio->PIO_PUER = ul_mask;
  402892:	665a      	str	r2, [r3, #100]	; 0x64
	if (ul_attribute & (PIO_DEGLITCH | PIO_DEBOUNCE)) {
  402894:	f011 0f0a 	tst.w	r1, #10
  402898:	d06d      	beq.n	402976 <pio_configure_pin+0x136>
		p_pio->PIO_IFER = ul_mask;
  40289a:	621a      	str	r2, [r3, #32]
	if (ul_attribute & PIO_DEGLITCH) {
  40289c:	078c      	lsls	r4, r1, #30
  40289e:	d56e      	bpl.n	40297e <pio_configure_pin+0x13e>
		p_pio->PIO_IFSCDR = ul_mask;
  4028a0:	f8c3 2080 	str.w	r2, [r3, #128]	; 0x80
	p_pio->PIO_ODR = ul_mask;
  4028a4:	615a      	str	r2, [r3, #20]
	return 1;
  4028a6:	2001      	movs	r0, #1
	p_pio->PIO_PER = ul_mask;
  4028a8:	601a      	str	r2, [r3, #0]
}
  4028aa:	bc70      	pop	{r4, r5, r6}
  4028ac:	4770      	bx	lr
		pio_set_peripheral(p_pio, PIO_PERIPH_B, (1 << (ul_pin & 0x1F)));
  4028ae:	f000 021f 	and.w	r2, r0, #31
  4028b2:	2001      	movs	r0, #1
	if (ul_pull_up_enable) {
  4028b4:	07c9      	lsls	r1, r1, #31
		pio_set_peripheral(p_pio, PIO_PERIPH_B, (1 << (ul_pin & 0x1F)));
  4028b6:	fa00 f202 	lsl.w	r2, r0, r2
	p_pio->PIO_IDR = ul_mask;
  4028ba:	645a      	str	r2, [r3, #68]	; 0x44
		ul_sr = p_pio->PIO_ABCDSR[0];
  4028bc:	6f1c      	ldr	r4, [r3, #112]	; 0x70
		p_pio->PIO_ABCDSR[0] = (ul_mask | ul_sr);
  4028be:	ea44 0402 	orr.w	r4, r4, r2
  4028c2:	671c      	str	r4, [r3, #112]	; 0x70
		ul_sr = p_pio->PIO_ABCDSR[1];
  4028c4:	6f5c      	ldr	r4, [r3, #116]	; 0x74
		p_pio->PIO_ABCDSR[1] &= (~ul_mask & ul_sr);
  4028c6:	6f5d      	ldr	r5, [r3, #116]	; 0x74
  4028c8:	ea04 0405 	and.w	r4, r4, r5
  4028cc:	ea24 0402 	bic.w	r4, r4, r2
  4028d0:	675c      	str	r4, [r3, #116]	; 0x74
	p_pio->PIO_PDR = ul_mask;
  4028d2:	605a      	str	r2, [r3, #4]
	if (ul_pull_up_enable) {
  4028d4:	d516      	bpl.n	402904 <pio_configure_pin+0xc4>
		p_pio->PIO_PUER = ul_mask;
  4028d6:	665a      	str	r2, [r3, #100]	; 0x64
}
  4028d8:	bc70      	pop	{r4, r5, r6}
  4028da:	4770      	bx	lr
		pio_set_peripheral(p_pio, PIO_PERIPH_A, (1 << (ul_pin & 0x1F)));
  4028dc:	f000 021f 	and.w	r2, r0, #31
  4028e0:	2001      	movs	r0, #1
  4028e2:	fa00 f202 	lsl.w	r2, r0, r2
	p_pio->PIO_IDR = ul_mask;
  4028e6:	645a      	str	r2, [r3, #68]	; 0x44
		p_pio->PIO_ABCDSR[0] &= (~ul_mask & ul_sr);
  4028e8:	43d6      	mvns	r6, r2
		ul_sr = p_pio->PIO_ABCDSR[0];
  4028ea:	6f1d      	ldr	r5, [r3, #112]	; 0x70
		p_pio->PIO_ABCDSR[0] &= (~ul_mask & ul_sr);
  4028ec:	6f1c      	ldr	r4, [r3, #112]	; 0x70
  4028ee:	4025      	ands	r5, r4
  4028f0:	4035      	ands	r5, r6
  4028f2:	671d      	str	r5, [r3, #112]	; 0x70
		ul_sr = p_pio->PIO_ABCDSR[1];
  4028f4:	6f5c      	ldr	r4, [r3, #116]	; 0x74
		p_pio->PIO_ABCDSR[1] &= (~ul_mask & ul_sr);
  4028f6:	6f5d      	ldr	r5, [r3, #116]	; 0x74
  4028f8:	402c      	ands	r4, r5
  4028fa:	4034      	ands	r4, r6
  4028fc:	675c      	str	r4, [r3, #116]	; 0x74
	if (ul_pull_up_enable) {
  4028fe:	07cc      	lsls	r4, r1, #31
	p_pio->PIO_PDR = ul_mask;
  402900:	605a      	str	r2, [r3, #4]
	if (ul_pull_up_enable) {
  402902:	d4e8      	bmi.n	4028d6 <pio_configure_pin+0x96>
		p_pio->PIO_PUDR = ul_mask;
  402904:	661a      	str	r2, [r3, #96]	; 0x60
}
  402906:	bc70      	pop	{r4, r5, r6}
  402908:	4770      	bx	lr
		pio_set_peripheral(p_pio, PIO_PERIPH_C, (1 << (ul_pin & 0x1F)));
  40290a:	f000 021f 	and.w	r2, r0, #31
  40290e:	2001      	movs	r0, #1
  402910:	fa00 f202 	lsl.w	r2, r0, r2
	p_pio->PIO_IDR = ul_mask;
  402914:	645a      	str	r2, [r3, #68]	; 0x44
		ul_sr = p_pio->PIO_ABCDSR[0];
  402916:	6f1c      	ldr	r4, [r3, #112]	; 0x70
		p_pio->PIO_ABCDSR[0] &= (~ul_mask & ul_sr);
  402918:	6f1d      	ldr	r5, [r3, #112]	; 0x70
  40291a:	402c      	ands	r4, r5
  40291c:	ea24 0402 	bic.w	r4, r4, r2
		p_pio->PIO_ABCDSR[0] = (ul_mask | ul_sr);
  402920:	671c      	str	r4, [r3, #112]	; 0x70
	if (ul_pull_up_enable) {
  402922:	07ce      	lsls	r6, r1, #31
		ul_sr = p_pio->PIO_ABCDSR[1];
  402924:	6f5c      	ldr	r4, [r3, #116]	; 0x74
		p_pio->PIO_ABCDSR[1] = (ul_mask | ul_sr);
  402926:	ea44 0402 	orr.w	r4, r4, r2
  40292a:	675c      	str	r4, [r3, #116]	; 0x74
	p_pio->PIO_PDR = ul_mask;
  40292c:	605a      	str	r2, [r3, #4]
	if (ul_pull_up_enable) {
  40292e:	d5e9      	bpl.n	402904 <pio_configure_pin+0xc4>
  402930:	e7d1      	b.n	4028d6 <pio_configure_pin+0x96>
		pio_set_peripheral(p_pio, PIO_PERIPH_D, (1 << (ul_pin & 0x1F)));
  402932:	f000 021f 	and.w	r2, r0, #31
  402936:	2001      	movs	r0, #1
  402938:	fa00 f202 	lsl.w	r2, r0, r2
	p_pio->PIO_IDR = ul_mask;
  40293c:	645a      	str	r2, [r3, #68]	; 0x44
		ul_sr = p_pio->PIO_ABCDSR[0];
  40293e:	6f1c      	ldr	r4, [r3, #112]	; 0x70
		p_pio->PIO_ABCDSR[0] = (ul_mask | ul_sr);
  402940:	4314      	orrs	r4, r2
  402942:	e7ed      	b.n	402920 <pio_configure_pin+0xe0>
		pio_set_output(p_pio, (1 << (ul_pin & 0x1F)),
  402944:	f000 001f 	and.w	r0, r0, #31
  402948:	2201      	movs	r2, #1
				((ul_flags & PIO_TYPE_PIO_OUTPUT_1)
  40294a:	f001 5460 	and.w	r4, r1, #939524096	; 0x38000000
				(ul_flags & PIO_OPENDRAIN) ? 1 : 0,
  40294e:	f001 0504 	and.w	r5, r1, #4
		pio_set_output(p_pio, (1 << (ul_pin & 0x1F)),
  402952:	4082      	lsls	r2, r0
	if (ul_pull_up_enable) {
  402954:	07c9      	lsls	r1, r1, #31
	p_pio->PIO_IDR = ul_mask;
  402956:	645a      	str	r2, [r3, #68]	; 0x44
	if (ul_pull_up_enable) {
  402958:	d50b      	bpl.n	402972 <pio_configure_pin+0x132>
		p_pio->PIO_PUER = ul_mask;
  40295a:	665a      	str	r2, [r3, #100]	; 0x64
	if (ul_multidrive_enable) {
  40295c:	b1a5      	cbz	r5, 402988 <pio_configure_pin+0x148>
		p_pio->PIO_MDER = ul_mask;
  40295e:	651a      	str	r2, [r3, #80]	; 0x50
	if (ul_default_level) {
  402960:	f1b4 5f60 	cmp.w	r4, #939524096	; 0x38000000
  402964:	d012      	beq.n	40298c <pio_configure_pin+0x14c>
		p_pio->PIO_CODR = ul_mask;
  402966:	635a      	str	r2, [r3, #52]	; 0x34
	p_pio->PIO_OER = ul_mask;
  402968:	611a      	str	r2, [r3, #16]
	return 1;
  40296a:	2001      	movs	r0, #1
	p_pio->PIO_PER = ul_mask;
  40296c:	601a      	str	r2, [r3, #0]
}
  40296e:	bc70      	pop	{r4, r5, r6}
  402970:	4770      	bx	lr
		p_pio->PIO_PUDR = ul_mask;
  402972:	661a      	str	r2, [r3, #96]	; 0x60
  402974:	e7f2      	b.n	40295c <pio_configure_pin+0x11c>
		p_pio->PIO_IFDR = ul_mask;
  402976:	625a      	str	r2, [r3, #36]	; 0x24
  402978:	e790      	b.n	40289c <pio_configure_pin+0x5c>
		p_pio->PIO_PUDR = ul_mask;
  40297a:	661a      	str	r2, [r3, #96]	; 0x60
  40297c:	e78a      	b.n	402894 <pio_configure_pin+0x54>
		if (ul_attribute & PIO_DEBOUNCE) {
  40297e:	0708      	lsls	r0, r1, #28
  402980:	d590      	bpl.n	4028a4 <pio_configure_pin+0x64>
			p_pio->PIO_IFSCER = ul_mask;
  402982:	f8c3 2084 	str.w	r2, [r3, #132]	; 0x84
  402986:	e78d      	b.n	4028a4 <pio_configure_pin+0x64>
		p_pio->PIO_MDDR = ul_mask;
  402988:	655a      	str	r2, [r3, #84]	; 0x54
  40298a:	e7e9      	b.n	402960 <pio_configure_pin+0x120>
		p_pio->PIO_SODR = ul_mask;
  40298c:	631a      	str	r2, [r3, #48]	; 0x30
  40298e:	e7eb      	b.n	402968 <pio_configure_pin+0x128>
  402990:	00200707 	.word	0x00200707

00402994 <PIOA_Handler>:
/**
 * \brief Parallel IO Controller A interrupt handler.
 * Redefined PIOA interrupt handler for NVIC interrupt table.
 */
void PIOA_Handler(void)
{
  402994:	b570      	push	{r4, r5, r6, lr}
	status = pio_get_interrupt_status(p_pio);
  402996:	4b2e      	ldr	r3, [pc, #184]	; (402a50 <PIOA_Handler+0xbc>)
  402998:	482e      	ldr	r0, [pc, #184]	; (402a54 <PIOA_Handler+0xc0>)
  40299a:	4798      	blx	r3
  40299c:	4605      	mov	r5, r0
	status &= pio_get_interrupt_mask(p_pio);
  40299e:	4b2e      	ldr	r3, [pc, #184]	; (402a58 <PIOA_Handler+0xc4>)
  4029a0:	482c      	ldr	r0, [pc, #176]	; (402a54 <PIOA_Handler+0xc0>)
  4029a2:	4798      	blx	r3
	if (status != 0) {
  4029a4:	4005      	ands	r5, r0
  4029a6:	d015      	beq.n	4029d4 <PIOA_Handler+0x40>
			if (gs_interrupt_sources[i].id == ul_id) {
  4029a8:	4c2c      	ldr	r4, [pc, #176]	; (402a5c <PIOA_Handler+0xc8>)
  4029aa:	6820      	ldr	r0, [r4, #0]
  4029ac:	280a      	cmp	r0, #10
  4029ae:	d019      	beq.n	4029e4 <PIOA_Handler+0x50>
  4029b0:	6920      	ldr	r0, [r4, #16]
  4029b2:	280a      	cmp	r0, #10
  4029b4:	d01f      	beq.n	4029f6 <PIOA_Handler+0x62>
  4029b6:	6a20      	ldr	r0, [r4, #32]
  4029b8:	280a      	cmp	r0, #10
  4029ba:	d025      	beq.n	402a08 <PIOA_Handler+0x74>
  4029bc:	6b20      	ldr	r0, [r4, #48]	; 0x30
  4029be:	280a      	cmp	r0, #10
  4029c0:	d02b      	beq.n	402a1a <PIOA_Handler+0x86>
  4029c2:	6c20      	ldr	r0, [r4, #64]	; 0x40
  4029c4:	280a      	cmp	r0, #10
  4029c6:	d031      	beq.n	402a2c <PIOA_Handler+0x98>
  4029c8:	6d20      	ldr	r0, [r4, #80]	; 0x50
  4029ca:	280a      	cmp	r0, #10
  4029cc:	d037      	beq.n	402a3e <PIOA_Handler+0xaa>
  4029ce:	6e20      	ldr	r0, [r4, #96]	; 0x60
  4029d0:	280a      	cmp	r0, #10
  4029d2:	d000      	beq.n	4029d6 <PIOA_Handler+0x42>
  4029d4:	bd70      	pop	{r4, r5, r6, pc}
				if ((status & gs_interrupt_sources[i].mask) != 0) {
  4029d6:	6e61      	ldr	r1, [r4, #100]	; 0x64
  4029d8:	4229      	tst	r1, r5
  4029da:	d0fb      	beq.n	4029d4 <PIOA_Handler+0x40>
					gs_interrupt_sources[i].handler(gs_interrupt_sources[i].id,
  4029dc:	6ee3      	ldr	r3, [r4, #108]	; 0x6c
	pio_handler_process(PIOA, ID_PIOA);
}
  4029de:	e8bd 4070 	ldmia.w	sp!, {r4, r5, r6, lr}
					gs_interrupt_sources[i].handler(gs_interrupt_sources[i].id,
  4029e2:	4718      	bx	r3
				if ((status & gs_interrupt_sources[i].mask) != 0) {
  4029e4:	6861      	ldr	r1, [r4, #4]
  4029e6:	420d      	tst	r5, r1
  4029e8:	d0e2      	beq.n	4029b0 <PIOA_Handler+0x1c>
					gs_interrupt_sources[i].handler(gs_interrupt_sources[i].id,
  4029ea:	68e3      	ldr	r3, [r4, #12]
  4029ec:	4798      	blx	r3
					status &= ~(gs_interrupt_sources[i].mask);
  4029ee:	6863      	ldr	r3, [r4, #4]
		while (status != 0) {
  4029f0:	439d      	bics	r5, r3
  4029f2:	d0ef      	beq.n	4029d4 <PIOA_Handler+0x40>
  4029f4:	e7dc      	b.n	4029b0 <PIOA_Handler+0x1c>
				if ((status & gs_interrupt_sources[i].mask) != 0) {
  4029f6:	6961      	ldr	r1, [r4, #20]
  4029f8:	4229      	tst	r1, r5
  4029fa:	d0dc      	beq.n	4029b6 <PIOA_Handler+0x22>
					gs_interrupt_sources[i].handler(gs_interrupt_sources[i].id,
  4029fc:	69e3      	ldr	r3, [r4, #28]
  4029fe:	4798      	blx	r3
					status &= ~(gs_interrupt_sources[i].mask);
  402a00:	6963      	ldr	r3, [r4, #20]
		while (status != 0) {
  402a02:	439d      	bics	r5, r3
  402a04:	d0e6      	beq.n	4029d4 <PIOA_Handler+0x40>
  402a06:	e7d6      	b.n	4029b6 <PIOA_Handler+0x22>
				if ((status & gs_interrupt_sources[i].mask) != 0) {
  402a08:	6a61      	ldr	r1, [r4, #36]	; 0x24
  402a0a:	4229      	tst	r1, r5
  402a0c:	d0d6      	beq.n	4029bc <PIOA_Handler+0x28>
					gs_interrupt_sources[i].handler(gs_interrupt_sources[i].id,
  402a0e:	6ae3      	ldr	r3, [r4, #44]	; 0x2c
  402a10:	4798      	blx	r3
					status &= ~(gs_interrupt_sources[i].mask);
  402a12:	6a63      	ldr	r3, [r4, #36]	; 0x24
		while (status != 0) {
  402a14:	439d      	bics	r5, r3
  402a16:	d0dd      	beq.n	4029d4 <PIOA_Handler+0x40>
  402a18:	e7d0      	b.n	4029bc <PIOA_Handler+0x28>
				if ((status & gs_interrupt_sources[i].mask) != 0) {
  402a1a:	6b61      	ldr	r1, [r4, #52]	; 0x34
  402a1c:	4229      	tst	r1, r5
  402a1e:	d0d0      	beq.n	4029c2 <PIOA_Handler+0x2e>
					gs_interrupt_sources[i].handler(gs_interrupt_sources[i].id,
  402a20:	6be3      	ldr	r3, [r4, #60]	; 0x3c
  402a22:	4798      	blx	r3
					status &= ~(gs_interrupt_sources[i].mask);
  402a24:	6b63      	ldr	r3, [r4, #52]	; 0x34
		while (status != 0) {
  402a26:	439d      	bics	r5, r3
  402a28:	d0d4      	beq.n	4029d4 <PIOA_Handler+0x40>
  402a2a:	e7ca      	b.n	4029c2 <PIOA_Handler+0x2e>
				if ((status & gs_interrupt_sources[i].mask) != 0) {
  402a2c:	6c61      	ldr	r1, [r4, #68]	; 0x44
  402a2e:	4229      	tst	r1, r5
  402a30:	d0ca      	beq.n	4029c8 <PIOA_Handler+0x34>
					gs_interrupt_sources[i].handler(gs_interrupt_sources[i].id,
  402a32:	6ce3      	ldr	r3, [r4, #76]	; 0x4c
  402a34:	4798      	blx	r3
					status &= ~(gs_interrupt_sources[i].mask);
  402a36:	6c63      	ldr	r3, [r4, #68]	; 0x44
		while (status != 0) {
  402a38:	439d      	bics	r5, r3
  402a3a:	d0cb      	beq.n	4029d4 <PIOA_Handler+0x40>
  402a3c:	e7c4      	b.n	4029c8 <PIOA_Handler+0x34>
				if ((status & gs_interrupt_sources[i].mask) != 0) {
  402a3e:	6d61      	ldr	r1, [r4, #84]	; 0x54
  402a40:	4229      	tst	r1, r5
  402a42:	d0c4      	beq.n	4029ce <PIOA_Handler+0x3a>
					gs_interrupt_sources[i].handler(gs_interrupt_sources[i].id,
  402a44:	6de3      	ldr	r3, [r4, #92]	; 0x5c
  402a46:	4798      	blx	r3
					status &= ~(gs_interrupt_sources[i].mask);
  402a48:	6d63      	ldr	r3, [r4, #84]	; 0x54
		while (status != 0) {
  402a4a:	439d      	bics	r5, r3
  402a4c:	d0c2      	beq.n	4029d4 <PIOA_Handler+0x40>
  402a4e:	e7be      	b.n	4029ce <PIOA_Handler+0x3a>
  402a50:	00402839 	.word	0x00402839
  402a54:	400e0e00 	.word	0x400e0e00
  402a58:	0040283d 	.word	0x0040283d
  402a5c:	204280f0 	.word	0x204280f0

00402a60 <PIOB_Handler>:
/**
 * \brief Parallel IO Controller B interrupt handler
 * Redefined PIOB interrupt handler for NVIC interrupt table.
 */
void PIOB_Handler(void)
{
  402a60:	b570      	push	{r4, r5, r6, lr}
	status = pio_get_interrupt_status(p_pio);
  402a62:	4b2e      	ldr	r3, [pc, #184]	; (402b1c <PIOB_Handler+0xbc>)
  402a64:	482e      	ldr	r0, [pc, #184]	; (402b20 <PIOB_Handler+0xc0>)
  402a66:	4798      	blx	r3
  402a68:	4605      	mov	r5, r0
	status &= pio_get_interrupt_mask(p_pio);
  402a6a:	4b2e      	ldr	r3, [pc, #184]	; (402b24 <PIOB_Handler+0xc4>)
  402a6c:	482c      	ldr	r0, [pc, #176]	; (402b20 <PIOB_Handler+0xc0>)
  402a6e:	4798      	blx	r3
	if (status != 0) {
  402a70:	4005      	ands	r5, r0
  402a72:	d015      	beq.n	402aa0 <PIOB_Handler+0x40>
			if (gs_interrupt_sources[i].id == ul_id) {
  402a74:	4c2c      	ldr	r4, [pc, #176]	; (402b28 <PIOB_Handler+0xc8>)
  402a76:	6820      	ldr	r0, [r4, #0]
  402a78:	280b      	cmp	r0, #11
  402a7a:	d019      	beq.n	402ab0 <PIOB_Handler+0x50>
  402a7c:	6920      	ldr	r0, [r4, #16]
  402a7e:	280b      	cmp	r0, #11
  402a80:	d01f      	beq.n	402ac2 <PIOB_Handler+0x62>
  402a82:	6a20      	ldr	r0, [r4, #32]
  402a84:	280b      	cmp	r0, #11
  402a86:	d025      	beq.n	402ad4 <PIOB_Handler+0x74>
  402a88:	6b20      	ldr	r0, [r4, #48]	; 0x30
  402a8a:	280b      	cmp	r0, #11
  402a8c:	d02b      	beq.n	402ae6 <PIOB_Handler+0x86>
  402a8e:	6c20      	ldr	r0, [r4, #64]	; 0x40
  402a90:	280b      	cmp	r0, #11
  402a92:	d031      	beq.n	402af8 <PIOB_Handler+0x98>
  402a94:	6d20      	ldr	r0, [r4, #80]	; 0x50
  402a96:	280b      	cmp	r0, #11
  402a98:	d037      	beq.n	402b0a <PIOB_Handler+0xaa>
  402a9a:	6e20      	ldr	r0, [r4, #96]	; 0x60
  402a9c:	280b      	cmp	r0, #11
  402a9e:	d000      	beq.n	402aa2 <PIOB_Handler+0x42>
  402aa0:	bd70      	pop	{r4, r5, r6, pc}
				if ((status & gs_interrupt_sources[i].mask) != 0) {
  402aa2:	6e61      	ldr	r1, [r4, #100]	; 0x64
  402aa4:	4229      	tst	r1, r5
  402aa6:	d0fb      	beq.n	402aa0 <PIOB_Handler+0x40>
					gs_interrupt_sources[i].handler(gs_interrupt_sources[i].id,
  402aa8:	6ee3      	ldr	r3, [r4, #108]	; 0x6c
    pio_handler_process(PIOB, ID_PIOB);
}
  402aaa:	e8bd 4070 	ldmia.w	sp!, {r4, r5, r6, lr}
					gs_interrupt_sources[i].handler(gs_interrupt_sources[i].id,
  402aae:	4718      	bx	r3
				if ((status & gs_interrupt_sources[i].mask) != 0) {
  402ab0:	6861      	ldr	r1, [r4, #4]
  402ab2:	420d      	tst	r5, r1
  402ab4:	d0e2      	beq.n	402a7c <PIOB_Handler+0x1c>
					gs_interrupt_sources[i].handler(gs_interrupt_sources[i].id,
  402ab6:	68e3      	ldr	r3, [r4, #12]
  402ab8:	4798      	blx	r3
					status &= ~(gs_interrupt_sources[i].mask);
  402aba:	6863      	ldr	r3, [r4, #4]
		while (status != 0) {
  402abc:	439d      	bics	r5, r3
  402abe:	d0ef      	beq.n	402aa0 <PIOB_Handler+0x40>
  402ac0:	e7dc      	b.n	402a7c <PIOB_Handler+0x1c>
				if ((status & gs_interrupt_sources[i].mask) != 0) {
  402ac2:	6961      	ldr	r1, [r4, #20]
  402ac4:	4229      	tst	r1, r5
  402ac6:	d0dc      	beq.n	402a82 <PIOB_Handler+0x22>
					gs_interrupt_sources[i].handler(gs_interrupt_sources[i].id,
  402ac8:	69e3      	ldr	r3, [r4, #28]
  402aca:	4798      	blx	r3
					status &= ~(gs_interrupt_sources[i].mask);
  402acc:	6963      	ldr	r3, [r4, #20]
		while (status != 0) {
  402ace:	439d      	bics	r5, r3
  402ad0:	d0e6      	beq.n	402aa0 <PIOB_Handler+0x40>
  402ad2:	e7d6      	b.n	402a82 <PIOB_Handler+0x22>
				if ((status & gs_interrupt_sources[i].mask) != 0) {
  402ad4:	6a61      	ldr	r1, [r4, #36]	; 0x24
  402ad6:	4229      	tst	r1, r5
  402ad8:	d0d6      	beq.n	402a88 <PIOB_Handler+0x28>
					gs_interrupt_sources[i].handler(gs_interrupt_sources[i].id,
  402ada:	6ae3      	ldr	r3, [r4, #44]	; 0x2c
  402adc:	4798      	blx	r3
					status &= ~(gs_interrupt_sources[i].mask);
  402ade:	6a63      	ldr	r3, [r4, #36]	; 0x24
		while (status != 0) {
  402ae0:	439d      	bics	r5, r3
  402ae2:	d0dd      	beq.n	402aa0 <PIOB_Handler+0x40>
  402ae4:	e7d0      	b.n	402a88 <PIOB_Handler+0x28>
				if ((status & gs_interrupt_sources[i].mask) != 0) {
  402ae6:	6b61      	ldr	r1, [r4, #52]	; 0x34
  402ae8:	4229      	tst	r1, r5
  402aea:	d0d0      	beq.n	402a8e <PIOB_Handler+0x2e>
					gs_interrupt_sources[i].handler(gs_interrupt_sources[i].id,
  402aec:	6be3      	ldr	r3, [r4, #60]	; 0x3c
  402aee:	4798      	blx	r3
					status &= ~(gs_interrupt_sources[i].mask);
  402af0:	6b63      	ldr	r3, [r4, #52]	; 0x34
		while (status != 0) {
  402af2:	439d      	bics	r5, r3
  402af4:	d0d4      	beq.n	402aa0 <PIOB_Handler+0x40>
  402af6:	e7ca      	b.n	402a8e <PIOB_Handler+0x2e>
				if ((status & gs_interrupt_sources[i].mask) != 0) {
  402af8:	6c61      	ldr	r1, [r4, #68]	; 0x44
  402afa:	4229      	tst	r1, r5
  402afc:	d0ca      	beq.n	402a94 <PIOB_Handler+0x34>
					gs_interrupt_sources[i].handler(gs_interrupt_sources[i].id,
  402afe:	6ce3      	ldr	r3, [r4, #76]	; 0x4c
  402b00:	4798      	blx	r3
					status &= ~(gs_interrupt_sources[i].mask);
  402b02:	6c63      	ldr	r3, [r4, #68]	; 0x44
		while (status != 0) {
  402b04:	439d      	bics	r5, r3
  402b06:	d0cb      	beq.n	402aa0 <PIOB_Handler+0x40>
  402b08:	e7c4      	b.n	402a94 <PIOB_Handler+0x34>
				if ((status & gs_interrupt_sources[i].mask) != 0) {
  402b0a:	6d61      	ldr	r1, [r4, #84]	; 0x54
  402b0c:	4229      	tst	r1, r5
  402b0e:	d0c4      	beq.n	402a9a <PIOB_Handler+0x3a>
					gs_interrupt_sources[i].handler(gs_interrupt_sources[i].id,
  402b10:	6de3      	ldr	r3, [r4, #92]	; 0x5c
  402b12:	4798      	blx	r3
					status &= ~(gs_interrupt_sources[i].mask);
  402b14:	6d63      	ldr	r3, [r4, #84]	; 0x54
		while (status != 0) {
  402b16:	439d      	bics	r5, r3
  402b18:	d0c2      	beq.n	402aa0 <PIOB_Handler+0x40>
  402b1a:	e7be      	b.n	402a9a <PIOB_Handler+0x3a>
  402b1c:	00402839 	.word	0x00402839
  402b20:	400e1000 	.word	0x400e1000
  402b24:	0040283d 	.word	0x0040283d
  402b28:	204280f0 	.word	0x204280f0

00402b2c <PIOC_Handler>:
/**
 * \brief Parallel IO Controller C interrupt handler.
 * Redefined PIOC interrupt handler for NVIC interrupt table.
 */
void PIOC_Handler(void)
{
  402b2c:	b570      	push	{r4, r5, r6, lr}
	status = pio_get_interrupt_status(p_pio);
  402b2e:	4b2e      	ldr	r3, [pc, #184]	; (402be8 <PIOC_Handler+0xbc>)
  402b30:	482e      	ldr	r0, [pc, #184]	; (402bec <PIOC_Handler+0xc0>)
  402b32:	4798      	blx	r3
  402b34:	4605      	mov	r5, r0
	status &= pio_get_interrupt_mask(p_pio);
  402b36:	4b2e      	ldr	r3, [pc, #184]	; (402bf0 <PIOC_Handler+0xc4>)
  402b38:	482c      	ldr	r0, [pc, #176]	; (402bec <PIOC_Handler+0xc0>)
  402b3a:	4798      	blx	r3
	if (status != 0) {
  402b3c:	4005      	ands	r5, r0
  402b3e:	d015      	beq.n	402b6c <PIOC_Handler+0x40>
			if (gs_interrupt_sources[i].id == ul_id) {
  402b40:	4c2c      	ldr	r4, [pc, #176]	; (402bf4 <PIOC_Handler+0xc8>)
  402b42:	6820      	ldr	r0, [r4, #0]
  402b44:	280c      	cmp	r0, #12
  402b46:	d019      	beq.n	402b7c <PIOC_Handler+0x50>
  402b48:	6920      	ldr	r0, [r4, #16]
  402b4a:	280c      	cmp	r0, #12
  402b4c:	d01f      	beq.n	402b8e <PIOC_Handler+0x62>
  402b4e:	6a20      	ldr	r0, [r4, #32]
  402b50:	280c      	cmp	r0, #12
  402b52:	d025      	beq.n	402ba0 <PIOC_Handler+0x74>
  402b54:	6b20      	ldr	r0, [r4, #48]	; 0x30
  402b56:	280c      	cmp	r0, #12
  402b58:	d02b      	beq.n	402bb2 <PIOC_Handler+0x86>
  402b5a:	6c20      	ldr	r0, [r4, #64]	; 0x40
  402b5c:	280c      	cmp	r0, #12
  402b5e:	d031      	beq.n	402bc4 <PIOC_Handler+0x98>
  402b60:	6d20      	ldr	r0, [r4, #80]	; 0x50
  402b62:	280c      	cmp	r0, #12
  402b64:	d037      	beq.n	402bd6 <PIOC_Handler+0xaa>
  402b66:	6e20      	ldr	r0, [r4, #96]	; 0x60
  402b68:	280c      	cmp	r0, #12
  402b6a:	d000      	beq.n	402b6e <PIOC_Handler+0x42>
  402b6c:	bd70      	pop	{r4, r5, r6, pc}
				if ((status & gs_interrupt_sources[i].mask) != 0) {
  402b6e:	6e61      	ldr	r1, [r4, #100]	; 0x64
  402b70:	4229      	tst	r1, r5
  402b72:	d0fb      	beq.n	402b6c <PIOC_Handler+0x40>
					gs_interrupt_sources[i].handler(gs_interrupt_sources[i].id,
  402b74:	6ee3      	ldr	r3, [r4, #108]	; 0x6c
	pio_handler_process(PIOC, ID_PIOC);
}
  402b76:	e8bd 4070 	ldmia.w	sp!, {r4, r5, r6, lr}
					gs_interrupt_sources[i].handler(gs_interrupt_sources[i].id,
  402b7a:	4718      	bx	r3
				if ((status & gs_interrupt_sources[i].mask) != 0) {
  402b7c:	6861      	ldr	r1, [r4, #4]
  402b7e:	420d      	tst	r5, r1
  402b80:	d0e2      	beq.n	402b48 <PIOC_Handler+0x1c>
					gs_interrupt_sources[i].handler(gs_interrupt_sources[i].id,
  402b82:	68e3      	ldr	r3, [r4, #12]
  402b84:	4798      	blx	r3
					status &= ~(gs_interrupt_sources[i].mask);
  402b86:	6863      	ldr	r3, [r4, #4]
		while (status != 0) {
  402b88:	439d      	bics	r5, r3
  402b8a:	d0ef      	beq.n	402b6c <PIOC_Handler+0x40>
  402b8c:	e7dc      	b.n	402b48 <PIOC_Handler+0x1c>
				if ((status & gs_interrupt_sources[i].mask) != 0) {
  402b8e:	6961      	ldr	r1, [r4, #20]
  402b90:	4229      	tst	r1, r5
  402b92:	d0dc      	beq.n	402b4e <PIOC_Handler+0x22>
					gs_interrupt_sources[i].handler(gs_interrupt_sources[i].id,
  402b94:	69e3      	ldr	r3, [r4, #28]
  402b96:	4798      	blx	r3
					status &= ~(gs_interrupt_sources[i].mask);
  402b98:	6963      	ldr	r3, [r4, #20]
		while (status != 0) {
  402b9a:	439d      	bics	r5, r3
  402b9c:	d0e6      	beq.n	402b6c <PIOC_Handler+0x40>
  402b9e:	e7d6      	b.n	402b4e <PIOC_Handler+0x22>
				if ((status & gs_interrupt_sources[i].mask) != 0) {
  402ba0:	6a61      	ldr	r1, [r4, #36]	; 0x24
  402ba2:	4229      	tst	r1, r5
  402ba4:	d0d6      	beq.n	402b54 <PIOC_Handler+0x28>
					gs_interrupt_sources[i].handler(gs_interrupt_sources[i].id,
  402ba6:	6ae3      	ldr	r3, [r4, #44]	; 0x2c
  402ba8:	4798      	blx	r3
					status &= ~(gs_interrupt_sources[i].mask);
  402baa:	6a63      	ldr	r3, [r4, #36]	; 0x24
		while (status != 0) {
  402bac:	439d      	bics	r5, r3
  402bae:	d0dd      	beq.n	402b6c <PIOC_Handler+0x40>
  402bb0:	e7d0      	b.n	402b54 <PIOC_Handler+0x28>
				if ((status & gs_interrupt_sources[i].mask) != 0) {
  402bb2:	6b61      	ldr	r1, [r4, #52]	; 0x34
  402bb4:	4229      	tst	r1, r5
  402bb6:	d0d0      	beq.n	402b5a <PIOC_Handler+0x2e>
					gs_interrupt_sources[i].handler(gs_interrupt_sources[i].id,
  402bb8:	6be3      	ldr	r3, [r4, #60]	; 0x3c
  402bba:	4798      	blx	r3
					status &= ~(gs_interrupt_sources[i].mask);
  402bbc:	6b63      	ldr	r3, [r4, #52]	; 0x34
		while (status != 0) {
  402bbe:	439d      	bics	r5, r3
  402bc0:	d0d4      	beq.n	402b6c <PIOC_Handler+0x40>
  402bc2:	e7ca      	b.n	402b5a <PIOC_Handler+0x2e>
				if ((status & gs_interrupt_sources[i].mask) != 0) {
  402bc4:	6c61      	ldr	r1, [r4, #68]	; 0x44
  402bc6:	4229      	tst	r1, r5
  402bc8:	d0ca      	beq.n	402b60 <PIOC_Handler+0x34>
					gs_interrupt_sources[i].handler(gs_interrupt_sources[i].id,
  402bca:	6ce3      	ldr	r3, [r4, #76]	; 0x4c
  402bcc:	4798      	blx	r3
					status &= ~(gs_interrupt_sources[i].mask);
  402bce:	6c63      	ldr	r3, [r4, #68]	; 0x44
		while (status != 0) {
  402bd0:	439d      	bics	r5, r3
  402bd2:	d0cb      	beq.n	402b6c <PIOC_Handler+0x40>
  402bd4:	e7c4      	b.n	402b60 <PIOC_Handler+0x34>
				if ((status & gs_interrupt_sources[i].mask) != 0) {
  402bd6:	6d61      	ldr	r1, [r4, #84]	; 0x54
  402bd8:	4229      	tst	r1, r5
  402bda:	d0c4      	beq.n	402b66 <PIOC_Handler+0x3a>
					gs_interrupt_sources[i].handler(gs_interrupt_sources[i].id,
  402bdc:	6de3      	ldr	r3, [r4, #92]	; 0x5c
  402bde:	4798      	blx	r3
					status &= ~(gs_interrupt_sources[i].mask);
  402be0:	6d63      	ldr	r3, [r4, #84]	; 0x54
		while (status != 0) {
  402be2:	439d      	bics	r5, r3
  402be4:	d0c2      	beq.n	402b6c <PIOC_Handler+0x40>
  402be6:	e7be      	b.n	402b66 <PIOC_Handler+0x3a>
  402be8:	00402839 	.word	0x00402839
  402bec:	400e1200 	.word	0x400e1200
  402bf0:	0040283d 	.word	0x0040283d
  402bf4:	204280f0 	.word	0x204280f0

00402bf8 <PIOD_Handler>:
/**
 * \brief Parallel IO Controller D interrupt handler.
 * Redefined PIOD interrupt handler for NVIC interrupt table.
 */
void PIOD_Handler(void)
{
  402bf8:	b570      	push	{r4, r5, r6, lr}
	status = pio_get_interrupt_status(p_pio);
  402bfa:	4b2e      	ldr	r3, [pc, #184]	; (402cb4 <PIOD_Handler+0xbc>)
  402bfc:	482e      	ldr	r0, [pc, #184]	; (402cb8 <PIOD_Handler+0xc0>)
  402bfe:	4798      	blx	r3
  402c00:	4605      	mov	r5, r0
	status &= pio_get_interrupt_mask(p_pio);
  402c02:	4b2e      	ldr	r3, [pc, #184]	; (402cbc <PIOD_Handler+0xc4>)
  402c04:	482c      	ldr	r0, [pc, #176]	; (402cb8 <PIOD_Handler+0xc0>)
  402c06:	4798      	blx	r3
	if (status != 0) {
  402c08:	4005      	ands	r5, r0
  402c0a:	d015      	beq.n	402c38 <PIOD_Handler+0x40>
			if (gs_interrupt_sources[i].id == ul_id) {
  402c0c:	4c2c      	ldr	r4, [pc, #176]	; (402cc0 <PIOD_Handler+0xc8>)
  402c0e:	6820      	ldr	r0, [r4, #0]
  402c10:	2810      	cmp	r0, #16
  402c12:	d019      	beq.n	402c48 <PIOD_Handler+0x50>
  402c14:	6920      	ldr	r0, [r4, #16]
  402c16:	2810      	cmp	r0, #16
  402c18:	d01f      	beq.n	402c5a <PIOD_Handler+0x62>
  402c1a:	6a20      	ldr	r0, [r4, #32]
  402c1c:	2810      	cmp	r0, #16
  402c1e:	d025      	beq.n	402c6c <PIOD_Handler+0x74>
  402c20:	6b20      	ldr	r0, [r4, #48]	; 0x30
  402c22:	2810      	cmp	r0, #16
  402c24:	d02b      	beq.n	402c7e <PIOD_Handler+0x86>
  402c26:	6c20      	ldr	r0, [r4, #64]	; 0x40
  402c28:	2810      	cmp	r0, #16
  402c2a:	d031      	beq.n	402c90 <PIOD_Handler+0x98>
  402c2c:	6d20      	ldr	r0, [r4, #80]	; 0x50
  402c2e:	2810      	cmp	r0, #16
  402c30:	d037      	beq.n	402ca2 <PIOD_Handler+0xaa>
  402c32:	6e20      	ldr	r0, [r4, #96]	; 0x60
  402c34:	2810      	cmp	r0, #16
  402c36:	d000      	beq.n	402c3a <PIOD_Handler+0x42>
  402c38:	bd70      	pop	{r4, r5, r6, pc}
				if ((status & gs_interrupt_sources[i].mask) != 0) {
  402c3a:	6e61      	ldr	r1, [r4, #100]	; 0x64
  402c3c:	4229      	tst	r1, r5
  402c3e:	d0fb      	beq.n	402c38 <PIOD_Handler+0x40>
					gs_interrupt_sources[i].handler(gs_interrupt_sources[i].id,
  402c40:	6ee3      	ldr	r3, [r4, #108]	; 0x6c
	pio_handler_process(PIOD, ID_PIOD);
}
  402c42:	e8bd 4070 	ldmia.w	sp!, {r4, r5, r6, lr}
					gs_interrupt_sources[i].handler(gs_interrupt_sources[i].id,
  402c46:	4718      	bx	r3
				if ((status & gs_interrupt_sources[i].mask) != 0) {
  402c48:	6861      	ldr	r1, [r4, #4]
  402c4a:	420d      	tst	r5, r1
  402c4c:	d0e2      	beq.n	402c14 <PIOD_Handler+0x1c>
					gs_interrupt_sources[i].handler(gs_interrupt_sources[i].id,
  402c4e:	68e3      	ldr	r3, [r4, #12]
  402c50:	4798      	blx	r3
					status &= ~(gs_interrupt_sources[i].mask);
  402c52:	6863      	ldr	r3, [r4, #4]
		while (status != 0) {
  402c54:	439d      	bics	r5, r3
  402c56:	d0ef      	beq.n	402c38 <PIOD_Handler+0x40>
  402c58:	e7dc      	b.n	402c14 <PIOD_Handler+0x1c>
				if ((status & gs_interrupt_sources[i].mask) != 0) {
  402c5a:	6961      	ldr	r1, [r4, #20]
  402c5c:	4229      	tst	r1, r5
  402c5e:	d0dc      	beq.n	402c1a <PIOD_Handler+0x22>
					gs_interrupt_sources[i].handler(gs_interrupt_sources[i].id,
  402c60:	69e3      	ldr	r3, [r4, #28]
  402c62:	4798      	blx	r3
					status &= ~(gs_interrupt_sources[i].mask);
  402c64:	6963      	ldr	r3, [r4, #20]
		while (status != 0) {
  402c66:	439d      	bics	r5, r3
  402c68:	d0e6      	beq.n	402c38 <PIOD_Handler+0x40>
  402c6a:	e7d6      	b.n	402c1a <PIOD_Handler+0x22>
				if ((status & gs_interrupt_sources[i].mask) != 0) {
  402c6c:	6a61      	ldr	r1, [r4, #36]	; 0x24
  402c6e:	4229      	tst	r1, r5
  402c70:	d0d6      	beq.n	402c20 <PIOD_Handler+0x28>
					gs_interrupt_sources[i].handler(gs_interrupt_sources[i].id,
  402c72:	6ae3      	ldr	r3, [r4, #44]	; 0x2c
  402c74:	4798      	blx	r3
					status &= ~(gs_interrupt_sources[i].mask);
  402c76:	6a63      	ldr	r3, [r4, #36]	; 0x24
		while (status != 0) {
  402c78:	439d      	bics	r5, r3
  402c7a:	d0dd      	beq.n	402c38 <PIOD_Handler+0x40>
  402c7c:	e7d0      	b.n	402c20 <PIOD_Handler+0x28>
				if ((status & gs_interrupt_sources[i].mask) != 0) {
  402c7e:	6b61      	ldr	r1, [r4, #52]	; 0x34
  402c80:	4229      	tst	r1, r5
  402c82:	d0d0      	beq.n	402c26 <PIOD_Handler+0x2e>
					gs_interrupt_sources[i].handler(gs_interrupt_sources[i].id,
  402c84:	6be3      	ldr	r3, [r4, #60]	; 0x3c
  402c86:	4798      	blx	r3
					status &= ~(gs_interrupt_sources[i].mask);
  402c88:	6b63      	ldr	r3, [r4, #52]	; 0x34
		while (status != 0) {
  402c8a:	439d      	bics	r5, r3
  402c8c:	d0d4      	beq.n	402c38 <PIOD_Handler+0x40>
  402c8e:	e7ca      	b.n	402c26 <PIOD_Handler+0x2e>
				if ((status & gs_interrupt_sources[i].mask) != 0) {
  402c90:	6c61      	ldr	r1, [r4, #68]	; 0x44
  402c92:	4229      	tst	r1, r5
  402c94:	d0ca      	beq.n	402c2c <PIOD_Handler+0x34>
					gs_interrupt_sources[i].handler(gs_interrupt_sources[i].id,
  402c96:	6ce3      	ldr	r3, [r4, #76]	; 0x4c
  402c98:	4798      	blx	r3
					status &= ~(gs_interrupt_sources[i].mask);
  402c9a:	6c63      	ldr	r3, [r4, #68]	; 0x44
		while (status != 0) {
  402c9c:	439d      	bics	r5, r3
  402c9e:	d0cb      	beq.n	402c38 <PIOD_Handler+0x40>
  402ca0:	e7c4      	b.n	402c2c <PIOD_Handler+0x34>
				if ((status & gs_interrupt_sources[i].mask) != 0) {
  402ca2:	6d61      	ldr	r1, [r4, #84]	; 0x54
  402ca4:	4229      	tst	r1, r5
  402ca6:	d0c4      	beq.n	402c32 <PIOD_Handler+0x3a>
					gs_interrupt_sources[i].handler(gs_interrupt_sources[i].id,
  402ca8:	6de3      	ldr	r3, [r4, #92]	; 0x5c
  402caa:	4798      	blx	r3
					status &= ~(gs_interrupt_sources[i].mask);
  402cac:	6d63      	ldr	r3, [r4, #84]	; 0x54
		while (status != 0) {
  402cae:	439d      	bics	r5, r3
  402cb0:	d0c2      	beq.n	402c38 <PIOD_Handler+0x40>
  402cb2:	e7be      	b.n	402c32 <PIOD_Handler+0x3a>
  402cb4:	00402839 	.word	0x00402839
  402cb8:	400e1400 	.word	0x400e1400
  402cbc:	0040283d 	.word	0x0040283d
  402cc0:	204280f0 	.word	0x204280f0

00402cc4 <PIOE_Handler>:
/**
 * \brief Parallel IO Controller E interrupt handler.
 * Redefined PIOE interrupt handler for NVIC interrupt table.
 */
void PIOE_Handler(void)
{
  402cc4:	b570      	push	{r4, r5, r6, lr}
	status = pio_get_interrupt_status(p_pio);
  402cc6:	4b2e      	ldr	r3, [pc, #184]	; (402d80 <PIOE_Handler+0xbc>)
  402cc8:	482e      	ldr	r0, [pc, #184]	; (402d84 <PIOE_Handler+0xc0>)
  402cca:	4798      	blx	r3
  402ccc:	4605      	mov	r5, r0
	status &= pio_get_interrupt_mask(p_pio);
  402cce:	4b2e      	ldr	r3, [pc, #184]	; (402d88 <PIOE_Handler+0xc4>)
  402cd0:	482c      	ldr	r0, [pc, #176]	; (402d84 <PIOE_Handler+0xc0>)
  402cd2:	4798      	blx	r3
	if (status != 0) {
  402cd4:	4005      	ands	r5, r0
  402cd6:	d015      	beq.n	402d04 <PIOE_Handler+0x40>
			if (gs_interrupt_sources[i].id == ul_id) {
  402cd8:	4c2c      	ldr	r4, [pc, #176]	; (402d8c <PIOE_Handler+0xc8>)
  402cda:	6820      	ldr	r0, [r4, #0]
  402cdc:	2811      	cmp	r0, #17
  402cde:	d019      	beq.n	402d14 <PIOE_Handler+0x50>
  402ce0:	6920      	ldr	r0, [r4, #16]
  402ce2:	2811      	cmp	r0, #17
  402ce4:	d01f      	beq.n	402d26 <PIOE_Handler+0x62>
  402ce6:	6a20      	ldr	r0, [r4, #32]
  402ce8:	2811      	cmp	r0, #17
  402cea:	d025      	beq.n	402d38 <PIOE_Handler+0x74>
  402cec:	6b20      	ldr	r0, [r4, #48]	; 0x30
  402cee:	2811      	cmp	r0, #17
  402cf0:	d02b      	beq.n	402d4a <PIOE_Handler+0x86>
  402cf2:	6c20      	ldr	r0, [r4, #64]	; 0x40
  402cf4:	2811      	cmp	r0, #17
  402cf6:	d031      	beq.n	402d5c <PIOE_Handler+0x98>
  402cf8:	6d20      	ldr	r0, [r4, #80]	; 0x50
  402cfa:	2811      	cmp	r0, #17
  402cfc:	d037      	beq.n	402d6e <PIOE_Handler+0xaa>
  402cfe:	6e20      	ldr	r0, [r4, #96]	; 0x60
  402d00:	2811      	cmp	r0, #17
  402d02:	d000      	beq.n	402d06 <PIOE_Handler+0x42>
  402d04:	bd70      	pop	{r4, r5, r6, pc}
				if ((status & gs_interrupt_sources[i].mask) != 0) {
  402d06:	6e61      	ldr	r1, [r4, #100]	; 0x64
  402d08:	4229      	tst	r1, r5
  402d0a:	d0fb      	beq.n	402d04 <PIOE_Handler+0x40>
					gs_interrupt_sources[i].handler(gs_interrupt_sources[i].id,
  402d0c:	6ee3      	ldr	r3, [r4, #108]	; 0x6c
	pio_handler_process(PIOE, ID_PIOE);
}
  402d0e:	e8bd 4070 	ldmia.w	sp!, {r4, r5, r6, lr}
					gs_interrupt_sources[i].handler(gs_interrupt_sources[i].id,
  402d12:	4718      	bx	r3
				if ((status & gs_interrupt_sources[i].mask) != 0) {
  402d14:	6861      	ldr	r1, [r4, #4]
  402d16:	420d      	tst	r5, r1
  402d18:	d0e2      	beq.n	402ce0 <PIOE_Handler+0x1c>
					gs_interrupt_sources[i].handler(gs_interrupt_sources[i].id,
  402d1a:	68e3      	ldr	r3, [r4, #12]
  402d1c:	4798      	blx	r3
					status &= ~(gs_interrupt_sources[i].mask);
  402d1e:	6863      	ldr	r3, [r4, #4]
		while (status != 0) {
  402d20:	439d      	bics	r5, r3
  402d22:	d0ef      	beq.n	402d04 <PIOE_Handler+0x40>
  402d24:	e7dc      	b.n	402ce0 <PIOE_Handler+0x1c>
				if ((status & gs_interrupt_sources[i].mask) != 0) {
  402d26:	6961      	ldr	r1, [r4, #20]
  402d28:	4229      	tst	r1, r5
  402d2a:	d0dc      	beq.n	402ce6 <PIOE_Handler+0x22>
					gs_interrupt_sources[i].handler(gs_interrupt_sources[i].id,
  402d2c:	69e3      	ldr	r3, [r4, #28]
  402d2e:	4798      	blx	r3
					status &= ~(gs_interrupt_sources[i].mask);
  402d30:	6963      	ldr	r3, [r4, #20]
		while (status != 0) {
  402d32:	439d      	bics	r5, r3
  402d34:	d0e6      	beq.n	402d04 <PIOE_Handler+0x40>
  402d36:	e7d6      	b.n	402ce6 <PIOE_Handler+0x22>
				if ((status & gs_interrupt_sources[i].mask) != 0) {
  402d38:	6a61      	ldr	r1, [r4, #36]	; 0x24
  402d3a:	4229      	tst	r1, r5
  402d3c:	d0d6      	beq.n	402cec <PIOE_Handler+0x28>
					gs_interrupt_sources[i].handler(gs_interrupt_sources[i].id,
  402d3e:	6ae3      	ldr	r3, [r4, #44]	; 0x2c
  402d40:	4798      	blx	r3
					status &= ~(gs_interrupt_sources[i].mask);
  402d42:	6a63      	ldr	r3, [r4, #36]	; 0x24
		while (status != 0) {
  402d44:	439d      	bics	r5, r3
  402d46:	d0dd      	beq.n	402d04 <PIOE_Handler+0x40>
  402d48:	e7d0      	b.n	402cec <PIOE_Handler+0x28>
				if ((status & gs_interrupt_sources[i].mask) != 0) {
  402d4a:	6b61      	ldr	r1, [r4, #52]	; 0x34
  402d4c:	4229      	tst	r1, r5
  402d4e:	d0d0      	beq.n	402cf2 <PIOE_Handler+0x2e>
					gs_interrupt_sources[i].handler(gs_interrupt_sources[i].id,
  402d50:	6be3      	ldr	r3, [r4, #60]	; 0x3c
  402d52:	4798      	blx	r3
					status &= ~(gs_interrupt_sources[i].mask);
  402d54:	6b63      	ldr	r3, [r4, #52]	; 0x34
		while (status != 0) {
  402d56:	439d      	bics	r5, r3
  402d58:	d0d4      	beq.n	402d04 <PIOE_Handler+0x40>
  402d5a:	e7ca      	b.n	402cf2 <PIOE_Handler+0x2e>
				if ((status & gs_interrupt_sources[i].mask) != 0) {
  402d5c:	6c61      	ldr	r1, [r4, #68]	; 0x44
  402d5e:	4229      	tst	r1, r5
  402d60:	d0ca      	beq.n	402cf8 <PIOE_Handler+0x34>
					gs_interrupt_sources[i].handler(gs_interrupt_sources[i].id,
  402d62:	6ce3      	ldr	r3, [r4, #76]	; 0x4c
  402d64:	4798      	blx	r3
					status &= ~(gs_interrupt_sources[i].mask);
  402d66:	6c63      	ldr	r3, [r4, #68]	; 0x44
		while (status != 0) {
  402d68:	439d      	bics	r5, r3
  402d6a:	d0cb      	beq.n	402d04 <PIOE_Handler+0x40>
  402d6c:	e7c4      	b.n	402cf8 <PIOE_Handler+0x34>
				if ((status & gs_interrupt_sources[i].mask) != 0) {
  402d6e:	6d61      	ldr	r1, [r4, #84]	; 0x54
  402d70:	4229      	tst	r1, r5
  402d72:	d0c4      	beq.n	402cfe <PIOE_Handler+0x3a>
					gs_interrupt_sources[i].handler(gs_interrupt_sources[i].id,
  402d74:	6de3      	ldr	r3, [r4, #92]	; 0x5c
  402d76:	4798      	blx	r3
					status &= ~(gs_interrupt_sources[i].mask);
  402d78:	6d63      	ldr	r3, [r4, #84]	; 0x54
		while (status != 0) {
  402d7a:	439d      	bics	r5, r3
  402d7c:	d0c2      	beq.n	402d04 <PIOE_Handler+0x40>
  402d7e:	e7be      	b.n	402cfe <PIOE_Handler+0x3a>
  402d80:	00402839 	.word	0x00402839
  402d84:	400e1600 	.word	0x400e1600
  402d88:	0040283d 	.word	0x0040283d
  402d8c:	204280f0 	.word	0x204280f0

00402d90 <pmc_mck_set_division>:
 * \brief Set the division of the MCK.
 *
 * \param ul_div Division value.
 */
void pmc_mck_set_division(uint32_t ul_div)
{
  402d90:	3802      	subs	r0, #2
  402d92:	2802      	cmp	r0, #2
  402d94:	d80d      	bhi.n	402db2 <pmc_mck_set_division+0x22>
  402d96:	4b08      	ldr	r3, [pc, #32]	; (402db8 <pmc_mck_set_division+0x28>)
  402d98:	f853 0020 	ldr.w	r0, [r3, r0, lsl #2]
		default:
			ul_div = PMC_MCKR_MDIV_EQ_PCK;
			break;
	}
	PMC->PMC_MCKR =
			(PMC->PMC_MCKR & (~PMC_MCKR_MDIV_Msk)) | ul_div;
  402d9c:	4907      	ldr	r1, [pc, #28]	; (402dbc <pmc_mck_set_division+0x2c>)
  402d9e:	6b0b      	ldr	r3, [r1, #48]	; 0x30
	while (!(PMC->PMC_SR & PMC_SR_MCKRDY));
  402da0:	460a      	mov	r2, r1
			(PMC->PMC_MCKR & (~PMC_MCKR_MDIV_Msk)) | ul_div;
  402da2:	f423 7340 	bic.w	r3, r3, #768	; 0x300
  402da6:	4303      	orrs	r3, r0
	PMC->PMC_MCKR =
  402da8:	630b      	str	r3, [r1, #48]	; 0x30
	while (!(PMC->PMC_SR & PMC_SR_MCKRDY));
  402daa:	6e93      	ldr	r3, [r2, #104]	; 0x68
  402dac:	071b      	lsls	r3, r3, #28
  402dae:	d5fc      	bpl.n	402daa <pmc_mck_set_division+0x1a>
}
  402db0:	4770      	bx	lr
{
  402db2:	2000      	movs	r0, #0
  402db4:	e7f2      	b.n	402d9c <pmc_mck_set_division+0xc>
  402db6:	bf00      	nop
  402db8:	004086f0 	.word	0x004086f0
  402dbc:	400e0600 	.word	0x400e0600

00402dc0 <pmc_switch_mck_to_pllack>:
 */
uint32_t pmc_switch_mck_to_pllack(uint32_t ul_pres)
{
	uint32_t ul_timeout;

	PMC->PMC_MCKR = (PMC->PMC_MCKR & (~PMC_MCKR_PRES_Msk)) | ul_pres;
  402dc0:	4913      	ldr	r1, [pc, #76]	; (402e10 <pmc_switch_mck_to_pllack+0x50>)
  402dc2:	6b0b      	ldr	r3, [r1, #48]	; 0x30
  402dc4:	f023 0370 	bic.w	r3, r3, #112	; 0x70
  402dc8:	4318      	orrs	r0, r3
  402dca:	6308      	str	r0, [r1, #48]	; 0x30
	for (ul_timeout = PMC_TIMEOUT; !(PMC->PMC_SR & PMC_SR_MCKRDY);
  402dcc:	6e8b      	ldr	r3, [r1, #104]	; 0x68
  402dce:	0718      	lsls	r0, r3, #28
  402dd0:	d407      	bmi.n	402de2 <pmc_switch_mck_to_pllack+0x22>
  402dd2:	f44f 6300 	mov.w	r3, #2048	; 0x800
  402dd6:	e001      	b.n	402ddc <pmc_switch_mck_to_pllack+0x1c>
			--ul_timeout) {
		if (ul_timeout == 0) {
  402dd8:	3b01      	subs	r3, #1
  402dda:	d016      	beq.n	402e0a <pmc_switch_mck_to_pllack+0x4a>
	for (ul_timeout = PMC_TIMEOUT; !(PMC->PMC_SR & PMC_SR_MCKRDY);
  402ddc:	6e8a      	ldr	r2, [r1, #104]	; 0x68
  402dde:	0712      	lsls	r2, r2, #28
  402de0:	d5fa      	bpl.n	402dd8 <pmc_switch_mck_to_pllack+0x18>
			return 1;
		}
	}

	PMC->PMC_MCKR = (PMC->PMC_MCKR & (~PMC_MCKR_CSS_Msk)) |
  402de2:	490b      	ldr	r1, [pc, #44]	; (402e10 <pmc_switch_mck_to_pllack+0x50>)
  402de4:	6b0b      	ldr	r3, [r1, #48]	; 0x30
  402de6:	f023 0303 	bic.w	r3, r3, #3
  402dea:	f043 0302 	orr.w	r3, r3, #2
  402dee:	630b      	str	r3, [r1, #48]	; 0x30
			PMC_MCKR_CSS_PLLA_CLK;

	for (ul_timeout = PMC_TIMEOUT; !(PMC->PMC_SR & PMC_SR_MCKRDY);
  402df0:	6e8b      	ldr	r3, [r1, #104]	; 0x68
  402df2:	0718      	lsls	r0, r3, #28
  402df4:	d407      	bmi.n	402e06 <pmc_switch_mck_to_pllack+0x46>
  402df6:	f44f 6300 	mov.w	r3, #2048	; 0x800
  402dfa:	e001      	b.n	402e00 <pmc_switch_mck_to_pllack+0x40>
			--ul_timeout) {
		if (ul_timeout == 0) {
  402dfc:	3b01      	subs	r3, #1
  402dfe:	d004      	beq.n	402e0a <pmc_switch_mck_to_pllack+0x4a>
	for (ul_timeout = PMC_TIMEOUT; !(PMC->PMC_SR & PMC_SR_MCKRDY);
  402e00:	6e8a      	ldr	r2, [r1, #104]	; 0x68
  402e02:	0712      	lsls	r2, r2, #28
  402e04:	d5fa      	bpl.n	402dfc <pmc_switch_mck_to_pllack+0x3c>
			return 1;
		}
	}

	return 0;
  402e06:	2000      	movs	r0, #0
}
  402e08:	4770      	bx	lr
			return 1;
  402e0a:	2001      	movs	r0, #1
  402e0c:	4770      	bx	lr
  402e0e:	bf00      	nop
  402e10:	400e0600 	.word	0x400e0600

00402e14 <pmc_switch_mainck_to_xtal>:
 */
void pmc_switch_mainck_to_xtal(uint32_t ul_bypass,
		uint32_t ul_xtal_startup_time)
{
	/* Enable Main Xtal oscillator */
	if (ul_bypass) {
  402e14:	b9a0      	cbnz	r0, 402e40 <pmc_switch_mainck_to_xtal+0x2c>
		PMC->CKGR_MOR = (PMC->CKGR_MOR & ~CKGR_MOR_MOSCXTEN) |
				CKGR_MOR_KEY_PASSWD | CKGR_MOR_MOSCXTBY |
				CKGR_MOR_MOSCSEL;
	} else {
		PMC->CKGR_MOR = (PMC->CKGR_MOR & ~CKGR_MOR_MOSCXTBY) |
  402e16:	4b0e      	ldr	r3, [pc, #56]	; (402e50 <pmc_switch_mainck_to_xtal+0x3c>)
				CKGR_MOR_KEY_PASSWD | CKGR_MOR_MOSCXTEN |
				CKGR_MOR_MOSCXTST(ul_xtal_startup_time);
  402e18:	0209      	lsls	r1, r1, #8
				CKGR_MOR_KEY_PASSWD | CKGR_MOR_MOSCXTEN |
  402e1a:	480e      	ldr	r0, [pc, #56]	; (402e54 <pmc_switch_mainck_to_xtal+0x40>)
				CKGR_MOR_MOSCXTST(ul_xtal_startup_time);
  402e1c:	b289      	uxth	r1, r1
		/* Wait the Xtal to stabilize */
		while (!(PMC->PMC_SR & PMC_SR_MOSCXTS));
  402e1e:	461a      	mov	r2, r3
{
  402e20:	b430      	push	{r4, r5}
				CKGR_MOR_KEY_PASSWD | CKGR_MOR_MOSCXTEN |
  402e22:	4c0d      	ldr	r4, [pc, #52]	; (402e58 <pmc_switch_mainck_to_xtal+0x44>)
		PMC->CKGR_MOR = (PMC->CKGR_MOR & ~CKGR_MOR_MOSCXTBY) |
  402e24:	6a1d      	ldr	r5, [r3, #32]
				CKGR_MOR_KEY_PASSWD | CKGR_MOR_MOSCXTEN |
  402e26:	402c      	ands	r4, r5
  402e28:	4320      	orrs	r0, r4
  402e2a:	4301      	orrs	r1, r0
		PMC->CKGR_MOR = (PMC->CKGR_MOR & ~CKGR_MOR_MOSCXTBY) |
  402e2c:	6219      	str	r1, [r3, #32]
		while (!(PMC->PMC_SR & PMC_SR_MOSCXTS));
  402e2e:	6e93      	ldr	r3, [r2, #104]	; 0x68
  402e30:	07db      	lsls	r3, r3, #31
  402e32:	d5fc      	bpl.n	402e2e <pmc_switch_mainck_to_xtal+0x1a>

		PMC->CKGR_MOR |= CKGR_MOR_KEY_PASSWD | CKGR_MOR_MOSCSEL;
  402e34:	6a11      	ldr	r1, [r2, #32]
  402e36:	4b09      	ldr	r3, [pc, #36]	; (402e5c <pmc_switch_mainck_to_xtal+0x48>)
  402e38:	430b      	orrs	r3, r1
  402e3a:	6213      	str	r3, [r2, #32]
	}
}
  402e3c:	bc30      	pop	{r4, r5}
  402e3e:	4770      	bx	lr
		PMC->CKGR_MOR = (PMC->CKGR_MOR & ~CKGR_MOR_MOSCXTEN) |
  402e40:	4903      	ldr	r1, [pc, #12]	; (402e50 <pmc_switch_mainck_to_xtal+0x3c>)
				CKGR_MOR_KEY_PASSWD | CKGR_MOR_MOSCXTBY |
  402e42:	4a07      	ldr	r2, [pc, #28]	; (402e60 <pmc_switch_mainck_to_xtal+0x4c>)
		PMC->CKGR_MOR = (PMC->CKGR_MOR & ~CKGR_MOR_MOSCXTEN) |
  402e44:	6a08      	ldr	r0, [r1, #32]
				CKGR_MOR_KEY_PASSWD | CKGR_MOR_MOSCXTBY |
  402e46:	4b07      	ldr	r3, [pc, #28]	; (402e64 <pmc_switch_mainck_to_xtal+0x50>)
  402e48:	4002      	ands	r2, r0
  402e4a:	4313      	orrs	r3, r2
		PMC->CKGR_MOR = (PMC->CKGR_MOR & ~CKGR_MOR_MOSCXTEN) |
  402e4c:	620b      	str	r3, [r1, #32]
  402e4e:	4770      	bx	lr
  402e50:	400e0600 	.word	0x400e0600
  402e54:	00370001 	.word	0x00370001
  402e58:	ffc8fffc 	.word	0xffc8fffc
  402e5c:	01370000 	.word	0x01370000
  402e60:	fec8fffc 	.word	0xfec8fffc
  402e64:	01370002 	.word	0x01370002

00402e68 <pmc_osc_is_ready_mainck>:
 * \retval 1 Xtal is ready.
 * \retval 0 Xtal is not ready.
 */
uint32_t pmc_osc_is_ready_mainck(void)
{
	return PMC->PMC_SR & PMC_SR_MOSCSELS;
  402e68:	4b02      	ldr	r3, [pc, #8]	; (402e74 <pmc_osc_is_ready_mainck+0xc>)
  402e6a:	6e98      	ldr	r0, [r3, #104]	; 0x68
}
  402e6c:	f400 3080 	and.w	r0, r0, #65536	; 0x10000
  402e70:	4770      	bx	lr
  402e72:	bf00      	nop
  402e74:	400e0600 	.word	0x400e0600

00402e78 <pmc_disable_pllack>:
void pmc_disable_pllack(void)
{
#if (SAM4C || SAM4CM || SAM4CP || SAMG)
	PMC->CKGR_PLLAR = CKGR_PLLAR_MULA(0);
#else
	PMC->CKGR_PLLAR = CKGR_PLLAR_ONE | CKGR_PLLAR_MULA(0);
  402e78:	4b02      	ldr	r3, [pc, #8]	; (402e84 <pmc_disable_pllack+0xc>)
  402e7a:	f04f 5200 	mov.w	r2, #536870912	; 0x20000000
  402e7e:	629a      	str	r2, [r3, #40]	; 0x28
  402e80:	4770      	bx	lr
  402e82:	bf00      	nop
  402e84:	400e0600 	.word	0x400e0600

00402e88 <pmc_is_locked_pllack>:
 * \retval 0 Not locked.
 * \retval 1 Locked.
 */
uint32_t pmc_is_locked_pllack(void)
{
	return (PMC->PMC_SR & PMC_SR_LOCKA);
  402e88:	4b02      	ldr	r3, [pc, #8]	; (402e94 <pmc_is_locked_pllack+0xc>)
  402e8a:	6e98      	ldr	r0, [r3, #104]	; 0x68
}
  402e8c:	f000 0002 	and.w	r0, r0, #2
  402e90:	4770      	bx	lr
  402e92:	bf00      	nop
  402e94:	400e0600 	.word	0x400e0600

00402e98 <pmc_enable_periph_clk>:
 * \retval 0 Success.
 * \retval 1 Invalid parameter.
 */
uint32_t pmc_enable_periph_clk(uint32_t ul_id)
{
	if (ul_id > MAX_PERIPH_ID) {
  402e98:	283f      	cmp	r0, #63	; 0x3f
  402e9a:	d81a      	bhi.n	402ed2 <pmc_enable_periph_clk+0x3a>
		return 1;
	}

	if (ul_id < 32) {
  402e9c:	281f      	cmp	r0, #31
  402e9e:	d80a      	bhi.n	402eb6 <pmc_enable_periph_clk+0x1e>
		if ((PMC->PMC_PCSR0 & (1u << ul_id)) != (1u << ul_id)) {
  402ea0:	2301      	movs	r3, #1
  402ea2:	4a0e      	ldr	r2, [pc, #56]	; (402edc <pmc_enable_periph_clk+0x44>)
  402ea4:	fa03 f000 	lsl.w	r0, r3, r0
  402ea8:	6991      	ldr	r1, [r2, #24]
  402eaa:	ea30 0301 	bics.w	r3, r0, r1
  402eae:	d012      	beq.n	402ed6 <pmc_enable_periph_clk+0x3e>
			PMC->PMC_PCER0 = 1 << ul_id;
  402eb0:	6110      	str	r0, [r2, #16]
			PMC->PMC_PCER1 = 1 << ul_id;
		}
#endif
	}

	return 0;
  402eb2:	2000      	movs	r0, #0
  402eb4:	4770      	bx	lr
		if ((PMC->PMC_PCSR1 & (1u << ul_id)) != (1u << ul_id)) {
  402eb6:	2301      	movs	r3, #1
		ul_id -= 32;
  402eb8:	3820      	subs	r0, #32
		if ((PMC->PMC_PCSR1 & (1u << ul_id)) != (1u << ul_id)) {
  402eba:	4a08      	ldr	r2, [pc, #32]	; (402edc <pmc_enable_periph_clk+0x44>)
  402ebc:	fa03 f000 	lsl.w	r0, r3, r0
  402ec0:	f8d2 3108 	ldr.w	r3, [r2, #264]	; 0x108
  402ec4:	ea30 0303 	bics.w	r3, r0, r3
  402ec8:	d005      	beq.n	402ed6 <pmc_enable_periph_clk+0x3e>
			PMC->PMC_PCER1 = 1 << ul_id;
  402eca:	f8c2 0100 	str.w	r0, [r2, #256]	; 0x100
	return 0;
  402ece:	2000      	movs	r0, #0
  402ed0:	4770      	bx	lr
		return 1;
  402ed2:	2001      	movs	r0, #1
  402ed4:	4770      	bx	lr
	return 0;
  402ed6:	2000      	movs	r0, #0
}
  402ed8:	4770      	bx	lr
  402eda:	bf00      	nop
  402edc:	400e0600 	.word	0x400e0600

00402ee0 <pmc_pck_set_prescaler>:
 *
 * \param ul_id Peripheral ID.
 * \param ul_pres Prescaler value.
 */
void pmc_pck_set_prescaler(uint32_t ul_id, uint32_t ul_pres)
{
  402ee0:	4b0b      	ldr	r3, [pc, #44]	; (402f10 <pmc_pck_set_prescaler+0x30>)
  402ee2:	f44f 7280 	mov.w	r2, #256	; 0x100
  402ee6:	b410      	push	{r4}
  402ee8:	eb03 0480 	add.w	r4, r3, r0, lsl #2
  402eec:	fa02 f000 	lsl.w	r0, r2, r0
	PMC->PMC_PCK[ul_id] =
			(PMC->PMC_PCK[ul_id] & ~PMC_PCK_PRES_Msk) | ul_pres;
  402ef0:	6c22      	ldr	r2, [r4, #64]	; 0x40
  402ef2:	f422 627f 	bic.w	r2, r2, #4080	; 0xff0
  402ef6:	4311      	orrs	r1, r2
	PMC->PMC_PCK[ul_id] =
  402ef8:	6421      	str	r1, [r4, #64]	; 0x40
	while ((PMC->PMC_SCER & (PMC_SCER_PCK0 << ul_id))
  402efa:	e002      	b.n	402f02 <pmc_pck_set_prescaler+0x22>
			&& !(PMC->PMC_SR & (PMC_SR_PCKRDY0 << ul_id)));
  402efc:	6e9a      	ldr	r2, [r3, #104]	; 0x68
  402efe:	4202      	tst	r2, r0
  402f00:	d102      	bne.n	402f08 <pmc_pck_set_prescaler+0x28>
	while ((PMC->PMC_SCER & (PMC_SCER_PCK0 << ul_id))
  402f02:	681a      	ldr	r2, [r3, #0]
  402f04:	4202      	tst	r2, r0
  402f06:	d1f9      	bne.n	402efc <pmc_pck_set_prescaler+0x1c>
}
  402f08:	f85d 4b04 	ldr.w	r4, [sp], #4
  402f0c:	4770      	bx	lr
  402f0e:	bf00      	nop
  402f10:	400e0600 	.word	0x400e0600

00402f14 <pmc_pck_set_source>:
 *
 * \param ul_id Peripheral ID.
 * \param ul_source Source selection value.
 */
void pmc_pck_set_source(uint32_t ul_id, uint32_t ul_source)
{
  402f14:	4b0b      	ldr	r3, [pc, #44]	; (402f44 <pmc_pck_set_source+0x30>)
  402f16:	f44f 7280 	mov.w	r2, #256	; 0x100
  402f1a:	b410      	push	{r4}
  402f1c:	eb03 0480 	add.w	r4, r3, r0, lsl #2
  402f20:	fa02 f000 	lsl.w	r0, r2, r0
	PMC->PMC_PCK[ul_id] =
			(PMC->PMC_PCK[ul_id] & ~PMC_PCK_CSS_Msk) | ul_source;
  402f24:	6c22      	ldr	r2, [r4, #64]	; 0x40
  402f26:	f022 0207 	bic.w	r2, r2, #7
  402f2a:	4311      	orrs	r1, r2
	PMC->PMC_PCK[ul_id] =
  402f2c:	6421      	str	r1, [r4, #64]	; 0x40
	while ((PMC->PMC_SCER & (PMC_SCER_PCK0 << ul_id))
  402f2e:	e002      	b.n	402f36 <pmc_pck_set_source+0x22>
			&& !(PMC->PMC_SR & (PMC_SR_PCKRDY0 << ul_id)));
  402f30:	6e9a      	ldr	r2, [r3, #104]	; 0x68
  402f32:	4202      	tst	r2, r0
  402f34:	d102      	bne.n	402f3c <pmc_pck_set_source+0x28>
	while ((PMC->PMC_SCER & (PMC_SCER_PCK0 << ul_id))
  402f36:	681a      	ldr	r2, [r3, #0]
  402f38:	4202      	tst	r2, r0
  402f3a:	d1f9      	bne.n	402f30 <pmc_pck_set_source+0x1c>
}
  402f3c:	f85d 4b04 	ldr.w	r4, [sp], #4
  402f40:	4770      	bx	lr
  402f42:	bf00      	nop
  402f44:	400e0600 	.word	0x400e0600

00402f48 <pmc_enable_pck>:
 *
 * \param ul_id Id of the programmable clock.
 */
void pmc_enable_pck(uint32_t ul_id)
{
	PMC->PMC_SCER = PMC_SCER_PCK0 << ul_id;
  402f48:	f44f 7380 	mov.w	r3, #256	; 0x100
  402f4c:	4a02      	ldr	r2, [pc, #8]	; (402f58 <pmc_enable_pck+0x10>)
  402f4e:	fa03 f000 	lsl.w	r0, r3, r0
  402f52:	6010      	str	r0, [r2, #0]
  402f54:	4770      	bx	lr
  402f56:	bf00      	nop
  402f58:	400e0600 	.word	0x400e0600

00402f5c <Dummy_Handler>:

/**
 * \brief Default interrupt handler for unused IRQs.
 */
void Dummy_Handler(void)
{
  402f5c:	e7fe      	b.n	402f5c <Dummy_Handler>
  402f5e:	bf00      	nop

00402f60 <Dummy_Handler2>:
	while (1) {
	}
}

void Dummy_Handler2(void)
{
  402f60:	e7fe      	b.n	402f60 <Dummy_Handler2>
  402f62:	bf00      	nop

00402f64 <Reset_Handler>:
        if (pSrc != pDest) {
  402f64:	4920      	ldr	r1, [pc, #128]	; (402fe8 <Reset_Handler+0x84>)
  402f66:	4821      	ldr	r0, [pc, #132]	; (402fec <Reset_Handler+0x88>)
  402f68:	4281      	cmp	r1, r0
{
  402f6a:	b510      	push	{r4, lr}
  402f6c:	b082      	sub	sp, #8
        if (pSrc != pDest) {
  402f6e:	d009      	beq.n	402f84 <Reset_Handler+0x20>
                for (; pDest < &_erelocate;) {
  402f70:	4b1f      	ldr	r3, [pc, #124]	; (402ff0 <Reset_Handler+0x8c>)
  402f72:	4298      	cmp	r0, r3
  402f74:	d206      	bcs.n	402f84 <Reset_Handler+0x20>
                        *pDest++ = *pSrc++;
  402f76:	43c2      	mvns	r2, r0
  402f78:	4c1e      	ldr	r4, [pc, #120]	; (402ff4 <Reset_Handler+0x90>)
  402f7a:	441a      	add	r2, r3
  402f7c:	f022 0203 	bic.w	r2, r2, #3
  402f80:	3204      	adds	r2, #4
  402f82:	47a0      	blx	r4
        for (pDest = &_szero; pDest < &_ezero;) {
  402f84:	481c      	ldr	r0, [pc, #112]	; (402ff8 <Reset_Handler+0x94>)
  402f86:	4b1d      	ldr	r3, [pc, #116]	; (402ffc <Reset_Handler+0x98>)
  402f88:	4298      	cmp	r0, r3
  402f8a:	d207      	bcs.n	402f9c <Reset_Handler+0x38>
                *pDest++ = 0;
  402f8c:	43c2      	mvns	r2, r0
  402f8e:	2100      	movs	r1, #0
  402f90:	4c1b      	ldr	r4, [pc, #108]	; (403000 <Reset_Handler+0x9c>)
  402f92:	441a      	add	r2, r3
  402f94:	f022 0203 	bic.w	r2, r2, #3
  402f98:	3204      	adds	r2, #4
  402f9a:	47a0      	blx	r4
        SCB->VTOR = ((uint32_t) pSrc & SCB_VTOR_TBLOFF_Msk);
  402f9c:	4b19      	ldr	r3, [pc, #100]	; (403004 <Reset_Handler+0xa0>)
  402f9e:	4a1a      	ldr	r2, [pc, #104]	; (403008 <Reset_Handler+0xa4>)
  402fa0:	f023 037f 	bic.w	r3, r3, #127	; 0x7f
  402fa4:	6093      	str	r3, [r2, #8]
 */
__attribute__( ( always_inline ) ) __STATIC_INLINE uint32_t __get_PRIMASK(void)
{
  uint32_t result;

  __ASM volatile ("MRS %0, primask" : "=r" (result) );
  402fa6:	f3ef 8310 	mrs	r3, PRIMASK
static volatile uint32_t cpu_irq_critical_section_counter;
static volatile bool     cpu_irq_prev_interrupt_state;

static inline irqflags_t cpu_irq_save(void)
{
	volatile irqflags_t flags = cpu_irq_is_enabled();
  402faa:	fab3 f383 	clz	r3, r3
  402fae:	095b      	lsrs	r3, r3, #5
  402fb0:	9301      	str	r3, [sp, #4]
  __ASM volatile ("cpsid i" : : : "memory");
  402fb2:	b672      	cpsid	i
  __ASM volatile ("dmb");
  402fb4:	f3bf 8f5f 	dmb	sy
	cpu_irq_disable();
  402fb8:	4a14      	ldr	r2, [pc, #80]	; (40300c <Reset_Handler+0xa8>)
  402fba:	2300      	movs	r3, #0
 */
__always_inline static void fpu_enable(void)
{
	irqflags_t flags;
	flags = cpu_irq_save();
	REG_CPACR |=  (0xFu << 20);
  402fbc:	4914      	ldr	r1, [pc, #80]	; (403010 <Reset_Handler+0xac>)
  402fbe:	7013      	strb	r3, [r2, #0]
	return flags;
  402fc0:	9801      	ldr	r0, [sp, #4]
  402fc2:	680b      	ldr	r3, [r1, #0]
  402fc4:	f443 0370 	orr.w	r3, r3, #15728640	; 0xf00000
  402fc8:	600b      	str	r3, [r1, #0]
  __ASM volatile ("dsb");
  402fca:	f3bf 8f4f 	dsb	sy
  __ASM volatile ("isb");
  402fce:	f3bf 8f6f 	isb	sy
	return (flags);
}

static inline void cpu_irq_restore(irqflags_t flags)
{
	if (cpu_irq_is_enabled_flags(flags))
  402fd2:	b120      	cbz	r0, 402fde <Reset_Handler+0x7a>
		cpu_irq_enable();
  402fd4:	2301      	movs	r3, #1
  402fd6:	7013      	strb	r3, [r2, #0]
  __ASM volatile ("dmb");
  402fd8:	f3bf 8f5f 	dmb	sy
  __ASM volatile ("cpsie i" : : : "memory");
  402fdc:	b662      	cpsie	i
        __libc_init_array();
  402fde:	4b0d      	ldr	r3, [pc, #52]	; (403014 <Reset_Handler+0xb0>)
  402fe0:	4798      	blx	r3
        main();
  402fe2:	4b0d      	ldr	r3, [pc, #52]	; (403018 <Reset_Handler+0xb4>)
  402fe4:	4798      	blx	r3
  402fe6:	e7fe      	b.n	402fe6 <Reset_Handler+0x82>
  402fe8:	00409294 	.word	0x00409294
  402fec:	20400000 	.word	0x20400000
  402ff0:	204009f8 	.word	0x204009f8
  402ff4:	00405e4d 	.word	0x00405e4d
  402ff8:	20400c00 	.word	0x20400c00
  402ffc:	2042c098 	.word	0x2042c098
  403000:	00405f81 	.word	0x00405f81
  403004:	00400000 	.word	0x00400000
  403008:	e000ed00 	.word	0xe000ed00
  40300c:	20400028 	.word	0x20400028
  403010:	e000ed88 	.word	0xe000ed88
  403014:	00405865 	.word	0x00405865
  403018:	00404fa5 	.word	0x00404fa5

0040301c <SystemCoreClockUpdate>:
}

void SystemCoreClockUpdate( void )
{
  /* Determine clock frequency according to clock register values */
  switch (PMC->PMC_MCKR & (uint32_t) PMC_MCKR_CSS_Msk)
  40301c:	4a32      	ldr	r2, [pc, #200]	; (4030e8 <SystemCoreClockUpdate+0xcc>)
  40301e:	6b13      	ldr	r3, [r2, #48]	; 0x30
  403020:	f003 0303 	and.w	r3, r3, #3
  403024:	2b01      	cmp	r3, #1
  403026:	d03c      	beq.n	4030a2 <SystemCoreClockUpdate+0x86>
  403028:	d325      	bcc.n	403076 <SystemCoreClockUpdate+0x5a>
  40302a:	2b02      	cmp	r3, #2
  40302c:	d00d      	beq.n	40304a <SystemCoreClockUpdate+0x2e>
  40302e:	482f      	ldr	r0, [pc, #188]	; (4030ec <SystemCoreClockUpdate+0xd0>)
  403030:	6803      	ldr	r3, [r0, #0]

    default:
    break;
  }

  if ( (PMC->PMC_MCKR & PMC_MCKR_PRES_Msk) == PMC_MCKR_PRES_CLK_3 )
  403032:	492d      	ldr	r1, [pc, #180]	; (4030e8 <SystemCoreClockUpdate+0xcc>)
  403034:	6b0a      	ldr	r2, [r1, #48]	; 0x30
  403036:	f002 0270 	and.w	r2, r2, #112	; 0x70
  40303a:	2a70      	cmp	r2, #112	; 0x70
  40303c:	d02b      	beq.n	403096 <SystemCoreClockUpdate+0x7a>
  {
    SystemCoreClock /= 3U;
  }
  else
  {
    SystemCoreClock >>= ((PMC->PMC_MCKR & PMC_MCKR_PRES_Msk) >> PMC_MCKR_PRES_Pos);
  40303e:	6b0a      	ldr	r2, [r1, #48]	; 0x30
  403040:	f3c2 1202 	ubfx	r2, r2, #4, #3
  403044:	40d3      	lsrs	r3, r2
  403046:	6003      	str	r3, [r0, #0]
  403048:	4770      	bx	lr
      if ( PMC->CKGR_MOR & CKGR_MOR_MOSCSEL )
  40304a:	6a13      	ldr	r3, [r2, #32]
        SystemCoreClock = CHIP_FREQ_XTAL_12M ;
  40304c:	4827      	ldr	r0, [pc, #156]	; (4030ec <SystemCoreClockUpdate+0xd0>)
      if ( PMC->CKGR_MOR & CKGR_MOR_MOSCSEL )
  40304e:	01db      	lsls	r3, r3, #7
  403050:	d53a      	bpl.n	4030c8 <SystemCoreClockUpdate+0xac>
            SystemCoreClock *= 3U;
  403052:	4b27      	ldr	r3, [pc, #156]	; (4030f0 <SystemCoreClockUpdate+0xd4>)
  403054:	6003      	str	r3, [r0, #0]
      if ( (uint32_t) (PMC->PMC_MCKR & (uint32_t) PMC_MCKR_CSS_Msk) == PMC_MCKR_CSS_PLLA_CLK )
  403056:	4924      	ldr	r1, [pc, #144]	; (4030e8 <SystemCoreClockUpdate+0xcc>)
  403058:	6b0a      	ldr	r2, [r1, #48]	; 0x30
  40305a:	f002 0203 	and.w	r2, r2, #3
  40305e:	2a02      	cmp	r2, #2
  403060:	d1e7      	bne.n	403032 <SystemCoreClockUpdate+0x16>
        SystemCoreClock *= ((((PMC->CKGR_PLLAR) & CKGR_PLLAR_MULA_Msk) >> CKGR_PLLAR_MULA_Pos) + 1U);
  403062:	6a8a      	ldr	r2, [r1, #40]	; 0x28
        SystemCoreClock /= ((((PMC->CKGR_PLLAR) & CKGR_PLLAR_DIVA_Msk) >> CKGR_PLLAR_DIVA_Pos));
  403064:	6a89      	ldr	r1, [r1, #40]	; 0x28
        SystemCoreClock *= ((((PMC->CKGR_PLLAR) & CKGR_PLLAR_MULA_Msk) >> CKGR_PLLAR_MULA_Pos) + 1U);
  403066:	f3c2 420a 	ubfx	r2, r2, #16, #11
        SystemCoreClock /= ((((PMC->CKGR_PLLAR) & CKGR_PLLAR_DIVA_Msk) >> CKGR_PLLAR_DIVA_Pos));
  40306a:	b2c9      	uxtb	r1, r1
        SystemCoreClock *= ((((PMC->CKGR_PLLAR) & CKGR_PLLAR_MULA_Msk) >> CKGR_PLLAR_MULA_Pos) + 1U);
  40306c:	fb02 3303 	mla	r3, r2, r3, r3
        SystemCoreClock /= ((((PMC->CKGR_PLLAR) & CKGR_PLLAR_DIVA_Msk) >> CKGR_PLLAR_DIVA_Pos));
  403070:	fbb3 f3f1 	udiv	r3, r3, r1
  403074:	e7dd      	b.n	403032 <SystemCoreClockUpdate+0x16>
      if ( SUPC->SUPC_SR & SUPC_SR_OSCSEL )
  403076:	4b1f      	ldr	r3, [pc, #124]	; (4030f4 <SystemCoreClockUpdate+0xd8>)
  if ( (PMC->PMC_MCKR & PMC_MCKR_PRES_Msk) == PMC_MCKR_PRES_CLK_3 )
  403078:	491b      	ldr	r1, [pc, #108]	; (4030e8 <SystemCoreClockUpdate+0xcc>)
      if ( SUPC->SUPC_SR & SUPC_SR_OSCSEL )
  40307a:	695b      	ldr	r3, [r3, #20]
  if ( (PMC->PMC_MCKR & PMC_MCKR_PRES_Msk) == PMC_MCKR_PRES_CLK_3 )
  40307c:	6b0a      	ldr	r2, [r1, #48]	; 0x30
      if ( SUPC->SUPC_SR & SUPC_SR_OSCSEL )
  40307e:	f013 0f80 	tst.w	r3, #128	; 0x80
  403082:	481a      	ldr	r0, [pc, #104]	; (4030ec <SystemCoreClockUpdate+0xd0>)
  if ( (PMC->PMC_MCKR & PMC_MCKR_PRES_Msk) == PMC_MCKR_PRES_CLK_3 )
  403084:	f002 0270 	and.w	r2, r2, #112	; 0x70
      if ( SUPC->SUPC_SR & SUPC_SR_OSCSEL )
  403088:	bf14      	ite	ne
  40308a:	f44f 4300 	movne.w	r3, #32768	; 0x8000
  40308e:	f44f 43fa 	moveq.w	r3, #32000	; 0x7d00
  if ( (PMC->PMC_MCKR & PMC_MCKR_PRES_Msk) == PMC_MCKR_PRES_CLK_3 )
  403092:	2a70      	cmp	r2, #112	; 0x70
  403094:	d1d3      	bne.n	40303e <SystemCoreClockUpdate+0x22>
    SystemCoreClock /= 3U;
  403096:	4a18      	ldr	r2, [pc, #96]	; (4030f8 <SystemCoreClockUpdate+0xdc>)
  403098:	fba2 2303 	umull	r2, r3, r2, r3
  40309c:	085b      	lsrs	r3, r3, #1
  40309e:	6003      	str	r3, [r0, #0]
  4030a0:	4770      	bx	lr
      if ( PMC->CKGR_MOR & CKGR_MOR_MOSCSEL )
  4030a2:	6a13      	ldr	r3, [r2, #32]
  4030a4:	01d9      	lsls	r1, r3, #7
  4030a6:	d40c      	bmi.n	4030c2 <SystemCoreClockUpdate+0xa6>
        SystemCoreClock = CHIP_FREQ_MAINCK_RC_4MHZ;
  4030a8:	4810      	ldr	r0, [pc, #64]	; (4030ec <SystemCoreClockUpdate+0xd0>)
  4030aa:	4914      	ldr	r1, [pc, #80]	; (4030fc <SystemCoreClockUpdate+0xe0>)
  4030ac:	6001      	str	r1, [r0, #0]
        switch ( PMC->CKGR_MOR & CKGR_MOR_MOSCRCF_Msk )
  4030ae:	6a12      	ldr	r2, [r2, #32]
  4030b0:	f002 0270 	and.w	r2, r2, #112	; 0x70
  4030b4:	2a10      	cmp	r2, #16
  4030b6:	d011      	beq.n	4030dc <SystemCoreClockUpdate+0xc0>
  4030b8:	4b0d      	ldr	r3, [pc, #52]	; (4030f0 <SystemCoreClockUpdate+0xd4>)
  4030ba:	2a20      	cmp	r2, #32
  4030bc:	bf18      	it	ne
  4030be:	460b      	movne	r3, r1
  4030c0:	e7b7      	b.n	403032 <SystemCoreClockUpdate+0x16>
  4030c2:	4b0b      	ldr	r3, [pc, #44]	; (4030f0 <SystemCoreClockUpdate+0xd4>)
  4030c4:	4809      	ldr	r0, [pc, #36]	; (4030ec <SystemCoreClockUpdate+0xd0>)
  4030c6:	e7b4      	b.n	403032 <SystemCoreClockUpdate+0x16>
        SystemCoreClock = CHIP_FREQ_MAINCK_RC_4MHZ;
  4030c8:	4b0c      	ldr	r3, [pc, #48]	; (4030fc <SystemCoreClockUpdate+0xe0>)
  4030ca:	6003      	str	r3, [r0, #0]
        switch ( PMC->CKGR_MOR & CKGR_MOR_MOSCRCF_Msk )
  4030cc:	6a12      	ldr	r2, [r2, #32]
  4030ce:	f002 0270 	and.w	r2, r2, #112	; 0x70
  4030d2:	2a10      	cmp	r2, #16
  4030d4:	d004      	beq.n	4030e0 <SystemCoreClockUpdate+0xc4>
  4030d6:	2a20      	cmp	r2, #32
  4030d8:	d0bb      	beq.n	403052 <SystemCoreClockUpdate+0x36>
  4030da:	e7bc      	b.n	403056 <SystemCoreClockUpdate+0x3a>
        switch ( PMC->CKGR_MOR & CKGR_MOR_MOSCRCF_Msk )
  4030dc:	4b08      	ldr	r3, [pc, #32]	; (403100 <SystemCoreClockUpdate+0xe4>)
  4030de:	e7a8      	b.n	403032 <SystemCoreClockUpdate+0x16>
            SystemCoreClock *= 2U;
  4030e0:	4b07      	ldr	r3, [pc, #28]	; (403100 <SystemCoreClockUpdate+0xe4>)
  4030e2:	6003      	str	r3, [r0, #0]
          break;
  4030e4:	e7b7      	b.n	403056 <SystemCoreClockUpdate+0x3a>
  4030e6:	bf00      	nop
  4030e8:	400e0600 	.word	0x400e0600
  4030ec:	2040002c 	.word	0x2040002c
  4030f0:	00b71b00 	.word	0x00b71b00
  4030f4:	400e1810 	.word	0x400e1810
  4030f8:	aaaaaaab 	.word	0xaaaaaaab
  4030fc:	003d0900 	.word	0x003d0900
  403100:	007a1200 	.word	0x007a1200

00403104 <system_init_flash>:
 * Initialize flash.
 */
void system_init_flash( uint32_t ul_clk )
{
  /* Set FWS for embedded Flash access according to operating frequency */
  if ( ul_clk < CHIP_FREQ_FWS_0 )
  403104:	4b16      	ldr	r3, [pc, #88]	; (403160 <system_init_flash+0x5c>)
  403106:	4298      	cmp	r0, r3
  403108:	d917      	bls.n	40313a <system_init_flash+0x36>
  {
    EFC->EEFC_FMR = EEFC_FMR_FWS(0)|EEFC_FMR_CLOE;
  }
  else
  {
    if (ul_clk < CHIP_FREQ_FWS_1)
  40310a:	4b16      	ldr	r3, [pc, #88]	; (403164 <system_init_flash+0x60>)
  40310c:	4298      	cmp	r0, r3
  40310e:	d910      	bls.n	403132 <system_init_flash+0x2e>
    {
      EFC->EEFC_FMR = EEFC_FMR_FWS(1)|EEFC_FMR_CLOE;
    }
    else
    {
      if (ul_clk < CHIP_FREQ_FWS_2)
  403110:	4b15      	ldr	r3, [pc, #84]	; (403168 <system_init_flash+0x64>)
  403112:	4298      	cmp	r0, r3
  403114:	d91a      	bls.n	40314c <system_init_flash+0x48>
      {
        EFC->EEFC_FMR = EEFC_FMR_FWS(2)|EEFC_FMR_CLOE;
      }
      else
      {
        if ( ul_clk < CHIP_FREQ_FWS_3 )
  403116:	4b15      	ldr	r3, [pc, #84]	; (40316c <system_init_flash+0x68>)
  403118:	4298      	cmp	r0, r3
  40311a:	d913      	bls.n	403144 <system_init_flash+0x40>
        {
          EFC->EEFC_FMR = EEFC_FMR_FWS(3)|EEFC_FMR_CLOE;
        }
        else
        {
          if ( ul_clk < CHIP_FREQ_FWS_4 )
  40311c:	4b14      	ldr	r3, [pc, #80]	; (403170 <system_init_flash+0x6c>)
  40311e:	4298      	cmp	r0, r3
  403120:	d918      	bls.n	403154 <system_init_flash+0x50>
          {
            EFC->EEFC_FMR = EEFC_FMR_FWS(4)|EEFC_FMR_CLOE;
          }
          else
          {
            if ( ul_clk < CHIP_FREQ_FWS_5 )
  403122:	4b14      	ldr	r3, [pc, #80]	; (403174 <system_init_flash+0x70>)
  403124:	4298      	cmp	r0, r3
            {
              EFC->EEFC_FMR = EEFC_FMR_FWS(5)|EEFC_FMR_CLOE;
  403126:	4b14      	ldr	r3, [pc, #80]	; (403178 <system_init_flash+0x74>)
  403128:	bf94      	ite	ls
  40312a:	4a14      	ldrls	r2, [pc, #80]	; (40317c <system_init_flash+0x78>)
            }
            else
            {
              EFC->EEFC_FMR = EEFC_FMR_FWS(6)|EEFC_FMR_CLOE;
  40312c:	4a14      	ldrhi	r2, [pc, #80]	; (403180 <system_init_flash+0x7c>)
  40312e:	601a      	str	r2, [r3, #0]
  403130:	4770      	bx	lr
      EFC->EEFC_FMR = EEFC_FMR_FWS(1)|EEFC_FMR_CLOE;
  403132:	4b11      	ldr	r3, [pc, #68]	; (403178 <system_init_flash+0x74>)
  403134:	4a13      	ldr	r2, [pc, #76]	; (403184 <system_init_flash+0x80>)
  403136:	601a      	str	r2, [r3, #0]
  403138:	4770      	bx	lr
    EFC->EEFC_FMR = EEFC_FMR_FWS(0)|EEFC_FMR_CLOE;
  40313a:	4b0f      	ldr	r3, [pc, #60]	; (403178 <system_init_flash+0x74>)
  40313c:	f04f 6280 	mov.w	r2, #67108864	; 0x4000000
  403140:	601a      	str	r2, [r3, #0]
  403142:	4770      	bx	lr
          EFC->EEFC_FMR = EEFC_FMR_FWS(3)|EEFC_FMR_CLOE;
  403144:	4b0c      	ldr	r3, [pc, #48]	; (403178 <system_init_flash+0x74>)
  403146:	4a10      	ldr	r2, [pc, #64]	; (403188 <system_init_flash+0x84>)
  403148:	601a      	str	r2, [r3, #0]
  40314a:	4770      	bx	lr
        EFC->EEFC_FMR = EEFC_FMR_FWS(2)|EEFC_FMR_CLOE;
  40314c:	4b0a      	ldr	r3, [pc, #40]	; (403178 <system_init_flash+0x74>)
  40314e:	4a0f      	ldr	r2, [pc, #60]	; (40318c <system_init_flash+0x88>)
  403150:	601a      	str	r2, [r3, #0]
  403152:	4770      	bx	lr
            EFC->EEFC_FMR = EEFC_FMR_FWS(4)|EEFC_FMR_CLOE;
  403154:	4b08      	ldr	r3, [pc, #32]	; (403178 <system_init_flash+0x74>)
  403156:	f04f 2204 	mov.w	r2, #67109888	; 0x4000400
  40315a:	601a      	str	r2, [r3, #0]
  40315c:	4770      	bx	lr
  40315e:	bf00      	nop
  403160:	015ef3bf 	.word	0x015ef3bf
  403164:	02bde77f 	.word	0x02bde77f
  403168:	041cdb3f 	.word	0x041cdb3f
  40316c:	057bceff 	.word	0x057bceff
  403170:	06dac2bf 	.word	0x06dac2bf
  403174:	0839b67f 	.word	0x0839b67f
  403178:	400e0c00 	.word	0x400e0c00
  40317c:	04000500 	.word	0x04000500
  403180:	04000600 	.word	0x04000600
  403184:	04000100 	.word	0x04000100
  403188:	04000300 	.word	0x04000300
  40318c:	04000200 	.word	0x04000200

00403190 <_sbrk>:
{
	static unsigned char *heap = NULL;
	unsigned char *prev_heap;
	int ramend = (int)&__ram_end__;

	if (heap == NULL) {
  403190:	4a0d      	ldr	r2, [pc, #52]	; (4031c8 <_sbrk+0x38>)
	int ramend = (int)&__ram_end__;
  403192:	490e      	ldr	r1, [pc, #56]	; (4031cc <_sbrk+0x3c>)
	if (heap == NULL) {
  403194:	6813      	ldr	r3, [r2, #0]
  403196:	b143      	cbz	r3, 4031aa <_sbrk+0x1a>
		heap = (unsigned char *)&_end;
	}
	prev_heap = heap;

	if (((int)prev_heap + incr) > ramend) {
  403198:	4418      	add	r0, r3
  40319a:	4281      	cmp	r1, r0
  40319c:	db02      	blt.n	4031a4 <_sbrk+0x14>
		return (caddr_t) -1;	
	}

	heap += incr;
  40319e:	6010      	str	r0, [r2, #0]

	return (caddr_t) prev_heap;
  4031a0:	4618      	mov	r0, r3
  4031a2:	4770      	bx	lr
		return (caddr_t) -1;	
  4031a4:	f04f 30ff 	mov.w	r0, #4294967295
  4031a8:	4770      	bx	lr
{
  4031aa:	b410      	push	{r4}
		heap = (unsigned char *)&_end;
  4031ac:	4c08      	ldr	r4, [pc, #32]	; (4031d0 <_sbrk+0x40>)
	if (((int)prev_heap + incr) > ramend) {
  4031ae:	4420      	add	r0, r4
		heap = (unsigned char *)&_end;
  4031b0:	6014      	str	r4, [r2, #0]
	if (((int)prev_heap + incr) > ramend) {
  4031b2:	4281      	cmp	r1, r0
  4031b4:	db04      	blt.n	4031c0 <_sbrk+0x30>
	heap += incr;
  4031b6:	6010      	str	r0, [r2, #0]
	return (caddr_t) prev_heap;
  4031b8:	4620      	mov	r0, r4
}
  4031ba:	f85d 4b04 	ldr.w	r4, [sp], #4
  4031be:	4770      	bx	lr
		return (caddr_t) -1;	
  4031c0:	f04f 30ff 	mov.w	r0, #4294967295
  4031c4:	e7f9      	b.n	4031ba <_sbrk+0x2a>
  4031c6:	bf00      	nop
  4031c8:	20428160 	.word	0x20428160
  4031cc:	2045fffc 	.word	0x2045fffc
  4031d0:	2042e298 	.word	0x2042e298

004031d4 <_close>:
}

extern int _close(int file)
{
	return -1;
}
  4031d4:	f04f 30ff 	mov.w	r0, #4294967295
  4031d8:	4770      	bx	lr
  4031da:	bf00      	nop

004031dc <_fstat>:

extern int _fstat(int file, struct stat *st)
{
	st->st_mode = S_IFCHR;
  4031dc:	f44f 5300 	mov.w	r3, #8192	; 0x2000

	return 0;
}
  4031e0:	2000      	movs	r0, #0
	st->st_mode = S_IFCHR;
  4031e2:	604b      	str	r3, [r1, #4]
}
  4031e4:	4770      	bx	lr
  4031e6:	bf00      	nop

004031e8 <_isatty>:

extern int _isatty(int file)
{
	return 1;
}
  4031e8:	2001      	movs	r0, #1
  4031ea:	4770      	bx	lr

004031ec <_lseek>:

extern int _lseek(int file, int ptr, int dir)
{
	return 0;
}
  4031ec:	2000      	movs	r0, #0
  4031ee:	4770      	bx	lr

004031f0 <xEventGroupSetBits.part.0>:

	return uxReturn;
}
/*-----------------------------------------------------------*/

EventBits_t xEventGroupSetBits( EventGroupHandle_t xEventGroup, const EventBits_t uxBitsToSet )
  4031f0:	e92d 41f0 	stmdb	sp!, {r4, r5, r6, r7, r8, lr}
  4031f4:	4604      	mov	r4, r0
	configASSERT( xEventGroup );
	configASSERT( ( uxBitsToSet & eventEVENT_BITS_CONTROL_BYTES ) == 0 );

	pxList = &( pxEventBits->xTasksWaitingForBits );
	pxListEnd = listGET_END_MARKER( pxList ); /*lint !e826 !e740 The mini list structure is used as the list end to save RAM.  This is checked and valid. */
	vTaskSuspendAll();
  4031f6:	4b15      	ldr	r3, [pc, #84]	; (40324c <xEventGroupSetBits.part.0+0x5c>)
EventBits_t xEventGroupSetBits( EventGroupHandle_t xEventGroup, const EventBits_t uxBitsToSet )
  4031f8:	460e      	mov	r6, r1
	vTaskSuspendAll();
  4031fa:	4798      	blx	r3
		traceEVENT_GROUP_SET_BITS( xEventGroup, uxBitsToSet );

		pxListItem = listGET_HEAD_ENTRY( pxList );

		/* Set the bits. */
		pxEventBits->uxEventBits |= uxBitsToSet;
  4031fc:	6823      	ldr	r3, [r4, #0]
	pxListEnd = listGET_END_MARKER( pxList ); /*lint !e826 !e740 The mini list structure is used as the list end to save RAM.  This is checked and valid. */
  4031fe:	f104 070c 	add.w	r7, r4, #12
		pxListItem = listGET_HEAD_ENTRY( pxList );
  403202:	6920      	ldr	r0, [r4, #16]
EventBits_t uxBitsToClear = 0, uxBitsWaitedFor, uxControlBits;
  403204:	2500      	movs	r5, #0
		pxEventBits->uxEventBits |= uxBitsToSet;
  403206:	4333      	orrs	r3, r6
				/* Store the actual event flag value in the task's event list
				item before removing the task from the event list.  The
				eventUNBLOCKED_DUE_TO_BIT_SET bit is set so the task knows
				that is was unblocked due to its required bits matching, rather
				than because it timed out. */
				vTaskRemoveFromUnorderedEventList( pxListItem, pxEventBits->uxEventBits | eventUNBLOCKED_DUE_TO_BIT_SET );
  403208:	4e11      	ldr	r6, [pc, #68]	; (403250 <xEventGroupSetBits.part.0+0x60>)
		pxEventBits->uxEventBits |= uxBitsToSet;
  40320a:	6023      	str	r3, [r4, #0]
		while( pxListItem != pxListEnd )
  40320c:	4287      	cmp	r7, r0
  40320e:	6821      	ldr	r1, [r4, #0]
  403210:	d014      	beq.n	40323c <xEventGroupSetBits.part.0+0x4c>
			pxNext = listGET_NEXT( pxListItem );
  403212:	e890 0108 	ldmia.w	r0, {r3, r8}
			if( ( uxControlBits & eventWAIT_FOR_ALL_BITS ) == ( EventBits_t ) 0 )
  403216:	f013 6f80 	tst.w	r3, #67108864	; 0x4000000
			uxBitsWaitedFor &= ~eventEVENT_BITS_CONTROL_BYTES;
  40321a:	f023 427f 	bic.w	r2, r3, #4278190080	; 0xff000000
			if( ( uxControlBits & eventWAIT_FOR_ALL_BITS ) == ( EventBits_t ) 0 )
  40321e:	d102      	bne.n	403226 <xEventGroupSetBits.part.0+0x36>
				if( ( uxBitsWaitedFor & pxEventBits->uxEventBits ) != ( EventBits_t ) 0 )
  403220:	420a      	tst	r2, r1
  403222:	d103      	bne.n	40322c <xEventGroupSetBits.part.0+0x3c>
  403224:	e008      	b.n	403238 <xEventGroupSetBits.part.0+0x48>
			else if( ( uxBitsWaitedFor & pxEventBits->uxEventBits ) == uxBitsWaitedFor )
  403226:	ea32 0e01 	bics.w	lr, r2, r1
  40322a:	d105      	bne.n	403238 <xEventGroupSetBits.part.0+0x48>
				if( ( uxControlBits & eventCLEAR_EVENTS_ON_EXIT_BIT ) != ( EventBits_t ) 0 )
  40322c:	01db      	lsls	r3, r3, #7
  40322e:	d500      	bpl.n	403232 <xEventGroupSetBits.part.0+0x42>
					uxBitsToClear |= uxBitsWaitedFor;
  403230:	4315      	orrs	r5, r2
				vTaskRemoveFromUnorderedEventList( pxListItem, pxEventBits->uxEventBits | eventUNBLOCKED_DUE_TO_BIT_SET );
  403232:	f041 7100 	orr.w	r1, r1, #33554432	; 0x2000000
  403236:	47b0      	blx	r6
EventBits_t xEventGroupSetBits( EventGroupHandle_t xEventGroup, const EventBits_t uxBitsToSet )
  403238:	4640      	mov	r0, r8
  40323a:	e7e7      	b.n	40320c <xEventGroupSetBits.part.0+0x1c>
			pxListItem = pxNext;
		}

		/* Clear any bits that matched when the eventCLEAR_EVENTS_ON_EXIT_BIT
		bit was set in the control word. */
		pxEventBits->uxEventBits &= ~uxBitsToClear;
  40323c:	ea21 0105 	bic.w	r1, r1, r5
	}
	( void ) xTaskResumeAll();
  403240:	4b04      	ldr	r3, [pc, #16]	; (403254 <xEventGroupSetBits.part.0+0x64>)
		pxEventBits->uxEventBits &= ~uxBitsToClear;
  403242:	6021      	str	r1, [r4, #0]
	( void ) xTaskResumeAll();
  403244:	4798      	blx	r3

	return pxEventBits->uxEventBits;
  403246:	6820      	ldr	r0, [r4, #0]
}
  403248:	e8bd 81f0 	ldmia.w	sp!, {r4, r5, r6, r7, r8, pc}
  40324c:	00403cb9 	.word	0x00403cb9
  403250:	00404191 	.word	0x00404191
  403254:	00403e59 	.word	0x00403e59

00403258 <vEventGroupClearBitsCallback>:
	configASSERT( xEventGroup );
  403258:	b1d0      	cbz	r0, 403290 <vEventGroupClearBitsCallback+0x38>
	configASSERT( ( uxBitsToClear & eventEVENT_BITS_CONTROL_BYTES ) == 0 );
  40325a:	f011 4f7f 	tst.w	r1, #4278190080	; 0xff000000
  40325e:	d00a      	beq.n	403276 <vEventGroupClearBitsCallback+0x1e>

portFORCE_INLINE static void vPortRaiseBASEPRI( void )
{
uint32_t ulNewBASEPRI;

	__asm volatile
  403260:	f04f 0380 	mov.w	r3, #128	; 0x80
  403264:	b672      	cpsid	i
  403266:	f383 8811 	msr	BASEPRI, r3
  40326a:	f3bf 8f6f 	isb	sy
  40326e:	f3bf 8f4f 	dsb	sy
  403272:	b662      	cpsie	i
  403274:	e7fe      	b.n	403274 <vEventGroupClearBitsCallback+0x1c>
/*-----------------------------------------------------------*/

/* For internal use only - execute a 'clear bits' command that was pended from
an interrupt. */
void vEventGroupClearBitsCallback( void *pvEventGroup, const uint32_t ulBitsToClear )
{
  403276:	b570      	push	{r4, r5, r6, lr}
  403278:	4604      	mov	r4, r0
	taskENTER_CRITICAL();
  40327a:	4b0b      	ldr	r3, [pc, #44]	; (4032a8 <vEventGroupClearBitsCallback+0x50>)
  40327c:	460d      	mov	r5, r1
  40327e:	4798      	blx	r3
		pxEventBits->uxEventBits &= ~uxBitsToClear;
  403280:	6823      	ldr	r3, [r4, #0]
	taskEXIT_CRITICAL();
  403282:	4a0a      	ldr	r2, [pc, #40]	; (4032ac <vEventGroupClearBitsCallback+0x54>)
		pxEventBits->uxEventBits &= ~uxBitsToClear;
  403284:	ea23 0305 	bic.w	r3, r3, r5
  403288:	6023      	str	r3, [r4, #0]
	( void ) xEventGroupClearBits( pvEventGroup, ( EventBits_t ) ulBitsToClear );
}
  40328a:	e8bd 4070 	ldmia.w	sp!, {r4, r5, r6, lr}
	taskEXIT_CRITICAL();
  40328e:	4710      	bx	r2
  403290:	f04f 0380 	mov.w	r3, #128	; 0x80
  403294:	b672      	cpsid	i
  403296:	f383 8811 	msr	BASEPRI, r3
  40329a:	f3bf 8f6f 	isb	sy
  40329e:	f3bf 8f4f 	dsb	sy
  4032a2:	b662      	cpsie	i
  4032a4:	e7fe      	b.n	4032a4 <vEventGroupClearBitsCallback+0x4c>
  4032a6:	bf00      	nop
  4032a8:	004033e5 	.word	0x004033e5
  4032ac:	00403431 	.word	0x00403431

004032b0 <vEventGroupSetBitsCallback>:
	configASSERT( xEventGroup );
  4032b0:	b168      	cbz	r0, 4032ce <vEventGroupSetBitsCallback+0x1e>
	configASSERT( ( uxBitsToSet & eventEVENT_BITS_CONTROL_BYTES ) == 0 );
  4032b2:	f011 4f7f 	tst.w	r1, #4278190080	; 0xff000000
  4032b6:	d015      	beq.n	4032e4 <vEventGroupSetBitsCallback+0x34>
  4032b8:	f04f 0380 	mov.w	r3, #128	; 0x80
  4032bc:	b672      	cpsid	i
  4032be:	f383 8811 	msr	BASEPRI, r3
  4032c2:	f3bf 8f6f 	isb	sy
  4032c6:	f3bf 8f4f 	dsb	sy
  4032ca:	b662      	cpsie	i
  4032cc:	e7fe      	b.n	4032cc <vEventGroupSetBitsCallback+0x1c>
  4032ce:	f04f 0380 	mov.w	r3, #128	; 0x80
  4032d2:	b672      	cpsid	i
  4032d4:	f383 8811 	msr	BASEPRI, r3
  4032d8:	f3bf 8f6f 	isb	sy
  4032dc:	f3bf 8f4f 	dsb	sy
  4032e0:	b662      	cpsie	i
  4032e2:	e7fe      	b.n	4032e2 <vEventGroupSetBitsCallback+0x32>
  4032e4:	4b00      	ldr	r3, [pc, #0]	; (4032e8 <vEventGroupSetBitsCallback+0x38>)
  4032e6:	4718      	bx	r3
  4032e8:	004031f1 	.word	0x004031f1

004032ec <xEventGroupClearBitsFromISR>:
	{
  4032ec:	b410      	push	{r4}
		xReturn = xTimerPendFunctionCallFromISR( vEventGroupClearBitsCallback, ( void * ) xEventGroup, ( uint32_t ) uxBitsToClear, NULL );
  4032ee:	4c04      	ldr	r4, [pc, #16]	; (403300 <xEventGroupClearBitsFromISR+0x14>)
  4032f0:	460a      	mov	r2, r1
  4032f2:	2300      	movs	r3, #0
  4032f4:	4601      	mov	r1, r0
  4032f6:	46a4      	mov	ip, r4
  4032f8:	4802      	ldr	r0, [pc, #8]	; (403304 <xEventGroupClearBitsFromISR+0x18>)
	}
  4032fa:	f85d 4b04 	ldr.w	r4, [sp], #4
		xReturn = xTimerPendFunctionCallFromISR( vEventGroupClearBitsCallback, ( void * ) xEventGroup, ( uint32_t ) uxBitsToClear, NULL );
  4032fe:	4760      	bx	ip
  403300:	0040468d 	.word	0x0040468d
  403304:	00403259 	.word	0x00403259

00403308 <xEventGroupGetBitsFromISR>:

portFORCE_INLINE static uint32_t ulPortRaiseBASEPRI( void )
{
uint32_t ulOriginalBASEPRI, ulNewBASEPRI;

	__asm volatile
  403308:	f3ef 8311 	mrs	r3, BASEPRI
  40330c:	f04f 0280 	mov.w	r2, #128	; 0x80
  403310:	b672      	cpsid	i
  403312:	f382 8811 	msr	BASEPRI, r2
  403316:	f3bf 8f6f 	isb	sy
  40331a:	f3bf 8f4f 	dsb	sy
  40331e:	b662      	cpsie	i
		uxReturn = pxEventBits->uxEventBits;
  403320:	6800      	ldr	r0, [r0, #0]
}
/*-----------------------------------------------------------*/

portFORCE_INLINE static void vPortSetBASEPRI( uint32_t ulNewMaskValue )
{
	__asm volatile
  403322:	f383 8811 	msr	BASEPRI, r3
}
  403326:	4770      	bx	lr

00403328 <xEventGroupSetBitsFromISR>:
/*-----------------------------------------------------------*/

#if ( ( configUSE_TRACE_FACILITY == 1 ) && ( INCLUDE_xTimerPendFunctionCall == 1 ) && ( configUSE_TIMERS == 1 ) )

	BaseType_t xEventGroupSetBitsFromISR( EventGroupHandle_t xEventGroup, const EventBits_t uxBitsToSet, BaseType_t *pxHigherPriorityTaskWoken )
	{
  403328:	b410      	push	{r4}
	BaseType_t xReturn;

		traceEVENT_GROUP_SET_BITS_FROM_ISR( xEventGroup, uxBitsToSet );
		xReturn = xTimerPendFunctionCallFromISR( vEventGroupSetBitsCallback, ( void * ) xEventGroup, ( uint32_t ) uxBitsToSet, pxHigherPriorityTaskWoken );
  40332a:	4c04      	ldr	r4, [pc, #16]	; (40333c <xEventGroupSetBitsFromISR+0x14>)
  40332c:	4613      	mov	r3, r2
  40332e:	460a      	mov	r2, r1
  403330:	4601      	mov	r1, r0
  403332:	46a4      	mov	ip, r4
  403334:	4802      	ldr	r0, [pc, #8]	; (403340 <xEventGroupSetBitsFromISR+0x18>)

		return xReturn;
	}
  403336:	f85d 4b04 	ldr.w	r4, [sp], #4
		xReturn = xTimerPendFunctionCallFromISR( vEventGroupSetBitsCallback, ( void * ) xEventGroup, ( uint32_t ) uxBitsToSet, pxHigherPriorityTaskWoken );
  40333a:	4760      	bx	ip
  40333c:	0040468d 	.word	0x0040468d
  403340:	004032b1 	.word	0x004032b1

00403344 <vListInsertEnd>:
}
/*-----------------------------------------------------------*/

void vListInsertEnd( List_t * const pxList, ListItem_t * const pxNewListItem )
{
ListItem_t * const pxIndex = pxList->pxIndex;
  403344:	6843      	ldr	r3, [r0, #4]
	listTEST_LIST_ITEM_INTEGRITY( pxNewListItem );

	/* Insert a new list item into pxList, but rather than sort the list,
	makes the new list item the last item to be removed by a call to
	listGET_OWNER_OF_NEXT_ENTRY(). */
	pxNewListItem->pxNext = pxIndex;
  403346:	604b      	str	r3, [r1, #4]
	pxNewListItem->pxPrevious = pxIndex->pxPrevious;
  403348:	689a      	ldr	r2, [r3, #8]
  40334a:	608a      	str	r2, [r1, #8]

	/* Only used during decision coverage testing. */
	mtCOVERAGE_TEST_DELAY();

	pxIndex->pxPrevious->pxNext = pxNewListItem;
  40334c:	689a      	ldr	r2, [r3, #8]
  40334e:	6051      	str	r1, [r2, #4]
	pxIndex->pxPrevious = pxNewListItem;
  403350:	6099      	str	r1, [r3, #8]

	/* Remember which list the item is in. */
	pxNewListItem->pvContainer = ( void * ) pxList;
  403352:	6108      	str	r0, [r1, #16]

	( pxList->uxNumberOfItems )++;
  403354:	6803      	ldr	r3, [r0, #0]
  403356:	3301      	adds	r3, #1
  403358:	6003      	str	r3, [r0, #0]
  40335a:	4770      	bx	lr

0040335c <vListInsert>:
}
/*-----------------------------------------------------------*/

void vListInsert( List_t * const pxList, ListItem_t * const pxNewListItem )
{
  40335c:	b430      	push	{r4, r5}
ListItem_t *pxIterator;
const TickType_t xValueOfInsertion = pxNewListItem->xItemValue;
  40335e:	680d      	ldr	r5, [r1, #0]
	new list item should be placed after it.  This ensures that TCB's which are
	stored in ready lists (all of which have the same xItemValue value) get a
	share of the CPU.  However, if the xItemValue is the same as the back marker
	the iteration loop below will not end.  Therefore the value is checked
	first, and the algorithm slightly modified if necessary. */
	if( xValueOfInsertion == portMAX_DELAY )
  403360:	1c6b      	adds	r3, r5, #1
  403362:	d011      	beq.n	403388 <vListInsert+0x2c>
			4) Using a queue or semaphore before it has been initialised or
			   before the scheduler has been started (are interrupts firing
			   before vTaskStartScheduler() has been called?).
		**********************************************************************/

		for( pxIterator = ( ListItem_t * ) &( pxList->xListEnd ); pxIterator->pxNext->xItemValue <= xValueOfInsertion; pxIterator = pxIterator->pxNext ) /*lint !e826 !e740 The mini list structure is used as the list end to save RAM.  This is checked and valid. */
  403364:	f100 0208 	add.w	r2, r0, #8
  403368:	e000      	b.n	40336c <vListInsert+0x10>
  40336a:	461a      	mov	r2, r3
  40336c:	6853      	ldr	r3, [r2, #4]
  40336e:	681c      	ldr	r4, [r3, #0]
  403370:	42a5      	cmp	r5, r4
  403372:	d2fa      	bcs.n	40336a <vListInsert+0xe>
			/* There is nothing to do here, just iterating to the wanted
			insertion position. */
		}
	}

	pxNewListItem->pxNext = pxIterator->pxNext;
  403374:	604b      	str	r3, [r1, #4]
	pxNewListItem->pxNext->pxPrevious = pxNewListItem;
  403376:	6099      	str	r1, [r3, #8]
	pxNewListItem->pxPrevious = pxIterator;
  403378:	608a      	str	r2, [r1, #8]
	pxIterator->pxNext = pxNewListItem;
  40337a:	6051      	str	r1, [r2, #4]

	/* Remember which list the item is in.  This allows fast removal of the
	item later. */
	pxNewListItem->pvContainer = ( void * ) pxList;
  40337c:	6108      	str	r0, [r1, #16]

	( pxList->uxNumberOfItems )++;
  40337e:	6803      	ldr	r3, [r0, #0]
  403380:	3301      	adds	r3, #1
}
  403382:	bc30      	pop	{r4, r5}
	( pxList->uxNumberOfItems )++;
  403384:	6003      	str	r3, [r0, #0]
}
  403386:	4770      	bx	lr
		pxIterator = pxList->xListEnd.pxPrevious;
  403388:	6902      	ldr	r2, [r0, #16]
  40338a:	6853      	ldr	r3, [r2, #4]
  40338c:	e7f2      	b.n	403374 <vListInsert+0x18>
  40338e:	bf00      	nop

00403390 <uxListRemove>:
{
/* The list item knows which list it is in.  Obtain the list from the list
item. */
List_t * const pxList = ( List_t * ) pxItemToRemove->pvContainer;

	pxItemToRemove->pxNext->pxPrevious = pxItemToRemove->pxPrevious;
  403390:	6842      	ldr	r2, [r0, #4]
  403392:	6881      	ldr	r1, [r0, #8]
List_t * const pxList = ( List_t * ) pxItemToRemove->pvContainer;
  403394:	6903      	ldr	r3, [r0, #16]
	pxItemToRemove->pxNext->pxPrevious = pxItemToRemove->pxPrevious;
  403396:	6091      	str	r1, [r2, #8]
	pxItemToRemove->pxPrevious->pxNext = pxItemToRemove->pxNext;
  403398:	6882      	ldr	r2, [r0, #8]
  40339a:	6841      	ldr	r1, [r0, #4]
  40339c:	6051      	str	r1, [r2, #4]

	/* Only used during decision coverage testing. */
	mtCOVERAGE_TEST_DELAY();

	/* Make sure the index is left pointing to a valid item. */
	if( pxList->pxIndex == pxItemToRemove )
  40339e:	685a      	ldr	r2, [r3, #4]
  4033a0:	4290      	cmp	r0, r2
  4033a2:	d006      	beq.n	4033b2 <uxListRemove+0x22>
	else
	{
		mtCOVERAGE_TEST_MARKER();
	}

	pxItemToRemove->pvContainer = NULL;
  4033a4:	2200      	movs	r2, #0
  4033a6:	6102      	str	r2, [r0, #16]
	( pxList->uxNumberOfItems )--;
  4033a8:	681a      	ldr	r2, [r3, #0]
  4033aa:	3a01      	subs	r2, #1
  4033ac:	601a      	str	r2, [r3, #0]

	return pxList->uxNumberOfItems;
  4033ae:	6818      	ldr	r0, [r3, #0]
}
  4033b0:	4770      	bx	lr
		pxList->pxIndex = pxItemToRemove->pxPrevious;
  4033b2:	6882      	ldr	r2, [r0, #8]
  4033b4:	605a      	str	r2, [r3, #4]
  4033b6:	e7f5      	b.n	4033a4 <uxListRemove+0x14>
	...

004033c0 <SVC_Handler>:
}
/*-----------------------------------------------------------*/

void vPortSVCHandler( void )
{
	__asm volatile (
  4033c0:	4b07      	ldr	r3, [pc, #28]	; (4033e0 <pxCurrentTCBConst2>)
  4033c2:	6819      	ldr	r1, [r3, #0]
  4033c4:	6808      	ldr	r0, [r1, #0]
  4033c6:	e8b0 4ff0 	ldmia.w	r0!, {r4, r5, r6, r7, r8, r9, sl, fp, lr}
  4033ca:	f380 8809 	msr	PSP, r0
  4033ce:	f3bf 8f6f 	isb	sy
  4033d2:	f04f 0000 	mov.w	r0, #0
  4033d6:	f380 8811 	msr	BASEPRI, r0
  4033da:	4770      	bx	lr
  4033dc:	f3af 8000 	nop.w

004033e0 <pxCurrentTCBConst2>:
  4033e0:	2042816c 	.word	0x2042816c

004033e4 <vPortEnterCritical>:
	__asm volatile
  4033e4:	f04f 0380 	mov.w	r3, #128	; 0x80
  4033e8:	b672      	cpsid	i
  4033ea:	f383 8811 	msr	BASEPRI, r3
  4033ee:	f3bf 8f6f 	isb	sy
  4033f2:	f3bf 8f4f 	dsb	sy
  4033f6:	b662      	cpsie	i
/*-----------------------------------------------------------*/

void vPortEnterCritical( void )
{
	portDISABLE_INTERRUPTS();
	uxCriticalNesting++;
  4033f8:	4a0b      	ldr	r2, [pc, #44]	; (403428 <vPortEnterCritical+0x44>)
  4033fa:	6813      	ldr	r3, [r2, #0]
  4033fc:	3301      	adds	r3, #1
	/* This is not the interrupt safe version of the enter critical function so
	assert() if it is being called from an interrupt context.  Only API
	functions that end in "FromISR" can be used in an interrupt.  Only assert if
	the critical nesting count is 1 to protect against recursive calls if the
	assert function also uses a critical section. */
	if( uxCriticalNesting == 1 )
  4033fe:	2b01      	cmp	r3, #1
	uxCriticalNesting++;
  403400:	6013      	str	r3, [r2, #0]
	if( uxCriticalNesting == 1 )
  403402:	d000      	beq.n	403406 <vPortEnterCritical+0x22>
  403404:	4770      	bx	lr
	{
		configASSERT( ( portNVIC_INT_CTRL_REG & portVECTACTIVE_MASK ) == 0 );
  403406:	4b09      	ldr	r3, [pc, #36]	; (40342c <vPortEnterCritical+0x48>)
  403408:	681b      	ldr	r3, [r3, #0]
  40340a:	f013 0fff 	tst.w	r3, #255	; 0xff
  40340e:	d0f9      	beq.n	403404 <vPortEnterCritical+0x20>
  403410:	f04f 0380 	mov.w	r3, #128	; 0x80
  403414:	b672      	cpsid	i
  403416:	f383 8811 	msr	BASEPRI, r3
  40341a:	f3bf 8f6f 	isb	sy
  40341e:	f3bf 8f4f 	dsb	sy
  403422:	b662      	cpsie	i
  403424:	e7fe      	b.n	403424 <vPortEnterCritical+0x40>
  403426:	bf00      	nop
  403428:	20400030 	.word	0x20400030
  40342c:	e000ed04 	.word	0xe000ed04

00403430 <vPortExitCritical>:
}
/*-----------------------------------------------------------*/

void vPortExitCritical( void )
{
	configASSERT( uxCriticalNesting );
  403430:	4a09      	ldr	r2, [pc, #36]	; (403458 <vPortExitCritical+0x28>)
  403432:	6813      	ldr	r3, [r2, #0]
  403434:	b953      	cbnz	r3, 40344c <vPortExitCritical+0x1c>
  403436:	f04f 0380 	mov.w	r3, #128	; 0x80
  40343a:	b672      	cpsid	i
  40343c:	f383 8811 	msr	BASEPRI, r3
  403440:	f3bf 8f6f 	isb	sy
  403444:	f3bf 8f4f 	dsb	sy
  403448:	b662      	cpsie	i
  40344a:	e7fe      	b.n	40344a <vPortExitCritical+0x1a>
	uxCriticalNesting--;
  40344c:	3b01      	subs	r3, #1
  40344e:	6013      	str	r3, [r2, #0]
	if( uxCriticalNesting == 0 )
  403450:	b90b      	cbnz	r3, 403456 <vPortExitCritical+0x26>
	__asm volatile
  403452:	f383 8811 	msr	BASEPRI, r3
  403456:	4770      	bx	lr
  403458:	20400030 	.word	0x20400030
  40345c:	00000000 	.word	0x00000000

00403460 <PendSV_Handler>:

void xPortPendSVHandler( void )
{
	/* This is a naked function. */

	__asm volatile
  403460:	f3ef 8009 	mrs	r0, PSP
  403464:	f3bf 8f6f 	isb	sy
  403468:	4b15      	ldr	r3, [pc, #84]	; (4034c0 <pxCurrentTCBConst>)
  40346a:	681a      	ldr	r2, [r3, #0]
  40346c:	f01e 0f10 	tst.w	lr, #16
  403470:	bf08      	it	eq
  403472:	ed20 8a10 	vstmdbeq	r0!, {s16-s31}
  403476:	e920 4ff0 	stmdb	r0!, {r4, r5, r6, r7, r8, r9, sl, fp, lr}
  40347a:	6010      	str	r0, [r2, #0]
  40347c:	e92d 0009 	stmdb	sp!, {r0, r3}
  403480:	f04f 0080 	mov.w	r0, #128	; 0x80
  403484:	b672      	cpsid	i
  403486:	f380 8811 	msr	BASEPRI, r0
  40348a:	f3bf 8f4f 	dsb	sy
  40348e:	f3bf 8f6f 	isb	sy
  403492:	b662      	cpsie	i
  403494:	f000 fd7e 	bl	403f94 <vTaskSwitchContext>
  403498:	f04f 0000 	mov.w	r0, #0
  40349c:	f380 8811 	msr	BASEPRI, r0
  4034a0:	bc09      	pop	{r0, r3}
  4034a2:	6819      	ldr	r1, [r3, #0]
  4034a4:	6808      	ldr	r0, [r1, #0]
  4034a6:	e8b0 4ff0 	ldmia.w	r0!, {r4, r5, r6, r7, r8, r9, sl, fp, lr}
  4034aa:	f01e 0f10 	tst.w	lr, #16
  4034ae:	bf08      	it	eq
  4034b0:	ecb0 8a10 	vldmiaeq	r0!, {s16-s31}
  4034b4:	f380 8809 	msr	PSP, r0
  4034b8:	f3bf 8f6f 	isb	sy
  4034bc:	4770      	bx	lr
  4034be:	bf00      	nop

004034c0 <pxCurrentTCBConst>:
  4034c0:	2042816c 	.word	0x2042816c

004034c4 <SysTick_Handler>:
	);
}
/*-----------------------------------------------------------*/

void xPortSysTickHandler( void )
{
  4034c4:	b508      	push	{r3, lr}
	__asm volatile
  4034c6:	f04f 0380 	mov.w	r3, #128	; 0x80
  4034ca:	b672      	cpsid	i
  4034cc:	f383 8811 	msr	BASEPRI, r3
  4034d0:	f3bf 8f6f 	isb	sy
  4034d4:	f3bf 8f4f 	dsb	sy
  4034d8:	b662      	cpsie	i
	save and then restore the interrupt mask value as its value is already
	known. */
	portDISABLE_INTERRUPTS();
	{
		/* Increment the RTOS tick. */
		if( xTaskIncrementTick() != pdFALSE )
  4034da:	4b05      	ldr	r3, [pc, #20]	; (4034f0 <SysTick_Handler+0x2c>)
  4034dc:	4798      	blx	r3
  4034de:	b118      	cbz	r0, 4034e8 <SysTick_Handler+0x24>
		{
			/* A context switch is required.  Context switching is performed in
			the PendSV interrupt.  Pend the PendSV interrupt. */
			portNVIC_INT_CTRL_REG = portNVIC_PENDSVSET_BIT;
  4034e0:	4b04      	ldr	r3, [pc, #16]	; (4034f4 <SysTick_Handler+0x30>)
  4034e2:	f04f 5280 	mov.w	r2, #268435456	; 0x10000000
  4034e6:	601a      	str	r2, [r3, #0]
	__asm volatile
  4034e8:	2300      	movs	r3, #0
  4034ea:	f383 8811 	msr	BASEPRI, r3
  4034ee:	bd08      	pop	{r3, pc}
  4034f0:	00403cdd 	.word	0x00403cdd
  4034f4:	e000ed04 	.word	0xe000ed04

004034f8 <vPortValidateInterruptPriority>:
	{
	uint32_t ulCurrentInterrupt;
	uint8_t ucCurrentPriority;

		/* Obtain the number of the currently executing interrupt. */
		__asm volatile( "mrs %0, ipsr" : "=r"( ulCurrentInterrupt ) :: "memory" );
  4034f8:	f3ef 8305 	mrs	r3, IPSR

		/* Is the interrupt number a user defined interrupt? */
		if( ulCurrentInterrupt >= portFIRST_USER_INTERRUPT_NUMBER )
  4034fc:	2b0f      	cmp	r3, #15
  4034fe:	d910      	bls.n	403522 <vPortValidateInterruptPriority+0x2a>
		{
			/* Look up the interrupt's priority. */
			ucCurrentPriority = pcInterruptPriorityRegisters[ ulCurrentInterrupt ];
  403500:	4912      	ldr	r1, [pc, #72]	; (40354c <vPortValidateInterruptPriority+0x54>)
			interrupt entry is as fast and simple as possible.

			The following links provide detailed information:
			http://www.freertos.org/RTOS-Cortex-M3-M4.html
			http://www.freertos.org/FAQHelp.html */
			configASSERT( ucCurrentPriority >= ucMaxSysCallPriority );
  403502:	4a13      	ldr	r2, [pc, #76]	; (403550 <vPortValidateInterruptPriority+0x58>)
			ucCurrentPriority = pcInterruptPriorityRegisters[ ulCurrentInterrupt ];
  403504:	5c5b      	ldrb	r3, [r3, r1]
			configASSERT( ucCurrentPriority >= ucMaxSysCallPriority );
  403506:	7812      	ldrb	r2, [r2, #0]
  403508:	429a      	cmp	r2, r3
  40350a:	d90a      	bls.n	403522 <vPortValidateInterruptPriority+0x2a>
	__asm volatile
  40350c:	f04f 0380 	mov.w	r3, #128	; 0x80
  403510:	b672      	cpsid	i
  403512:	f383 8811 	msr	BASEPRI, r3
  403516:	f3bf 8f6f 	isb	sy
  40351a:	f3bf 8f4f 	dsb	sy
  40351e:	b662      	cpsie	i
  403520:	e7fe      	b.n	403520 <vPortValidateInterruptPriority+0x28>
		configuration then the correct setting can be achieved on all Cortex-M
		devices by calling NVIC_SetPriorityGrouping( 0 ); before starting the
		scheduler.  Note however that some vendor specific peripheral libraries
		assume a non-zero priority group setting, in which cases using a value
		of zero will result in unpredictable behaviour. */
		configASSERT( ( portAIRCR_REG & portPRIORITY_GROUP_MASK ) <= ulMaxPRIGROUPValue );
  403522:	4b0c      	ldr	r3, [pc, #48]	; (403554 <vPortValidateInterruptPriority+0x5c>)
  403524:	4a0c      	ldr	r2, [pc, #48]	; (403558 <vPortValidateInterruptPriority+0x60>)
  403526:	681b      	ldr	r3, [r3, #0]
  403528:	6812      	ldr	r2, [r2, #0]
  40352a:	f403 63e0 	and.w	r3, r3, #1792	; 0x700
  40352e:	4293      	cmp	r3, r2
  403530:	d90a      	bls.n	403548 <vPortValidateInterruptPriority+0x50>
  403532:	f04f 0380 	mov.w	r3, #128	; 0x80
  403536:	b672      	cpsid	i
  403538:	f383 8811 	msr	BASEPRI, r3
  40353c:	f3bf 8f6f 	isb	sy
  403540:	f3bf 8f4f 	dsb	sy
  403544:	b662      	cpsie	i
  403546:	e7fe      	b.n	403546 <vPortValidateInterruptPriority+0x4e>
  403548:	4770      	bx	lr
  40354a:	bf00      	nop
  40354c:	e000e3f0 	.word	0xe000e3f0
  403550:	20428164 	.word	0x20428164
  403554:	e000ed0c 	.word	0xe000ed0c
  403558:	20428168 	.word	0x20428168

0040355c <prvCopyDataToQueue>:

#endif /* configUSE_MUTEXES */
/*-----------------------------------------------------------*/

static BaseType_t prvCopyDataToQueue( Queue_t * const pxQueue, const void *pvItemToQueue, const BaseType_t xPosition )
{
  40355c:	b570      	push	{r4, r5, r6, lr}
  40355e:	4615      	mov	r5, r2

	/* This function is called from a critical section. */

	uxMessagesWaiting = pxQueue->uxMessagesWaiting;

	if( pxQueue->uxItemSize == ( UBaseType_t ) 0 )
  403560:	6c02      	ldr	r2, [r0, #64]	; 0x40
{
  403562:	4604      	mov	r4, r0
	uxMessagesWaiting = pxQueue->uxMessagesWaiting;
  403564:	6b86      	ldr	r6, [r0, #56]	; 0x38
	if( pxQueue->uxItemSize == ( UBaseType_t ) 0 )
  403566:	b932      	cbnz	r2, 403576 <prvCopyDataToQueue+0x1a>
	{
		#if ( configUSE_MUTEXES == 1 )
		{
			if( pxQueue->uxQueueType == queueQUEUE_IS_MUTEX )
  403568:	6805      	ldr	r5, [r0, #0]
  40356a:	bb35      	cbnz	r5, 4035ba <prvCopyDataToQueue+0x5e>
			{
				/* The mutex is no longer being held. */
				xReturn = xTaskPriorityDisinherit( ( void * ) pxQueue->pxMutexHolder );
  40356c:	6840      	ldr	r0, [r0, #4]
  40356e:	4b16      	ldr	r3, [pc, #88]	; (4035c8 <prvCopyDataToQueue+0x6c>)
  403570:	4798      	blx	r3
				pxQueue->pxMutexHolder = NULL;
  403572:	6065      	str	r5, [r4, #4]
  403574:	e024      	b.n	4035c0 <prvCopyDataToQueue+0x64>
  403576:	4b15      	ldr	r3, [pc, #84]	; (4035cc <prvCopyDataToQueue+0x70>)
				mtCOVERAGE_TEST_MARKER();
			}
		}
		#endif /* configUSE_MUTEXES */
	}
	else if( xPosition == queueSEND_TO_BACK )
  403578:	b965      	cbnz	r5, 403594 <prvCopyDataToQueue+0x38>
	{
		( void ) memcpy( ( void * ) pxQueue->pcWriteTo, pvItemToQueue, ( size_t ) pxQueue->uxItemSize ); /*lint !e961 !e418 MISRA exception as the casts are only redundant for some ports, plus previous logic ensures a null pointer can only be passed to memcpy() if the copy size is 0. */
  40357a:	6880      	ldr	r0, [r0, #8]
  40357c:	4798      	blx	r3
		pxQueue->pcWriteTo += pxQueue->uxItemSize;
  40357e:	68a3      	ldr	r3, [r4, #8]
  403580:	6c21      	ldr	r1, [r4, #64]	; 0x40
		if( pxQueue->pcWriteTo >= pxQueue->pcTail ) /*lint !e946 MISRA exception justified as comparison of pointers is the cleanest solution. */
  403582:	6862      	ldr	r2, [r4, #4]
		pxQueue->pcWriteTo += pxQueue->uxItemSize;
  403584:	440b      	add	r3, r1
		if( pxQueue->pcWriteTo >= pxQueue->pcTail ) /*lint !e946 MISRA exception justified as comparison of pointers is the cleanest solution. */
  403586:	4293      	cmp	r3, r2
		pxQueue->pcWriteTo += pxQueue->uxItemSize;
  403588:	60a3      	str	r3, [r4, #8]
		if( pxQueue->pcWriteTo >= pxQueue->pcTail ) /*lint !e946 MISRA exception justified as comparison of pointers is the cleanest solution. */
  40358a:	d316      	bcc.n	4035ba <prvCopyDataToQueue+0x5e>
		{
			pxQueue->pcWriteTo = pxQueue->pcHead;
  40358c:	6823      	ldr	r3, [r4, #0]
BaseType_t xReturn = pdFALSE;
  40358e:	4628      	mov	r0, r5
			pxQueue->pcWriteTo = pxQueue->pcHead;
  403590:	60a3      	str	r3, [r4, #8]
  403592:	e015      	b.n	4035c0 <prvCopyDataToQueue+0x64>
			mtCOVERAGE_TEST_MARKER();
		}
	}
	else
	{
		( void ) memcpy( ( void * ) pxQueue->u.pcReadFrom, pvItemToQueue, ( size_t ) pxQueue->uxItemSize ); /*lint !e961 MISRA exception as the casts are only redundant for some ports. */
  403594:	68c0      	ldr	r0, [r0, #12]
  403596:	4798      	blx	r3
		pxQueue->u.pcReadFrom -= pxQueue->uxItemSize;
  403598:	6c23      	ldr	r3, [r4, #64]	; 0x40
  40359a:	68e2      	ldr	r2, [r4, #12]
  40359c:	425b      	negs	r3, r3
		if( pxQueue->u.pcReadFrom < pxQueue->pcHead ) /*lint !e946 MISRA exception justified as comparison of pointers is the cleanest solution. */
  40359e:	6821      	ldr	r1, [r4, #0]
		pxQueue->u.pcReadFrom -= pxQueue->uxItemSize;
  4035a0:	441a      	add	r2, r3
		if( pxQueue->u.pcReadFrom < pxQueue->pcHead ) /*lint !e946 MISRA exception justified as comparison of pointers is the cleanest solution. */
  4035a2:	428a      	cmp	r2, r1
		pxQueue->u.pcReadFrom -= pxQueue->uxItemSize;
  4035a4:	60e2      	str	r2, [r4, #12]
		if( pxQueue->u.pcReadFrom < pxQueue->pcHead ) /*lint !e946 MISRA exception justified as comparison of pointers is the cleanest solution. */
  4035a6:	d202      	bcs.n	4035ae <prvCopyDataToQueue+0x52>
		{
			pxQueue->u.pcReadFrom = ( pxQueue->pcTail - pxQueue->uxItemSize );
  4035a8:	6862      	ldr	r2, [r4, #4]
  4035aa:	4413      	add	r3, r2
  4035ac:	60e3      	str	r3, [r4, #12]
		else
		{
			mtCOVERAGE_TEST_MARKER();
		}

		if( xPosition == queueOVERWRITE )
  4035ae:	2d02      	cmp	r5, #2
  4035b0:	d103      	bne.n	4035ba <prvCopyDataToQueue+0x5e>
		{
			if( uxMessagesWaiting > ( UBaseType_t ) 0 )
  4035b2:	b126      	cbz	r6, 4035be <prvCopyDataToQueue+0x62>
			{
				/* An item is not being added but overwritten, so subtract
				one from the recorded number of items in the queue so when
				one is added again below the number of recorded items remains
				correct. */
				--uxMessagesWaiting;
  4035b4:	3e01      	subs	r6, #1
BaseType_t xReturn = pdFALSE;
  4035b6:	2000      	movs	r0, #0
  4035b8:	e002      	b.n	4035c0 <prvCopyDataToQueue+0x64>
  4035ba:	2000      	movs	r0, #0
  4035bc:	e000      	b.n	4035c0 <prvCopyDataToQueue+0x64>
  4035be:	4630      	mov	r0, r6
		{
			mtCOVERAGE_TEST_MARKER();
		}
	}

	pxQueue->uxMessagesWaiting = uxMessagesWaiting + ( UBaseType_t ) 1;
  4035c0:	3601      	adds	r6, #1
  4035c2:	63a6      	str	r6, [r4, #56]	; 0x38

	return xReturn;
}
  4035c4:	bd70      	pop	{r4, r5, r6, pc}
  4035c6:	bf00      	nop
  4035c8:	00404311 	.word	0x00404311
  4035cc:	00405e4d 	.word	0x00405e4d

004035d0 <prvCopyDataFromQueue>:
/*-----------------------------------------------------------*/

static void prvCopyDataFromQueue( Queue_t * const pxQueue, void * const pvBuffer )
{
	if( pxQueue->uxItemSize != ( UBaseType_t ) 0 )
  4035d0:	6c02      	ldr	r2, [r0, #64]	; 0x40
{
  4035d2:	4603      	mov	r3, r0
	if( pxQueue->uxItemSize != ( UBaseType_t ) 0 )
  4035d4:	b172      	cbz	r2, 4035f4 <prvCopyDataFromQueue+0x24>
  4035d6:	4608      	mov	r0, r1
{
  4035d8:	b410      	push	{r4}
	{
		pxQueue->u.pcReadFrom += pxQueue->uxItemSize;
  4035da:	68d9      	ldr	r1, [r3, #12]
		if( pxQueue->u.pcReadFrom >= pxQueue->pcTail ) /*lint !e946 MISRA exception justified as use of the relational operator is the cleanest solutions. */
  4035dc:	685c      	ldr	r4, [r3, #4]
		pxQueue->u.pcReadFrom += pxQueue->uxItemSize;
  4035de:	4411      	add	r1, r2
		if( pxQueue->u.pcReadFrom >= pxQueue->pcTail ) /*lint !e946 MISRA exception justified as use of the relational operator is the cleanest solutions. */
  4035e0:	42a1      	cmp	r1, r4
		pxQueue->u.pcReadFrom += pxQueue->uxItemSize;
  4035e2:	60d9      	str	r1, [r3, #12]
		if( pxQueue->u.pcReadFrom >= pxQueue->pcTail ) /*lint !e946 MISRA exception justified as use of the relational operator is the cleanest solutions. */
  4035e4:	d301      	bcc.n	4035ea <prvCopyDataFromQueue+0x1a>
		{
			pxQueue->u.pcReadFrom = pxQueue->pcHead;
  4035e6:	6819      	ldr	r1, [r3, #0]
  4035e8:	60d9      	str	r1, [r3, #12]
		}
		else
		{
			mtCOVERAGE_TEST_MARKER();
		}
		( void ) memcpy( ( void * ) pvBuffer, ( void * ) pxQueue->u.pcReadFrom, ( size_t ) pxQueue->uxItemSize ); /*lint !e961 !e418 MISRA exception as the casts are only redundant for some ports.  Also previous logic ensures a null pointer can only be passed to memcpy() when the count is 0. */
  4035ea:	68d9      	ldr	r1, [r3, #12]
	}
}
  4035ec:	f85d 4b04 	ldr.w	r4, [sp], #4
		( void ) memcpy( ( void * ) pvBuffer, ( void * ) pxQueue->u.pcReadFrom, ( size_t ) pxQueue->uxItemSize ); /*lint !e961 !e418 MISRA exception as the casts are only redundant for some ports.  Also previous logic ensures a null pointer can only be passed to memcpy() when the count is 0. */
  4035f0:	4b01      	ldr	r3, [pc, #4]	; (4035f8 <prvCopyDataFromQueue+0x28>)
  4035f2:	4718      	bx	r3
  4035f4:	4770      	bx	lr
  4035f6:	bf00      	nop
  4035f8:	00405e4d 	.word	0x00405e4d

004035fc <prvNotifyQueueSetContainer.part.0>:
  4035fc:	f04f 0380 	mov.w	r3, #128	; 0x80
  403600:	b672      	cpsid	i
  403602:	f383 8811 	msr	BASEPRI, r3
  403606:	f3bf 8f6f 	isb	sy
  40360a:	f3bf 8f4f 	dsb	sy
  40360e:	b662      	cpsie	i
  403610:	e7fe      	b.n	403610 <prvNotifyQueueSetContainer.part.0+0x14>
  403612:	bf00      	nop

00403614 <prvNotifyQueueSetContainer>:
/*-----------------------------------------------------------*/

#if ( configUSE_QUEUE_SETS == 1 )

	static BaseType_t prvNotifyQueueSetContainer( const Queue_t * const pxQueue, const BaseType_t xCopyPosition )
	{
  403614:	b570      	push	{r4, r5, r6, lr}
  403616:	b082      	sub	sp, #8
	Queue_t *pxQueueSetContainer = pxQueue->pxQueueSetContainer;
  403618:	6c84      	ldr	r4, [r0, #72]	; 0x48
	{
  40361a:	9001      	str	r0, [sp, #4]
	BaseType_t xReturn = pdFALSE;

		/* This function must be called form a critical section. */

		configASSERT( pxQueueSetContainer );
  40361c:	b1b4      	cbz	r4, 40364c <prvNotifyQueueSetContainer+0x38>
  40361e:	460a      	mov	r2, r1
		configASSERT( pxQueueSetContainer->uxMessagesWaiting < pxQueueSetContainer->uxLength );
  403620:	6be3      	ldr	r3, [r4, #60]	; 0x3c
  403622:	6ba1      	ldr	r1, [r4, #56]	; 0x38
  403624:	4299      	cmp	r1, r3
  403626:	d30a      	bcc.n	40363e <prvNotifyQueueSetContainer+0x2a>
  403628:	f04f 0380 	mov.w	r3, #128	; 0x80
  40362c:	b672      	cpsid	i
  40362e:	f383 8811 	msr	BASEPRI, r3
  403632:	f3bf 8f6f 	isb	sy
  403636:	f3bf 8f4f 	dsb	sy
  40363a:	b662      	cpsie	i
  40363c:	e7fe      	b.n	40363c <prvNotifyQueueSetContainer+0x28>

		if( pxQueueSetContainer->uxMessagesWaiting < pxQueueSetContainer->uxLength )
  40363e:	6ba1      	ldr	r1, [r4, #56]	; 0x38
  403640:	428b      	cmp	r3, r1
  403642:	d805      	bhi.n	403650 <prvNotifyQueueSetContainer+0x3c>
	BaseType_t xReturn = pdFALSE;
  403644:	2600      	movs	r6, #0
		{
			mtCOVERAGE_TEST_MARKER();
		}

		return xReturn;
	}
  403646:	4630      	mov	r0, r6
  403648:	b002      	add	sp, #8
  40364a:	bd70      	pop	{r4, r5, r6, pc}
  40364c:	4b0f      	ldr	r3, [pc, #60]	; (40368c <prvNotifyQueueSetContainer+0x78>)
  40364e:	4798      	blx	r3
			const int8_t cTxLock = pxQueueSetContainer->cTxLock;
  403650:	f894 5045 	ldrb.w	r5, [r4, #69]	; 0x45
			xReturn = prvCopyDataToQueue( pxQueueSetContainer, &pxQueue, xCopyPosition );
  403654:	a901      	add	r1, sp, #4
  403656:	4b0e      	ldr	r3, [pc, #56]	; (403690 <prvNotifyQueueSetContainer+0x7c>)
  403658:	4620      	mov	r0, r4
			const int8_t cTxLock = pxQueueSetContainer->cTxLock;
  40365a:	b26d      	sxtb	r5, r5
			xReturn = prvCopyDataToQueue( pxQueueSetContainer, &pxQueue, xCopyPosition );
  40365c:	4798      	blx	r3
  40365e:	4606      	mov	r6, r0
			if( cTxLock == queueUNLOCKED )
  403660:	1c6b      	adds	r3, r5, #1
  403662:	d006      	beq.n	403672 <prvNotifyQueueSetContainer+0x5e>
				pxQueueSetContainer->cTxLock = ( int8_t ) ( cTxLock + 1 );
  403664:	1c6b      	adds	r3, r5, #1
	}
  403666:	4630      	mov	r0, r6
				pxQueueSetContainer->cTxLock = ( int8_t ) ( cTxLock + 1 );
  403668:	b25b      	sxtb	r3, r3
  40366a:	f884 3045 	strb.w	r3, [r4, #69]	; 0x45
	}
  40366e:	b002      	add	sp, #8
  403670:	bd70      	pop	{r4, r5, r6, pc}
				if( listLIST_IS_EMPTY( &( pxQueueSetContainer->xTasksWaitingToReceive ) ) == pdFALSE )
  403672:	6a63      	ldr	r3, [r4, #36]	; 0x24
  403674:	2b00      	cmp	r3, #0
  403676:	d0e6      	beq.n	403646 <prvNotifyQueueSetContainer+0x32>
					if( xTaskRemoveFromEventList( &( pxQueueSetContainer->xTasksWaitingToReceive ) ) != pdFALSE )
  403678:	f104 0024 	add.w	r0, r4, #36	; 0x24
  40367c:	4b05      	ldr	r3, [pc, #20]	; (403694 <prvNotifyQueueSetContainer+0x80>)
  40367e:	4798      	blx	r3
						xReturn = pdTRUE;
  403680:	2800      	cmp	r0, #0
  403682:	bf18      	it	ne
  403684:	2601      	movne	r6, #1
	}
  403686:	4630      	mov	r0, r6
  403688:	b002      	add	sp, #8
  40368a:	bd70      	pop	{r4, r5, r6, pc}
  40368c:	004035fd 	.word	0x004035fd
  403690:	0040355d 	.word	0x0040355d
  403694:	004040fd 	.word	0x004040fd

00403698 <xQueueReceiveFromISR.part.2>:
BaseType_t xQueueReceiveFromISR( QueueHandle_t xQueue, void * const pvBuffer, BaseType_t * const pxHigherPriorityTaskWoken )
  403698:	e92d 43f8 	stmdb	sp!, {r3, r4, r5, r6, r7, r8, r9, lr}
	portASSERT_IF_INTERRUPT_PRIORITY_INVALID();
  40369c:	4b1c      	ldr	r3, [pc, #112]	; (403710 <xQueueReceiveFromISR.part.2+0x78>)
BaseType_t xQueueReceiveFromISR( QueueHandle_t xQueue, void * const pvBuffer, BaseType_t * const pxHigherPriorityTaskWoken )
  40369e:	4607      	mov	r7, r0
  4036a0:	4689      	mov	r9, r1
  4036a2:	4690      	mov	r8, r2
	portASSERT_IF_INTERRUPT_PRIORITY_INVALID();
  4036a4:	4798      	blx	r3
	__asm volatile
  4036a6:	f3ef 8611 	mrs	r6, BASEPRI
  4036aa:	f04f 0380 	mov.w	r3, #128	; 0x80
  4036ae:	b672      	cpsid	i
  4036b0:	f383 8811 	msr	BASEPRI, r3
  4036b4:	f3bf 8f6f 	isb	sy
  4036b8:	f3bf 8f4f 	dsb	sy
  4036bc:	b662      	cpsie	i
		const UBaseType_t uxMessagesWaiting = pxQueue->uxMessagesWaiting;
  4036be:	6bbc      	ldr	r4, [r7, #56]	; 0x38
		if( uxMessagesWaiting > ( UBaseType_t ) 0 )
  4036c0:	b30c      	cbz	r4, 403706 <xQueueReceiveFromISR.part.2+0x6e>
			const int8_t cRxLock = pxQueue->cRxLock;
  4036c2:	f897 5044 	ldrb.w	r5, [r7, #68]	; 0x44
			prvCopyDataFromQueue( pxQueue, pvBuffer );
  4036c6:	4649      	mov	r1, r9
  4036c8:	4b12      	ldr	r3, [pc, #72]	; (403714 <xQueueReceiveFromISR.part.2+0x7c>)
  4036ca:	4638      	mov	r0, r7
			const int8_t cRxLock = pxQueue->cRxLock;
  4036cc:	b26d      	sxtb	r5, r5
			pxQueue->uxMessagesWaiting = uxMessagesWaiting - ( UBaseType_t ) 1;
  4036ce:	3c01      	subs	r4, #1
			prvCopyDataFromQueue( pxQueue, pvBuffer );
  4036d0:	4798      	blx	r3
			if( cRxLock == queueUNLOCKED )
  4036d2:	1c6b      	adds	r3, r5, #1
			pxQueue->uxMessagesWaiting = uxMessagesWaiting - ( UBaseType_t ) 1;
  4036d4:	63bc      	str	r4, [r7, #56]	; 0x38
			if( cRxLock == queueUNLOCKED )
  4036d6:	d110      	bne.n	4036fa <xQueueReceiveFromISR.part.2+0x62>
				if( listLIST_IS_EMPTY( &( pxQueue->xTasksWaitingToSend ) ) == pdFALSE )
  4036d8:	693b      	ldr	r3, [r7, #16]
  4036da:	b90b      	cbnz	r3, 4036e0 <xQueueReceiveFromISR.part.2+0x48>
			xReturn = pdPASS;
  4036dc:	2001      	movs	r0, #1
  4036de:	e013      	b.n	403708 <xQueueReceiveFromISR.part.2+0x70>
					if( xTaskRemoveFromEventList( &( pxQueue->xTasksWaitingToSend ) ) != pdFALSE )
  4036e0:	f107 0010 	add.w	r0, r7, #16
  4036e4:	4b0c      	ldr	r3, [pc, #48]	; (403718 <xQueueReceiveFromISR.part.2+0x80>)
  4036e6:	4798      	blx	r3
						if( pxHigherPriorityTaskWoken != NULL )
  4036e8:	f1b8 0f00 	cmp.w	r8, #0
  4036ec:	d0f6      	beq.n	4036dc <xQueueReceiveFromISR.part.2+0x44>
  4036ee:	2800      	cmp	r0, #0
  4036f0:	d0f4      	beq.n	4036dc <xQueueReceiveFromISR.part.2+0x44>
							*pxHigherPriorityTaskWoken = pdTRUE;
  4036f2:	2001      	movs	r0, #1
  4036f4:	f8c8 0000 	str.w	r0, [r8]
  4036f8:	e006      	b.n	403708 <xQueueReceiveFromISR.part.2+0x70>
				pxQueue->cRxLock = ( int8_t ) ( cRxLock + 1 );
  4036fa:	3501      	adds	r5, #1
			xReturn = pdPASS;
  4036fc:	2001      	movs	r0, #1
				pxQueue->cRxLock = ( int8_t ) ( cRxLock + 1 );
  4036fe:	b26d      	sxtb	r5, r5
  403700:	f887 5044 	strb.w	r5, [r7, #68]	; 0x44
  403704:	e000      	b.n	403708 <xQueueReceiveFromISR.part.2+0x70>
			xReturn = pdFAIL;
  403706:	4620      	mov	r0, r4
	__asm volatile
  403708:	f386 8811 	msr	BASEPRI, r6
}
  40370c:	e8bd 83f8 	ldmia.w	sp!, {r3, r4, r5, r6, r7, r8, r9, pc}
  403710:	004034f9 	.word	0x004034f9
  403714:	004035d1 	.word	0x004035d1
  403718:	004040fd 	.word	0x004040fd

0040371c <prvUnlockQueue>:
{
  40371c:	e92d 4ff0 	stmdb	sp!, {r4, r5, r6, r7, r8, r9, sl, fp, lr}
  403720:	4604      	mov	r4, r0
  403722:	b083      	sub	sp, #12
	taskENTER_CRITICAL();
  403724:	f8df 80ec 	ldr.w	r8, [pc, #236]	; 403814 <prvUnlockQueue+0xf8>
  403728:	47c0      	blx	r8
		int8_t cTxLock = pxQueue->cTxLock;
  40372a:	f894 7045 	ldrb.w	r7, [r4, #69]	; 0x45
  40372e:	b27f      	sxtb	r7, r7
		while( cTxLock > queueLOCKED_UNMODIFIED )
  403730:	2f00      	cmp	r7, #0
  403732:	dd1e      	ble.n	403772 <prvUnlockQueue+0x56>
						if( xTaskRemoveFromEventList( &( pxQueue->xTasksWaitingToReceive ) ) != pdFALSE )
  403734:	f8df 90e0 	ldr.w	r9, [pc, #224]	; 403818 <prvUnlockQueue+0xfc>
						vTaskMissedYield();
  403738:	f8df b0d0 	ldr.w	fp, [pc, #208]	; 40380c <prvUnlockQueue+0xf0>
				if( pxQueue->pxQueueSetContainer != NULL )
  40373c:	6ca5      	ldr	r5, [r4, #72]	; 0x48
  40373e:	2d00      	cmp	r5, #0
  403740:	d03c      	beq.n	4037bc <prvUnlockQueue+0xa0>
		configASSERT( pxQueueSetContainer->uxMessagesWaiting < pxQueueSetContainer->uxLength );
  403742:	6baa      	ldr	r2, [r5, #56]	; 0x38
  403744:	6beb      	ldr	r3, [r5, #60]	; 0x3c
  403746:	9401      	str	r4, [sp, #4]
  403748:	429a      	cmp	r2, r3
  40374a:	d30a      	bcc.n	403762 <prvUnlockQueue+0x46>
	__asm volatile
  40374c:	f04f 0380 	mov.w	r3, #128	; 0x80
  403750:	b672      	cpsid	i
  403752:	f383 8811 	msr	BASEPRI, r3
  403756:	f3bf 8f6f 	isb	sy
  40375a:	f3bf 8f4f 	dsb	sy
  40375e:	b662      	cpsie	i
  403760:	e7fe      	b.n	403760 <prvUnlockQueue+0x44>
		if( pxQueueSetContainer->uxMessagesWaiting < pxQueueSetContainer->uxLength )
  403762:	6baa      	ldr	r2, [r5, #56]	; 0x38
  403764:	4293      	cmp	r3, r2
  403766:	d833      	bhi.n	4037d0 <prvUnlockQueue+0xb4>
  403768:	1e7b      	subs	r3, r7, #1
  40376a:	b2db      	uxtb	r3, r3
  40376c:	b25f      	sxtb	r7, r3
		while( cTxLock > queueLOCKED_UNMODIFIED )
  40376e:	2b00      	cmp	r3, #0
  403770:	d1e4      	bne.n	40373c <prvUnlockQueue+0x20>
		pxQueue->cTxLock = queueUNLOCKED;
  403772:	23ff      	movs	r3, #255	; 0xff
	taskEXIT_CRITICAL();
  403774:	4e24      	ldr	r6, [pc, #144]	; (403808 <prvUnlockQueue+0xec>)
		pxQueue->cTxLock = queueUNLOCKED;
  403776:	f884 3045 	strb.w	r3, [r4, #69]	; 0x45
	taskEXIT_CRITICAL();
  40377a:	47b0      	blx	r6
	taskENTER_CRITICAL();
  40377c:	47c0      	blx	r8
		int8_t cRxLock = pxQueue->cRxLock;
  40377e:	f894 5044 	ldrb.w	r5, [r4, #68]	; 0x44
  403782:	b26d      	sxtb	r5, r5
		while( cRxLock > queueLOCKED_UNMODIFIED )
  403784:	2d00      	cmp	r5, #0
  403786:	dd12      	ble.n	4037ae <prvUnlockQueue+0x92>
			if( listLIST_IS_EMPTY( &( pxQueue->xTasksWaitingToSend ) ) == pdFALSE )
  403788:	6923      	ldr	r3, [r4, #16]
  40378a:	b183      	cbz	r3, 4037ae <prvUnlockQueue+0x92>
  40378c:	f104 0910 	add.w	r9, r4, #16
  403790:	f8df 8084 	ldr.w	r8, [pc, #132]	; 403818 <prvUnlockQueue+0xfc>
					vTaskMissedYield();
  403794:	4f1d      	ldr	r7, [pc, #116]	; (40380c <prvUnlockQueue+0xf0>)
  403796:	e001      	b.n	40379c <prvUnlockQueue+0x80>
			if( listLIST_IS_EMPTY( &( pxQueue->xTasksWaitingToSend ) ) == pdFALSE )
  403798:	6923      	ldr	r3, [r4, #16]
  40379a:	b143      	cbz	r3, 4037ae <prvUnlockQueue+0x92>
				if( xTaskRemoveFromEventList( &( pxQueue->xTasksWaitingToSend ) ) != pdFALSE )
  40379c:	4648      	mov	r0, r9
  40379e:	47c0      	blx	r8
  4037a0:	b100      	cbz	r0, 4037a4 <prvUnlockQueue+0x88>
					vTaskMissedYield();
  4037a2:	47b8      	blx	r7
  4037a4:	3d01      	subs	r5, #1
  4037a6:	b2eb      	uxtb	r3, r5
  4037a8:	b25d      	sxtb	r5, r3
		while( cRxLock > queueLOCKED_UNMODIFIED )
  4037aa:	2b00      	cmp	r3, #0
  4037ac:	d1f4      	bne.n	403798 <prvUnlockQueue+0x7c>
		pxQueue->cRxLock = queueUNLOCKED;
  4037ae:	23ff      	movs	r3, #255	; 0xff
  4037b0:	f884 3044 	strb.w	r3, [r4, #68]	; 0x44
	taskEXIT_CRITICAL();
  4037b4:	47b0      	blx	r6
}
  4037b6:	b003      	add	sp, #12
  4037b8:	e8bd 8ff0 	ldmia.w	sp!, {r4, r5, r6, r7, r8, r9, sl, fp, pc}
					if( listLIST_IS_EMPTY( &( pxQueue->xTasksWaitingToReceive ) ) == pdFALSE )
  4037bc:	6a63      	ldr	r3, [r4, #36]	; 0x24
  4037be:	2b00      	cmp	r3, #0
  4037c0:	d0d7      	beq.n	403772 <prvUnlockQueue+0x56>
						if( xTaskRemoveFromEventList( &( pxQueue->xTasksWaitingToReceive ) ) != pdFALSE )
  4037c2:	f104 0024 	add.w	r0, r4, #36	; 0x24
  4037c6:	47c8      	blx	r9
  4037c8:	2800      	cmp	r0, #0
  4037ca:	d0cd      	beq.n	403768 <prvUnlockQueue+0x4c>
						vTaskMissedYield();
  4037cc:	47d8      	blx	fp
  4037ce:	e7cb      	b.n	403768 <prvUnlockQueue+0x4c>
			const int8_t cTxLock = pxQueueSetContainer->cTxLock;
  4037d0:	f895 6045 	ldrb.w	r6, [r5, #69]	; 0x45
			xReturn = prvCopyDataToQueue( pxQueueSetContainer, &pxQueue, xCopyPosition );
  4037d4:	2200      	movs	r2, #0
  4037d6:	4b0e      	ldr	r3, [pc, #56]	; (403810 <prvUnlockQueue+0xf4>)
  4037d8:	a901      	add	r1, sp, #4
			const int8_t cTxLock = pxQueueSetContainer->cTxLock;
  4037da:	b276      	sxtb	r6, r6
			xReturn = prvCopyDataToQueue( pxQueueSetContainer, &pxQueue, xCopyPosition );
  4037dc:	4628      	mov	r0, r5
  4037de:	4798      	blx	r3
  4037e0:	4682      	mov	sl, r0
			if( cTxLock == queueUNLOCKED )
  4037e2:	1c73      	adds	r3, r6, #1
  4037e4:	d007      	beq.n	4037f6 <prvUnlockQueue+0xda>
				pxQueueSetContainer->cTxLock = ( int8_t ) ( cTxLock + 1 );
  4037e6:	1c73      	adds	r3, r6, #1
  4037e8:	b25b      	sxtb	r3, r3
  4037ea:	f885 3045 	strb.w	r3, [r5, #69]	; 0x45
					if( prvNotifyQueueSetContainer( pxQueue, queueSEND_TO_BACK ) != pdFALSE )
  4037ee:	f1ba 0f00 	cmp.w	sl, #0
  4037f2:	d0b9      	beq.n	403768 <prvUnlockQueue+0x4c>
  4037f4:	e7ea      	b.n	4037cc <prvUnlockQueue+0xb0>
				if( listLIST_IS_EMPTY( &( pxQueueSetContainer->xTasksWaitingToReceive ) ) == pdFALSE )
  4037f6:	6a6b      	ldr	r3, [r5, #36]	; 0x24
  4037f8:	2b00      	cmp	r3, #0
  4037fa:	d0f8      	beq.n	4037ee <prvUnlockQueue+0xd2>
					if( xTaskRemoveFromEventList( &( pxQueueSetContainer->xTasksWaitingToReceive ) ) != pdFALSE )
  4037fc:	f105 0024 	add.w	r0, r5, #36	; 0x24
  403800:	47c8      	blx	r9
  403802:	2800      	cmp	r0, #0
  403804:	d0f3      	beq.n	4037ee <prvUnlockQueue+0xd2>
  403806:	e7e1      	b.n	4037cc <prvUnlockQueue+0xb0>
  403808:	00403431 	.word	0x00403431
  40380c:	004042e5 	.word	0x004042e5
  403810:	0040355d 	.word	0x0040355d
  403814:	004033e5 	.word	0x004033e5
  403818:	004040fd 	.word	0x004040fd

0040381c <xQueueGenericSend>:
{
  40381c:	e92d 4ff0 	stmdb	sp!, {r4, r5, r6, r7, r8, r9, sl, fp, lr}
  403820:	b085      	sub	sp, #20
  403822:	9201      	str	r2, [sp, #4]
	configASSERT( pxQueue );
  403824:	2800      	cmp	r0, #0
  403826:	f000 80b8 	beq.w	40399a <xQueueGenericSend+0x17e>
	configASSERT( !( ( pvItemToQueue == NULL ) && ( pxQueue->uxItemSize != ( UBaseType_t ) 0U ) ) );
  40382a:	2900      	cmp	r1, #0
  40382c:	f000 80a6 	beq.w	40397c <xQueueGenericSend+0x160>
	configASSERT( !( ( xCopyPosition == queueOVERWRITE ) && ( pxQueue->uxLength != 1 ) ) );
  403830:	2b02      	cmp	r3, #2
  403832:	f000 8094 	beq.w	40395e <xQueueGenericSend+0x142>
  403836:	461e      	mov	r6, r3
		configASSERT( !( ( xTaskGetSchedulerState() == taskSCHEDULER_SUSPENDED ) && ( xTicksToWait != 0 ) ) );
  403838:	4b65      	ldr	r3, [pc, #404]	; (4039d0 <xQueueGenericSend+0x1b4>)
  40383a:	4604      	mov	r4, r0
  40383c:	4688      	mov	r8, r1
  40383e:	4798      	blx	r3
  403840:	b910      	cbnz	r0, 403848 <xQueueGenericSend+0x2c>
  403842:	9b01      	ldr	r3, [sp, #4]
  403844:	2b00      	cmp	r3, #0
  403846:	d178      	bne.n	40393a <xQueueGenericSend+0x11e>
  403848:	f1a6 0502 	sub.w	r5, r6, #2
{
  40384c:	f04f 0a00 	mov.w	sl, #0
  403850:	f8df 91a8 	ldr.w	r9, [pc, #424]	; 4039fc <xQueueGenericSend+0x1e0>
  403854:	fab5 f585 	clz	r5, r5
  403858:	4f5e      	ldr	r7, [pc, #376]	; (4039d4 <xQueueGenericSend+0x1b8>)
					vTaskInternalSetTimeOutState( &xTimeOut );
  40385a:	f8df b1a4 	ldr.w	fp, [pc, #420]	; 403a00 <xQueueGenericSend+0x1e4>
  40385e:	096d      	lsrs	r5, r5, #5
  403860:	e024      	b.n	4038ac <xQueueGenericSend+0x90>
  403862:	f10d 0a08 	add.w	sl, sp, #8
		taskEXIT_CRITICAL();
  403866:	47b8      	blx	r7
		vTaskSuspendAll();
  403868:	4b5b      	ldr	r3, [pc, #364]	; (4039d8 <xQueueGenericSend+0x1bc>)
  40386a:	4798      	blx	r3
		prvLockQueue( pxQueue );
  40386c:	47c8      	blx	r9
  40386e:	f894 3044 	ldrb.w	r3, [r4, #68]	; 0x44
  403872:	2bff      	cmp	r3, #255	; 0xff
  403874:	f000 80a7 	beq.w	4039c6 <xQueueGenericSend+0x1aa>
  403878:	f894 3045 	ldrb.w	r3, [r4, #69]	; 0x45
  40387c:	2bff      	cmp	r3, #255	; 0xff
  40387e:	f000 809e 	beq.w	4039be <xQueueGenericSend+0x1a2>
  403882:	47b8      	blx	r7
		if( xTaskCheckForTimeOut( &xTimeOut, &xTicksToWait ) == pdFALSE )
  403884:	4650      	mov	r0, sl
  403886:	a901      	add	r1, sp, #4
  403888:	4b54      	ldr	r3, [pc, #336]	; (4039dc <xQueueGenericSend+0x1c0>)
  40388a:	4798      	blx	r3
  40388c:	2800      	cmp	r0, #0
  40388e:	f040 808f 	bne.w	4039b0 <xQueueGenericSend+0x194>
	taskENTER_CRITICAL();
  403892:	47c8      	blx	r9
		if( pxQueue->uxMessagesWaiting == pxQueue->uxLength )
  403894:	6ba2      	ldr	r2, [r4, #56]	; 0x38
  403896:	6be3      	ldr	r3, [r4, #60]	; 0x3c
  403898:	429a      	cmp	r2, r3
  40389a:	d017      	beq.n	4038cc <xQueueGenericSend+0xb0>
	taskEXIT_CRITICAL();
  40389c:	47b8      	blx	r7
				prvUnlockQueue( pxQueue );
  40389e:	4b50      	ldr	r3, [pc, #320]	; (4039e0 <xQueueGenericSend+0x1c4>)
  4038a0:	4620      	mov	r0, r4
  4038a2:	4798      	blx	r3
				( void ) xTaskResumeAll();
  4038a4:	4b4f      	ldr	r3, [pc, #316]	; (4039e4 <xQueueGenericSend+0x1c8>)
  4038a6:	4798      	blx	r3
  4038a8:	f04f 0a01 	mov.w	sl, #1
		taskENTER_CRITICAL();
  4038ac:	47c8      	blx	r9
			if( ( pxQueue->uxMessagesWaiting < pxQueue->uxLength ) || ( xCopyPosition == queueOVERWRITE ) )
  4038ae:	6ba2      	ldr	r2, [r4, #56]	; 0x38
  4038b0:	6be3      	ldr	r3, [r4, #60]	; 0x3c
  4038b2:	429a      	cmp	r2, r3
  4038b4:	d325      	bcc.n	403902 <xQueueGenericSend+0xe6>
  4038b6:	bb25      	cbnz	r5, 403902 <xQueueGenericSend+0xe6>
				if( xTicksToWait == ( TickType_t ) 0 )
  4038b8:	9b01      	ldr	r3, [sp, #4]
  4038ba:	b1eb      	cbz	r3, 4038f8 <xQueueGenericSend+0xdc>
				else if( xEntryTimeSet == pdFALSE )
  4038bc:	f1ba 0f00 	cmp.w	sl, #0
  4038c0:	d1cf      	bne.n	403862 <xQueueGenericSend+0x46>
					vTaskInternalSetTimeOutState( &xTimeOut );
  4038c2:	f10d 0a08 	add.w	sl, sp, #8
  4038c6:	4650      	mov	r0, sl
  4038c8:	47d8      	blx	fp
  4038ca:	e7cc      	b.n	403866 <xQueueGenericSend+0x4a>
	taskEXIT_CRITICAL();
  4038cc:	47b8      	blx	r7
				vTaskPlaceOnEventList( &( pxQueue->xTasksWaitingToSend ), xTicksToWait );
  4038ce:	9901      	ldr	r1, [sp, #4]
  4038d0:	f104 0010 	add.w	r0, r4, #16
  4038d4:	4b44      	ldr	r3, [pc, #272]	; (4039e8 <xQueueGenericSend+0x1cc>)
  4038d6:	4798      	blx	r3
				prvUnlockQueue( pxQueue );
  4038d8:	4b41      	ldr	r3, [pc, #260]	; (4039e0 <xQueueGenericSend+0x1c4>)
  4038da:	4620      	mov	r0, r4
  4038dc:	4798      	blx	r3
				if( xTaskResumeAll() == pdFALSE )
  4038de:	4b41      	ldr	r3, [pc, #260]	; (4039e4 <xQueueGenericSend+0x1c8>)
  4038e0:	4798      	blx	r3
  4038e2:	2800      	cmp	r0, #0
  4038e4:	d1e0      	bne.n	4038a8 <xQueueGenericSend+0x8c>
					portYIELD_WITHIN_API();
  4038e6:	f04f 5380 	mov.w	r3, #268435456	; 0x10000000
  4038ea:	4a40      	ldr	r2, [pc, #256]	; (4039ec <xQueueGenericSend+0x1d0>)
  4038ec:	6013      	str	r3, [r2, #0]
  4038ee:	f3bf 8f4f 	dsb	sy
  4038f2:	f3bf 8f6f 	isb	sy
  4038f6:	e7d7      	b.n	4038a8 <xQueueGenericSend+0x8c>
					taskEXIT_CRITICAL();
  4038f8:	47b8      	blx	r7
					return errQUEUE_FULL;
  4038fa:	4628      	mov	r0, r5
}
  4038fc:	b005      	add	sp, #20
  4038fe:	e8bd 8ff0 	ldmia.w	sp!, {r4, r5, r6, r7, r8, r9, sl, fp, pc}
				xYieldRequired = prvCopyDataToQueue( pxQueue, pvItemToQueue, xCopyPosition );
  403902:	4b3b      	ldr	r3, [pc, #236]	; (4039f0 <xQueueGenericSend+0x1d4>)
  403904:	4641      	mov	r1, r8
  403906:	4632      	mov	r2, r6
  403908:	4620      	mov	r0, r4
  40390a:	4798      	blx	r3
					if( pxQueue->pxQueueSetContainer != NULL )
  40390c:	6ca3      	ldr	r3, [r4, #72]	; 0x48
  40390e:	b17b      	cbz	r3, 403930 <xQueueGenericSend+0x114>
						if( prvNotifyQueueSetContainer( pxQueue, xCopyPosition ) != pdFALSE )
  403910:	4631      	mov	r1, r6
  403912:	4620      	mov	r0, r4
  403914:	4b37      	ldr	r3, [pc, #220]	; (4039f4 <xQueueGenericSend+0x1d8>)
  403916:	4798      	blx	r3
  403918:	b138      	cbz	r0, 40392a <xQueueGenericSend+0x10e>
							queueYIELD_IF_USING_PREEMPTION();
  40391a:	4b34      	ldr	r3, [pc, #208]	; (4039ec <xQueueGenericSend+0x1d0>)
  40391c:	f04f 5280 	mov.w	r2, #268435456	; 0x10000000
  403920:	601a      	str	r2, [r3, #0]
  403922:	f3bf 8f4f 	dsb	sy
  403926:	f3bf 8f6f 	isb	sy
				taskEXIT_CRITICAL();
  40392a:	47b8      	blx	r7
				return pdPASS;
  40392c:	2001      	movs	r0, #1
  40392e:	e7e5      	b.n	4038fc <xQueueGenericSend+0xe0>
						if( listLIST_IS_EMPTY( &( pxQueue->xTasksWaitingToReceive ) ) == pdFALSE )
  403930:	6a63      	ldr	r3, [r4, #36]	; 0x24
  403932:	b96b      	cbnz	r3, 403950 <xQueueGenericSend+0x134>
						else if( xYieldRequired != pdFALSE )
  403934:	2800      	cmp	r0, #0
  403936:	d1f0      	bne.n	40391a <xQueueGenericSend+0xfe>
  403938:	e7f7      	b.n	40392a <xQueueGenericSend+0x10e>
  40393a:	f04f 0380 	mov.w	r3, #128	; 0x80
  40393e:	b672      	cpsid	i
  403940:	f383 8811 	msr	BASEPRI, r3
  403944:	f3bf 8f6f 	isb	sy
  403948:	f3bf 8f4f 	dsb	sy
  40394c:	b662      	cpsie	i
  40394e:	e7fe      	b.n	40394e <xQueueGenericSend+0x132>
							if( xTaskRemoveFromEventList( &( pxQueue->xTasksWaitingToReceive ) ) != pdFALSE )
  403950:	f104 0024 	add.w	r0, r4, #36	; 0x24
  403954:	4b28      	ldr	r3, [pc, #160]	; (4039f8 <xQueueGenericSend+0x1dc>)
  403956:	4798      	blx	r3
  403958:	2800      	cmp	r0, #0
  40395a:	d1de      	bne.n	40391a <xQueueGenericSend+0xfe>
  40395c:	e7e5      	b.n	40392a <xQueueGenericSend+0x10e>
	configASSERT( !( ( xCopyPosition == queueOVERWRITE ) && ( pxQueue->uxLength != 1 ) ) );
  40395e:	6bc2      	ldr	r2, [r0, #60]	; 0x3c
  403960:	2a01      	cmp	r2, #1
  403962:	f43f af68 	beq.w	403836 <xQueueGenericSend+0x1a>
  403966:	f04f 0380 	mov.w	r3, #128	; 0x80
  40396a:	b672      	cpsid	i
  40396c:	f383 8811 	msr	BASEPRI, r3
  403970:	f3bf 8f6f 	isb	sy
  403974:	f3bf 8f4f 	dsb	sy
  403978:	b662      	cpsie	i
  40397a:	e7fe      	b.n	40397a <xQueueGenericSend+0x15e>
	configASSERT( !( ( pvItemToQueue == NULL ) && ( pxQueue->uxItemSize != ( UBaseType_t ) 0U ) ) );
  40397c:	6c02      	ldr	r2, [r0, #64]	; 0x40
  40397e:	2a00      	cmp	r2, #0
  403980:	f43f af56 	beq.w	403830 <xQueueGenericSend+0x14>
  403984:	f04f 0380 	mov.w	r3, #128	; 0x80
  403988:	b672      	cpsid	i
  40398a:	f383 8811 	msr	BASEPRI, r3
  40398e:	f3bf 8f6f 	isb	sy
  403992:	f3bf 8f4f 	dsb	sy
  403996:	b662      	cpsie	i
  403998:	e7fe      	b.n	403998 <xQueueGenericSend+0x17c>
  40399a:	f04f 0380 	mov.w	r3, #128	; 0x80
  40399e:	b672      	cpsid	i
  4039a0:	f383 8811 	msr	BASEPRI, r3
  4039a4:	f3bf 8f6f 	isb	sy
  4039a8:	f3bf 8f4f 	dsb	sy
  4039ac:	b662      	cpsie	i
  4039ae:	e7fe      	b.n	4039ae <xQueueGenericSend+0x192>
			prvUnlockQueue( pxQueue );
  4039b0:	4620      	mov	r0, r4
  4039b2:	4b0b      	ldr	r3, [pc, #44]	; (4039e0 <xQueueGenericSend+0x1c4>)
  4039b4:	4798      	blx	r3
			( void ) xTaskResumeAll();
  4039b6:	4b0b      	ldr	r3, [pc, #44]	; (4039e4 <xQueueGenericSend+0x1c8>)
  4039b8:	4798      	blx	r3
			return errQUEUE_FULL;
  4039ba:	2000      	movs	r0, #0
  4039bc:	e79e      	b.n	4038fc <xQueueGenericSend+0xe0>
		prvLockQueue( pxQueue );
  4039be:	2300      	movs	r3, #0
  4039c0:	f884 3045 	strb.w	r3, [r4, #69]	; 0x45
  4039c4:	e75d      	b.n	403882 <xQueueGenericSend+0x66>
  4039c6:	2300      	movs	r3, #0
  4039c8:	f884 3044 	strb.w	r3, [r4, #68]	; 0x44
  4039cc:	e754      	b.n	403878 <xQueueGenericSend+0x5c>
  4039ce:	bf00      	nop
  4039d0:	004042f1 	.word	0x004042f1
  4039d4:	00403431 	.word	0x00403431
  4039d8:	00403cb9 	.word	0x00403cb9
  4039dc:	00404241 	.word	0x00404241
  4039e0:	0040371d 	.word	0x0040371d
  4039e4:	00403e59 	.word	0x00403e59
  4039e8:	00404045 	.word	0x00404045
  4039ec:	e000ed04 	.word	0xe000ed04
  4039f0:	0040355d 	.word	0x0040355d
  4039f4:	00403615 	.word	0x00403615
  4039f8:	004040fd 	.word	0x004040fd
  4039fc:	004033e5 	.word	0x004033e5
  403a00:	00404229 	.word	0x00404229

00403a04 <xQueueGenericSendFromISR>:
{
  403a04:	e92d 43f8 	stmdb	sp!, {r3, r4, r5, r6, r7, r8, r9, lr}
	configASSERT( pxQueue );
  403a08:	b318      	cbz	r0, 403a52 <xQueueGenericSendFromISR+0x4e>
	configASSERT( !( ( pvItemToQueue == NULL ) && ( pxQueue->uxItemSize != ( UBaseType_t ) 0U ) ) );
  403a0a:	2900      	cmp	r1, #0
  403a0c:	d04a      	beq.n	403aa4 <xQueueGenericSendFromISR+0xa0>
	configASSERT( !( ( xCopyPosition == queueOVERWRITE ) && ( pxQueue->uxLength != 1 ) ) );
  403a0e:	2b02      	cmp	r3, #2
  403a10:	d03a      	beq.n	403a88 <xQueueGenericSendFromISR+0x84>
  403a12:	461f      	mov	r7, r3
	portASSERT_IF_INTERRUPT_PRIORITY_INVALID();
  403a14:	4b38      	ldr	r3, [pc, #224]	; (403af8 <xQueueGenericSendFromISR+0xf4>)
  403a16:	4604      	mov	r4, r0
  403a18:	4690      	mov	r8, r2
  403a1a:	4689      	mov	r9, r1
  403a1c:	4798      	blx	r3
	__asm volatile
  403a1e:	f3ef 8611 	mrs	r6, BASEPRI
  403a22:	f04f 0380 	mov.w	r3, #128	; 0x80
  403a26:	b672      	cpsid	i
  403a28:	f383 8811 	msr	BASEPRI, r3
  403a2c:	f3bf 8f6f 	isb	sy
  403a30:	f3bf 8f4f 	dsb	sy
  403a34:	b662      	cpsie	i
		if( ( pxQueue->uxMessagesWaiting < pxQueue->uxLength ) || ( xCopyPosition == queueOVERWRITE ) )
  403a36:	6ba2      	ldr	r2, [r4, #56]	; 0x38
  403a38:	6be3      	ldr	r3, [r4, #60]	; 0x3c
  403a3a:	429a      	cmp	r2, r3
  403a3c:	d314      	bcc.n	403a68 <xQueueGenericSendFromISR+0x64>
  403a3e:	f1a7 0002 	sub.w	r0, r7, #2
  403a42:	fab0 f080 	clz	r0, r0
  403a46:	0940      	lsrs	r0, r0, #5
  403a48:	b970      	cbnz	r0, 403a68 <xQueueGenericSendFromISR+0x64>
	__asm volatile
  403a4a:	f386 8811 	msr	BASEPRI, r6
}
  403a4e:	e8bd 83f8 	ldmia.w	sp!, {r3, r4, r5, r6, r7, r8, r9, pc}
	__asm volatile
  403a52:	f04f 0380 	mov.w	r3, #128	; 0x80
  403a56:	b672      	cpsid	i
  403a58:	f383 8811 	msr	BASEPRI, r3
  403a5c:	f3bf 8f6f 	isb	sy
  403a60:	f3bf 8f4f 	dsb	sy
  403a64:	b662      	cpsie	i
  403a66:	e7fe      	b.n	403a66 <xQueueGenericSendFromISR+0x62>
			const int8_t cTxLock = pxQueue->cTxLock;
  403a68:	f894 5045 	ldrb.w	r5, [r4, #69]	; 0x45
			( void ) prvCopyDataToQueue( pxQueue, pvItemToQueue, xCopyPosition );
  403a6c:	4649      	mov	r1, r9
  403a6e:	4b23      	ldr	r3, [pc, #140]	; (403afc <xQueueGenericSendFromISR+0xf8>)
  403a70:	463a      	mov	r2, r7
			const int8_t cTxLock = pxQueue->cTxLock;
  403a72:	b26d      	sxtb	r5, r5
			( void ) prvCopyDataToQueue( pxQueue, pvItemToQueue, xCopyPosition );
  403a74:	4620      	mov	r0, r4
  403a76:	4798      	blx	r3
			if( cTxLock == queueUNLOCKED )
  403a78:	1c6b      	adds	r3, r5, #1
  403a7a:	d021      	beq.n	403ac0 <xQueueGenericSendFromISR+0xbc>
				pxQueue->cTxLock = ( int8_t ) ( cTxLock + 1 );
  403a7c:	1c6b      	adds	r3, r5, #1
			xReturn = pdPASS;
  403a7e:	2001      	movs	r0, #1
				pxQueue->cTxLock = ( int8_t ) ( cTxLock + 1 );
  403a80:	b25b      	sxtb	r3, r3
  403a82:	f884 3045 	strb.w	r3, [r4, #69]	; 0x45
  403a86:	e7e0      	b.n	403a4a <xQueueGenericSendFromISR+0x46>
	configASSERT( !( ( xCopyPosition == queueOVERWRITE ) && ( pxQueue->uxLength != 1 ) ) );
  403a88:	6bc4      	ldr	r4, [r0, #60]	; 0x3c
  403a8a:	2c01      	cmp	r4, #1
  403a8c:	d0c1      	beq.n	403a12 <xQueueGenericSendFromISR+0xe>
  403a8e:	f04f 0380 	mov.w	r3, #128	; 0x80
  403a92:	b672      	cpsid	i
  403a94:	f383 8811 	msr	BASEPRI, r3
  403a98:	f3bf 8f6f 	isb	sy
  403a9c:	f3bf 8f4f 	dsb	sy
  403aa0:	b662      	cpsie	i
  403aa2:	e7fe      	b.n	403aa2 <xQueueGenericSendFromISR+0x9e>
	configASSERT( !( ( pvItemToQueue == NULL ) && ( pxQueue->uxItemSize != ( UBaseType_t ) 0U ) ) );
  403aa4:	6c04      	ldr	r4, [r0, #64]	; 0x40
  403aa6:	2c00      	cmp	r4, #0
  403aa8:	d0b1      	beq.n	403a0e <xQueueGenericSendFromISR+0xa>
  403aaa:	f04f 0380 	mov.w	r3, #128	; 0x80
  403aae:	b672      	cpsid	i
  403ab0:	f383 8811 	msr	BASEPRI, r3
  403ab4:	f3bf 8f6f 	isb	sy
  403ab8:	f3bf 8f4f 	dsb	sy
  403abc:	b662      	cpsie	i
  403abe:	e7fe      	b.n	403abe <xQueueGenericSendFromISR+0xba>
					if( pxQueue->pxQueueSetContainer != NULL )
  403ac0:	6ca3      	ldr	r3, [r4, #72]	; 0x48
  403ac2:	b15b      	cbz	r3, 403adc <xQueueGenericSendFromISR+0xd8>
						if( prvNotifyQueueSetContainer( pxQueue, xCopyPosition ) != pdFALSE )
  403ac4:	4639      	mov	r1, r7
  403ac6:	4620      	mov	r0, r4
  403ac8:	4b0d      	ldr	r3, [pc, #52]	; (403b00 <xQueueGenericSendFromISR+0xfc>)
  403aca:	4798      	blx	r3
							if( pxHigherPriorityTaskWoken != NULL )
  403acc:	b140      	cbz	r0, 403ae0 <xQueueGenericSendFromISR+0xdc>
  403ace:	f1b8 0f00 	cmp.w	r8, #0
  403ad2:	d005      	beq.n	403ae0 <xQueueGenericSendFromISR+0xdc>
								*pxHigherPriorityTaskWoken = pdTRUE;
  403ad4:	2001      	movs	r0, #1
  403ad6:	f8c8 0000 	str.w	r0, [r8]
  403ada:	e7b6      	b.n	403a4a <xQueueGenericSendFromISR+0x46>
						if( listLIST_IS_EMPTY( &( pxQueue->xTasksWaitingToReceive ) ) == pdFALSE )
  403adc:	6a63      	ldr	r3, [r4, #36]	; 0x24
  403ade:	b90b      	cbnz	r3, 403ae4 <xQueueGenericSendFromISR+0xe0>
			xReturn = pdPASS;
  403ae0:	2001      	movs	r0, #1
  403ae2:	e7b2      	b.n	403a4a <xQueueGenericSendFromISR+0x46>
							if( xTaskRemoveFromEventList( &( pxQueue->xTasksWaitingToReceive ) ) != pdFALSE )
  403ae4:	f104 0024 	add.w	r0, r4, #36	; 0x24
  403ae8:	4b06      	ldr	r3, [pc, #24]	; (403b04 <xQueueGenericSendFromISR+0x100>)
  403aea:	4798      	blx	r3
								if( pxHigherPriorityTaskWoken != NULL )
  403aec:	f1b8 0f00 	cmp.w	r8, #0
  403af0:	d0f6      	beq.n	403ae0 <xQueueGenericSendFromISR+0xdc>
  403af2:	2800      	cmp	r0, #0
  403af4:	d1ee      	bne.n	403ad4 <xQueueGenericSendFromISR+0xd0>
  403af6:	e7f3      	b.n	403ae0 <xQueueGenericSendFromISR+0xdc>
  403af8:	004034f9 	.word	0x004034f9
  403afc:	0040355d 	.word	0x0040355d
  403b00:	00403615 	.word	0x00403615
  403b04:	004040fd 	.word	0x004040fd

00403b08 <xQueueGiveFromISR>:
	configASSERT( pxQueue );
  403b08:	2800      	cmp	r0, #0
  403b0a:	d033      	beq.n	403b74 <xQueueGiveFromISR+0x6c>
	configASSERT( pxQueue->uxItemSize == 0 );
  403b0c:	6c03      	ldr	r3, [r0, #64]	; 0x40
  403b0e:	b153      	cbz	r3, 403b26 <xQueueGiveFromISR+0x1e>
  403b10:	f04f 0380 	mov.w	r3, #128	; 0x80
  403b14:	b672      	cpsid	i
  403b16:	f383 8811 	msr	BASEPRI, r3
  403b1a:	f3bf 8f6f 	isb	sy
  403b1e:	f3bf 8f4f 	dsb	sy
  403b22:	b662      	cpsie	i
  403b24:	e7fe      	b.n	403b24 <xQueueGiveFromISR+0x1c>
	configASSERT( !( ( pxQueue->uxQueueType == queueQUEUE_IS_MUTEX ) && ( pxQueue->pxMutexHolder != NULL ) ) );
  403b26:	6803      	ldr	r3, [r0, #0]
  403b28:	2b00      	cmp	r3, #0
  403b2a:	d03b      	beq.n	403ba4 <xQueueGiveFromISR+0x9c>
	portASSERT_IF_INTERRUPT_PRIORITY_INVALID();
  403b2c:	4b2a      	ldr	r3, [pc, #168]	; (403bd8 <xQueueGiveFromISR+0xd0>)
{
  403b2e:	b570      	push	{r4, r5, r6, lr}
  403b30:	4604      	mov	r4, r0
  403b32:	460e      	mov	r6, r1
	portASSERT_IF_INTERRUPT_PRIORITY_INVALID();
  403b34:	4798      	blx	r3
	__asm volatile
  403b36:	f3ef 8511 	mrs	r5, BASEPRI
  403b3a:	f04f 0380 	mov.w	r3, #128	; 0x80
  403b3e:	b672      	cpsid	i
  403b40:	f383 8811 	msr	BASEPRI, r3
  403b44:	f3bf 8f6f 	isb	sy
  403b48:	f3bf 8f4f 	dsb	sy
  403b4c:	b662      	cpsie	i
		const UBaseType_t uxMessagesWaiting = pxQueue->uxMessagesWaiting;
  403b4e:	6ba2      	ldr	r2, [r4, #56]	; 0x38
		if( uxMessagesWaiting < pxQueue->uxLength )
  403b50:	6be3      	ldr	r3, [r4, #60]	; 0x3c
  403b52:	429a      	cmp	r2, r3
  403b54:	d224      	bcs.n	403ba0 <xQueueGiveFromISR+0x98>
			const int8_t cTxLock = pxQueue->cTxLock;
  403b56:	f894 3045 	ldrb.w	r3, [r4, #69]	; 0x45
			pxQueue->uxMessagesWaiting = uxMessagesWaiting + ( UBaseType_t ) 1;
  403b5a:	3201      	adds	r2, #1
			const int8_t cTxLock = pxQueue->cTxLock;
  403b5c:	b25b      	sxtb	r3, r3
			pxQueue->uxMessagesWaiting = uxMessagesWaiting + ( UBaseType_t ) 1;
  403b5e:	63a2      	str	r2, [r4, #56]	; 0x38
			if( cTxLock == queueUNLOCKED )
  403b60:	1c5a      	adds	r2, r3, #1
  403b62:	d012      	beq.n	403b8a <xQueueGiveFromISR+0x82>
				pxQueue->cTxLock = ( int8_t ) ( cTxLock + 1 );
  403b64:	3301      	adds	r3, #1
			xReturn = pdPASS;
  403b66:	2001      	movs	r0, #1
				pxQueue->cTxLock = ( int8_t ) ( cTxLock + 1 );
  403b68:	b25b      	sxtb	r3, r3
  403b6a:	f884 3045 	strb.w	r3, [r4, #69]	; 0x45
	__asm volatile
  403b6e:	f385 8811 	msr	BASEPRI, r5
}
  403b72:	bd70      	pop	{r4, r5, r6, pc}
	__asm volatile
  403b74:	f04f 0380 	mov.w	r3, #128	; 0x80
  403b78:	b672      	cpsid	i
  403b7a:	f383 8811 	msr	BASEPRI, r3
  403b7e:	f3bf 8f6f 	isb	sy
  403b82:	f3bf 8f4f 	dsb	sy
  403b86:	b662      	cpsie	i
  403b88:	e7fe      	b.n	403b88 <xQueueGiveFromISR+0x80>
					if( pxQueue->pxQueueSetContainer != NULL )
  403b8a:	6ca3      	ldr	r3, [r4, #72]	; 0x48
  403b8c:	b1c3      	cbz	r3, 403bc0 <xQueueGiveFromISR+0xb8>
						if( prvNotifyQueueSetContainer( pxQueue, queueSEND_TO_BACK ) != pdFALSE )
  403b8e:	4620      	mov	r0, r4
  403b90:	2100      	movs	r1, #0
  403b92:	4b12      	ldr	r3, [pc, #72]	; (403bdc <xQueueGiveFromISR+0xd4>)
  403b94:	4798      	blx	r3
							if( pxHigherPriorityTaskWoken != NULL )
  403b96:	b1e0      	cbz	r0, 403bd2 <xQueueGiveFromISR+0xca>
  403b98:	b1de      	cbz	r6, 403bd2 <xQueueGiveFromISR+0xca>
								*pxHigherPriorityTaskWoken = pdTRUE;
  403b9a:	2001      	movs	r0, #1
  403b9c:	6030      	str	r0, [r6, #0]
  403b9e:	e7e6      	b.n	403b6e <xQueueGiveFromISR+0x66>
			xReturn = errQUEUE_FULL;
  403ba0:	2000      	movs	r0, #0
  403ba2:	e7e4      	b.n	403b6e <xQueueGiveFromISR+0x66>
	configASSERT( !( ( pxQueue->uxQueueType == queueQUEUE_IS_MUTEX ) && ( pxQueue->pxMutexHolder != NULL ) ) );
  403ba4:	6843      	ldr	r3, [r0, #4]
  403ba6:	2b00      	cmp	r3, #0
  403ba8:	d0c0      	beq.n	403b2c <xQueueGiveFromISR+0x24>
  403baa:	f04f 0380 	mov.w	r3, #128	; 0x80
  403bae:	b672      	cpsid	i
  403bb0:	f383 8811 	msr	BASEPRI, r3
  403bb4:	f3bf 8f6f 	isb	sy
  403bb8:	f3bf 8f4f 	dsb	sy
  403bbc:	b662      	cpsie	i
  403bbe:	e7fe      	b.n	403bbe <xQueueGiveFromISR+0xb6>
						if( listLIST_IS_EMPTY( &( pxQueue->xTasksWaitingToReceive ) ) == pdFALSE )
  403bc0:	6a63      	ldr	r3, [r4, #36]	; 0x24
  403bc2:	b133      	cbz	r3, 403bd2 <xQueueGiveFromISR+0xca>
							if( xTaskRemoveFromEventList( &( pxQueue->xTasksWaitingToReceive ) ) != pdFALSE )
  403bc4:	f104 0024 	add.w	r0, r4, #36	; 0x24
  403bc8:	4b05      	ldr	r3, [pc, #20]	; (403be0 <xQueueGiveFromISR+0xd8>)
  403bca:	4798      	blx	r3
								if( pxHigherPriorityTaskWoken != NULL )
  403bcc:	b10e      	cbz	r6, 403bd2 <xQueueGiveFromISR+0xca>
  403bce:	2800      	cmp	r0, #0
  403bd0:	d1e3      	bne.n	403b9a <xQueueGiveFromISR+0x92>
			xReturn = pdPASS;
  403bd2:	2001      	movs	r0, #1
  403bd4:	e7cb      	b.n	403b6e <xQueueGiveFromISR+0x66>
  403bd6:	bf00      	nop
  403bd8:	004034f9 	.word	0x004034f9
  403bdc:	00403615 	.word	0x00403615
  403be0:	004040fd 	.word	0x004040fd

00403be4 <xQueueReceiveFromISR>:
	configASSERT( pxQueue );
  403be4:	b110      	cbz	r0, 403bec <xQueueReceiveFromISR+0x8>
	configASSERT( !( ( pvBuffer == NULL ) && ( pxQueue->uxItemSize != ( UBaseType_t ) 0U ) ) );
  403be6:	b161      	cbz	r1, 403c02 <xQueueReceiveFromISR+0x1e>
  403be8:	4b0d      	ldr	r3, [pc, #52]	; (403c20 <xQueueReceiveFromISR+0x3c>)
  403bea:	4718      	bx	r3
  403bec:	f04f 0380 	mov.w	r3, #128	; 0x80
  403bf0:	b672      	cpsid	i
  403bf2:	f383 8811 	msr	BASEPRI, r3
  403bf6:	f3bf 8f6f 	isb	sy
  403bfa:	f3bf 8f4f 	dsb	sy
  403bfe:	b662      	cpsie	i
  403c00:	e7fe      	b.n	403c00 <xQueueReceiveFromISR+0x1c>
  403c02:	6c03      	ldr	r3, [r0, #64]	; 0x40
  403c04:	2b00      	cmp	r3, #0
  403c06:	d0ef      	beq.n	403be8 <xQueueReceiveFromISR+0x4>
  403c08:	f04f 0380 	mov.w	r3, #128	; 0x80
  403c0c:	b672      	cpsid	i
  403c0e:	f383 8811 	msr	BASEPRI, r3
  403c12:	f3bf 8f6f 	isb	sy
  403c16:	f3bf 8f4f 	dsb	sy
  403c1a:	b662      	cpsie	i
  403c1c:	e7fe      	b.n	403c1c <xQueueReceiveFromISR+0x38>
  403c1e:	bf00      	nop
  403c20:	00403699 	.word	0x00403699

00403c24 <xQueuePeekFromISR>:
{
  403c24:	b5f8      	push	{r3, r4, r5, r6, r7, lr}
	configASSERT( pxQueue );
  403c26:	b170      	cbz	r0, 403c46 <xQueuePeekFromISR+0x22>
	configASSERT( pxQueue->uxItemSize != 0 ); /* Can't peek a semaphore. */
  403c28:	6c03      	ldr	r3, [r0, #64]	; 0x40
	configASSERT( !( ( pvBuffer == NULL ) && ( pxQueue->uxItemSize != ( UBaseType_t ) 0U ) ) );
  403c2a:	2900      	cmp	r1, #0
  403c2c:	d032      	beq.n	403c94 <xQueuePeekFromISR+0x70>
	configASSERT( pxQueue->uxItemSize != 0 ); /* Can't peek a semaphore. */
  403c2e:	b9ab      	cbnz	r3, 403c5c <xQueuePeekFromISR+0x38>
  403c30:	f04f 0380 	mov.w	r3, #128	; 0x80
  403c34:	b672      	cpsid	i
  403c36:	f383 8811 	msr	BASEPRI, r3
  403c3a:	f3bf 8f6f 	isb	sy
  403c3e:	f3bf 8f4f 	dsb	sy
  403c42:	b662      	cpsie	i
  403c44:	e7fe      	b.n	403c44 <xQueuePeekFromISR+0x20>
  403c46:	f04f 0380 	mov.w	r3, #128	; 0x80
  403c4a:	b672      	cpsid	i
  403c4c:	f383 8811 	msr	BASEPRI, r3
  403c50:	f3bf 8f6f 	isb	sy
  403c54:	f3bf 8f4f 	dsb	sy
  403c58:	b662      	cpsie	i
  403c5a:	e7fe      	b.n	403c5a <xQueuePeekFromISR+0x36>
	portASSERT_IF_INTERRUPT_PRIORITY_INVALID();
  403c5c:	4b14      	ldr	r3, [pc, #80]	; (403cb0 <xQueuePeekFromISR+0x8c>)
  403c5e:	4604      	mov	r4, r0
  403c60:	460d      	mov	r5, r1
  403c62:	4798      	blx	r3
	__asm volatile
  403c64:	f3ef 8611 	mrs	r6, BASEPRI
  403c68:	f04f 0380 	mov.w	r3, #128	; 0x80
  403c6c:	b672      	cpsid	i
  403c6e:	f383 8811 	msr	BASEPRI, r3
  403c72:	f3bf 8f6f 	isb	sy
  403c76:	f3bf 8f4f 	dsb	sy
  403c7a:	b662      	cpsie	i
		if( pxQueue->uxMessagesWaiting > ( UBaseType_t ) 0 )
  403c7c:	6ba0      	ldr	r0, [r4, #56]	; 0x38
  403c7e:	b130      	cbz	r0, 403c8e <xQueuePeekFromISR+0x6a>
			prvCopyDataFromQueue( pxQueue, pvBuffer );
  403c80:	4620      	mov	r0, r4
  403c82:	4629      	mov	r1, r5
  403c84:	4b0b      	ldr	r3, [pc, #44]	; (403cb4 <xQueuePeekFromISR+0x90>)
			pcOriginalReadPosition = pxQueue->u.pcReadFrom;
  403c86:	68e7      	ldr	r7, [r4, #12]
			prvCopyDataFromQueue( pxQueue, pvBuffer );
  403c88:	4798      	blx	r3
			xReturn = pdPASS;
  403c8a:	2001      	movs	r0, #1
			pxQueue->u.pcReadFrom = pcOriginalReadPosition;
  403c8c:	60e7      	str	r7, [r4, #12]
	__asm volatile
  403c8e:	f386 8811 	msr	BASEPRI, r6
}
  403c92:	bdf8      	pop	{r3, r4, r5, r6, r7, pc}
	configASSERT( !( ( pvBuffer == NULL ) && ( pxQueue->uxItemSize != ( UBaseType_t ) 0U ) ) );
  403c94:	2b00      	cmp	r3, #0
  403c96:	d0cb      	beq.n	403c30 <xQueuePeekFromISR+0xc>
	__asm volatile
  403c98:	f04f 0380 	mov.w	r3, #128	; 0x80
  403c9c:	b672      	cpsid	i
  403c9e:	f383 8811 	msr	BASEPRI, r3
  403ca2:	f3bf 8f6f 	isb	sy
  403ca6:	f3bf 8f4f 	dsb	sy
  403caa:	b662      	cpsie	i
  403cac:	e7fe      	b.n	403cac <xQueuePeekFromISR+0x88>
  403cae:	bf00      	nop
  403cb0:	004034f9 	.word	0x004034f9
  403cb4:	004035d1 	.word	0x004035d1

00403cb8 <vTaskSuspendAll>:
{
	/* A critical section is not required as the variable is of type
	BaseType_t.  Please read Richard Barry's reply in the following link to a
	post in the FreeRTOS support forum before reporting this as a bug! -
	http://goo.gl/wu4acr */
	++uxSchedulerSuspended;
  403cb8:	4a02      	ldr	r2, [pc, #8]	; (403cc4 <vTaskSuspendAll+0xc>)
  403cba:	6813      	ldr	r3, [r2, #0]
  403cbc:	3301      	adds	r3, #1
  403cbe:	6013      	str	r3, [r2, #0]
  403cc0:	4770      	bx	lr
  403cc2:	bf00      	nop
  403cc4:	204281e4 	.word	0x204281e4

00403cc8 <xTaskGetTickCountFromISR>:
	return xTicks;
}
/*-----------------------------------------------------------*/

TickType_t xTaskGetTickCountFromISR( void )
{
  403cc8:	b508      	push	{r3, lr}
	that have been assigned a priority at or (logically) below the maximum
	system call	interrupt priority.  FreeRTOS maintains a separate interrupt
	safe API to ensure interrupt entry is as fast and as simple as possible.
	More information (albeit Cortex-M specific) is provided on the following
	link: http://www.freertos.org/RTOS-Cortex-M3-M4.html */
	portASSERT_IF_INTERRUPT_PRIORITY_INVALID();
  403cca:	4b02      	ldr	r3, [pc, #8]	; (403cd4 <xTaskGetTickCountFromISR+0xc>)
  403ccc:	4798      	blx	r3

	uxSavedInterruptStatus = portTICK_TYPE_SET_INTERRUPT_MASK_FROM_ISR();
	{
		xReturn = xTickCount;
  403cce:	4b02      	ldr	r3, [pc, #8]	; (403cd8 <xTaskGetTickCountFromISR+0x10>)
  403cd0:	6818      	ldr	r0, [r3, #0]
	}
	portTICK_TYPE_CLEAR_INTERRUPT_MASK_FROM_ISR( uxSavedInterruptStatus );

	return xReturn;
}
  403cd2:	bd08      	pop	{r3, pc}
  403cd4:	004034f9 	.word	0x004034f9
  403cd8:	20428220 	.word	0x20428220

00403cdc <xTaskIncrementTick>:

#endif /* INCLUDE_xTaskAbortDelay */
/*----------------------------------------------------------*/

BaseType_t xTaskIncrementTick( void )
{
  403cdc:	e92d 4ff8 	stmdb	sp!, {r3, r4, r5, r6, r7, r8, r9, sl, fp, lr}

	/* Called by the portable layer each time a tick interrupt occurs.
	Increments the tick then checks to see if the new tick value will cause any
	tasks to be unblocked. */
	traceTASK_INCREMENT_TICK( xTickCount );
	if( uxSchedulerSuspended == ( UBaseType_t ) pdFALSE )
  403ce0:	4b4f      	ldr	r3, [pc, #316]	; (403e20 <xTaskIncrementTick+0x144>)
  403ce2:	681b      	ldr	r3, [r3, #0]
  403ce4:	2b00      	cmp	r3, #0
  403ce6:	d16f      	bne.n	403dc8 <xTaskIncrementTick+0xec>
	{
		/* Minor optimisation.  The tick count cannot change in this
		block. */
		const TickType_t xConstTickCount = xTickCount + ( TickType_t ) 1;
  403ce8:	4b4e      	ldr	r3, [pc, #312]	; (403e24 <xTaskIncrementTick+0x148>)
  403cea:	681e      	ldr	r6, [r3, #0]
  403cec:	3601      	adds	r6, #1

		/* Increment the RTOS tick, switching the delayed and overflowed
		delayed lists if it wraps to 0. */
		xTickCount = xConstTickCount;
  403cee:	601e      	str	r6, [r3, #0]

		if( xConstTickCount == ( TickType_t ) 0U ) /*lint !e774 'if' does not always evaluate to false as it is looking for an overflow. */
  403cf0:	2e00      	cmp	r6, #0
  403cf2:	d05a      	beq.n	403daa <xTaskIncrementTick+0xce>
  403cf4:	f8df a158 	ldr.w	sl, [pc, #344]	; 403e50 <xTaskIncrementTick+0x174>

		/* See if this tick has made a timeout expire.  Tasks are stored in
		the	queue in the order of their wake time - meaning once one task
		has been found whose block time has not expired there is no need to
		look any further down the list. */
		if( xConstTickCount >= xNextTaskUnblockTime )
  403cf8:	f8da 2000 	ldr.w	r2, [sl]
  403cfc:	2400      	movs	r4, #0
  403cfe:	4296      	cmp	r6, r2
  403d00:	d36a      	bcc.n	403dd8 <xTaskIncrementTick+0xfc>
  403d02:	4d49      	ldr	r5, [pc, #292]	; (403e28 <xTaskIncrementTick+0x14c>)
  403d04:	4f49      	ldr	r7, [pc, #292]	; (403e2c <xTaskIncrementTick+0x150>)
  403d06:	f8df 814c 	ldr.w	r8, [pc, #332]	; 403e54 <xTaskIncrementTick+0x178>
  403d0a:	e02f      	b.n	403d6c <xTaskIncrementTick+0x90>
				{
					/* The delayed list is not empty, get the value of the
					item at the head of the delayed list.  This is the time
					at which the task at the head of the delayed list must
					be removed from the Blocked state. */
					pxTCB = ( TCB_t * ) listGET_OWNER_OF_HEAD_ENTRY( pxDelayedTaskList );
  403d0c:	682a      	ldr	r2, [r5, #0]
  403d0e:	68d2      	ldr	r2, [r2, #12]
  403d10:	f8d2 900c 	ldr.w	r9, [r2, #12]
					xItemValue = listGET_LIST_ITEM_VALUE( &( pxTCB->xStateListItem ) );
  403d14:	f8d9 1004 	ldr.w	r1, [r9, #4]
					{
						mtCOVERAGE_TEST_MARKER();
					}

					/* It is time to remove the item from the Blocked state. */
					( void ) uxListRemove( &( pxTCB->xStateListItem ) );
  403d18:	f109 0b04 	add.w	fp, r9, #4
					if( xConstTickCount < xItemValue )
  403d1c:	428e      	cmp	r6, r1
					( void ) uxListRemove( &( pxTCB->xStateListItem ) );
  403d1e:	4658      	mov	r0, fp
					if( xConstTickCount < xItemValue )
  403d20:	d373      	bcc.n	403e0a <xTaskIncrementTick+0x12e>
					( void ) uxListRemove( &( pxTCB->xStateListItem ) );
  403d22:	4b43      	ldr	r3, [pc, #268]	; (403e30 <xTaskIncrementTick+0x154>)
  403d24:	4798      	blx	r3

					/* Is the task waiting on an event also?  If so remove
					it from the event list. */
					if( listLIST_ITEM_CONTAINER( &( pxTCB->xEventListItem ) ) != NULL )
  403d26:	f8d9 1028 	ldr.w	r1, [r9, #40]	; 0x28
					{
						( void ) uxListRemove( &( pxTCB->xEventListItem ) );
  403d2a:	f109 0018 	add.w	r0, r9, #24
					if( listLIST_ITEM_CONTAINER( &( pxTCB->xEventListItem ) ) != NULL )
  403d2e:	b109      	cbz	r1, 403d34 <xTaskIncrementTick+0x58>
						( void ) uxListRemove( &( pxTCB->xEventListItem ) );
  403d30:	4b3f      	ldr	r3, [pc, #252]	; (403e30 <xTaskIncrementTick+0x154>)
  403d32:	4798      	blx	r3
						mtCOVERAGE_TEST_MARKER();
					}

					/* Place the unblocked task into the appropriate ready
					list. */
					prvAddTaskToReadyList( pxTCB );
  403d34:	f8d9 002c 	ldr.w	r0, [r9, #44]	; 0x2c
  403d38:	f04f 0e01 	mov.w	lr, #1
  403d3c:	4b3d      	ldr	r3, [pc, #244]	; (403e34 <xTaskIncrementTick+0x158>)
  403d3e:	4659      	mov	r1, fp
  403d40:	fa0e fe00 	lsl.w	lr, lr, r0
  403d44:	eb00 0080 	add.w	r0, r0, r0, lsl #2
  403d48:	681b      	ldr	r3, [r3, #0]
  403d4a:	eb07 0080 	add.w	r0, r7, r0, lsl #2
  403d4e:	ea4e 0e03 	orr.w	lr, lr, r3
  403d52:	4b38      	ldr	r3, [pc, #224]	; (403e34 <xTaskIncrementTick+0x158>)
  403d54:	f8c3 e000 	str.w	lr, [r3]
  403d58:	4b37      	ldr	r3, [pc, #220]	; (403e38 <xTaskIncrementTick+0x15c>)
  403d5a:	4798      	blx	r3
					{
						/* Preemption is on, but a context switch should
						only be performed if the unblocked task has a
						priority that is equal to or higher than the
						currently executing task. */
						if( pxTCB->uxPriority >= pxCurrentTCB->uxPriority )
  403d5c:	f8d8 0000 	ldr.w	r0, [r8]
  403d60:	f8d9 102c 	ldr.w	r1, [r9, #44]	; 0x2c
  403d64:	6ac2      	ldr	r2, [r0, #44]	; 0x2c
						{
							xSwitchRequired = pdTRUE;
  403d66:	4291      	cmp	r1, r2
  403d68:	bf28      	it	cs
  403d6a:	2401      	movcs	r4, #1
				if( listLIST_IS_EMPTY( pxDelayedTaskList ) != pdFALSE )
  403d6c:	682a      	ldr	r2, [r5, #0]
  403d6e:	6812      	ldr	r2, [r2, #0]
  403d70:	2a00      	cmp	r2, #0
  403d72:	d1cb      	bne.n	403d0c <xTaskIncrementTick+0x30>
					xNextTaskUnblockTime = portMAX_DELAY; /*lint !e961 MISRA exception as the casts are only redundant for some ports. */
  403d74:	f04f 32ff 	mov.w	r2, #4294967295
  403d78:	f8ca 2000 	str.w	r2, [sl]
		/* Tasks of equal priority to the currently running task will share
		processing time (time slice) if preemption is on, and the application
		writer has not explicitly turned time slicing off. */
		#if ( ( configUSE_PREEMPTION == 1 ) && ( configUSE_TIME_SLICING == 1 ) )
		{
			if( listCURRENT_LIST_LENGTH( &( pxReadyTasksLists[ pxCurrentTCB->uxPriority ] ) ) > ( UBaseType_t ) 1 )
  403d7c:	f8d8 3000 	ldr.w	r3, [r8]

		#if ( configUSE_TICK_HOOK == 1 )
		{
			/* Guard against the tick hook being called when the pended tick
			count is being unwound (when the scheduler is being unlocked). */
			if( uxPendedTicks == ( UBaseType_t ) 0U )
  403d80:	492e      	ldr	r1, [pc, #184]	; (403e3c <xTaskIncrementTick+0x160>)
			if( listCURRENT_LIST_LENGTH( &( pxReadyTasksLists[ pxCurrentTCB->uxPriority ] ) ) > ( UBaseType_t ) 1 )
  403d82:	6adb      	ldr	r3, [r3, #44]	; 0x2c
  403d84:	eb03 0383 	add.w	r3, r3, r3, lsl #2
  403d88:	009b      	lsls	r3, r3, #2
  403d8a:	58fa      	ldr	r2, [r7, r3]
			if( uxPendedTicks == ( UBaseType_t ) 0U )
  403d8c:	680b      	ldr	r3, [r1, #0]
				xSwitchRequired = pdTRUE;
  403d8e:	2a02      	cmp	r2, #2
  403d90:	bf28      	it	cs
  403d92:	2401      	movcs	r4, #1
			if( uxPendedTicks == ( UBaseType_t ) 0U )
  403d94:	b90b      	cbnz	r3, 403d9a <xTaskIncrementTick+0xbe>
			{
				vApplicationTickHook();
  403d96:	4b2a      	ldr	r3, [pc, #168]	; (403e40 <xTaskIncrementTick+0x164>)
  403d98:	4798      	blx	r3
		#endif
	}

	#if ( configUSE_PREEMPTION == 1 )
	{
		if( xYieldPending != pdFALSE )
  403d9a:	4b2a      	ldr	r3, [pc, #168]	; (403e44 <xTaskIncrementTick+0x168>)
  403d9c:	681b      	ldr	r3, [r3, #0]
		{
			xSwitchRequired = pdTRUE;
  403d9e:	2b00      	cmp	r3, #0
  403da0:	bf18      	it	ne
  403da2:	2401      	movne	r4, #1
		}
	}
	#endif /* configUSE_PREEMPTION */

	return xSwitchRequired;
}
  403da4:	4620      	mov	r0, r4
  403da6:	e8bd 8ff8 	ldmia.w	sp!, {r3, r4, r5, r6, r7, r8, r9, sl, fp, pc}
			taskSWITCH_DELAYED_LISTS();
  403daa:	4d1f      	ldr	r5, [pc, #124]	; (403e28 <xTaskIncrementTick+0x14c>)
  403dac:	682b      	ldr	r3, [r5, #0]
  403dae:	681b      	ldr	r3, [r3, #0]
  403db0:	b1b3      	cbz	r3, 403de0 <xTaskIncrementTick+0x104>
  403db2:	f04f 0380 	mov.w	r3, #128	; 0x80
  403db6:	b672      	cpsid	i
  403db8:	f383 8811 	msr	BASEPRI, r3
  403dbc:	f3bf 8f6f 	isb	sy
  403dc0:	f3bf 8f4f 	dsb	sy
  403dc4:	b662      	cpsie	i
  403dc6:	e7fe      	b.n	403dc6 <xTaskIncrementTick+0xea>
		++uxPendedTicks;
  403dc8:	4a1c      	ldr	r2, [pc, #112]	; (403e3c <xTaskIncrementTick+0x160>)
BaseType_t xSwitchRequired = pdFALSE;
  403dca:	2400      	movs	r4, #0
			vApplicationTickHook();
  403dcc:	491c      	ldr	r1, [pc, #112]	; (403e40 <xTaskIncrementTick+0x164>)
		++uxPendedTicks;
  403dce:	6813      	ldr	r3, [r2, #0]
  403dd0:	3301      	adds	r3, #1
  403dd2:	6013      	str	r3, [r2, #0]
			vApplicationTickHook();
  403dd4:	4788      	blx	r1
  403dd6:	e7e0      	b.n	403d9a <xTaskIncrementTick+0xbe>
  403dd8:	4f14      	ldr	r7, [pc, #80]	; (403e2c <xTaskIncrementTick+0x150>)
  403dda:	f8df 8078 	ldr.w	r8, [pc, #120]	; 403e54 <xTaskIncrementTick+0x178>
  403dde:	e7cd      	b.n	403d7c <xTaskIncrementTick+0xa0>
			taskSWITCH_DELAYED_LISTS();
  403de0:	4b19      	ldr	r3, [pc, #100]	; (403e48 <xTaskIncrementTick+0x16c>)
  403de2:	6829      	ldr	r1, [r5, #0]
  403de4:	4a19      	ldr	r2, [pc, #100]	; (403e4c <xTaskIncrementTick+0x170>)
  403de6:	6818      	ldr	r0, [r3, #0]
  403de8:	6028      	str	r0, [r5, #0]
  403dea:	6019      	str	r1, [r3, #0]
  403dec:	6813      	ldr	r3, [r2, #0]
  403dee:	3301      	adds	r3, #1
  403df0:	6013      	str	r3, [r2, #0]

static void prvResetNextTaskUnblockTime( void )
{
TCB_t *pxTCB;

	if( listLIST_IS_EMPTY( pxDelayedTaskList ) != pdFALSE )
  403df2:	682b      	ldr	r3, [r5, #0]
  403df4:	681b      	ldr	r3, [r3, #0]
  403df6:	b15b      	cbz	r3, 403e10 <xTaskIncrementTick+0x134>
	{
		/* The new current delayed list is not empty, get the value of
		the item at the head of the delayed list.  This is the time at
		which the task at the head of the delayed list should be removed
		from the Blocked state. */
		( pxTCB ) = ( TCB_t * ) listGET_OWNER_OF_HEAD_ENTRY( pxDelayedTaskList );
  403df8:	682a      	ldr	r2, [r5, #0]
		xNextTaskUnblockTime = listGET_LIST_ITEM_VALUE( &( ( pxTCB )->xStateListItem ) );
  403dfa:	f8df a054 	ldr.w	sl, [pc, #84]	; 403e50 <xTaskIncrementTick+0x174>
		( pxTCB ) = ( TCB_t * ) listGET_OWNER_OF_HEAD_ENTRY( pxDelayedTaskList );
  403dfe:	68d2      	ldr	r2, [r2, #12]
		xNextTaskUnblockTime = listGET_LIST_ITEM_VALUE( &( ( pxTCB )->xStateListItem ) );
  403e00:	68d2      	ldr	r2, [r2, #12]
  403e02:	6852      	ldr	r2, [r2, #4]
  403e04:	f8ca 2000 	str.w	r2, [sl]
  403e08:	e776      	b.n	403cf8 <xTaskIncrementTick+0x1c>
						xNextTaskUnblockTime = xItemValue;
  403e0a:	f8ca 1000 	str.w	r1, [sl]
						break;
  403e0e:	e7b5      	b.n	403d7c <xTaskIncrementTick+0xa0>
		xNextTaskUnblockTime = portMAX_DELAY;
  403e10:	f8df a03c 	ldr.w	sl, [pc, #60]	; 403e50 <xTaskIncrementTick+0x174>
  403e14:	f04f 32ff 	mov.w	r2, #4294967295
  403e18:	f8ca 2000 	str.w	r2, [sl]
  403e1c:	e76c      	b.n	403cf8 <xTaskIncrementTick+0x1c>
  403e1e:	bf00      	nop
  403e20:	204281e4 	.word	0x204281e4
  403e24:	20428220 	.word	0x20428220
  403e28:	20428170 	.word	0x20428170
  403e2c:	20428178 	.word	0x20428178
  403e30:	00403391 	.word	0x00403391
  403e34:	204281e8 	.word	0x204281e8
  403e38:	00403345 	.word	0x00403345
  403e3c:	204281e0 	.word	0x204281e0
  403e40:	00405475 	.word	0x00405475
  403e44:	20428224 	.word	0x20428224
  403e48:	20428174 	.word	0x20428174
  403e4c:	204281f0 	.word	0x204281f0
  403e50:	204281ec 	.word	0x204281ec
  403e54:	2042816c 	.word	0x2042816c

00403e58 <xTaskResumeAll>:
{
  403e58:	e92d 4ff8 	stmdb	sp!, {r3, r4, r5, r6, r7, r8, r9, sl, fp, lr}
	configASSERT( uxSchedulerSuspended );
  403e5c:	4c3d      	ldr	r4, [pc, #244]	; (403f54 <xTaskResumeAll+0xfc>)
  403e5e:	6823      	ldr	r3, [r4, #0]
  403e60:	b953      	cbnz	r3, 403e78 <xTaskResumeAll+0x20>
  403e62:	f04f 0380 	mov.w	r3, #128	; 0x80
  403e66:	b672      	cpsid	i
  403e68:	f383 8811 	msr	BASEPRI, r3
  403e6c:	f3bf 8f6f 	isb	sy
  403e70:	f3bf 8f4f 	dsb	sy
  403e74:	b662      	cpsie	i
  403e76:	e7fe      	b.n	403e76 <xTaskResumeAll+0x1e>
	taskENTER_CRITICAL();
  403e78:	4b37      	ldr	r3, [pc, #220]	; (403f58 <xTaskResumeAll+0x100>)
  403e7a:	4798      	blx	r3
		--uxSchedulerSuspended;
  403e7c:	6823      	ldr	r3, [r4, #0]
  403e7e:	3b01      	subs	r3, #1
  403e80:	6023      	str	r3, [r4, #0]
		if( uxSchedulerSuspended == ( UBaseType_t ) pdFALSE )
  403e82:	6824      	ldr	r4, [r4, #0]
  403e84:	2c00      	cmp	r4, #0
  403e86:	d157      	bne.n	403f38 <xTaskResumeAll+0xe0>
			if( uxCurrentNumberOfTasks > ( UBaseType_t ) 0U )
  403e88:	4b34      	ldr	r3, [pc, #208]	; (403f5c <xTaskResumeAll+0x104>)
  403e8a:	681b      	ldr	r3, [r3, #0]
  403e8c:	2b00      	cmp	r3, #0
  403e8e:	d053      	beq.n	403f38 <xTaskResumeAll+0xe0>
  403e90:	4d33      	ldr	r5, [pc, #204]	; (403f60 <xTaskResumeAll+0x108>)
  403e92:	f8df b0f4 	ldr.w	fp, [pc, #244]	; 403f88 <xTaskResumeAll+0x130>
					( void ) uxListRemove( &( pxTCB->xEventListItem ) );
  403e96:	4f33      	ldr	r7, [pc, #204]	; (403f64 <xTaskResumeAll+0x10c>)
					prvAddTaskToReadyList( pxTCB );
  403e98:	4e33      	ldr	r6, [pc, #204]	; (403f68 <xTaskResumeAll+0x110>)
  403e9a:	f8df 90f0 	ldr.w	r9, [pc, #240]	; 403f8c <xTaskResumeAll+0x134>
				while( listLIST_IS_EMPTY( &xPendingReadyList ) == pdFALSE )
  403e9e:	f8db 3000 	ldr.w	r3, [fp]
					prvAddTaskToReadyList( pxTCB );
  403ea2:	f04f 0801 	mov.w	r8, #1
				while( listLIST_IS_EMPTY( &xPendingReadyList ) == pdFALSE )
  403ea6:	b333      	cbz	r3, 403ef6 <xTaskResumeAll+0x9e>
					pxTCB = ( TCB_t * ) listGET_OWNER_OF_HEAD_ENTRY( ( &xPendingReadyList ) );
  403ea8:	f8db 300c 	ldr.w	r3, [fp, #12]
  403eac:	68dc      	ldr	r4, [r3, #12]
					( void ) uxListRemove( &( pxTCB->xStateListItem ) );
  403eae:	f104 0a04 	add.w	sl, r4, #4
					( void ) uxListRemove( &( pxTCB->xEventListItem ) );
  403eb2:	f104 0018 	add.w	r0, r4, #24
  403eb6:	47b8      	blx	r7
					( void ) uxListRemove( &( pxTCB->xStateListItem ) );
  403eb8:	4650      	mov	r0, sl
  403eba:	47b8      	blx	r7
					prvAddTaskToReadyList( pxTCB );
  403ebc:	6ae0      	ldr	r0, [r4, #44]	; 0x2c
  403ebe:	f8d6 e000 	ldr.w	lr, [r6]
  403ec2:	4651      	mov	r1, sl
  403ec4:	fa08 f300 	lsl.w	r3, r8, r0
  403ec8:	eb00 0080 	add.w	r0, r0, r0, lsl #2
  403ecc:	4a27      	ldr	r2, [pc, #156]	; (403f6c <xTaskResumeAll+0x114>)
  403ece:	ea43 030e 	orr.w	r3, r3, lr
  403ed2:	eb09 0080 	add.w	r0, r9, r0, lsl #2
  403ed6:	6033      	str	r3, [r6, #0]
  403ed8:	4790      	blx	r2
					if( pxTCB->uxPriority >= pxCurrentTCB->uxPriority )
  403eda:	4b25      	ldr	r3, [pc, #148]	; (403f70 <xTaskResumeAll+0x118>)
  403edc:	6ae2      	ldr	r2, [r4, #44]	; 0x2c
  403ede:	681b      	ldr	r3, [r3, #0]
  403ee0:	6adb      	ldr	r3, [r3, #44]	; 0x2c
  403ee2:	429a      	cmp	r2, r3
  403ee4:	d3db      	bcc.n	403e9e <xTaskResumeAll+0x46>
						xYieldPending = pdTRUE;
  403ee6:	f8c5 8000 	str.w	r8, [r5]
					prvAddTaskToReadyList( pxTCB );
  403eea:	f04f 0801 	mov.w	r8, #1
				while( listLIST_IS_EMPTY( &xPendingReadyList ) == pdFALSE )
  403eee:	f8db 3000 	ldr.w	r3, [fp]
  403ef2:	2b00      	cmp	r3, #0
  403ef4:	d1d8      	bne.n	403ea8 <xTaskResumeAll+0x50>
				if( pxTCB != NULL )
  403ef6:	b13c      	cbz	r4, 403f08 <xTaskResumeAll+0xb0>
	if( listLIST_IS_EMPTY( pxDelayedTaskList ) != pdFALSE )
  403ef8:	4b1e      	ldr	r3, [pc, #120]	; (403f74 <xTaskResumeAll+0x11c>)
  403efa:	681a      	ldr	r2, [r3, #0]
  403efc:	6812      	ldr	r2, [r2, #0]
  403efe:	bb0a      	cbnz	r2, 403f44 <xTaskResumeAll+0xec>
		xNextTaskUnblockTime = portMAX_DELAY;
  403f00:	4b1d      	ldr	r3, [pc, #116]	; (403f78 <xTaskResumeAll+0x120>)
  403f02:	f04f 32ff 	mov.w	r2, #4294967295
  403f06:	601a      	str	r2, [r3, #0]
					UBaseType_t uxPendedCounts = uxPendedTicks; /* Non-volatile copy. */
  403f08:	4e1c      	ldr	r6, [pc, #112]	; (403f7c <xTaskResumeAll+0x124>)
  403f0a:	6834      	ldr	r4, [r6, #0]
					if( uxPendedCounts > ( UBaseType_t ) 0U )
  403f0c:	b144      	cbz	r4, 403f20 <xTaskResumeAll+0xc8>
  403f0e:	f8df 8080 	ldr.w	r8, [pc, #128]	; 403f90 <xTaskResumeAll+0x138>
								xYieldPending = pdTRUE;
  403f12:	2701      	movs	r7, #1
							if( xTaskIncrementTick() != pdFALSE )
  403f14:	47c0      	blx	r8
  403f16:	b100      	cbz	r0, 403f1a <xTaskResumeAll+0xc2>
								xYieldPending = pdTRUE;
  403f18:	602f      	str	r7, [r5, #0]
						} while( uxPendedCounts > ( UBaseType_t ) 0U );
  403f1a:	3c01      	subs	r4, #1
  403f1c:	d1fa      	bne.n	403f14 <xTaskResumeAll+0xbc>
						uxPendedTicks = 0;
  403f1e:	6034      	str	r4, [r6, #0]
				if( xYieldPending != pdFALSE )
  403f20:	682b      	ldr	r3, [r5, #0]
  403f22:	b14b      	cbz	r3, 403f38 <xTaskResumeAll+0xe0>
					taskYIELD_IF_USING_PREEMPTION();
  403f24:	4b16      	ldr	r3, [pc, #88]	; (403f80 <xTaskResumeAll+0x128>)
  403f26:	f04f 5280 	mov.w	r2, #268435456	; 0x10000000
  403f2a:	601a      	str	r2, [r3, #0]
  403f2c:	f3bf 8f4f 	dsb	sy
  403f30:	f3bf 8f6f 	isb	sy
						xAlreadyYielded = pdTRUE;
  403f34:	2401      	movs	r4, #1
  403f36:	e000      	b.n	403f3a <xTaskResumeAll+0xe2>
BaseType_t xAlreadyYielded = pdFALSE;
  403f38:	2400      	movs	r4, #0
	taskEXIT_CRITICAL();
  403f3a:	4b12      	ldr	r3, [pc, #72]	; (403f84 <xTaskResumeAll+0x12c>)
  403f3c:	4798      	blx	r3
}
  403f3e:	4620      	mov	r0, r4
  403f40:	e8bd 8ff8 	ldmia.w	sp!, {r3, r4, r5, r6, r7, r8, r9, sl, fp, pc}
		( pxTCB ) = ( TCB_t * ) listGET_OWNER_OF_HEAD_ENTRY( pxDelayedTaskList );
  403f44:	681a      	ldr	r2, [r3, #0]
		xNextTaskUnblockTime = listGET_LIST_ITEM_VALUE( &( ( pxTCB )->xStateListItem ) );
  403f46:	4b0c      	ldr	r3, [pc, #48]	; (403f78 <xTaskResumeAll+0x120>)
		( pxTCB ) = ( TCB_t * ) listGET_OWNER_OF_HEAD_ENTRY( pxDelayedTaskList );
  403f48:	68d2      	ldr	r2, [r2, #12]
		xNextTaskUnblockTime = listGET_LIST_ITEM_VALUE( &( ( pxTCB )->xStateListItem ) );
  403f4a:	68d2      	ldr	r2, [r2, #12]
  403f4c:	6852      	ldr	r2, [r2, #4]
  403f4e:	601a      	str	r2, [r3, #0]
  403f50:	e7da      	b.n	403f08 <xTaskResumeAll+0xb0>
  403f52:	bf00      	nop
  403f54:	204281e4 	.word	0x204281e4
  403f58:	004033e5 	.word	0x004033e5
  403f5c:	204281dc 	.word	0x204281dc
  403f60:	20428224 	.word	0x20428224
  403f64:	00403391 	.word	0x00403391
  403f68:	204281e8 	.word	0x204281e8
  403f6c:	00403345 	.word	0x00403345
  403f70:	2042816c 	.word	0x2042816c
  403f74:	20428170 	.word	0x20428170
  403f78:	204281ec 	.word	0x204281ec
  403f7c:	204281e0 	.word	0x204281e0
  403f80:	e000ed04 	.word	0xe000ed04
  403f84:	00403431 	.word	0x00403431
  403f88:	204281f4 	.word	0x204281f4
  403f8c:	20428178 	.word	0x20428178
  403f90:	00403cdd 	.word	0x00403cdd

00403f94 <vTaskSwitchContext>:
	if( uxSchedulerSuspended != ( UBaseType_t ) pdFALSE )
  403f94:	4b25      	ldr	r3, [pc, #148]	; (40402c <vTaskSwitchContext+0x98>)
  403f96:	681b      	ldr	r3, [r3, #0]
  403f98:	2b00      	cmp	r3, #0
  403f9a:	d135      	bne.n	404008 <vTaskSwitchContext+0x74>
		xYieldPending = pdFALSE;
  403f9c:	4a24      	ldr	r2, [pc, #144]	; (404030 <vTaskSwitchContext+0x9c>)
{
  403f9e:	b510      	push	{r4, lr}
		taskCHECK_FOR_STACK_OVERFLOW();
  403fa0:	4c24      	ldr	r4, [pc, #144]	; (404034 <vTaskSwitchContext+0xa0>)
		xYieldPending = pdFALSE;
  403fa2:	6013      	str	r3, [r2, #0]
		taskCHECK_FOR_STACK_OVERFLOW();
  403fa4:	6823      	ldr	r3, [r4, #0]
  403fa6:	6b1b      	ldr	r3, [r3, #48]	; 0x30
  403fa8:	681a      	ldr	r2, [r3, #0]
  403faa:	f1b2 3fa5 	cmp.w	r2, #2779096485	; 0xa5a5a5a5
  403fae:	d103      	bne.n	403fb8 <vTaskSwitchContext+0x24>
  403fb0:	685a      	ldr	r2, [r3, #4]
  403fb2:	f1b2 3fa5 	cmp.w	r2, #2779096485	; 0xa5a5a5a5
  403fb6:	d02b      	beq.n	404010 <vTaskSwitchContext+0x7c>
  403fb8:	6820      	ldr	r0, [r4, #0]
  403fba:	6821      	ldr	r1, [r4, #0]
  403fbc:	4b1e      	ldr	r3, [pc, #120]	; (404038 <vTaskSwitchContext+0xa4>)
  403fbe:	3134      	adds	r1, #52	; 0x34
  403fc0:	4798      	blx	r3
		taskSELECT_HIGHEST_PRIORITY_TASK();
  403fc2:	4b1e      	ldr	r3, [pc, #120]	; (40403c <vTaskSwitchContext+0xa8>)
  403fc4:	681b      	ldr	r3, [r3, #0]
		__asm volatile ( "clz %0, %1" : "=r" ( ucReturn ) : "r" ( ulBitmap ) : "memory" );
  403fc6:	fab3 f383 	clz	r3, r3
  403fca:	b2db      	uxtb	r3, r3
  403fcc:	4a1c      	ldr	r2, [pc, #112]	; (404040 <vTaskSwitchContext+0xac>)
  403fce:	f1c3 031f 	rsb	r3, r3, #31
  403fd2:	eb03 0383 	add.w	r3, r3, r3, lsl #2
  403fd6:	009b      	lsls	r3, r3, #2
  403fd8:	58d0      	ldr	r0, [r2, r3]
  403fda:	18d1      	adds	r1, r2, r3
  403fdc:	b950      	cbnz	r0, 403ff4 <vTaskSwitchContext+0x60>
	__asm volatile
  403fde:	f04f 0380 	mov.w	r3, #128	; 0x80
  403fe2:	b672      	cpsid	i
  403fe4:	f383 8811 	msr	BASEPRI, r3
  403fe8:	f3bf 8f6f 	isb	sy
  403fec:	f3bf 8f4f 	dsb	sy
  403ff0:	b662      	cpsie	i
  403ff2:	e7fe      	b.n	403ff2 <vTaskSwitchContext+0x5e>
  403ff4:	3308      	adds	r3, #8
  403ff6:	6848      	ldr	r0, [r1, #4]
  403ff8:	441a      	add	r2, r3
  403ffa:	6843      	ldr	r3, [r0, #4]
  403ffc:	4293      	cmp	r3, r2
  403ffe:	604b      	str	r3, [r1, #4]
  404000:	d00f      	beq.n	404022 <vTaskSwitchContext+0x8e>
  404002:	68db      	ldr	r3, [r3, #12]
  404004:	6023      	str	r3, [r4, #0]
  404006:	bd10      	pop	{r4, pc}
		xYieldPending = pdTRUE;
  404008:	4b09      	ldr	r3, [pc, #36]	; (404030 <vTaskSwitchContext+0x9c>)
  40400a:	2201      	movs	r2, #1
  40400c:	601a      	str	r2, [r3, #0]
  40400e:	4770      	bx	lr
		taskCHECK_FOR_STACK_OVERFLOW();
  404010:	689a      	ldr	r2, [r3, #8]
  404012:	f1b2 3fa5 	cmp.w	r2, #2779096485	; 0xa5a5a5a5
  404016:	d1cf      	bne.n	403fb8 <vTaskSwitchContext+0x24>
  404018:	68db      	ldr	r3, [r3, #12]
  40401a:	f1b3 3fa5 	cmp.w	r3, #2779096485	; 0xa5a5a5a5
  40401e:	d1cb      	bne.n	403fb8 <vTaskSwitchContext+0x24>
  404020:	e7cf      	b.n	403fc2 <vTaskSwitchContext+0x2e>
		taskSELECT_HIGHEST_PRIORITY_TASK();
  404022:	685b      	ldr	r3, [r3, #4]
  404024:	604b      	str	r3, [r1, #4]
  404026:	68db      	ldr	r3, [r3, #12]
  404028:	6023      	str	r3, [r4, #0]
  40402a:	bd10      	pop	{r4, pc}
  40402c:	204281e4 	.word	0x204281e4
  404030:	20428224 	.word	0x20428224
  404034:	2042816c 	.word	0x2042816c
  404038:	0040545d 	.word	0x0040545d
  40403c:	204281e8 	.word	0x204281e8
  404040:	20428178 	.word	0x20428178

00404044 <vTaskPlaceOnEventList>:
	configASSERT( pxEventList );
  404044:	2800      	cmp	r0, #0
  404046:	d02a      	beq.n	40409e <vTaskPlaceOnEventList+0x5a>
{
  404048:	e92d 41f0 	stmdb	sp!, {r4, r5, r6, r7, r8, lr}
	vListInsert( pxEventList, &( pxCurrentTCB->xEventListItem ) );
  40404c:	4d21      	ldr	r5, [pc, #132]	; (4040d4 <vTaskPlaceOnEventList+0x90>)
  40404e:	460c      	mov	r4, r1
  404050:	4e21      	ldr	r6, [pc, #132]	; (4040d8 <vTaskPlaceOnEventList+0x94>)
  404052:	6829      	ldr	r1, [r5, #0]
  404054:	3118      	adds	r1, #24
  404056:	47b0      	blx	r6


static void prvAddCurrentTaskToDelayedList( TickType_t xTicksToWait, const BaseType_t xCanBlockIndefinitely )
{
TickType_t xTimeToWake;
const TickType_t xConstTickCount = xTickCount;
  404058:	4a20      	ldr	r2, [pc, #128]	; (4040dc <vTaskPlaceOnEventList+0x98>)
	}
	#endif

	/* Remove the task from the ready list before adding it to the blocked list
	as the same list item is used for both lists. */
	if( uxListRemove( &( pxCurrentTCB->xStateListItem ) ) == ( UBaseType_t ) 0 )
  40405a:	4b21      	ldr	r3, [pc, #132]	; (4040e0 <vTaskPlaceOnEventList+0x9c>)
const TickType_t xConstTickCount = xTickCount;
  40405c:	6817      	ldr	r7, [r2, #0]
	if( uxListRemove( &( pxCurrentTCB->xStateListItem ) ) == ( UBaseType_t ) 0 )
  40405e:	6828      	ldr	r0, [r5, #0]
  404060:	3004      	adds	r0, #4
  404062:	4798      	blx	r3
  404064:	b940      	cbnz	r0, 404078 <vTaskPlaceOnEventList+0x34>
	{
		/* The current task must be in a ready list, so there is no need to
		check, and the port reset macro can be called directly. */
		portRESET_READY_PRIORITY( pxCurrentTCB->uxPriority, uxTopReadyPriority );
  404066:	682b      	ldr	r3, [r5, #0]
  404068:	2201      	movs	r2, #1
  40406a:	491e      	ldr	r1, [pc, #120]	; (4040e4 <vTaskPlaceOnEventList+0xa0>)
  40406c:	6ad8      	ldr	r0, [r3, #44]	; 0x2c
  40406e:	680b      	ldr	r3, [r1, #0]
  404070:	4082      	lsls	r2, r0
  404072:	ea23 0302 	bic.w	r3, r3, r2
  404076:	600b      	str	r3, [r1, #0]
		mtCOVERAGE_TEST_MARKER();
	}

	#if ( INCLUDE_vTaskSuspend == 1 )
	{
		if( ( xTicksToWait == portMAX_DELAY ) && ( xCanBlockIndefinitely != pdFALSE ) )
  404078:	1c63      	adds	r3, r4, #1
  40407a:	d01b      	beq.n	4040b4 <vTaskPlaceOnEventList+0x70>
		else
		{
			/* Calculate the time at which the task should be woken if the event
			does not occur.  This may overflow but this doesn't matter, the
			kernel will manage it correctly. */
			xTimeToWake = xConstTickCount + xTicksToWait;
  40407c:	443c      	add	r4, r7

			/* The list item will be inserted in wake time order. */
			listSET_LIST_ITEM_VALUE( &( pxCurrentTCB->xStateListItem ), xTimeToWake );
  40407e:	682b      	ldr	r3, [r5, #0]

			if( xTimeToWake < xConstTickCount )
  404080:	42a7      	cmp	r7, r4
			listSET_LIST_ITEM_VALUE( &( pxCurrentTCB->xStateListItem ), xTimeToWake );
  404082:	605c      	str	r4, [r3, #4]
			if( xTimeToWake < xConstTickCount )
  404084:	d81d      	bhi.n	4040c2 <vTaskPlaceOnEventList+0x7e>
			}
			else
			{
				/* The wake time has not overflowed, so the current block list
				is used. */
				vListInsert( pxDelayedTaskList, &( pxCurrentTCB->xStateListItem ) );
  404086:	4b18      	ldr	r3, [pc, #96]	; (4040e8 <vTaskPlaceOnEventList+0xa4>)
  404088:	6818      	ldr	r0, [r3, #0]
  40408a:	6829      	ldr	r1, [r5, #0]
  40408c:	3104      	adds	r1, #4
  40408e:	47b0      	blx	r6

				/* If the task entering the blocked state was placed at the
				head of the list of blocked tasks then xNextTaskUnblockTime
				needs to be updated too. */
				if( xTimeToWake < xNextTaskUnblockTime )
  404090:	4b16      	ldr	r3, [pc, #88]	; (4040ec <vTaskPlaceOnEventList+0xa8>)
  404092:	681a      	ldr	r2, [r3, #0]
  404094:	4294      	cmp	r4, r2
  404096:	d200      	bcs.n	40409a <vTaskPlaceOnEventList+0x56>
				{
					xNextTaskUnblockTime = xTimeToWake;
  404098:	601c      	str	r4, [r3, #0]
  40409a:	e8bd 81f0 	ldmia.w	sp!, {r4, r5, r6, r7, r8, pc}
  40409e:	f04f 0380 	mov.w	r3, #128	; 0x80
  4040a2:	b672      	cpsid	i
  4040a4:	f383 8811 	msr	BASEPRI, r3
  4040a8:	f3bf 8f6f 	isb	sy
  4040ac:	f3bf 8f4f 	dsb	sy
  4040b0:	b662      	cpsie	i
  4040b2:	e7fe      	b.n	4040b2 <vTaskPlaceOnEventList+0x6e>
			vListInsertEnd( &xSuspendedTaskList, &( pxCurrentTCB->xStateListItem ) );
  4040b4:	6829      	ldr	r1, [r5, #0]
  4040b6:	480e      	ldr	r0, [pc, #56]	; (4040f0 <vTaskPlaceOnEventList+0xac>)
  4040b8:	3104      	adds	r1, #4
  4040ba:	4b0e      	ldr	r3, [pc, #56]	; (4040f4 <vTaskPlaceOnEventList+0xb0>)
}
  4040bc:	e8bd 41f0 	ldmia.w	sp!, {r4, r5, r6, r7, r8, lr}
			vListInsertEnd( &xSuspendedTaskList, &( pxCurrentTCB->xStateListItem ) );
  4040c0:	4718      	bx	r3
				vListInsert( pxOverflowDelayedTaskList, &( pxCurrentTCB->xStateListItem ) );
  4040c2:	4b0d      	ldr	r3, [pc, #52]	; (4040f8 <vTaskPlaceOnEventList+0xb4>)
  4040c4:	6818      	ldr	r0, [r3, #0]
  4040c6:	4633      	mov	r3, r6
  4040c8:	6829      	ldr	r1, [r5, #0]
}
  4040ca:	e8bd 41f0 	ldmia.w	sp!, {r4, r5, r6, r7, r8, lr}
				vListInsert( pxOverflowDelayedTaskList, &( pxCurrentTCB->xStateListItem ) );
  4040ce:	3104      	adds	r1, #4
  4040d0:	4718      	bx	r3
  4040d2:	bf00      	nop
  4040d4:	2042816c 	.word	0x2042816c
  4040d8:	0040335d 	.word	0x0040335d
  4040dc:	20428220 	.word	0x20428220
  4040e0:	00403391 	.word	0x00403391
  4040e4:	204281e8 	.word	0x204281e8
  4040e8:	20428170 	.word	0x20428170
  4040ec:	204281ec 	.word	0x204281ec
  4040f0:	2042820c 	.word	0x2042820c
  4040f4:	00403345 	.word	0x00403345
  4040f8:	20428174 	.word	0x20428174

004040fc <xTaskRemoveFromEventList>:
{
  4040fc:	b5f8      	push	{r3, r4, r5, r6, r7, lr}
	pxUnblockedTCB = ( TCB_t * ) listGET_OWNER_OF_HEAD_ENTRY( pxEventList );
  4040fe:	68c3      	ldr	r3, [r0, #12]
  404100:	68dc      	ldr	r4, [r3, #12]
	configASSERT( pxUnblockedTCB );
  404102:	b31c      	cbz	r4, 40414c <xTaskRemoveFromEventList+0x50>
	( void ) uxListRemove( &( pxUnblockedTCB->xEventListItem ) );
  404104:	f104 0518 	add.w	r5, r4, #24
  404108:	4f19      	ldr	r7, [pc, #100]	; (404170 <xTaskRemoveFromEventList+0x74>)
  40410a:	4628      	mov	r0, r5
  40410c:	47b8      	blx	r7
	if( uxSchedulerSuspended == ( UBaseType_t ) pdFALSE )
  40410e:	4b19      	ldr	r3, [pc, #100]	; (404174 <xTaskRemoveFromEventList+0x78>)
  404110:	681b      	ldr	r3, [r3, #0]
  404112:	bb43      	cbnz	r3, 404166 <xTaskRemoveFromEventList+0x6a>
		( void ) uxListRemove( &( pxUnblockedTCB->xStateListItem ) );
  404114:	1d26      	adds	r6, r4, #4
		prvAddTaskToReadyList( pxUnblockedTCB );
  404116:	4d18      	ldr	r5, [pc, #96]	; (404178 <xTaskRemoveFromEventList+0x7c>)
		( void ) uxListRemove( &( pxUnblockedTCB->xStateListItem ) );
  404118:	4630      	mov	r0, r6
  40411a:	47b8      	blx	r7
		prvAddTaskToReadyList( pxUnblockedTCB );
  40411c:	6ae2      	ldr	r2, [r4, #44]	; 0x2c
  40411e:	2301      	movs	r3, #1
  404120:	4816      	ldr	r0, [pc, #88]	; (40417c <xTaskRemoveFromEventList+0x80>)
  404122:	eb02 0782 	add.w	r7, r2, r2, lsl #2
  404126:	4631      	mov	r1, r6
  404128:	4093      	lsls	r3, r2
  40412a:	682a      	ldr	r2, [r5, #0]
  40412c:	eb00 0087 	add.w	r0, r0, r7, lsl #2
  404130:	4313      	orrs	r3, r2
  404132:	4a13      	ldr	r2, [pc, #76]	; (404180 <xTaskRemoveFromEventList+0x84>)
  404134:	602b      	str	r3, [r5, #0]
  404136:	4790      	blx	r2
	if( pxUnblockedTCB->uxPriority > pxCurrentTCB->uxPriority )
  404138:	4b12      	ldr	r3, [pc, #72]	; (404184 <xTaskRemoveFromEventList+0x88>)
  40413a:	6ae2      	ldr	r2, [r4, #44]	; 0x2c
  40413c:	681b      	ldr	r3, [r3, #0]
  40413e:	6adb      	ldr	r3, [r3, #44]	; 0x2c
  404140:	429a      	cmp	r2, r3
  404142:	d90e      	bls.n	404162 <xTaskRemoveFromEventList+0x66>
		xYieldPending = pdTRUE;
  404144:	4b10      	ldr	r3, [pc, #64]	; (404188 <xTaskRemoveFromEventList+0x8c>)
  404146:	2001      	movs	r0, #1
  404148:	6018      	str	r0, [r3, #0]
  40414a:	bdf8      	pop	{r3, r4, r5, r6, r7, pc}
  40414c:	f04f 0380 	mov.w	r3, #128	; 0x80
  404150:	b672      	cpsid	i
  404152:	f383 8811 	msr	BASEPRI, r3
  404156:	f3bf 8f6f 	isb	sy
  40415a:	f3bf 8f4f 	dsb	sy
  40415e:	b662      	cpsie	i
  404160:	e7fe      	b.n	404160 <xTaskRemoveFromEventList+0x64>
		xReturn = pdFALSE;
  404162:	2000      	movs	r0, #0
}
  404164:	bdf8      	pop	{r3, r4, r5, r6, r7, pc}
		vListInsertEnd( &( xPendingReadyList ), &( pxUnblockedTCB->xEventListItem ) );
  404166:	4629      	mov	r1, r5
  404168:	4808      	ldr	r0, [pc, #32]	; (40418c <xTaskRemoveFromEventList+0x90>)
  40416a:	4b05      	ldr	r3, [pc, #20]	; (404180 <xTaskRemoveFromEventList+0x84>)
  40416c:	4798      	blx	r3
  40416e:	e7e3      	b.n	404138 <xTaskRemoveFromEventList+0x3c>
  404170:	00403391 	.word	0x00403391
  404174:	204281e4 	.word	0x204281e4
  404178:	204281e8 	.word	0x204281e8
  40417c:	20428178 	.word	0x20428178
  404180:	00403345 	.word	0x00403345
  404184:	2042816c 	.word	0x2042816c
  404188:	20428224 	.word	0x20428224
  40418c:	204281f4 	.word	0x204281f4

00404190 <vTaskRemoveFromUnorderedEventList>:
{
  404190:	b5f8      	push	{r3, r4, r5, r6, r7, lr}
	configASSERT( uxSchedulerSuspended != pdFALSE );
  404192:	4b1e      	ldr	r3, [pc, #120]	; (40420c <vTaskRemoveFromUnorderedEventList+0x7c>)
  404194:	681b      	ldr	r3, [r3, #0]
  404196:	b953      	cbnz	r3, 4041ae <vTaskRemoveFromUnorderedEventList+0x1e>
  404198:	f04f 0380 	mov.w	r3, #128	; 0x80
  40419c:	b672      	cpsid	i
  40419e:	f383 8811 	msr	BASEPRI, r3
  4041a2:	f3bf 8f6f 	isb	sy
  4041a6:	f3bf 8f4f 	dsb	sy
  4041aa:	b662      	cpsie	i
  4041ac:	e7fe      	b.n	4041ac <vTaskRemoveFromUnorderedEventList+0x1c>
	listSET_LIST_ITEM_VALUE( pxEventListItem, xItemValue | taskEVENT_LIST_ITEM_VALUE_IN_USE );
  4041ae:	f041 4100 	orr.w	r1, r1, #2147483648	; 0x80000000
	pxUnblockedTCB = ( TCB_t * ) listGET_LIST_ITEM_OWNER( pxEventListItem );
  4041b2:	68c4      	ldr	r4, [r0, #12]
	listSET_LIST_ITEM_VALUE( pxEventListItem, xItemValue | taskEVENT_LIST_ITEM_VALUE_IN_USE );
  4041b4:	6001      	str	r1, [r0, #0]
	configASSERT( pxUnblockedTCB );
  4041b6:	b1ec      	cbz	r4, 4041f4 <vTaskRemoveFromUnorderedEventList+0x64>
	( void ) uxListRemove( &( pxUnblockedTCB->xStateListItem ) );
  4041b8:	1d26      	adds	r6, r4, #4
	( void ) uxListRemove( pxEventListItem );
  4041ba:	4f15      	ldr	r7, [pc, #84]	; (404210 <vTaskRemoveFromUnorderedEventList+0x80>)
  4041bc:	47b8      	blx	r7
	prvAddTaskToReadyList( pxUnblockedTCB );
  4041be:	2501      	movs	r5, #1
	( void ) uxListRemove( &( pxUnblockedTCB->xStateListItem ) );
  4041c0:	4630      	mov	r0, r6
  4041c2:	47b8      	blx	r7
	prvAddTaskToReadyList( pxUnblockedTCB );
  4041c4:	4a13      	ldr	r2, [pc, #76]	; (404214 <vTaskRemoveFromUnorderedEventList+0x84>)
  4041c6:	6ae0      	ldr	r0, [r4, #44]	; 0x2c
  4041c8:	4631      	mov	r1, r6
  4041ca:	6816      	ldr	r6, [r2, #0]
  4041cc:	fa05 f300 	lsl.w	r3, r5, r0
  4041d0:	4f11      	ldr	r7, [pc, #68]	; (404218 <vTaskRemoveFromUnorderedEventList+0x88>)
  4041d2:	eb00 0080 	add.w	r0, r0, r0, lsl #2
  4041d6:	4333      	orrs	r3, r6
  4041d8:	4e10      	ldr	r6, [pc, #64]	; (40421c <vTaskRemoveFromUnorderedEventList+0x8c>)
  4041da:	eb07 0080 	add.w	r0, r7, r0, lsl #2
  4041de:	6013      	str	r3, [r2, #0]
  4041e0:	47b0      	blx	r6
	if( pxUnblockedTCB->uxPriority > pxCurrentTCB->uxPriority )
  4041e2:	4b0f      	ldr	r3, [pc, #60]	; (404220 <vTaskRemoveFromUnorderedEventList+0x90>)
  4041e4:	6ae2      	ldr	r2, [r4, #44]	; 0x2c
  4041e6:	681b      	ldr	r3, [r3, #0]
  4041e8:	6adb      	ldr	r3, [r3, #44]	; 0x2c
  4041ea:	429a      	cmp	r2, r3
  4041ec:	d901      	bls.n	4041f2 <vTaskRemoveFromUnorderedEventList+0x62>
		xYieldPending = pdTRUE;
  4041ee:	4b0d      	ldr	r3, [pc, #52]	; (404224 <vTaskRemoveFromUnorderedEventList+0x94>)
  4041f0:	601d      	str	r5, [r3, #0]
  4041f2:	bdf8      	pop	{r3, r4, r5, r6, r7, pc}
  4041f4:	f04f 0380 	mov.w	r3, #128	; 0x80
  4041f8:	b672      	cpsid	i
  4041fa:	f383 8811 	msr	BASEPRI, r3
  4041fe:	f3bf 8f6f 	isb	sy
  404202:	f3bf 8f4f 	dsb	sy
  404206:	b662      	cpsie	i
  404208:	e7fe      	b.n	404208 <vTaskRemoveFromUnorderedEventList+0x78>
  40420a:	bf00      	nop
  40420c:	204281e4 	.word	0x204281e4
  404210:	00403391 	.word	0x00403391
  404214:	204281e8 	.word	0x204281e8
  404218:	20428178 	.word	0x20428178
  40421c:	00403345 	.word	0x00403345
  404220:	2042816c 	.word	0x2042816c
  404224:	20428224 	.word	0x20428224

00404228 <vTaskInternalSetTimeOutState>:
	pxTimeOut->xOverflowCount = xNumOfOverflows;
  404228:	4a03      	ldr	r2, [pc, #12]	; (404238 <vTaskInternalSetTimeOutState+0x10>)
	pxTimeOut->xTimeOnEntering = xTickCount;
  40422a:	4b04      	ldr	r3, [pc, #16]	; (40423c <vTaskInternalSetTimeOutState+0x14>)
	pxTimeOut->xOverflowCount = xNumOfOverflows;
  40422c:	6812      	ldr	r2, [r2, #0]
	pxTimeOut->xTimeOnEntering = xTickCount;
  40422e:	681b      	ldr	r3, [r3, #0]
  404230:	e880 000c 	stmia.w	r0, {r2, r3}
  404234:	4770      	bx	lr
  404236:	bf00      	nop
  404238:	204281f0 	.word	0x204281f0
  40423c:	20428220 	.word	0x20428220

00404240 <xTaskCheckForTimeOut>:
{
  404240:	b5f8      	push	{r3, r4, r5, r6, r7, lr}
	configASSERT( pxTimeOut );
  404242:	2800      	cmp	r0, #0
  404244:	d02d      	beq.n	4042a2 <xTaskCheckForTimeOut+0x62>
	configASSERT( pxTicksToWait );
  404246:	b309      	cbz	r1, 40428c <xTaskCheckForTimeOut+0x4c>
  404248:	460d      	mov	r5, r1
	taskENTER_CRITICAL();
  40424a:	4b22      	ldr	r3, [pc, #136]	; (4042d4 <xTaskCheckForTimeOut+0x94>)
  40424c:	4604      	mov	r4, r0
  40424e:	4798      	blx	r3
			if( *pxTicksToWait == portMAX_DELAY )
  404250:	682b      	ldr	r3, [r5, #0]
		const TickType_t xConstTickCount = xTickCount;
  404252:	f8df e08c 	ldr.w	lr, [pc, #140]	; 4042e0 <xTaskCheckForTimeOut+0xa0>
			if( *pxTicksToWait == portMAX_DELAY )
  404256:	1c59      	adds	r1, r3, #1
		const TickType_t xElapsedTime = xConstTickCount - pxTimeOut->xTimeOnEntering;
  404258:	6866      	ldr	r6, [r4, #4]
		const TickType_t xConstTickCount = xTickCount;
  40425a:	f8de 2000 	ldr.w	r2, [lr]
			if( *pxTicksToWait == portMAX_DELAY )
  40425e:	d037      	beq.n	4042d0 <xTaskCheckForTimeOut+0x90>
		if( ( xNumOfOverflows != pxTimeOut->xOverflowCount ) && ( xConstTickCount >= pxTimeOut->xTimeOnEntering ) ) /*lint !e525 Indentation preferred as is to make code within pre-processor directives clearer. */
  404260:	481d      	ldr	r0, [pc, #116]	; (4042d8 <xTaskCheckForTimeOut+0x98>)
  404262:	6821      	ldr	r1, [r4, #0]
  404264:	6807      	ldr	r7, [r0, #0]
  404266:	42b9      	cmp	r1, r7
  404268:	d006      	beq.n	404278 <xTaskCheckForTimeOut+0x38>
  40426a:	42b2      	cmp	r2, r6
  40426c:	d304      	bcc.n	404278 <xTaskCheckForTimeOut+0x38>
			xReturn = pdTRUE;
  40426e:	2601      	movs	r6, #1
	taskEXIT_CRITICAL();
  404270:	4b1a      	ldr	r3, [pc, #104]	; (4042dc <xTaskCheckForTimeOut+0x9c>)
  404272:	4798      	blx	r3
}
  404274:	4630      	mov	r0, r6
  404276:	bdf8      	pop	{r3, r4, r5, r6, r7, pc}
		const TickType_t xElapsedTime = xConstTickCount - pxTimeOut->xTimeOnEntering;
  404278:	1b92      	subs	r2, r2, r6
		else if( xElapsedTime < *pxTicksToWait ) /*lint !e961 Explicit casting is only redundant with some compilers, whereas others require it to prevent integer conversion errors. */
  40427a:	429a      	cmp	r2, r3
  40427c:	d31c      	bcc.n	4042b8 <xTaskCheckForTimeOut+0x78>
			*pxTicksToWait = 0;
  40427e:	2300      	movs	r3, #0
			xReturn = pdTRUE;
  404280:	2601      	movs	r6, #1
			*pxTicksToWait = 0;
  404282:	602b      	str	r3, [r5, #0]
	taskEXIT_CRITICAL();
  404284:	4b15      	ldr	r3, [pc, #84]	; (4042dc <xTaskCheckForTimeOut+0x9c>)
  404286:	4798      	blx	r3
}
  404288:	4630      	mov	r0, r6
  40428a:	bdf8      	pop	{r3, r4, r5, r6, r7, pc}
  40428c:	f04f 0380 	mov.w	r3, #128	; 0x80
  404290:	b672      	cpsid	i
  404292:	f383 8811 	msr	BASEPRI, r3
  404296:	f3bf 8f6f 	isb	sy
  40429a:	f3bf 8f4f 	dsb	sy
  40429e:	b662      	cpsie	i
  4042a0:	e7fe      	b.n	4042a0 <xTaskCheckForTimeOut+0x60>
  4042a2:	f04f 0380 	mov.w	r3, #128	; 0x80
  4042a6:	b672      	cpsid	i
  4042a8:	f383 8811 	msr	BASEPRI, r3
  4042ac:	f3bf 8f6f 	isb	sy
  4042b0:	f3bf 8f4f 	dsb	sy
  4042b4:	b662      	cpsie	i
  4042b6:	e7fe      	b.n	4042b6 <xTaskCheckForTimeOut+0x76>
	pxTimeOut->xOverflowCount = xNumOfOverflows;
  4042b8:	6800      	ldr	r0, [r0, #0]
			*pxTicksToWait -= xElapsedTime;
  4042ba:	1a9b      	subs	r3, r3, r2
	pxTimeOut->xTimeOnEntering = xTickCount;
  4042bc:	f8de 2000 	ldr.w	r2, [lr]
			xReturn = pdFALSE;
  4042c0:	2600      	movs	r6, #0
			*pxTicksToWait -= xElapsedTime;
  4042c2:	602b      	str	r3, [r5, #0]
	taskEXIT_CRITICAL();
  4042c4:	4b05      	ldr	r3, [pc, #20]	; (4042dc <xTaskCheckForTimeOut+0x9c>)
	pxTimeOut->xTimeOnEntering = xTickCount;
  4042c6:	e884 0005 	stmia.w	r4, {r0, r2}
	taskEXIT_CRITICAL();
  4042ca:	4798      	blx	r3
}
  4042cc:	4630      	mov	r0, r6
  4042ce:	bdf8      	pop	{r3, r4, r5, r6, r7, pc}
				xReturn = pdFALSE;
  4042d0:	2600      	movs	r6, #0
  4042d2:	e7cd      	b.n	404270 <xTaskCheckForTimeOut+0x30>
  4042d4:	004033e5 	.word	0x004033e5
  4042d8:	204281f0 	.word	0x204281f0
  4042dc:	00403431 	.word	0x00403431
  4042e0:	20428220 	.word	0x20428220

004042e4 <vTaskMissedYield>:
	xYieldPending = pdTRUE;
  4042e4:	4b01      	ldr	r3, [pc, #4]	; (4042ec <vTaskMissedYield+0x8>)
  4042e6:	2201      	movs	r2, #1
  4042e8:	601a      	str	r2, [r3, #0]
  4042ea:	4770      	bx	lr
  4042ec:	20428224 	.word	0x20428224

004042f0 <xTaskGetSchedulerState>:
		if( xSchedulerRunning == pdFALSE )
  4042f0:	4b05      	ldr	r3, [pc, #20]	; (404308 <xTaskGetSchedulerState+0x18>)
  4042f2:	681b      	ldr	r3, [r3, #0]
  4042f4:	b133      	cbz	r3, 404304 <xTaskGetSchedulerState+0x14>
			if( uxSchedulerSuspended == ( UBaseType_t ) pdFALSE )
  4042f6:	4b05      	ldr	r3, [pc, #20]	; (40430c <xTaskGetSchedulerState+0x1c>)
  4042f8:	681b      	ldr	r3, [r3, #0]
  4042fa:	2b00      	cmp	r3, #0
				xReturn = taskSCHEDULER_SUSPENDED;
  4042fc:	bf0c      	ite	eq
  4042fe:	2002      	moveq	r0, #2
  404300:	2000      	movne	r0, #0
  404302:	4770      	bx	lr
			xReturn = taskSCHEDULER_NOT_STARTED;
  404304:	2001      	movs	r0, #1
	}
  404306:	4770      	bx	lr
  404308:	20428208 	.word	0x20428208
  40430c:	204281e4 	.word	0x204281e4

00404310 <xTaskPriorityDisinherit>:
		if( pxMutexHolder != NULL )
  404310:	2800      	cmp	r0, #0
  404312:	d042      	beq.n	40439a <xTaskPriorityDisinherit+0x8a>
	{
  404314:	b5f8      	push	{r3, r4, r5, r6, r7, lr}
			configASSERT( pxTCB == pxCurrentTCB );
  404316:	4b2b      	ldr	r3, [pc, #172]	; (4043c4 <xTaskPriorityDisinherit+0xb4>)
  404318:	681b      	ldr	r3, [r3, #0]
  40431a:	4298      	cmp	r0, r3
  40431c:	d00a      	beq.n	404334 <xTaskPriorityDisinherit+0x24>
  40431e:	f04f 0380 	mov.w	r3, #128	; 0x80
  404322:	b672      	cpsid	i
  404324:	f383 8811 	msr	BASEPRI, r3
  404328:	f3bf 8f6f 	isb	sy
  40432c:	f3bf 8f4f 	dsb	sy
  404330:	b662      	cpsie	i
  404332:	e7fe      	b.n	404332 <xTaskPriorityDisinherit+0x22>
			configASSERT( pxTCB->uxMutexesHeld );
  404334:	6cc3      	ldr	r3, [r0, #76]	; 0x4c
  404336:	b953      	cbnz	r3, 40434e <xTaskPriorityDisinherit+0x3e>
  404338:	f04f 0380 	mov.w	r3, #128	; 0x80
  40433c:	b672      	cpsid	i
  40433e:	f383 8811 	msr	BASEPRI, r3
  404342:	f3bf 8f6f 	isb	sy
  404346:	f3bf 8f4f 	dsb	sy
  40434a:	b662      	cpsie	i
  40434c:	e7fe      	b.n	40434c <xTaskPriorityDisinherit+0x3c>
			if( pxTCB->uxPriority != pxTCB->uxBasePriority )
  40434e:	6ac1      	ldr	r1, [r0, #44]	; 0x2c
			( pxTCB->uxMutexesHeld )--;
  404350:	3b01      	subs	r3, #1
			if( pxTCB->uxPriority != pxTCB->uxBasePriority )
  404352:	6c82      	ldr	r2, [r0, #72]	; 0x48
			( pxTCB->uxMutexesHeld )--;
  404354:	64c3      	str	r3, [r0, #76]	; 0x4c
				if( pxTCB->uxMutexesHeld == ( UBaseType_t ) 0 )
  404356:	4291      	cmp	r1, r2
  404358:	d031      	beq.n	4043be <xTaskPriorityDisinherit+0xae>
  40435a:	2b00      	cmp	r3, #0
  40435c:	d12f      	bne.n	4043be <xTaskPriorityDisinherit+0xae>
					if( uxListRemove( &( pxTCB->xStateListItem ) ) == ( UBaseType_t ) 0 )
  40435e:	1d07      	adds	r7, r0, #4
  404360:	4604      	mov	r4, r0
  404362:	4b19      	ldr	r3, [pc, #100]	; (4043c8 <xTaskPriorityDisinherit+0xb8>)
  404364:	4638      	mov	r0, r7
  404366:	4798      	blx	r3
  404368:	b1c8      	cbz	r0, 40439e <xTaskPriorityDisinherit+0x8e>
  40436a:	4818      	ldr	r0, [pc, #96]	; (4043cc <xTaskPriorityDisinherit+0xbc>)
  40436c:	4a18      	ldr	r2, [pc, #96]	; (4043d0 <xTaskPriorityDisinherit+0xc0>)
					pxTCB->uxPriority = pxTCB->uxBasePriority;
  40436e:	6ca3      	ldr	r3, [r4, #72]	; 0x48
					prvAddTaskToReadyList( pxTCB );
  404370:	2501      	movs	r5, #1
  404372:	f8d2 e000 	ldr.w	lr, [r2]
  404376:	4639      	mov	r1, r7
  404378:	fa05 f603 	lsl.w	r6, r5, r3
					listSET_LIST_ITEM_VALUE( &( pxTCB->xEventListItem ), ( TickType_t ) configMAX_PRIORITIES - ( TickType_t ) pxTCB->uxPriority ); /*lint !e961 MISRA exception as the casts are only redundant for some ports. */
  40437c:	f1c3 0705 	rsb	r7, r3, #5
					pxTCB->uxPriority = pxTCB->uxBasePriority;
  404380:	62e3      	str	r3, [r4, #44]	; 0x2c
					prvAddTaskToReadyList( pxTCB );
  404382:	eb03 0383 	add.w	r3, r3, r3, lsl #2
  404386:	ea46 060e 	orr.w	r6, r6, lr
					listSET_LIST_ITEM_VALUE( &( pxTCB->xEventListItem ), ( TickType_t ) configMAX_PRIORITIES - ( TickType_t ) pxTCB->uxPriority ); /*lint !e961 MISRA exception as the casts are only redundant for some ports. */
  40438a:	61a7      	str	r7, [r4, #24]
					prvAddTaskToReadyList( pxTCB );
  40438c:	eb00 0083 	add.w	r0, r0, r3, lsl #2
  404390:	4b10      	ldr	r3, [pc, #64]	; (4043d4 <xTaskPriorityDisinherit+0xc4>)
  404392:	6016      	str	r6, [r2, #0]
  404394:	4798      	blx	r3
					xReturn = pdTRUE;
  404396:	4628      	mov	r0, r5
	}
  404398:	bdf8      	pop	{r3, r4, r5, r6, r7, pc}
	BaseType_t xReturn = pdFALSE;
  40439a:	2000      	movs	r0, #0
	}
  40439c:	4770      	bx	lr
						taskRESET_READY_PRIORITY( pxTCB->uxPriority );
  40439e:	6ae6      	ldr	r6, [r4, #44]	; 0x2c
  4043a0:	480a      	ldr	r0, [pc, #40]	; (4043cc <xTaskPriorityDisinherit+0xbc>)
  4043a2:	eb06 0386 	add.w	r3, r6, r6, lsl #2
  4043a6:	4a0a      	ldr	r2, [pc, #40]	; (4043d0 <xTaskPriorityDisinherit+0xc0>)
  4043a8:	009b      	lsls	r3, r3, #2
  4043aa:	58c3      	ldr	r3, [r0, r3]
  4043ac:	2b00      	cmp	r3, #0
  4043ae:	d1de      	bne.n	40436e <xTaskPriorityDisinherit+0x5e>
  4043b0:	2501      	movs	r5, #1
  4043b2:	6813      	ldr	r3, [r2, #0]
  4043b4:	40b5      	lsls	r5, r6
  4043b6:	ea23 0305 	bic.w	r3, r3, r5
  4043ba:	6013      	str	r3, [r2, #0]
  4043bc:	e7d7      	b.n	40436e <xTaskPriorityDisinherit+0x5e>
	BaseType_t xReturn = pdFALSE;
  4043be:	2000      	movs	r0, #0
  4043c0:	bdf8      	pop	{r3, r4, r5, r6, r7, pc}
  4043c2:	bf00      	nop
  4043c4:	2042816c 	.word	0x2042816c
  4043c8:	00403391 	.word	0x00403391
  4043cc:	20428178 	.word	0x20428178
  4043d0:	204281e8 	.word	0x204281e8
  4043d4:	00403345 	.word	0x00403345

004043d8 <xTaskGenericNotifyFromISR>:
	{
  4043d8:	e92d 43f8 	stmdb	sp!, {r3, r4, r5, r6, r7, r8, r9, lr}
  4043dc:	9f08      	ldr	r7, [sp, #32]
		configASSERT( xTaskToNotify );
  4043de:	b368      	cbz	r0, 40443c <xTaskGenericNotifyFromISR+0x64>
  4043e0:	4699      	mov	r9, r3
		portASSERT_IF_INTERRUPT_PRIORITY_INVALID();
  4043e2:	4b43      	ldr	r3, [pc, #268]	; (4044f0 <xTaskGenericNotifyFromISR+0x118>)
  4043e4:	4604      	mov	r4, r0
  4043e6:	4615      	mov	r5, r2
  4043e8:	4688      	mov	r8, r1
  4043ea:	4798      	blx	r3
	__asm volatile
  4043ec:	f3ef 8611 	mrs	r6, BASEPRI
  4043f0:	f04f 0380 	mov.w	r3, #128	; 0x80
  4043f4:	b672      	cpsid	i
  4043f6:	f383 8811 	msr	BASEPRI, r3
  4043fa:	f3bf 8f6f 	isb	sy
  4043fe:	f3bf 8f4f 	dsb	sy
  404402:	b662      	cpsie	i
			if( pulPreviousNotificationValue != NULL )
  404404:	f1b9 0f00 	cmp.w	r9, #0
  404408:	d002      	beq.n	404410 <xTaskGenericNotifyFromISR+0x38>
				*pulPreviousNotificationValue = pxTCB->ulNotifiedValue;
  40440a:	6d23      	ldr	r3, [r4, #80]	; 0x50
  40440c:	f8c9 3000 	str.w	r3, [r9]
			switch( eAction )
  404410:	1e6b      	subs	r3, r5, #1
			pxTCB->ucNotifyState = taskNOTIFICATION_RECEIVED;
  404412:	2202      	movs	r2, #2
			ucOriginalNotifyState = pxTCB->ucNotifyState;
  404414:	f894 5054 	ldrb.w	r5, [r4, #84]	; 0x54
			pxTCB->ucNotifyState = taskNOTIFICATION_RECEIVED;
  404418:	f884 2054 	strb.w	r2, [r4, #84]	; 0x54
			ucOriginalNotifyState = pxTCB->ucNotifyState;
  40441c:	b2ed      	uxtb	r5, r5
			switch( eAction )
  40441e:	2b03      	cmp	r3, #3
  404420:	d805      	bhi.n	40442e <xTaskGenericNotifyFromISR+0x56>
  404422:	e8df f003 	tbb	[pc, r3]
  404426:	2327      	.short	0x2327
  404428:	2c02      	.short	0x2c02
						pxTCB->ulNotifiedValue = ulValue;
  40442a:	f8c4 8050 	str.w	r8, [r4, #80]	; 0x50
			if( ucOriginalNotifyState == taskWAITING_NOTIFICATION )
  40442e:	2d01      	cmp	r5, #1
  404430:	d00f      	beq.n	404452 <xTaskGenericNotifyFromISR+0x7a>
	{
  404432:	2001      	movs	r0, #1
	__asm volatile
  404434:	f386 8811 	msr	BASEPRI, r6
	}
  404438:	e8bd 83f8 	ldmia.w	sp!, {r3, r4, r5, r6, r7, r8, r9, pc}
	__asm volatile
  40443c:	f04f 0380 	mov.w	r3, #128	; 0x80
  404440:	b672      	cpsid	i
  404442:	f383 8811 	msr	BASEPRI, r3
  404446:	f3bf 8f6f 	isb	sy
  40444a:	f3bf 8f4f 	dsb	sy
  40444e:	b662      	cpsie	i
  404450:	e7fe      	b.n	404450 <xTaskGenericNotifyFromISR+0x78>
				configASSERT( listLIST_ITEM_CONTAINER( &( pxTCB->xEventListItem ) ) == NULL );
  404452:	6aa3      	ldr	r3, [r4, #40]	; 0x28
  404454:	b1d3      	cbz	r3, 40448c <xTaskGenericNotifyFromISR+0xb4>
  404456:	f04f 0380 	mov.w	r3, #128	; 0x80
  40445a:	b672      	cpsid	i
  40445c:	f383 8811 	msr	BASEPRI, r3
  404460:	f3bf 8f6f 	isb	sy
  404464:	f3bf 8f4f 	dsb	sy
  404468:	b662      	cpsie	i
  40446a:	e7fe      	b.n	40446a <xTaskGenericNotifyFromISR+0x92>
					( pxTCB->ulNotifiedValue )++;
  40446c:	6d23      	ldr	r3, [r4, #80]	; 0x50
  40446e:	3301      	adds	r3, #1
  404470:	6523      	str	r3, [r4, #80]	; 0x50
					break;
  404472:	e7dc      	b.n	40442e <xTaskGenericNotifyFromISR+0x56>
					pxTCB->ulNotifiedValue |= ulValue;
  404474:	6d23      	ldr	r3, [r4, #80]	; 0x50
  404476:	ea43 0308 	orr.w	r3, r3, r8
  40447a:	6523      	str	r3, [r4, #80]	; 0x50
					break;
  40447c:	e7d7      	b.n	40442e <xTaskGenericNotifyFromISR+0x56>
					if( ucOriginalNotifyState != taskNOTIFICATION_RECEIVED )
  40447e:	2d02      	cmp	r5, #2
  404480:	d1d3      	bne.n	40442a <xTaskGenericNotifyFromISR+0x52>
						xReturn = pdFAIL;
  404482:	2000      	movs	r0, #0
	__asm volatile
  404484:	f386 8811 	msr	BASEPRI, r6
	}
  404488:	e8bd 83f8 	ldmia.w	sp!, {r3, r4, r5, r6, r7, r8, r9, pc}
				if( uxSchedulerSuspended == ( UBaseType_t ) pdFALSE )
  40448c:	4b19      	ldr	r3, [pc, #100]	; (4044f4 <xTaskGenericNotifyFromISR+0x11c>)
  40448e:	681b      	ldr	r3, [r3, #0]
  404490:	bb0b      	cbnz	r3, 4044d6 <xTaskGenericNotifyFromISR+0xfe>
					( void ) uxListRemove( &( pxTCB->xStateListItem ) );
  404492:	f104 0804 	add.w	r8, r4, #4
  404496:	4b18      	ldr	r3, [pc, #96]	; (4044f8 <xTaskGenericNotifyFromISR+0x120>)
  404498:	4640      	mov	r0, r8
  40449a:	4798      	blx	r3
					prvAddTaskToReadyList( pxTCB );
  40449c:	6ae0      	ldr	r0, [r4, #44]	; 0x2c
  40449e:	4a17      	ldr	r2, [pc, #92]	; (4044fc <xTaskGenericNotifyFromISR+0x124>)
  4044a0:	4641      	mov	r1, r8
  4044a2:	fa05 f300 	lsl.w	r3, r5, r0
  4044a6:	f8df e068 	ldr.w	lr, [pc, #104]	; 404510 <xTaskGenericNotifyFromISR+0x138>
  4044aa:	6815      	ldr	r5, [r2, #0]
  4044ac:	eb00 0080 	add.w	r0, r0, r0, lsl #2
  4044b0:	432b      	orrs	r3, r5
  4044b2:	eb0e 0080 	add.w	r0, lr, r0, lsl #2
  4044b6:	4d12      	ldr	r5, [pc, #72]	; (404500 <xTaskGenericNotifyFromISR+0x128>)
  4044b8:	6013      	str	r3, [r2, #0]
  4044ba:	47a8      	blx	r5
				if( pxTCB->uxPriority > pxCurrentTCB->uxPriority )
  4044bc:	4b11      	ldr	r3, [pc, #68]	; (404504 <xTaskGenericNotifyFromISR+0x12c>)
  4044be:	6ae2      	ldr	r2, [r4, #44]	; 0x2c
  4044c0:	681b      	ldr	r3, [r3, #0]
  4044c2:	6adb      	ldr	r3, [r3, #44]	; 0x2c
  4044c4:	429a      	cmp	r2, r3
  4044c6:	d9b4      	bls.n	404432 <xTaskGenericNotifyFromISR+0x5a>
					if( pxHigherPriorityTaskWoken != NULL )
  4044c8:	b15f      	cbz	r7, 4044e2 <xTaskGenericNotifyFromISR+0x10a>
						*pxHigherPriorityTaskWoken = pdTRUE;
  4044ca:	2001      	movs	r0, #1
  4044cc:	6038      	str	r0, [r7, #0]
  4044ce:	f386 8811 	msr	BASEPRI, r6
	}
  4044d2:	e8bd 83f8 	ldmia.w	sp!, {r3, r4, r5, r6, r7, r8, r9, pc}
					vListInsertEnd( &( xPendingReadyList ), &( pxTCB->xEventListItem ) );
  4044d6:	f104 0118 	add.w	r1, r4, #24
  4044da:	480b      	ldr	r0, [pc, #44]	; (404508 <xTaskGenericNotifyFromISR+0x130>)
  4044dc:	4b08      	ldr	r3, [pc, #32]	; (404500 <xTaskGenericNotifyFromISR+0x128>)
  4044de:	4798      	blx	r3
  4044e0:	e7ec      	b.n	4044bc <xTaskGenericNotifyFromISR+0xe4>
						xYieldPending = pdTRUE;
  4044e2:	4b0a      	ldr	r3, [pc, #40]	; (40450c <xTaskGenericNotifyFromISR+0x134>)
  4044e4:	2001      	movs	r0, #1
  4044e6:	6018      	str	r0, [r3, #0]
  4044e8:	f386 8811 	msr	BASEPRI, r6
	}
  4044ec:	e8bd 83f8 	ldmia.w	sp!, {r3, r4, r5, r6, r7, r8, r9, pc}
  4044f0:	004034f9 	.word	0x004034f9
  4044f4:	204281e4 	.word	0x204281e4
  4044f8:	00403391 	.word	0x00403391
  4044fc:	204281e8 	.word	0x204281e8
  404500:	00403345 	.word	0x00403345
  404504:	2042816c 	.word	0x2042816c
  404508:	204281f4 	.word	0x204281f4
  40450c:	20428224 	.word	0x20428224
  404510:	20428178 	.word	0x20428178

00404514 <vTaskNotifyGiveFromISR>:
		configASSERT( xTaskToNotify );
  404514:	b308      	cbz	r0, 40455a <vTaskNotifyGiveFromISR+0x46>
		portASSERT_IF_INTERRUPT_PRIORITY_INVALID();
  404516:	4b36      	ldr	r3, [pc, #216]	; (4045f0 <vTaskNotifyGiveFromISR+0xdc>)
	{
  404518:	e92d 41f0 	stmdb	sp!, {r4, r5, r6, r7, r8, lr}
  40451c:	4604      	mov	r4, r0
  40451e:	460e      	mov	r6, r1
		portASSERT_IF_INTERRUPT_PRIORITY_INVALID();
  404520:	4798      	blx	r3
	__asm volatile
  404522:	f3ef 8711 	mrs	r7, BASEPRI
  404526:	f04f 0380 	mov.w	r3, #128	; 0x80
  40452a:	b672      	cpsid	i
  40452c:	f383 8811 	msr	BASEPRI, r3
  404530:	f3bf 8f6f 	isb	sy
  404534:	f3bf 8f4f 	dsb	sy
  404538:	b662      	cpsie	i
			pxTCB->ucNotifyState = taskNOTIFICATION_RECEIVED;
  40453a:	2302      	movs	r3, #2
			ucOriginalNotifyState = pxTCB->ucNotifyState;
  40453c:	f894 5054 	ldrb.w	r5, [r4, #84]	; 0x54
			pxTCB->ucNotifyState = taskNOTIFICATION_RECEIVED;
  404540:	f884 3054 	strb.w	r3, [r4, #84]	; 0x54
			ucOriginalNotifyState = pxTCB->ucNotifyState;
  404544:	b2ed      	uxtb	r5, r5
			( pxTCB->ulNotifiedValue )++;
  404546:	6d23      	ldr	r3, [r4, #80]	; 0x50
			if( ucOriginalNotifyState == taskWAITING_NOTIFICATION )
  404548:	2d01      	cmp	r5, #1
			( pxTCB->ulNotifiedValue )++;
  40454a:	f103 0301 	add.w	r3, r3, #1
  40454e:	6523      	str	r3, [r4, #80]	; 0x50
			if( ucOriginalNotifyState == taskWAITING_NOTIFICATION )
  404550:	d00e      	beq.n	404570 <vTaskNotifyGiveFromISR+0x5c>
	__asm volatile
  404552:	f387 8811 	msr	BASEPRI, r7
  404556:	e8bd 81f0 	ldmia.w	sp!, {r4, r5, r6, r7, r8, pc}
	__asm volatile
  40455a:	f04f 0380 	mov.w	r3, #128	; 0x80
  40455e:	b672      	cpsid	i
  404560:	f383 8811 	msr	BASEPRI, r3
  404564:	f3bf 8f6f 	isb	sy
  404568:	f3bf 8f4f 	dsb	sy
  40456c:	b662      	cpsie	i
  40456e:	e7fe      	b.n	40456e <vTaskNotifyGiveFromISR+0x5a>
				configASSERT( listLIST_ITEM_CONTAINER( &( pxTCB->xEventListItem ) ) == NULL );
  404570:	6aa3      	ldr	r3, [r4, #40]	; 0x28
  404572:	b153      	cbz	r3, 40458a <vTaskNotifyGiveFromISR+0x76>
  404574:	f04f 0380 	mov.w	r3, #128	; 0x80
  404578:	b672      	cpsid	i
  40457a:	f383 8811 	msr	BASEPRI, r3
  40457e:	f3bf 8f6f 	isb	sy
  404582:	f3bf 8f4f 	dsb	sy
  404586:	b662      	cpsie	i
  404588:	e7fe      	b.n	404588 <vTaskNotifyGiveFromISR+0x74>
				if( uxSchedulerSuspended == ( UBaseType_t ) pdFALSE )
  40458a:	4b1a      	ldr	r3, [pc, #104]	; (4045f4 <vTaskNotifyGiveFromISR+0xe0>)
  40458c:	681b      	ldr	r3, [r3, #0]
  40458e:	bb0b      	cbnz	r3, 4045d4 <vTaskNotifyGiveFromISR+0xc0>
					( void ) uxListRemove( &( pxTCB->xStateListItem ) );
  404590:	f104 0804 	add.w	r8, r4, #4
  404594:	4b18      	ldr	r3, [pc, #96]	; (4045f8 <vTaskNotifyGiveFromISR+0xe4>)
  404596:	4640      	mov	r0, r8
  404598:	4798      	blx	r3
					prvAddTaskToReadyList( pxTCB );
  40459a:	6ae0      	ldr	r0, [r4, #44]	; 0x2c
  40459c:	4a17      	ldr	r2, [pc, #92]	; (4045fc <vTaskNotifyGiveFromISR+0xe8>)
  40459e:	4641      	mov	r1, r8
  4045a0:	fa05 f300 	lsl.w	r3, r5, r0
  4045a4:	f8df e068 	ldr.w	lr, [pc, #104]	; 404610 <vTaskNotifyGiveFromISR+0xfc>
  4045a8:	6815      	ldr	r5, [r2, #0]
  4045aa:	eb00 0080 	add.w	r0, r0, r0, lsl #2
  4045ae:	432b      	orrs	r3, r5
  4045b0:	eb0e 0080 	add.w	r0, lr, r0, lsl #2
  4045b4:	4d12      	ldr	r5, [pc, #72]	; (404600 <vTaskNotifyGiveFromISR+0xec>)
  4045b6:	6013      	str	r3, [r2, #0]
  4045b8:	47a8      	blx	r5
				if( pxTCB->uxPriority > pxCurrentTCB->uxPriority )
  4045ba:	4b12      	ldr	r3, [pc, #72]	; (404604 <vTaskNotifyGiveFromISR+0xf0>)
  4045bc:	6ae2      	ldr	r2, [r4, #44]	; 0x2c
  4045be:	681b      	ldr	r3, [r3, #0]
  4045c0:	6adb      	ldr	r3, [r3, #44]	; 0x2c
  4045c2:	429a      	cmp	r2, r3
  4045c4:	d9c5      	bls.n	404552 <vTaskNotifyGiveFromISR+0x3e>
					if( pxHigherPriorityTaskWoken != NULL )
  4045c6:	b15e      	cbz	r6, 4045e0 <vTaskNotifyGiveFromISR+0xcc>
						*pxHigherPriorityTaskWoken = pdTRUE;
  4045c8:	2301      	movs	r3, #1
  4045ca:	6033      	str	r3, [r6, #0]
	__asm volatile
  4045cc:	f387 8811 	msr	BASEPRI, r7
  4045d0:	e8bd 81f0 	ldmia.w	sp!, {r4, r5, r6, r7, r8, pc}
					vListInsertEnd( &( xPendingReadyList ), &( pxTCB->xEventListItem ) );
  4045d4:	f104 0118 	add.w	r1, r4, #24
  4045d8:	480b      	ldr	r0, [pc, #44]	; (404608 <vTaskNotifyGiveFromISR+0xf4>)
  4045da:	4b09      	ldr	r3, [pc, #36]	; (404600 <vTaskNotifyGiveFromISR+0xec>)
  4045dc:	4798      	blx	r3
  4045de:	e7ec      	b.n	4045ba <vTaskNotifyGiveFromISR+0xa6>
						xYieldPending = pdTRUE;
  4045e0:	4b0a      	ldr	r3, [pc, #40]	; (40460c <vTaskNotifyGiveFromISR+0xf8>)
  4045e2:	2201      	movs	r2, #1
  4045e4:	601a      	str	r2, [r3, #0]
  4045e6:	f387 8811 	msr	BASEPRI, r7
  4045ea:	e8bd 81f0 	ldmia.w	sp!, {r4, r5, r6, r7, r8, pc}
  4045ee:	bf00      	nop
  4045f0:	004034f9 	.word	0x004034f9
  4045f4:	204281e4 	.word	0x204281e4
  4045f8:	00403391 	.word	0x00403391
  4045fc:	204281e8 	.word	0x204281e8
  404600:	00403345 	.word	0x00403345
  404604:	2042816c 	.word	0x2042816c
  404608:	204281f4 	.word	0x204281f4
  40460c:	20428224 	.word	0x20428224
  404610:	20428178 	.word	0x20428178

00404614 <xTimerGenericCommand>:
BaseType_t xTimerGenericCommand( TimerHandle_t xTimer, const BaseType_t xCommandID, const TickType_t xOptionalValue, BaseType_t * const pxHigherPriorityTaskWoken, const TickType_t xTicksToWait )
{
BaseType_t xReturn = pdFAIL;
DaemonTaskMessage_t xMessage;

	configASSERT( xTimer );
  404614:	b338      	cbz	r0, 404666 <xTimerGenericCommand+0x52>
{
  404616:	b570      	push	{r4, r5, r6, lr}

	/* Send a message to the timer service task to perform a particular action
	on a particular timer definition. */
	if( xTimerQueue != NULL )
  404618:	4d18      	ldr	r5, [pc, #96]	; (40467c <xTimerGenericCommand+0x68>)
  40461a:	4604      	mov	r4, r0
{
  40461c:	b084      	sub	sp, #16
	if( xTimerQueue != NULL )
  40461e:	6828      	ldr	r0, [r5, #0]
  404620:	b188      	cbz	r0, 404646 <xTimerGenericCommand+0x32>
  404622:	4616      	mov	r6, r2
		/* Send a command to the timer service task to start the xTimer timer. */
		xMessage.xMessageID = xCommandID;
		xMessage.u.xTimerParameters.xMessageValue = xOptionalValue;
		xMessage.u.xTimerParameters.pxTimer = ( Timer_t * ) xTimer;

		if( xCommandID < tmrFIRST_FROM_ISR_COMMAND )
  404624:	2905      	cmp	r1, #5
  404626:	461a      	mov	r2, r3
  404628:	460b      	mov	r3, r1
		xMessage.u.xTimerParameters.pxTimer = ( Timer_t * ) xTimer;
  40462a:	9402      	str	r4, [sp, #8]
		xMessage.u.xTimerParameters.xMessageValue = xOptionalValue;
  40462c:	e88d 0048 	stmia.w	sp, {r3, r6}
		if( xCommandID < tmrFIRST_FROM_ISR_COMMAND )
  404630:	dc0b      	bgt.n	40464a <xTimerGenericCommand+0x36>
		{
			if( xTaskGetSchedulerState() == taskSCHEDULER_RUNNING )
  404632:	4b13      	ldr	r3, [pc, #76]	; (404680 <xTimerGenericCommand+0x6c>)
  404634:	4798      	blx	r3
  404636:	2802      	cmp	r0, #2
  404638:	d00d      	beq.n	404656 <xTimerGenericCommand+0x42>
			{
				xReturn = xQueueSendToBack( xTimerQueue, &xMessage, xTicksToWait );
			}
			else
			{
				xReturn = xQueueSendToBack( xTimerQueue, &xMessage, tmrNO_DELAY );
  40463a:	2300      	movs	r3, #0
  40463c:	6828      	ldr	r0, [r5, #0]
  40463e:	4669      	mov	r1, sp
  404640:	4c10      	ldr	r4, [pc, #64]	; (404684 <xTimerGenericCommand+0x70>)
  404642:	461a      	mov	r2, r3
  404644:	47a0      	blx	r4
	{
		mtCOVERAGE_TEST_MARKER();
	}

	return xReturn;
}
  404646:	b004      	add	sp, #16
  404648:	bd70      	pop	{r4, r5, r6, pc}
			xReturn = xQueueSendToBackFromISR( xTimerQueue, &xMessage, pxHigherPriorityTaskWoken );
  40464a:	2300      	movs	r3, #0
  40464c:	4669      	mov	r1, sp
  40464e:	4c0e      	ldr	r4, [pc, #56]	; (404688 <xTimerGenericCommand+0x74>)
  404650:	47a0      	blx	r4
}
  404652:	b004      	add	sp, #16
  404654:	bd70      	pop	{r4, r5, r6, pc}
				xReturn = xQueueSendToBack( xTimerQueue, &xMessage, xTicksToWait );
  404656:	2300      	movs	r3, #0
  404658:	9a08      	ldr	r2, [sp, #32]
  40465a:	4669      	mov	r1, sp
  40465c:	4c09      	ldr	r4, [pc, #36]	; (404684 <xTimerGenericCommand+0x70>)
  40465e:	6828      	ldr	r0, [r5, #0]
  404660:	47a0      	blx	r4
}
  404662:	b004      	add	sp, #16
  404664:	bd70      	pop	{r4, r5, r6, pc}
	__asm volatile
  404666:	f04f 0380 	mov.w	r3, #128	; 0x80
  40466a:	b672      	cpsid	i
  40466c:	f383 8811 	msr	BASEPRI, r3
  404670:	f3bf 8f6f 	isb	sy
  404674:	f3bf 8f4f 	dsb	sy
  404678:	b662      	cpsie	i
  40467a:	e7fe      	b.n	40467a <xTimerGenericCommand+0x66>
  40467c:	20428228 	.word	0x20428228
  404680:	004042f1 	.word	0x004042f1
  404684:	0040381d 	.word	0x0040381d
  404688:	00403a05 	.word	0x00403a05

0040468c <xTimerPendFunctionCallFromISR>:
/*-----------------------------------------------------------*/

#if( INCLUDE_xTimerPendFunctionCall == 1 )

	BaseType_t xTimerPendFunctionCallFromISR( PendedFunction_t xFunctionToPend, void *pvParameter1, uint32_t ulParameter2, BaseType_t *pxHigherPriorityTaskWoken )
	{
  40468c:	b570      	push	{r4, r5, r6, lr}
  40468e:	461e      	mov	r6, r3
  404690:	b084      	sub	sp, #16
		xMessage.xMessageID = tmrCOMMAND_EXECUTE_CALLBACK_FROM_ISR;
		xMessage.u.xCallbackParameters.pxCallbackFunction = xFunctionToPend;
		xMessage.u.xCallbackParameters.pvParameter1 = pvParameter1;
		xMessage.u.xCallbackParameters.ulParameter2 = ulParameter2;

		xReturn = xQueueSendFromISR( xTimerQueue, &xMessage, pxHigherPriorityTaskWoken );
  404692:	4c07      	ldr	r4, [pc, #28]	; (4046b0 <xTimerPendFunctionCallFromISR+0x24>)
		xMessage.xMessageID = tmrCOMMAND_EXECUTE_CALLBACK_FROM_ISR;
  404694:	f06f 0501 	mvn.w	r5, #1
		xMessage.u.xCallbackParameters.pxCallbackFunction = xFunctionToPend;
  404698:	9001      	str	r0, [sp, #4]
		xReturn = xQueueSendFromISR( xTimerQueue, &xMessage, pxHigherPriorityTaskWoken );
  40469a:	2300      	movs	r3, #0
		xMessage.u.xCallbackParameters.pvParameter1 = pvParameter1;
  40469c:	9102      	str	r1, [sp, #8]
		xReturn = xQueueSendFromISR( xTimerQueue, &xMessage, pxHigherPriorityTaskWoken );
  40469e:	4669      	mov	r1, sp
		xMessage.u.xCallbackParameters.ulParameter2 = ulParameter2;
  4046a0:	9203      	str	r2, [sp, #12]
		xReturn = xQueueSendFromISR( xTimerQueue, &xMessage, pxHigherPriorityTaskWoken );
  4046a2:	4632      	mov	r2, r6
  4046a4:	6820      	ldr	r0, [r4, #0]
  4046a6:	4c03      	ldr	r4, [pc, #12]	; (4046b4 <xTimerPendFunctionCallFromISR+0x28>)
		xMessage.xMessageID = tmrCOMMAND_EXECUTE_CALLBACK_FROM_ISR;
  4046a8:	9500      	str	r5, [sp, #0]
		xReturn = xQueueSendFromISR( xTimerQueue, &xMessage, pxHigherPriorityTaskWoken );
  4046aa:	47a0      	blx	r4

		tracePEND_FUNC_CALL_FROM_ISR( xFunctionToPend, pvParameter1, ulParameter2, xReturn );

		return xReturn;
	}
  4046ac:	b004      	add	sp, #16
  4046ae:	bd70      	pop	{r4, r5, r6, pc}
  4046b0:	20428228 	.word	0x20428228
  4046b4:	00403a05 	.word	0x00403a05

004046b8 <vPeriodicEventGroupsProcessing>:
	return xError;
}
/*-----------------------------------------------------------*/

void vPeriodicEventGroupsProcessing( void )
{
  4046b8:	b510      	push	{r4, lr}
BaseType_t xMessagePosted;

	/* Called periodically from the tick hook to exercise the "FromISR"
	functions. */

	xCallCount++;
  4046ba:	4c1e      	ldr	r4, [pc, #120]	; (404734 <vPeriodicEventGroupsProcessing+0x7c>)
  4046bc:	6823      	ldr	r3, [r4, #0]
  4046be:	3301      	adds	r3, #1

	if( xCallCount == xSetBitCount )
  4046c0:	2b64      	cmp	r3, #100	; 0x64
	xCallCount++;
  4046c2:	6023      	str	r3, [r4, #0]
	if( xCallCount == xSetBitCount )
  4046c4:	d012      	beq.n	4046ec <vPeriodicEventGroupsProcessing+0x34>
			{
				xISRTestError = pdTRUE;
			}
		}
	}
	else if( xCallCount == xGetBitsCount )
  4046c6:	2bc8      	cmp	r3, #200	; 0xc8
  4046c8:	d019      	beq.n	4046fe <vPeriodicEventGroupsProcessing+0x46>
		if( uxReturned != uxBitsToSet )
		{
			xISRTestError = pdTRUE;
		}
	}
	else if( xCallCount == xClearBitsCount )
  4046ca:	f5b3 7f96 	cmp.w	r3, #300	; 0x12c
  4046ce:	d000      	beq.n	4046d2 <vPeriodicEventGroupsProcessing+0x1a>
  4046d0:	bd10      	pop	{r4, pc}
	{
		/* Clear the bits again. */
		uxReturned = ( EventBits_t ) xEventGroupClearBitsFromISR( xISREventGroup, uxBitsToSet );
  4046d2:	4a19      	ldr	r2, [pc, #100]	; (404738 <vPeriodicEventGroupsProcessing+0x80>)
  4046d4:	2112      	movs	r1, #18
  4046d6:	4b19      	ldr	r3, [pc, #100]	; (40473c <vPeriodicEventGroupsProcessing+0x84>)
  4046d8:	6810      	ldr	r0, [r2, #0]
  4046da:	4798      	blx	r3

		/* Check the message was posted. */
		if( uxReturned != pdPASS )
  4046dc:	2801      	cmp	r0, #1
  4046de:	d01d      	beq.n	40471c <vPeriodicEventGroupsProcessing+0x64>
		{
			xISRTestError = pdTRUE;
  4046e0:	4a17      	ldr	r2, [pc, #92]	; (404740 <vPeriodicEventGroupsProcessing+0x88>)
  4046e2:	2101      	movs	r1, #1
		}

		/* Go back to the start. */
		xCallCount = 0;
  4046e4:	2300      	movs	r3, #0
			xISRTestError = pdTRUE;
  4046e6:	6011      	str	r1, [r2, #0]
		xCallCount = 0;
  4046e8:	6023      	str	r3, [r4, #0]
  4046ea:	bd10      	pop	{r4, pc}
		uxReturned = xEventGroupGetBitsFromISR( xISREventGroup );
  4046ec:	4c12      	ldr	r4, [pc, #72]	; (404738 <vPeriodicEventGroupsProcessing+0x80>)
  4046ee:	4b15      	ldr	r3, [pc, #84]	; (404744 <vPeriodicEventGroupsProcessing+0x8c>)
  4046f0:	6820      	ldr	r0, [r4, #0]
  4046f2:	4798      	blx	r3
		if( uxReturned != 0x00 )
  4046f4:	b150      	cbz	r0, 40470c <vPeriodicEventGroupsProcessing+0x54>
			xISRTestError = pdTRUE;
  4046f6:	4b12      	ldr	r3, [pc, #72]	; (404740 <vPeriodicEventGroupsProcessing+0x88>)
  4046f8:	2201      	movs	r2, #1
  4046fa:	601a      	str	r2, [r3, #0]
  4046fc:	bd10      	pop	{r4, pc}
		uxReturned = xEventGroupGetBitsFromISR( xISREventGroup );
  4046fe:	4a0e      	ldr	r2, [pc, #56]	; (404738 <vPeriodicEventGroupsProcessing+0x80>)
  404700:	4b10      	ldr	r3, [pc, #64]	; (404744 <vPeriodicEventGroupsProcessing+0x8c>)
  404702:	6810      	ldr	r0, [r2, #0]
  404704:	4798      	blx	r3
		if( uxReturned != uxBitsToSet )
  404706:	2812      	cmp	r0, #18
  404708:	d1f5      	bne.n	4046f6 <vPeriodicEventGroupsProcessing+0x3e>
  40470a:	bd10      	pop	{r4, pc}
			xMessagePosted = xEventGroupSetBitsFromISR( xISREventGroup, uxBitsToSet, NULL );
  40470c:	4602      	mov	r2, r0
  40470e:	2112      	movs	r1, #18
  404710:	6820      	ldr	r0, [r4, #0]
  404712:	4b0d      	ldr	r3, [pc, #52]	; (404748 <vPeriodicEventGroupsProcessing+0x90>)
  404714:	4798      	blx	r3
			if( xMessagePosted != pdPASS )
  404716:	2801      	cmp	r0, #1
  404718:	d1ed      	bne.n	4046f6 <vPeriodicEventGroupsProcessing+0x3e>
  40471a:	bd10      	pop	{r4, pc}
  40471c:	4b08      	ldr	r3, [pc, #32]	; (404740 <vPeriodicEventGroupsProcessing+0x88>)
		xCallCount = 0;
  40471e:	2200      	movs	r2, #0
  404720:	681b      	ldr	r3, [r3, #0]
  404722:	6022      	str	r2, [r4, #0]

		/* If no errors have been detected then increment the count of test
		cycles. */
		if( xISRTestError == pdFALSE )
  404724:	b923      	cbnz	r3, 404730 <vPeriodicEventGroupsProcessing+0x78>
		{
			ulISRCycles++;
  404726:	4a09      	ldr	r2, [pc, #36]	; (40474c <vPeriodicEventGroupsProcessing+0x94>)
  404728:	6813      	ldr	r3, [r2, #0]
  40472a:	3301      	adds	r3, #1
  40472c:	6013      	str	r3, [r2, #0]
	}
	else
	{
		/* Nothing else to do. */
	}
}
  40472e:	e7cf      	b.n	4046d0 <vPeriodicEventGroupsProcessing+0x18>
  404730:	bd10      	pop	{r4, pc}
  404732:	bf00      	nop
  404734:	20428230 	.word	0x20428230
  404738:	20428234 	.word	0x20428234
  40473c:	004032ed 	.word	0x004032ed
  404740:	20428238 	.word	0x20428238
  404744:	00403309 	.word	0x00403309
  404748:	00403329 	.word	0x00403329
  40474c:	2042822c 	.word	0x2042822c

00404750 <vInterruptSemaphorePeriodicTest>:
	}
}
/*-----------------------------------------------------------*/

void vInterruptSemaphorePeriodicTest( void )
{
  404750:	b5f0      	push	{r4, r5, r6, r7, lr}
static TickType_t xLastGiveTime = 0;
BaseType_t xHigherPriorityTaskWoken = pdFALSE;
  404752:	2600      	movs	r6, #0
{
  404754:	b083      	sub	sp, #12
TickType_t xTimeNow;

	/* No mutual exclusion on xOkToGiveMutex, but this is only test code (and
	only executed on a 32-bit architecture) so ignore that in this case. */
	xTimeNow = xTaskGetTickCountFromISR();
	if( ( ( TickType_t ) ( xTimeNow - xLastGiveTime ) ) >= pdMS_TO_TICKS( intsemINTERRUPT_MUTEX_GIVE_PERIOD_MS ) )
  404756:	4c1c      	ldr	r4, [pc, #112]	; (4047c8 <vInterruptSemaphorePeriodicTest+0x78>)
	xTimeNow = xTaskGetTickCountFromISR();
  404758:	4b1c      	ldr	r3, [pc, #112]	; (4047cc <vInterruptSemaphorePeriodicTest+0x7c>)
BaseType_t xHigherPriorityTaskWoken = pdFALSE;
  40475a:	9601      	str	r6, [sp, #4]
	xTimeNow = xTaskGetTickCountFromISR();
  40475c:	4798      	blx	r3
	if( ( ( TickType_t ) ( xTimeNow - xLastGiveTime ) ) >= pdMS_TO_TICKS( intsemINTERRUPT_MUTEX_GIVE_PERIOD_MS ) )
  40475e:	6823      	ldr	r3, [r4, #0]
  404760:	1ac3      	subs	r3, r0, r3
  404762:	2b63      	cmp	r3, #99	; 0x63
  404764:	d90a      	bls.n	40477c <vInterruptSemaphorePeriodicTest+0x2c>
	{
		configASSERT( xISRMutex );
  404766:	4f1a      	ldr	r7, [pc, #104]	; (4047d0 <vInterruptSemaphorePeriodicTest+0x80>)
  404768:	4605      	mov	r5, r0
  40476a:	6838      	ldr	r0, [r7, #0]
  40476c:	b308      	cbz	r0, 4047b2 <vInterruptSemaphorePeriodicTest+0x62>
		if( xOkToGiveMutex != pdFALSE )
  40476e:	4b19      	ldr	r3, [pc, #100]	; (4047d4 <vInterruptSemaphorePeriodicTest+0x84>)
  404770:	681b      	ldr	r3, [r3, #0]
  404772:	b92b      	cbnz	r3, 404780 <vInterruptSemaphorePeriodicTest+0x30>

			/* Second give attempt should fail. */
			configASSERT( xSemaphoreGiveFromISR( xISRMutex, &xHigherPriorityTaskWoken ) == pdFAIL );
		}

		if( xOkToGiveCountingSemaphore != pdFALSE )
  404774:	4b18      	ldr	r3, [pc, #96]	; (4047d8 <vInterruptSemaphorePeriodicTest+0x88>)
  404776:	681b      	ldr	r3, [r3, #0]
  404778:	b9ab      	cbnz	r3, 4047a6 <vInterruptSemaphorePeriodicTest+0x56>
		{
			xSemaphoreGiveFromISR( xISRCountingSemaphore, &xHigherPriorityTaskWoken );
		}
		xLastGiveTime = xTimeNow;
  40477a:	6025      	str	r5, [r4, #0]
	}

	/* Remove compiler warnings about the value being set but not used. */
	( void ) xHigherPriorityTaskWoken;
}
  40477c:	b003      	add	sp, #12
  40477e:	bdf0      	pop	{r4, r5, r6, r7, pc}
			xSemaphoreGiveFromISR( xISRMutex, NULL );
  404780:	4631      	mov	r1, r6
  404782:	4e16      	ldr	r6, [pc, #88]	; (4047dc <vInterruptSemaphorePeriodicTest+0x8c>)
  404784:	47b0      	blx	r6
			configASSERT( xSemaphoreGiveFromISR( xISRMutex, &xHigherPriorityTaskWoken ) == pdFAIL );
  404786:	6838      	ldr	r0, [r7, #0]
  404788:	a901      	add	r1, sp, #4
  40478a:	47b0      	blx	r6
  40478c:	2800      	cmp	r0, #0
  40478e:	d0f1      	beq.n	404774 <vInterruptSemaphorePeriodicTest+0x24>
  404790:	f04f 0380 	mov.w	r3, #128	; 0x80
  404794:	b672      	cpsid	i
  404796:	f383 8811 	msr	BASEPRI, r3
  40479a:	f3bf 8f6f 	isb	sy
  40479e:	f3bf 8f4f 	dsb	sy
  4047a2:	b662      	cpsie	i
  4047a4:	e7fe      	b.n	4047a4 <vInterruptSemaphorePeriodicTest+0x54>
			xSemaphoreGiveFromISR( xISRCountingSemaphore, &xHigherPriorityTaskWoken );
  4047a6:	4a0e      	ldr	r2, [pc, #56]	; (4047e0 <vInterruptSemaphorePeriodicTest+0x90>)
  4047a8:	a901      	add	r1, sp, #4
  4047aa:	4b0c      	ldr	r3, [pc, #48]	; (4047dc <vInterruptSemaphorePeriodicTest+0x8c>)
  4047ac:	6810      	ldr	r0, [r2, #0]
  4047ae:	4798      	blx	r3
  4047b0:	e7e3      	b.n	40477a <vInterruptSemaphorePeriodicTest+0x2a>
  4047b2:	f04f 0380 	mov.w	r3, #128	; 0x80
  4047b6:	b672      	cpsid	i
  4047b8:	f383 8811 	msr	BASEPRI, r3
  4047bc:	f3bf 8f6f 	isb	sy
  4047c0:	f3bf 8f4f 	dsb	sy
  4047c4:	b662      	cpsie	i
  4047c6:	e7fe      	b.n	4047c6 <vInterruptSemaphorePeriodicTest+0x76>
  4047c8:	20428244 	.word	0x20428244
  4047cc:	00403cc9 	.word	0x00403cc9
  4047d0:	20428240 	.word	0x20428240
  4047d4:	2042824c 	.word	0x2042824c
  4047d8:	20428248 	.word	0x20428248
  4047dc:	00403b09 	.word	0x00403b09
  4047e0:	2042823c 	.word	0x2042823c

004047e4 <vQueueOverwritePeriodicISRDemo>:
	return xReturn;
}
/*-----------------------------------------------------------*/

void vQueueOverwritePeriodicISRDemo( void )
{
  4047e4:	b570      	push	{r4, r5, r6, lr}
uint32_t ulRx;

	/* This function should be called from an interrupt, such as the tick hook
	function vApplicationTickHook(). */

	configASSERT( xISRQueue );
  4047e6:	4d21      	ldr	r5, [pc, #132]	; (40486c <vQueueOverwritePeriodicISRDemo+0x88>)
{
  4047e8:	b084      	sub	sp, #16
const uint32_t ulTx1 = 10UL, ulTx2 = 20UL, ulNumberOfSwitchCases = 3UL;
  4047ea:	220a      	movs	r2, #10
  4047ec:	2314      	movs	r3, #20
	configASSERT( xISRQueue );
  4047ee:	6828      	ldr	r0, [r5, #0]
const uint32_t ulTx1 = 10UL, ulTx2 = 20UL, ulNumberOfSwitchCases = 3UL;
  4047f0:	9201      	str	r2, [sp, #4]
  4047f2:	9302      	str	r3, [sp, #8]
	configASSERT( xISRQueue );
  4047f4:	2800      	cmp	r0, #0
  4047f6:	d02d      	beq.n	404854 <vQueueOverwritePeriodicISRDemo+0x70>

	switch( ulCallCount )
  4047f8:	4c1d      	ldr	r4, [pc, #116]	; (404870 <vQueueOverwritePeriodicISRDemo+0x8c>)
  4047fa:	6823      	ldr	r3, [r4, #0]
  4047fc:	2b01      	cmp	r3, #1
  4047fe:	d022      	beq.n	404846 <vQueueOverwritePeriodicISRDemo+0x62>
  404800:	d313      	bcc.n	40482a <vQueueOverwritePeriodicISRDemo+0x46>
  404802:	2b02      	cmp	r3, #2
  404804:	d10a      	bne.n	40481c <vQueueOverwritePeriodicISRDemo+0x38>
			break;

		case 2:
			/* Read from the queue to empty the queue again.  The value read
			should be ulTx2. */
			xQueueReceiveFromISR( xISRQueue, &ulRx, NULL );
  404806:	4b1b      	ldr	r3, [pc, #108]	; (404874 <vQueueOverwritePeriodicISRDemo+0x90>)
  404808:	2200      	movs	r2, #0
  40480a:	a903      	add	r1, sp, #12
  40480c:	4798      	blx	r3

			if( ulRx != ulTx2 )
  40480e:	9b03      	ldr	r3, [sp, #12]
  404810:	2b14      	cmp	r3, #20
  404812:	d016      	beq.n	404842 <vQueueOverwritePeriodicISRDemo+0x5e>
			{
				xISRTestStatus = pdFAIL;
  404814:	4a18      	ldr	r2, [pc, #96]	; (404878 <vQueueOverwritePeriodicISRDemo+0x94>)
  404816:	2100      	movs	r1, #0
  404818:	6823      	ldr	r3, [r4, #0]
  40481a:	6011      	str	r1, [r2, #0]
			break;
	}

	/* Run the next case in the switch statement above next time this function
	is called. */
	ulCallCount++;
  40481c:	3301      	adds	r3, #1

	if( ulCallCount >= ulNumberOfSwitchCases )
  40481e:	2b02      	cmp	r3, #2
	{
		/* Go back to the start. */
		ulCallCount = 0;
  404820:	bf88      	it	hi
  404822:	2300      	movhi	r3, #0
  404824:	6023      	str	r3, [r4, #0]
	}
}
  404826:	b004      	add	sp, #16
  404828:	bd70      	pop	{r4, r5, r6, pc}
			xQueueOverwriteFromISR( xISRQueue, &ulTx1, NULL );
  40482a:	2302      	movs	r3, #2
  40482c:	2200      	movs	r2, #0
  40482e:	a901      	add	r1, sp, #4
  404830:	4e12      	ldr	r6, [pc, #72]	; (40487c <vQueueOverwritePeriodicISRDemo+0x98>)
  404832:	47b0      	blx	r6
			xQueuePeekFromISR( xISRQueue, &ulRx );
  404834:	4b12      	ldr	r3, [pc, #72]	; (404880 <vQueueOverwritePeriodicISRDemo+0x9c>)
  404836:	6828      	ldr	r0, [r5, #0]
  404838:	a903      	add	r1, sp, #12
  40483a:	4798      	blx	r3
			if( ulRx != ulTx1 )
  40483c:	9b03      	ldr	r3, [sp, #12]
  40483e:	2b0a      	cmp	r3, #10
  404840:	d1e8      	bne.n	404814 <vQueueOverwritePeriodicISRDemo+0x30>
  404842:	6823      	ldr	r3, [r4, #0]
			break;
  404844:	e7ea      	b.n	40481c <vQueueOverwritePeriodicISRDemo+0x38>
			xQueueOverwriteFromISR( xISRQueue, &ulTx2, NULL );
  404846:	2302      	movs	r3, #2
  404848:	2200      	movs	r2, #0
  40484a:	a902      	add	r1, sp, #8
  40484c:	4d0b      	ldr	r5, [pc, #44]	; (40487c <vQueueOverwritePeriodicISRDemo+0x98>)
  40484e:	47a8      	blx	r5
  404850:	6823      	ldr	r3, [r4, #0]
  404852:	e7e3      	b.n	40481c <vQueueOverwritePeriodicISRDemo+0x38>
  404854:	f04f 0380 	mov.w	r3, #128	; 0x80
  404858:	b672      	cpsid	i
  40485a:	f383 8811 	msr	BASEPRI, r3
  40485e:	f3bf 8f6f 	isb	sy
  404862:	f3bf 8f4f 	dsb	sy
  404866:	b662      	cpsie	i
  404868:	e7fe      	b.n	404868 <vQueueOverwritePeriodicISRDemo+0x84>
  40486a:	bf00      	nop
  40486c:	20428254 	.word	0x20428254
  404870:	20428250 	.word	0x20428250
  404874:	00403be5 	.word	0x00403be5
  404878:	20400034 	.word	0x20400034
  40487c:	00403a05 	.word	0x00403a05
  404880:	00403c25 	.word	0x00403c25

00404884 <xNotifyTaskFromISR>:

	/* The task performs some tests before starting the timer that gives the
	notification from this interrupt.  If the timer has not been created yet
	then the initial tests have not yet completed and the notification should
	not be sent. */
	if( xTimer != NULL )
  404884:	4b24      	ldr	r3, [pc, #144]	; (404918 <xNotifyTaskFromISR+0x94>)
  404886:	681b      	ldr	r3, [r3, #0]
  404888:	b1eb      	cbz	r3, 4048c6 <xNotifyTaskFromISR+0x42>
	{
		xCallCount++;
  40488a:	4924      	ldr	r1, [pc, #144]	; (40491c <xNotifyTaskFromISR+0x98>)
  40488c:	680b      	ldr	r3, [r1, #0]
  40488e:	3301      	adds	r3, #1

		if( xCallCount >= xCallInterval )
  404890:	2b31      	cmp	r3, #49	; 0x31
  404892:	dd19      	ble.n	4048c8 <xNotifyTaskFromISR+0x44>
{
  404894:	b570      	push	{r4, r5, r6, lr}
			/* It is time to 'give' the notification again. */
			xCallCount = 0;

			/* Test using both vTaskNotifyGiveFromISR(), xTaskNotifyFromISR()
			and xTaskNotifyAndQueryFromISR(). */
			switch( xAPIToUse )
  404896:	4c22      	ldr	r4, [pc, #136]	; (404920 <xNotifyTaskFromISR+0x9c>)
			xCallCount = 0;
  404898:	2500      	movs	r5, #0
{
  40489a:	b084      	sub	sp, #16
			switch( xAPIToUse )
  40489c:	6822      	ldr	r2, [r4, #0]
			xCallCount = 0;
  40489e:	600d      	str	r5, [r1, #0]
			switch( xAPIToUse )
  4048a0:	2a01      	cmp	r2, #1
  4048a2:	d013      	beq.n	4048cc <xNotifyTaskFromISR+0x48>
  4048a4:	2a02      	cmp	r2, #2
  4048a6:	d01d      	beq.n	4048e4 <xNotifyTaskFromISR+0x60>
  4048a8:	b93a      	cbnz	r2, 4048ba <xNotifyTaskFromISR+0x36>
			{
				case 0:	vTaskNotifyGiveFromISR( xTaskToNotify, NULL );
  4048aa:	481e      	ldr	r0, [pc, #120]	; (404924 <xNotifyTaskFromISR+0xa0>)
  4048ac:	4611      	mov	r1, r2
  4048ae:	4b1e      	ldr	r3, [pc, #120]	; (404928 <xNotifyTaskFromISR+0xa4>)
  4048b0:	6800      	ldr	r0, [r0, #0]
  4048b2:	4798      	blx	r3
						xAPIToUse++;
  4048b4:	6823      	ldr	r3, [r4, #0]
  4048b6:	3301      	adds	r3, #1
  4048b8:	6023      	str	r3, [r4, #0]

				default:/* Should never get here!. */
						break;
			}

			ulTimerNotificationsSent++;
  4048ba:	4a1c      	ldr	r2, [pc, #112]	; (40492c <xNotifyTaskFromISR+0xa8>)
  4048bc:	6813      	ldr	r3, [r2, #0]
  4048be:	3301      	adds	r3, #1
  4048c0:	6013      	str	r3, [r2, #0]
		}
	}
}
  4048c2:	b004      	add	sp, #16
  4048c4:	bd70      	pop	{r4, r5, r6, pc}
  4048c6:	4770      	bx	lr
		xCallCount++;
  4048c8:	600b      	str	r3, [r1, #0]
  4048ca:	4770      	bx	lr
				case 1:	xTaskNotifyFromISR( xTaskToNotify, 0, eIncrement, NULL );
  4048cc:	4a15      	ldr	r2, [pc, #84]	; (404924 <xNotifyTaskFromISR+0xa0>)
  4048ce:	462b      	mov	r3, r5
  4048d0:	9500      	str	r5, [sp, #0]
  4048d2:	4629      	mov	r1, r5
  4048d4:	6810      	ldr	r0, [r2, #0]
  4048d6:	2202      	movs	r2, #2
  4048d8:	4d15      	ldr	r5, [pc, #84]	; (404930 <xNotifyTaskFromISR+0xac>)
  4048da:	47a8      	blx	r5
						xAPIToUse++;
  4048dc:	6823      	ldr	r3, [r4, #0]
  4048de:	3301      	adds	r3, #1
  4048e0:	6023      	str	r3, [r4, #0]
						break;
  4048e2:	e7ea      	b.n	4048ba <xNotifyTaskFromISR+0x36>
				case 2: ulPreviousValue = ulUnexpectedValue;
  4048e4:	ab04      	add	r3, sp, #16
  4048e6:	21ff      	movs	r1, #255	; 0xff
						xTaskNotifyAndQueryFromISR( xTaskToNotify, 0, eIncrement, &ulPreviousValue, NULL );
  4048e8:	480e      	ldr	r0, [pc, #56]	; (404924 <xNotifyTaskFromISR+0xa0>)
  4048ea:	9500      	str	r5, [sp, #0]
  4048ec:	4e10      	ldr	r6, [pc, #64]	; (404930 <xNotifyTaskFromISR+0xac>)
				case 2: ulPreviousValue = ulUnexpectedValue;
  4048ee:	f843 1d04 	str.w	r1, [r3, #-4]!
						xTaskNotifyAndQueryFromISR( xTaskToNotify, 0, eIncrement, &ulPreviousValue, NULL );
  4048f2:	4629      	mov	r1, r5
  4048f4:	6800      	ldr	r0, [r0, #0]
  4048f6:	47b0      	blx	r6
						configASSERT( ulPreviousValue != ulUnexpectedValue );
  4048f8:	9b03      	ldr	r3, [sp, #12]
  4048fa:	2bff      	cmp	r3, #255	; 0xff
  4048fc:	d001      	beq.n	404902 <xNotifyTaskFromISR+0x7e>
						xAPIToUse = 0;
  4048fe:	6025      	str	r5, [r4, #0]
						break;
  404900:	e7db      	b.n	4048ba <xNotifyTaskFromISR+0x36>
  404902:	f04f 0380 	mov.w	r3, #128	; 0x80
  404906:	b672      	cpsid	i
  404908:	f383 8811 	msr	BASEPRI, r3
  40490c:	f3bf 8f6f 	isb	sy
  404910:	f3bf 8f4f 	dsb	sy
  404914:	b662      	cpsie	i
  404916:	e7fe      	b.n	404916 <xNotifyTaskFromISR+0x92>
  404918:	20428268 	.word	0x20428268
  40491c:	20428260 	.word	0x20428260
  404920:	2042825c 	.word	0x2042825c
  404924:	20428264 	.word	0x20428264
  404928:	00404515 	.word	0x00404515
  40492c:	20428258 	.word	0x20428258
  404930:	004043d9 	.word	0x004043d9

00404934 <vTimerPeriodicISRTests>:
	}
}
/*-----------------------------------------------------------*/

void vTimerPeriodicISRTests( void )
{
  404934:	e92d 41f0 	stmdb	sp!, {r4, r5, r6, r7, r8, lr}
		const TickType_t xMargin = 4;
	#endif /* _WINDOWS_ */
#endif


	uxTick++;
  404938:	4dab      	ldr	r5, [pc, #684]	; (404be8 <vTimerPeriodicISRTests+0x2b4>)
{
  40493a:	b082      	sub	sp, #8
	uxTick++;
  40493c:	682c      	ldr	r4, [r5, #0]
  40493e:	3401      	adds	r4, #1
  404940:	602c      	str	r4, [r5, #0]

	if( uxTick == 0 )
  404942:	2c00      	cmp	r4, #0
  404944:	d063      	beq.n	404a0e <vTimerPeriodicISRTests+0xda>
				again. */
				xTimerStopFromISR( xISRAutoReloadTimer, NULL );
			}
		}
	}
	else if( uxTick == ( xBasePeriod - xMargin ) )
  404946:	4ba9      	ldr	r3, [pc, #676]	; (404bec <vTimerPeriodicISRTests+0x2b8>)
  404948:	681b      	ldr	r3, [r3, #0]
  40494a:	1f1a      	subs	r2, r3, #4
  40494c:	4294      	cmp	r4, r2
  40494e:	d079      	beq.n	404a44 <vTimerPeriodicISRTests+0x110>
		{
			xTestStatus = pdFAIL;
			configASSERT( xTestStatus );
		}
	}
	else if( uxTick == ( xBasePeriod + xMargin ) )
  404950:	1d1a      	adds	r2, r3, #4
  404952:	4294      	cmp	r4, r2
  404954:	f000 808f 	beq.w	404a76 <vTimerPeriodicISRTests+0x142>
		{
			xTestStatus = pdFAIL;
			configASSERT( xTestStatus );
		}
	}
	else if( uxTick == ( ( 2 * xBasePeriod ) - xMargin ) )
  404958:	4aa5      	ldr	r2, [pc, #660]	; (404bf0 <vTimerPeriodicISRTests+0x2bc>)
  40495a:	441a      	add	r2, r3
  40495c:	0052      	lsls	r2, r2, #1
  40495e:	4294      	cmp	r4, r2
  404960:	f000 80eb 	beq.w	404b3a <vTimerPeriodicISRTests+0x206>
		{
			xTestStatus = pdFAIL;
			configASSERT( xTestStatus );
		}
	}
	else if( uxTick == ( ( 2 * xBasePeriod ) + xMargin ) )
  404964:	f102 0108 	add.w	r1, r2, #8
  404968:	428c      	cmp	r4, r1
  40496a:	f000 80bd 	beq.w	404ae8 <vTimerPeriodicISRTests+0x1b4>
		{
			xTestStatus = pdFAIL;
			configASSERT( xTestStatus );
		}
	}
	else if( uxTick == ( ( 2 * xBasePeriod ) + ( xBasePeriod >> ( TickType_t ) 2U ) ) )
  40496e:	3204      	adds	r2, #4
  404970:	eb02 0293 	add.w	r2, r2, r3, lsr #2
  404974:	4294      	cmp	r4, r2
  404976:	f000 8094 	beq.w	404aa2 <vTimerPeriodicISRTests+0x16e>
		{
			xTestStatus = pdFAIL;
			configASSERT( xTestStatus );
		}
	}
	else if( uxTick == ( 3 * xBasePeriod ) )
  40497a:	005a      	lsls	r2, r3, #1
  40497c:	18d1      	adds	r1, r2, r3
  40497e:	428c      	cmp	r4, r1
  404980:	f000 8250 	beq.w	404e24 <vTimerPeriodicISRTests+0x4f0>
	{
		/* Start the one shot timer again. */
		xTimerStartFromISR( xISROneShotTimer, NULL );
	}
	else if( uxTick == ( ( 3 * xBasePeriod ) + xMargin ) )
  404984:	3104      	adds	r1, #4
  404986:	428c      	cmp	r4, r1
  404988:	f000 828f 	beq.w	404eaa <vTimerPeriodicISRTests+0x576>

		/* Now stop the auto reload timer.  The one shot timer was started
		a few ticks ago. */
		xTimerStopFromISR( xISRAutoReloadTimer, NULL );
	}
	else if( uxTick == ( 4 * ( xBasePeriod - xMargin ) ) )
  40498c:	4999      	ldr	r1, [pc, #612]	; (404bf4 <vTimerPeriodicISRTests+0x2c0>)
  40498e:	4419      	add	r1, r3
  404990:	0089      	lsls	r1, r1, #2
  404992:	428c      	cmp	r4, r1
  404994:	f000 8252 	beq.w	404e3c <vTimerPeriodicISRTests+0x508>
		{
			xTestStatus = pdFAIL;
			configASSERT( xTestStatus );
		}
	}
	else if( uxTick == ( ( 4 * xBasePeriod ) + xMargin ) )
  404998:	3114      	adds	r1, #20
  40499a:	428c      	cmp	r4, r1
  40499c:	f000 818c 	beq.w	404cb8 <vTimerPeriodicISRTests+0x384>
		{
			xTestStatus = pdFAIL;
			configASSERT( xTestStatus );
		}
	}
	else if( uxTick == ( 8 * xBasePeriod ) )
  4049a0:	00d9      	lsls	r1, r3, #3
  4049a2:	428c      	cmp	r4, r1
  4049a4:	f000 815f 	beq.w	404c66 <vTimerPeriodicISRTests+0x332>
		}

		/* Now reset the one shot timer. */
		xTimerResetFromISR( xISROneShotTimer, NULL );
	}
	else if( uxTick == ( ( 9 * xBasePeriod ) - xMargin ) )
  4049a8:	4419      	add	r1, r3
  4049aa:	3904      	subs	r1, #4
  4049ac:	428c      	cmp	r4, r1
  4049ae:	f000 8131 	beq.w	404c14 <vTimerPeriodicISRTests+0x2e0>
			configASSERT( xTestStatus );
		}

		xTimerResetFromISR( xISROneShotTimer, NULL );
	}
	else if( uxTick == ( ( 10 * xBasePeriod ) - ( 2 * xMargin ) ) )
  4049b2:	eb03 0183 	add.w	r1, r3, r3, lsl #2
  4049b6:	0049      	lsls	r1, r1, #1
  4049b8:	f1a1 0008 	sub.w	r0, r1, #8
  4049bc:	4284      	cmp	r4, r0
  4049be:	f000 80de 	beq.w	404b7e <vTimerPeriodicISRTests+0x24a>
			configASSERT( xTestStatus );
		}

		xTimerResetFromISR( xISROneShotTimer, NULL );
	}
	else if( uxTick == ( ( 11 * xBasePeriod ) - ( 3 * xMargin ) ) )
  4049c2:	4419      	add	r1, r3
  4049c4:	390c      	subs	r1, #12
  4049c6:	428c      	cmp	r4, r1
  4049c8:	f000 81cc 	beq.w	404d64 <vTimerPeriodicISRTests+0x430>
			configASSERT( xTestStatus );
		}

		xTimerResetFromISR( xISROneShotTimer, NULL );
	}
	else if( uxTick == ( ( 12 * xBasePeriod ) - ( 2 * xMargin ) ) )
  4049cc:	441a      	add	r2, r3
  4049ce:	0092      	lsls	r2, r2, #2
  4049d0:	3a08      	subs	r2, #8
  4049d2:	4294      	cmp	r4, r2
  4049d4:	f000 819b 	beq.w	404d0e <vTimerPeriodicISRTests+0x3da>
		{
			xTestStatus = pdFAIL;
			configASSERT( xTestStatus );
		}
	}
	else if( uxTick == ( 15 * xBasePeriod ) )
  4049d8:	ebc3 1303 	rsb	r3, r3, r3, lsl #4
  4049dc:	429c      	cmp	r4, r3
  4049de:	d12e      	bne.n	404a3e <vTimerPeriodicISRTests+0x10a>
	{
		/* Neither timer should be running now.  Check neither callback count
		has incremented, then go back to the start to run these tests all
		over again. */
		if( ucISRAutoReloadTimerCounter != 3 )
  4049e0:	4b85      	ldr	r3, [pc, #532]	; (404bf8 <vTimerPeriodicISRTests+0x2c4>)
  4049e2:	781b      	ldrb	r3, [r3, #0]
  4049e4:	2b03      	cmp	r3, #3
  4049e6:	f000 8205 	beq.w	404df4 <vTimerPeriodicISRTests+0x4c0>
		{
			xTestStatus = pdFAIL;
  4049ea:	4b84      	ldr	r3, [pc, #528]	; (404bfc <vTimerPeriodicISRTests+0x2c8>)
  4049ec:	2200      	movs	r2, #0
  4049ee:	601a      	str	r2, [r3, #0]
			configASSERT( xTestStatus );
  4049f0:	681b      	ldr	r3, [r3, #0]
  4049f2:	2b00      	cmp	r3, #0
  4049f4:	f040 81fe 	bne.w	404df4 <vTimerPeriodicISRTests+0x4c0>
  4049f8:	f04f 0380 	mov.w	r3, #128	; 0x80
  4049fc:	b672      	cpsid	i
  4049fe:	f383 8811 	msr	BASEPRI, r3
  404a02:	f3bf 8f6f 	isb	sy
  404a06:	f3bf 8f4f 	dsb	sy
  404a0a:	b662      	cpsie	i
  404a0c:	e7fe      	b.n	404a0c <vTimerPeriodicISRTests+0xd8>
		ucISRAutoReloadTimerCounter = 0;
  404a0e:	f8df e1e8 	ldr.w	lr, [pc, #488]	; 404bf8 <vTimerPeriodicISRTests+0x2c4>
		uxTick = ( TickType_t ) -1;
  404a12:	f04f 36ff 	mov.w	r6, #4294967295
		if( xTimerChangePeriodFromISR( xISRAutoReloadTimer, xBasePeriod, NULL ) == pdPASS )
  404a16:	4f7a      	ldr	r7, [pc, #488]	; (404c00 <vTimerPeriodicISRTests+0x2cc>)
  404a18:	4623      	mov	r3, r4
  404a1a:	f8df 81d0 	ldr.w	r8, [pc, #464]	; 404bec <vTimerPeriodicISRTests+0x2b8>
  404a1e:	2109      	movs	r1, #9
  404a20:	6838      	ldr	r0, [r7, #0]
  404a22:	9400      	str	r4, [sp, #0]
		ucISRAutoReloadTimerCounter = 0;
  404a24:	f88e 4000 	strb.w	r4, [lr]
		ucISROneShotTimerCounter = 0;
  404a28:	f8df e1dc 	ldr.w	lr, [pc, #476]	; 404c08 <vTimerPeriodicISRTests+0x2d4>
		uxTick = ( TickType_t ) -1;
  404a2c:	602e      	str	r6, [r5, #0]
		if( xTimerChangePeriodFromISR( xISRAutoReloadTimer, xBasePeriod, NULL ) == pdPASS )
  404a2e:	f8d8 2000 	ldr.w	r2, [r8]
  404a32:	4e74      	ldr	r6, [pc, #464]	; (404c04 <vTimerPeriodicISRTests+0x2d0>)
		ucISROneShotTimerCounter = 0;
  404a34:	f88e 4000 	strb.w	r4, [lr]
		if( xTimerChangePeriodFromISR( xISRAutoReloadTimer, xBasePeriod, NULL ) == pdPASS )
  404a38:	47b0      	blx	r6
  404a3a:	2801      	cmp	r0, #1
  404a3c:	d048      	beq.n	404ad0 <vTimerPeriodicISRTests+0x19c>
			configASSERT( xTestStatus );
		}

		uxTick = ( TickType_t ) -1;
	}
}
  404a3e:	b002      	add	sp, #8
  404a40:	e8bd 81f0 	ldmia.w	sp!, {r4, r5, r6, r7, r8, pc}
		if( ( ucISRAutoReloadTimerCounter != 0 ) || ( ucISROneShotTimerCounter != 0 ) )
  404a44:	4b6c      	ldr	r3, [pc, #432]	; (404bf8 <vTimerPeriodicISRTests+0x2c4>)
  404a46:	781b      	ldrb	r3, [r3, #0]
  404a48:	b183      	cbz	r3, 404a6c <vTimerPeriodicISRTests+0x138>
			xTestStatus = pdFAIL;
  404a4a:	4b6c      	ldr	r3, [pc, #432]	; (404bfc <vTimerPeriodicISRTests+0x2c8>)
  404a4c:	2200      	movs	r2, #0
  404a4e:	601a      	str	r2, [r3, #0]
			configASSERT( xTestStatus );
  404a50:	681b      	ldr	r3, [r3, #0]
  404a52:	2b00      	cmp	r3, #0
  404a54:	d1f3      	bne.n	404a3e <vTimerPeriodicISRTests+0x10a>
  404a56:	f04f 0380 	mov.w	r3, #128	; 0x80
  404a5a:	b672      	cpsid	i
  404a5c:	f383 8811 	msr	BASEPRI, r3
  404a60:	f3bf 8f6f 	isb	sy
  404a64:	f3bf 8f4f 	dsb	sy
  404a68:	b662      	cpsie	i
  404a6a:	e7fe      	b.n	404a6a <vTimerPeriodicISRTests+0x136>
		if( ( ucISRAutoReloadTimerCounter != 0 ) || ( ucISROneShotTimerCounter != 0 ) )
  404a6c:	4b66      	ldr	r3, [pc, #408]	; (404c08 <vTimerPeriodicISRTests+0x2d4>)
  404a6e:	781b      	ldrb	r3, [r3, #0]
  404a70:	2b00      	cmp	r3, #0
  404a72:	d1ea      	bne.n	404a4a <vTimerPeriodicISRTests+0x116>
  404a74:	e7e3      	b.n	404a3e <vTimerPeriodicISRTests+0x10a>
		if( ( ucISRAutoReloadTimerCounter != 1 ) || ( ucISROneShotTimerCounter != 1 ) )
  404a76:	4b60      	ldr	r3, [pc, #384]	; (404bf8 <vTimerPeriodicISRTests+0x2c4>)
  404a78:	781b      	ldrb	r3, [r3, #0]
  404a7a:	2b01      	cmp	r3, #1
  404a7c:	f000 81b4 	beq.w	404de8 <vTimerPeriodicISRTests+0x4b4>
			xTestStatus = pdFAIL;
  404a80:	4b5e      	ldr	r3, [pc, #376]	; (404bfc <vTimerPeriodicISRTests+0x2c8>)
  404a82:	2200      	movs	r2, #0
  404a84:	601a      	str	r2, [r3, #0]
			configASSERT( xTestStatus );
  404a86:	681b      	ldr	r3, [r3, #0]
  404a88:	2b00      	cmp	r3, #0
  404a8a:	d1d8      	bne.n	404a3e <vTimerPeriodicISRTests+0x10a>
  404a8c:	f04f 0380 	mov.w	r3, #128	; 0x80
  404a90:	b672      	cpsid	i
  404a92:	f383 8811 	msr	BASEPRI, r3
  404a96:	f3bf 8f6f 	isb	sy
  404a9a:	f3bf 8f4f 	dsb	sy
  404a9e:	b662      	cpsie	i
  404aa0:	e7fe      	b.n	404aa0 <vTimerPeriodicISRTests+0x16c>
		if( ucISRAutoReloadTimerCounter != 2 )
  404aa2:	4b55      	ldr	r3, [pc, #340]	; (404bf8 <vTimerPeriodicISRTests+0x2c4>)
  404aa4:	781b      	ldrb	r3, [r3, #0]
  404aa6:	2b02      	cmp	r3, #2
  404aa8:	f000 8187 	beq.w	404dba <vTimerPeriodicISRTests+0x486>
			xTestStatus = pdFAIL;
  404aac:	4b53      	ldr	r3, [pc, #332]	; (404bfc <vTimerPeriodicISRTests+0x2c8>)
  404aae:	2200      	movs	r2, #0
  404ab0:	601a      	str	r2, [r3, #0]
			configASSERT( xTestStatus );
  404ab2:	681b      	ldr	r3, [r3, #0]
  404ab4:	2b00      	cmp	r3, #0
  404ab6:	f040 8180 	bne.w	404dba <vTimerPeriodicISRTests+0x486>
  404aba:	f04f 0380 	mov.w	r3, #128	; 0x80
  404abe:	b672      	cpsid	i
  404ac0:	f383 8811 	msr	BASEPRI, r3
  404ac4:	f3bf 8f6f 	isb	sy
  404ac8:	f3bf 8f4f 	dsb	sy
  404acc:	b662      	cpsie	i
  404ace:	e7fe      	b.n	404ace <vTimerPeriodicISRTests+0x19a>
			if( xTimerChangePeriodFromISR( xISROneShotTimer, xBasePeriod, NULL ) == pdPASS )
  404ad0:	484e      	ldr	r0, [pc, #312]	; (404c0c <vTimerPeriodicISRTests+0x2d8>)
  404ad2:	4623      	mov	r3, r4
  404ad4:	f8d8 2000 	ldr.w	r2, [r8]
  404ad8:	2109      	movs	r1, #9
  404ada:	6800      	ldr	r0, [r0, #0]
  404adc:	9400      	str	r4, [sp, #0]
  404ade:	47b0      	blx	r6
  404ae0:	2801      	cmp	r0, #1
  404ae2:	d145      	bne.n	404b70 <vTimerPeriodicISRTests+0x23c>
				uxTick = 0;
  404ae4:	602c      	str	r4, [r5, #0]
  404ae6:	e7aa      	b.n	404a3e <vTimerPeriodicISRTests+0x10a>
		if( ucISRAutoReloadTimerCounter != 2 )
  404ae8:	4b43      	ldr	r3, [pc, #268]	; (404bf8 <vTimerPeriodicISRTests+0x2c4>)
  404aea:	781b      	ldrb	r3, [r3, #0]
  404aec:	2b02      	cmp	r3, #2
  404aee:	d00f      	beq.n	404b10 <vTimerPeriodicISRTests+0x1dc>
			xTestStatus = pdFAIL;
  404af0:	4b42      	ldr	r3, [pc, #264]	; (404bfc <vTimerPeriodicISRTests+0x2c8>)
  404af2:	2200      	movs	r2, #0
  404af4:	601a      	str	r2, [r3, #0]
			configASSERT( xTestStatus );
  404af6:	681b      	ldr	r3, [r3, #0]
  404af8:	b953      	cbnz	r3, 404b10 <vTimerPeriodicISRTests+0x1dc>
  404afa:	f04f 0380 	mov.w	r3, #128	; 0x80
  404afe:	b672      	cpsid	i
  404b00:	f383 8811 	msr	BASEPRI, r3
  404b04:	f3bf 8f6f 	isb	sy
  404b08:	f3bf 8f4f 	dsb	sy
  404b0c:	b662      	cpsie	i
  404b0e:	e7fe      	b.n	404b0e <vTimerPeriodicISRTests+0x1da>
		if( ucISROneShotTimerCounter != 1 )
  404b10:	4b3d      	ldr	r3, [pc, #244]	; (404c08 <vTimerPeriodicISRTests+0x2d4>)
  404b12:	781b      	ldrb	r3, [r3, #0]
  404b14:	2b01      	cmp	r3, #1
  404b16:	d092      	beq.n	404a3e <vTimerPeriodicISRTests+0x10a>
			xTestStatus = pdFAIL;
  404b18:	4b38      	ldr	r3, [pc, #224]	; (404bfc <vTimerPeriodicISRTests+0x2c8>)
  404b1a:	2200      	movs	r2, #0
  404b1c:	601a      	str	r2, [r3, #0]
			configASSERT( xTestStatus );
  404b1e:	681b      	ldr	r3, [r3, #0]
  404b20:	2b00      	cmp	r3, #0
  404b22:	d18c      	bne.n	404a3e <vTimerPeriodicISRTests+0x10a>
  404b24:	f04f 0380 	mov.w	r3, #128	; 0x80
  404b28:	b672      	cpsid	i
  404b2a:	f383 8811 	msr	BASEPRI, r3
  404b2e:	f3bf 8f6f 	isb	sy
  404b32:	f3bf 8f4f 	dsb	sy
  404b36:	b662      	cpsie	i
  404b38:	e7fe      	b.n	404b38 <vTimerPeriodicISRTests+0x204>
		if( ( ucISRAutoReloadTimerCounter != 1 ) || ( ucISROneShotTimerCounter != 1 ) )
  404b3a:	4b2f      	ldr	r3, [pc, #188]	; (404bf8 <vTimerPeriodicISRTests+0x2c4>)
  404b3c:	781b      	ldrb	r3, [r3, #0]
  404b3e:	2b01      	cmp	r3, #1
  404b40:	d011      	beq.n	404b66 <vTimerPeriodicISRTests+0x232>
			xTestStatus = pdFAIL;
  404b42:	4b2e      	ldr	r3, [pc, #184]	; (404bfc <vTimerPeriodicISRTests+0x2c8>)
  404b44:	2200      	movs	r2, #0
  404b46:	601a      	str	r2, [r3, #0]
			configASSERT( xTestStatus );
  404b48:	681b      	ldr	r3, [r3, #0]
  404b4a:	2b00      	cmp	r3, #0
  404b4c:	f47f af77 	bne.w	404a3e <vTimerPeriodicISRTests+0x10a>
  404b50:	f04f 0380 	mov.w	r3, #128	; 0x80
  404b54:	b672      	cpsid	i
  404b56:	f383 8811 	msr	BASEPRI, r3
  404b5a:	f3bf 8f6f 	isb	sy
  404b5e:	f3bf 8f4f 	dsb	sy
  404b62:	b662      	cpsie	i
  404b64:	e7fe      	b.n	404b64 <vTimerPeriodicISRTests+0x230>
		if( ( ucISRAutoReloadTimerCounter != 1 ) || ( ucISROneShotTimerCounter != 1 ) )
  404b66:	4b28      	ldr	r3, [pc, #160]	; (404c08 <vTimerPeriodicISRTests+0x2d4>)
  404b68:	781b      	ldrb	r3, [r3, #0]
  404b6a:	2b01      	cmp	r3, #1
  404b6c:	d1e9      	bne.n	404b42 <vTimerPeriodicISRTests+0x20e>
  404b6e:	e766      	b.n	404a3e <vTimerPeriodicISRTests+0x10a>
				xTimerStopFromISR( xISRAutoReloadTimer, NULL );
  404b70:	6838      	ldr	r0, [r7, #0]
  404b72:	4623      	mov	r3, r4
  404b74:	9400      	str	r4, [sp, #0]
  404b76:	4622      	mov	r2, r4
  404b78:	2108      	movs	r1, #8
  404b7a:	47b0      	blx	r6
  404b7c:	e75f      	b.n	404a3e <vTimerPeriodicISRTests+0x10a>
		if( ucISRAutoReloadTimerCounter != 3 )
  404b7e:	4b1e      	ldr	r3, [pc, #120]	; (404bf8 <vTimerPeriodicISRTests+0x2c4>)
  404b80:	781b      	ldrb	r3, [r3, #0]
  404b82:	2b03      	cmp	r3, #3
  404b84:	d00f      	beq.n	404ba6 <vTimerPeriodicISRTests+0x272>
			xTestStatus = pdFAIL;
  404b86:	4b1d      	ldr	r3, [pc, #116]	; (404bfc <vTimerPeriodicISRTests+0x2c8>)
  404b88:	2200      	movs	r2, #0
  404b8a:	601a      	str	r2, [r3, #0]
			configASSERT( xTestStatus );
  404b8c:	681b      	ldr	r3, [r3, #0]
  404b8e:	b953      	cbnz	r3, 404ba6 <vTimerPeriodicISRTests+0x272>
  404b90:	f04f 0380 	mov.w	r3, #128	; 0x80
  404b94:	b672      	cpsid	i
  404b96:	f383 8811 	msr	BASEPRI, r3
  404b9a:	f3bf 8f6f 	isb	sy
  404b9e:	f3bf 8f4f 	dsb	sy
  404ba2:	b662      	cpsie	i
  404ba4:	e7fe      	b.n	404ba4 <vTimerPeriodicISRTests+0x270>
		if( ucISROneShotTimerCounter != 2 )
  404ba6:	4b18      	ldr	r3, [pc, #96]	; (404c08 <vTimerPeriodicISRTests+0x2d4>)
  404ba8:	781b      	ldrb	r3, [r3, #0]
  404baa:	2b02      	cmp	r3, #2
  404bac:	d00f      	beq.n	404bce <vTimerPeriodicISRTests+0x29a>
			xTestStatus = pdFAIL;
  404bae:	4b13      	ldr	r3, [pc, #76]	; (404bfc <vTimerPeriodicISRTests+0x2c8>)
  404bb0:	2200      	movs	r2, #0
  404bb2:	601a      	str	r2, [r3, #0]
			configASSERT( xTestStatus );
  404bb4:	681b      	ldr	r3, [r3, #0]
  404bb6:	b953      	cbnz	r3, 404bce <vTimerPeriodicISRTests+0x29a>
  404bb8:	f04f 0380 	mov.w	r3, #128	; 0x80
  404bbc:	b672      	cpsid	i
  404bbe:	f383 8811 	msr	BASEPRI, r3
  404bc2:	f3bf 8f6f 	isb	sy
  404bc6:	f3bf 8f4f 	dsb	sy
  404bca:	b662      	cpsie	i
  404bcc:	e7fe      	b.n	404bcc <vTimerPeriodicISRTests+0x298>
		xTimerResetFromISR( xISROneShotTimer, NULL );
  404bce:	4a0f      	ldr	r2, [pc, #60]	; (404c0c <vTimerPeriodicISRTests+0x2d8>)
  404bd0:	4b0f      	ldr	r3, [pc, #60]	; (404c10 <vTimerPeriodicISRTests+0x2dc>)
  404bd2:	6814      	ldr	r4, [r2, #0]
  404bd4:	4798      	blx	r3
  404bd6:	2300      	movs	r3, #0
  404bd8:	4602      	mov	r2, r0
  404bda:	2107      	movs	r1, #7
  404bdc:	4620      	mov	r0, r4
  404bde:	9300      	str	r3, [sp, #0]
  404be0:	4c08      	ldr	r4, [pc, #32]	; (404c04 <vTimerPeriodicISRTests+0x2d0>)
  404be2:	47a0      	blx	r4
  404be4:	e72b      	b.n	404a3e <vTimerPeriodicISRTests+0x10a>
  404be6:	bf00      	nop
  404be8:	20400038 	.word	0x20400038
  404bec:	20428270 	.word	0x20428270
  404bf0:	7ffffffe 	.word	0x7ffffffe
  404bf4:	3ffffffc 	.word	0x3ffffffc
  404bf8:	2042826c 	.word	0x2042826c
  404bfc:	2040003c 	.word	0x2040003c
  404c00:	20428274 	.word	0x20428274
  404c04:	00404615 	.word	0x00404615
  404c08:	2042826d 	.word	0x2042826d
  404c0c:	20428278 	.word	0x20428278
  404c10:	00403cc9 	.word	0x00403cc9
		if( ucISRAutoReloadTimerCounter != 3 )
  404c14:	4b93      	ldr	r3, [pc, #588]	; (404e64 <vTimerPeriodicISRTests+0x530>)
  404c16:	781b      	ldrb	r3, [r3, #0]
  404c18:	2b03      	cmp	r3, #3
  404c1a:	d00f      	beq.n	404c3c <vTimerPeriodicISRTests+0x308>
			xTestStatus = pdFAIL;
  404c1c:	4b92      	ldr	r3, [pc, #584]	; (404e68 <vTimerPeriodicISRTests+0x534>)
  404c1e:	2200      	movs	r2, #0
  404c20:	601a      	str	r2, [r3, #0]
			configASSERT( xTestStatus );
  404c22:	681b      	ldr	r3, [r3, #0]
  404c24:	b953      	cbnz	r3, 404c3c <vTimerPeriodicISRTests+0x308>
  404c26:	f04f 0380 	mov.w	r3, #128	; 0x80
  404c2a:	b672      	cpsid	i
  404c2c:	f383 8811 	msr	BASEPRI, r3
  404c30:	f3bf 8f6f 	isb	sy
  404c34:	f3bf 8f4f 	dsb	sy
  404c38:	b662      	cpsie	i
  404c3a:	e7fe      	b.n	404c3a <vTimerPeriodicISRTests+0x306>
		if( ucISROneShotTimerCounter != 2 )
  404c3c:	4b8b      	ldr	r3, [pc, #556]	; (404e6c <vTimerPeriodicISRTests+0x538>)
  404c3e:	781b      	ldrb	r3, [r3, #0]
  404c40:	2b02      	cmp	r3, #2
  404c42:	d0c4      	beq.n	404bce <vTimerPeriodicISRTests+0x29a>
			xTestStatus = pdFAIL;
  404c44:	4b88      	ldr	r3, [pc, #544]	; (404e68 <vTimerPeriodicISRTests+0x534>)
  404c46:	2200      	movs	r2, #0
  404c48:	601a      	str	r2, [r3, #0]
			configASSERT( xTestStatus );
  404c4a:	681b      	ldr	r3, [r3, #0]
  404c4c:	2b00      	cmp	r3, #0
  404c4e:	d1be      	bne.n	404bce <vTimerPeriodicISRTests+0x29a>
  404c50:	f04f 0380 	mov.w	r3, #128	; 0x80
  404c54:	b672      	cpsid	i
  404c56:	f383 8811 	msr	BASEPRI, r3
  404c5a:	f3bf 8f6f 	isb	sy
  404c5e:	f3bf 8f4f 	dsb	sy
  404c62:	b662      	cpsie	i
  404c64:	e7fe      	b.n	404c64 <vTimerPeriodicISRTests+0x330>
		if( ucISRAutoReloadTimerCounter != 3 )
  404c66:	4b7f      	ldr	r3, [pc, #508]	; (404e64 <vTimerPeriodicISRTests+0x530>)
  404c68:	781b      	ldrb	r3, [r3, #0]
  404c6a:	2b03      	cmp	r3, #3
  404c6c:	d00f      	beq.n	404c8e <vTimerPeriodicISRTests+0x35a>
			xTestStatus = pdFAIL;
  404c6e:	4b7e      	ldr	r3, [pc, #504]	; (404e68 <vTimerPeriodicISRTests+0x534>)
  404c70:	2200      	movs	r2, #0
  404c72:	601a      	str	r2, [r3, #0]
			configASSERT( xTestStatus );
  404c74:	681b      	ldr	r3, [r3, #0]
  404c76:	b953      	cbnz	r3, 404c8e <vTimerPeriodicISRTests+0x35a>
  404c78:	f04f 0380 	mov.w	r3, #128	; 0x80
  404c7c:	b672      	cpsid	i
  404c7e:	f383 8811 	msr	BASEPRI, r3
  404c82:	f3bf 8f6f 	isb	sy
  404c86:	f3bf 8f4f 	dsb	sy
  404c8a:	b662      	cpsie	i
  404c8c:	e7fe      	b.n	404c8c <vTimerPeriodicISRTests+0x358>
		if( ucISROneShotTimerCounter != 2 )
  404c8e:	4b77      	ldr	r3, [pc, #476]	; (404e6c <vTimerPeriodicISRTests+0x538>)
  404c90:	781b      	ldrb	r3, [r3, #0]
  404c92:	2b02      	cmp	r3, #2
  404c94:	d09b      	beq.n	404bce <vTimerPeriodicISRTests+0x29a>
			xTestStatus = pdFAIL;
  404c96:	4b74      	ldr	r3, [pc, #464]	; (404e68 <vTimerPeriodicISRTests+0x534>)
  404c98:	2200      	movs	r2, #0
  404c9a:	601a      	str	r2, [r3, #0]
			configASSERT( xTestStatus );
  404c9c:	681b      	ldr	r3, [r3, #0]
  404c9e:	2b00      	cmp	r3, #0
  404ca0:	d195      	bne.n	404bce <vTimerPeriodicISRTests+0x29a>
  404ca2:	f04f 0380 	mov.w	r3, #128	; 0x80
  404ca6:	b672      	cpsid	i
  404ca8:	f383 8811 	msr	BASEPRI, r3
  404cac:	f3bf 8f6f 	isb	sy
  404cb0:	f3bf 8f4f 	dsb	sy
  404cb4:	b662      	cpsie	i
  404cb6:	e7fe      	b.n	404cb6 <vTimerPeriodicISRTests+0x382>
		if( ucISRAutoReloadTimerCounter != 3 )
  404cb8:	4b6a      	ldr	r3, [pc, #424]	; (404e64 <vTimerPeriodicISRTests+0x530>)
  404cba:	781b      	ldrb	r3, [r3, #0]
  404cbc:	2b03      	cmp	r3, #3
  404cbe:	d00f      	beq.n	404ce0 <vTimerPeriodicISRTests+0x3ac>
			xTestStatus = pdFAIL;
  404cc0:	4b69      	ldr	r3, [pc, #420]	; (404e68 <vTimerPeriodicISRTests+0x534>)
  404cc2:	2200      	movs	r2, #0
  404cc4:	601a      	str	r2, [r3, #0]
			configASSERT( xTestStatus );
  404cc6:	681b      	ldr	r3, [r3, #0]
  404cc8:	b953      	cbnz	r3, 404ce0 <vTimerPeriodicISRTests+0x3ac>
  404cca:	f04f 0380 	mov.w	r3, #128	; 0x80
  404cce:	b672      	cpsid	i
  404cd0:	f383 8811 	msr	BASEPRI, r3
  404cd4:	f3bf 8f6f 	isb	sy
  404cd8:	f3bf 8f4f 	dsb	sy
  404cdc:	b662      	cpsie	i
  404cde:	e7fe      	b.n	404cde <vTimerPeriodicISRTests+0x3aa>
		if( ucISROneShotTimerCounter != 2 )
  404ce0:	4b62      	ldr	r3, [pc, #392]	; (404e6c <vTimerPeriodicISRTests+0x538>)
  404ce2:	781b      	ldrb	r3, [r3, #0]
  404ce4:	2b02      	cmp	r3, #2
  404ce6:	f43f aeaa 	beq.w	404a3e <vTimerPeriodicISRTests+0x10a>
			xTestStatus = pdFAIL;
  404cea:	4b5f      	ldr	r3, [pc, #380]	; (404e68 <vTimerPeriodicISRTests+0x534>)
  404cec:	2200      	movs	r2, #0
  404cee:	601a      	str	r2, [r3, #0]
			configASSERT( xTestStatus );
  404cf0:	681b      	ldr	r3, [r3, #0]
  404cf2:	2b00      	cmp	r3, #0
  404cf4:	f47f aea3 	bne.w	404a3e <vTimerPeriodicISRTests+0x10a>
  404cf8:	f04f 0380 	mov.w	r3, #128	; 0x80
  404cfc:	b672      	cpsid	i
  404cfe:	f383 8811 	msr	BASEPRI, r3
  404d02:	f3bf 8f6f 	isb	sy
  404d06:	f3bf 8f4f 	dsb	sy
  404d0a:	b662      	cpsie	i
  404d0c:	e7fe      	b.n	404d0c <vTimerPeriodicISRTests+0x3d8>
		if( ucISRAutoReloadTimerCounter != 3 )
  404d0e:	4b55      	ldr	r3, [pc, #340]	; (404e64 <vTimerPeriodicISRTests+0x530>)
  404d10:	781b      	ldrb	r3, [r3, #0]
  404d12:	2b03      	cmp	r3, #3
  404d14:	d00f      	beq.n	404d36 <vTimerPeriodicISRTests+0x402>
			xTestStatus = pdFAIL;
  404d16:	4b54      	ldr	r3, [pc, #336]	; (404e68 <vTimerPeriodicISRTests+0x534>)
  404d18:	2200      	movs	r2, #0
  404d1a:	601a      	str	r2, [r3, #0]
			configASSERT( xTestStatus );
  404d1c:	681b      	ldr	r3, [r3, #0]
  404d1e:	b953      	cbnz	r3, 404d36 <vTimerPeriodicISRTests+0x402>
  404d20:	f04f 0380 	mov.w	r3, #128	; 0x80
  404d24:	b672      	cpsid	i
  404d26:	f383 8811 	msr	BASEPRI, r3
  404d2a:	f3bf 8f6f 	isb	sy
  404d2e:	f3bf 8f4f 	dsb	sy
  404d32:	b662      	cpsie	i
  404d34:	e7fe      	b.n	404d34 <vTimerPeriodicISRTests+0x400>
		if( ucISROneShotTimerCounter != 3 )
  404d36:	4b4d      	ldr	r3, [pc, #308]	; (404e6c <vTimerPeriodicISRTests+0x538>)
  404d38:	781b      	ldrb	r3, [r3, #0]
  404d3a:	2b03      	cmp	r3, #3
  404d3c:	f43f ae7f 	beq.w	404a3e <vTimerPeriodicISRTests+0x10a>
			xTestStatus = pdFAIL;
  404d40:	4b49      	ldr	r3, [pc, #292]	; (404e68 <vTimerPeriodicISRTests+0x534>)
  404d42:	2200      	movs	r2, #0
  404d44:	601a      	str	r2, [r3, #0]
			configASSERT( xTestStatus );
  404d46:	681b      	ldr	r3, [r3, #0]
  404d48:	2b00      	cmp	r3, #0
  404d4a:	f47f ae78 	bne.w	404a3e <vTimerPeriodicISRTests+0x10a>
  404d4e:	f04f 0380 	mov.w	r3, #128	; 0x80
  404d52:	b672      	cpsid	i
  404d54:	f383 8811 	msr	BASEPRI, r3
  404d58:	f3bf 8f6f 	isb	sy
  404d5c:	f3bf 8f4f 	dsb	sy
  404d60:	b662      	cpsie	i
  404d62:	e7fe      	b.n	404d62 <vTimerPeriodicISRTests+0x42e>
		if( ucISRAutoReloadTimerCounter != 3 )
  404d64:	4b3f      	ldr	r3, [pc, #252]	; (404e64 <vTimerPeriodicISRTests+0x530>)
  404d66:	781b      	ldrb	r3, [r3, #0]
  404d68:	2b03      	cmp	r3, #3
  404d6a:	d00f      	beq.n	404d8c <vTimerPeriodicISRTests+0x458>
			xTestStatus = pdFAIL;
  404d6c:	4b3e      	ldr	r3, [pc, #248]	; (404e68 <vTimerPeriodicISRTests+0x534>)
  404d6e:	2200      	movs	r2, #0
  404d70:	601a      	str	r2, [r3, #0]
			configASSERT( xTestStatus );
  404d72:	681b      	ldr	r3, [r3, #0]
  404d74:	b953      	cbnz	r3, 404d8c <vTimerPeriodicISRTests+0x458>
  404d76:	f04f 0380 	mov.w	r3, #128	; 0x80
  404d7a:	b672      	cpsid	i
  404d7c:	f383 8811 	msr	BASEPRI, r3
  404d80:	f3bf 8f6f 	isb	sy
  404d84:	f3bf 8f4f 	dsb	sy
  404d88:	b662      	cpsie	i
  404d8a:	e7fe      	b.n	404d8a <vTimerPeriodicISRTests+0x456>
		if( ucISROneShotTimerCounter != 2 )
  404d8c:	4b37      	ldr	r3, [pc, #220]	; (404e6c <vTimerPeriodicISRTests+0x538>)
  404d8e:	781b      	ldrb	r3, [r3, #0]
  404d90:	2b02      	cmp	r3, #2
  404d92:	f43f af1c 	beq.w	404bce <vTimerPeriodicISRTests+0x29a>
			xTestStatus = pdFAIL;
  404d96:	4b34      	ldr	r3, [pc, #208]	; (404e68 <vTimerPeriodicISRTests+0x534>)
  404d98:	2200      	movs	r2, #0
  404d9a:	601a      	str	r2, [r3, #0]
			configASSERT( xTestStatus );
  404d9c:	681b      	ldr	r3, [r3, #0]
  404d9e:	2b00      	cmp	r3, #0
  404da0:	f47f af15 	bne.w	404bce <vTimerPeriodicISRTests+0x29a>
  404da4:	f04f 0380 	mov.w	r3, #128	; 0x80
  404da8:	b672      	cpsid	i
  404daa:	f383 8811 	msr	BASEPRI, r3
  404dae:	f3bf 8f6f 	isb	sy
  404db2:	f3bf 8f4f 	dsb	sy
  404db6:	b662      	cpsie	i
  404db8:	e7fe      	b.n	404db8 <vTimerPeriodicISRTests+0x484>
		if( ucISROneShotTimerCounter != 1 )
  404dba:	4b2c      	ldr	r3, [pc, #176]	; (404e6c <vTimerPeriodicISRTests+0x538>)
  404dbc:	781b      	ldrb	r3, [r3, #0]
  404dbe:	2b01      	cmp	r3, #1
  404dc0:	f43f ae3d 	beq.w	404a3e <vTimerPeriodicISRTests+0x10a>
			xTestStatus = pdFAIL;
  404dc4:	4b28      	ldr	r3, [pc, #160]	; (404e68 <vTimerPeriodicISRTests+0x534>)
  404dc6:	2200      	movs	r2, #0
  404dc8:	601a      	str	r2, [r3, #0]
			configASSERT( xTestStatus );
  404dca:	681b      	ldr	r3, [r3, #0]
  404dcc:	2b00      	cmp	r3, #0
  404dce:	f47f ae36 	bne.w	404a3e <vTimerPeriodicISRTests+0x10a>
  404dd2:	f04f 0380 	mov.w	r3, #128	; 0x80
  404dd6:	b672      	cpsid	i
  404dd8:	f383 8811 	msr	BASEPRI, r3
  404ddc:	f3bf 8f6f 	isb	sy
  404de0:	f3bf 8f4f 	dsb	sy
  404de4:	b662      	cpsie	i
  404de6:	e7fe      	b.n	404de6 <vTimerPeriodicISRTests+0x4b2>
		if( ( ucISRAutoReloadTimerCounter != 1 ) || ( ucISROneShotTimerCounter != 1 ) )
  404de8:	4b20      	ldr	r3, [pc, #128]	; (404e6c <vTimerPeriodicISRTests+0x538>)
  404dea:	781b      	ldrb	r3, [r3, #0]
  404dec:	2b01      	cmp	r3, #1
  404dee:	f47f ae47 	bne.w	404a80 <vTimerPeriodicISRTests+0x14c>
  404df2:	e624      	b.n	404a3e <vTimerPeriodicISRTests+0x10a>
		if( ucISROneShotTimerCounter != 3 )
  404df4:	4b1d      	ldr	r3, [pc, #116]	; (404e6c <vTimerPeriodicISRTests+0x538>)
  404df6:	781b      	ldrb	r3, [r3, #0]
  404df8:	2b03      	cmp	r3, #3
  404dfa:	d00f      	beq.n	404e1c <vTimerPeriodicISRTests+0x4e8>
			xTestStatus = pdFAIL;
  404dfc:	4b1a      	ldr	r3, [pc, #104]	; (404e68 <vTimerPeriodicISRTests+0x534>)
  404dfe:	2200      	movs	r2, #0
  404e00:	601a      	str	r2, [r3, #0]
			configASSERT( xTestStatus );
  404e02:	681b      	ldr	r3, [r3, #0]
  404e04:	b953      	cbnz	r3, 404e1c <vTimerPeriodicISRTests+0x4e8>
  404e06:	f04f 0380 	mov.w	r3, #128	; 0x80
  404e0a:	b672      	cpsid	i
  404e0c:	f383 8811 	msr	BASEPRI, r3
  404e10:	f3bf 8f6f 	isb	sy
  404e14:	f3bf 8f4f 	dsb	sy
  404e18:	b662      	cpsie	i
  404e1a:	e7fe      	b.n	404e1a <vTimerPeriodicISRTests+0x4e6>
		uxTick = ( TickType_t ) -1;
  404e1c:	f04f 33ff 	mov.w	r3, #4294967295
  404e20:	602b      	str	r3, [r5, #0]
}
  404e22:	e60c      	b.n	404a3e <vTimerPeriodicISRTests+0x10a>
		xTimerStartFromISR( xISROneShotTimer, NULL );
  404e24:	4a12      	ldr	r2, [pc, #72]	; (404e70 <vTimerPeriodicISRTests+0x53c>)
  404e26:	4b13      	ldr	r3, [pc, #76]	; (404e74 <vTimerPeriodicISRTests+0x540>)
  404e28:	6814      	ldr	r4, [r2, #0]
  404e2a:	4798      	blx	r3
  404e2c:	2300      	movs	r3, #0
  404e2e:	4602      	mov	r2, r0
  404e30:	2106      	movs	r1, #6
  404e32:	4620      	mov	r0, r4
  404e34:	9300      	str	r3, [sp, #0]
  404e36:	4c10      	ldr	r4, [pc, #64]	; (404e78 <vTimerPeriodicISRTests+0x544>)
  404e38:	47a0      	blx	r4
  404e3a:	e600      	b.n	404a3e <vTimerPeriodicISRTests+0x10a>
		if( ucISRAutoReloadTimerCounter != 3 )
  404e3c:	4b09      	ldr	r3, [pc, #36]	; (404e64 <vTimerPeriodicISRTests+0x530>)
  404e3e:	781b      	ldrb	r3, [r3, #0]
  404e40:	2b03      	cmp	r3, #3
  404e42:	d01b      	beq.n	404e7c <vTimerPeriodicISRTests+0x548>
			xTestStatus = pdFAIL;
  404e44:	4b08      	ldr	r3, [pc, #32]	; (404e68 <vTimerPeriodicISRTests+0x534>)
  404e46:	2200      	movs	r2, #0
  404e48:	601a      	str	r2, [r3, #0]
			configASSERT( xTestStatus );
  404e4a:	681b      	ldr	r3, [r3, #0]
  404e4c:	b9b3      	cbnz	r3, 404e7c <vTimerPeriodicISRTests+0x548>
  404e4e:	f04f 0380 	mov.w	r3, #128	; 0x80
  404e52:	b672      	cpsid	i
  404e54:	f383 8811 	msr	BASEPRI, r3
  404e58:	f3bf 8f6f 	isb	sy
  404e5c:	f3bf 8f4f 	dsb	sy
  404e60:	b662      	cpsie	i
  404e62:	e7fe      	b.n	404e62 <vTimerPeriodicISRTests+0x52e>
  404e64:	2042826c 	.word	0x2042826c
  404e68:	2040003c 	.word	0x2040003c
  404e6c:	2042826d 	.word	0x2042826d
  404e70:	20428278 	.word	0x20428278
  404e74:	00403cc9 	.word	0x00403cc9
  404e78:	00404615 	.word	0x00404615
		if( ucISROneShotTimerCounter != 1 )
  404e7c:	4b23      	ldr	r3, [pc, #140]	; (404f0c <vTimerPeriodicISRTests+0x5d8>)
  404e7e:	781b      	ldrb	r3, [r3, #0]
  404e80:	2b01      	cmp	r3, #1
  404e82:	f43f addc 	beq.w	404a3e <vTimerPeriodicISRTests+0x10a>
			xTestStatus = pdFAIL;
  404e86:	4b22      	ldr	r3, [pc, #136]	; (404f10 <vTimerPeriodicISRTests+0x5dc>)
  404e88:	2200      	movs	r2, #0
  404e8a:	601a      	str	r2, [r3, #0]
			configASSERT( xTestStatus );
  404e8c:	681b      	ldr	r3, [r3, #0]
  404e8e:	2b00      	cmp	r3, #0
  404e90:	f47f add5 	bne.w	404a3e <vTimerPeriodicISRTests+0x10a>
  404e94:	f04f 0380 	mov.w	r3, #128	; 0x80
  404e98:	b672      	cpsid	i
  404e9a:	f383 8811 	msr	BASEPRI, r3
  404e9e:	f3bf 8f6f 	isb	sy
  404ea2:	f3bf 8f4f 	dsb	sy
  404ea6:	b662      	cpsie	i
  404ea8:	e7fe      	b.n	404ea8 <vTimerPeriodicISRTests+0x574>
		if( ucISRAutoReloadTimerCounter != 3 )
  404eaa:	4b1a      	ldr	r3, [pc, #104]	; (404f14 <vTimerPeriodicISRTests+0x5e0>)
  404eac:	781b      	ldrb	r3, [r3, #0]
  404eae:	2b03      	cmp	r3, #3
  404eb0:	d00f      	beq.n	404ed2 <vTimerPeriodicISRTests+0x59e>
			xTestStatus = pdFAIL;
  404eb2:	4b17      	ldr	r3, [pc, #92]	; (404f10 <vTimerPeriodicISRTests+0x5dc>)
  404eb4:	2200      	movs	r2, #0
  404eb6:	601a      	str	r2, [r3, #0]
			configASSERT( xTestStatus );
  404eb8:	681b      	ldr	r3, [r3, #0]
  404eba:	b953      	cbnz	r3, 404ed2 <vTimerPeriodicISRTests+0x59e>
  404ebc:	f04f 0380 	mov.w	r3, #128	; 0x80
  404ec0:	b672      	cpsid	i
  404ec2:	f383 8811 	msr	BASEPRI, r3
  404ec6:	f3bf 8f6f 	isb	sy
  404eca:	f3bf 8f4f 	dsb	sy
  404ece:	b662      	cpsie	i
  404ed0:	e7fe      	b.n	404ed0 <vTimerPeriodicISRTests+0x59c>
		if( ucISROneShotTimerCounter != 1 )
  404ed2:	4b0e      	ldr	r3, [pc, #56]	; (404f0c <vTimerPeriodicISRTests+0x5d8>)
  404ed4:	781b      	ldrb	r3, [r3, #0]
  404ed6:	2b01      	cmp	r3, #1
  404ed8:	d00f      	beq.n	404efa <vTimerPeriodicISRTests+0x5c6>
			xTestStatus = pdFAIL;
  404eda:	4b0d      	ldr	r3, [pc, #52]	; (404f10 <vTimerPeriodicISRTests+0x5dc>)
  404edc:	2200      	movs	r2, #0
  404ede:	601a      	str	r2, [r3, #0]
			configASSERT( xTestStatus );
  404ee0:	681b      	ldr	r3, [r3, #0]
  404ee2:	b953      	cbnz	r3, 404efa <vTimerPeriodicISRTests+0x5c6>
  404ee4:	f04f 0380 	mov.w	r3, #128	; 0x80
  404ee8:	b672      	cpsid	i
  404eea:	f383 8811 	msr	BASEPRI, r3
  404eee:	f3bf 8f6f 	isb	sy
  404ef2:	f3bf 8f4f 	dsb	sy
  404ef6:	b662      	cpsie	i
  404ef8:	e7fe      	b.n	404ef8 <vTimerPeriodicISRTests+0x5c4>
		xTimerStopFromISR( xISRAutoReloadTimer, NULL );
  404efa:	2300      	movs	r3, #0
  404efc:	4a06      	ldr	r2, [pc, #24]	; (404f18 <vTimerPeriodicISRTests+0x5e4>)
  404efe:	2108      	movs	r1, #8
  404f00:	4c06      	ldr	r4, [pc, #24]	; (404f1c <vTimerPeriodicISRTests+0x5e8>)
  404f02:	6810      	ldr	r0, [r2, #0]
  404f04:	461a      	mov	r2, r3
  404f06:	9300      	str	r3, [sp, #0]
  404f08:	47a0      	blx	r4
  404f0a:	e598      	b.n	404a3e <vTimerPeriodicISRTests+0x10a>
  404f0c:	2042826d 	.word	0x2042826d
  404f10:	2040003c 	.word	0x2040003c
  404f14:	2042826c 	.word	0x2042826c
  404f18:	20428274 	.word	0x20428274
  404f1c:	00404615 	.word	0x00404615

00404f20 <USART1_Handler>:
volatile float harmony_list_b[11];
volatile float *harmony_list_read = harmony_list_a; 
volatile float *harmony_list_fill = harmony_list_b; 
volatile uint32_t harmony_idx = 0;  
void USART_SERIAL_ISR_HANDLER(void)
{
  404f20:	b570      	push	{r4, r5, r6, lr}
	uint32_t dw_status = usart_get_status(USART_SERIAL);
  404f22:	4b18      	ldr	r3, [pc, #96]	; (404f84 <USART1_Handler+0x64>)
{
  404f24:	b082      	sub	sp, #8
	uint32_t dw_status = usart_get_status(USART_SERIAL);
  404f26:	4818      	ldr	r0, [pc, #96]	; (404f88 <USART1_Handler+0x68>)
  404f28:	4798      	blx	r3
	if (dw_status & US_CSR_RXRDY) {
  404f2a:	07c3      	lsls	r3, r0, #31
  404f2c:	d401      	bmi.n	404f32 <USART1_Handler+0x12>
			harmony_list_read = harmony_list_fill; 
			harmony_list_fill = temp; 
			harmony_idx = 0; 
		}
	}
}
  404f2e:	b002      	add	sp, #8
  404f30:	bd70      	pop	{r4, r5, r6, pc}
		usart_read(USART_SERIAL, &received_byte);
  404f32:	4b16      	ldr	r3, [pc, #88]	; (404f8c <USART1_Handler+0x6c>)
  404f34:	a901      	add	r1, sp, #4
  404f36:	4814      	ldr	r0, [pc, #80]	; (404f88 <USART1_Handler+0x68>)
  404f38:	4798      	blx	r3
		if (received_byte != 0 && harmony_idx < MAX_NUM_SHIFTS)
  404f3a:	9a01      	ldr	r2, [sp, #4]
  404f3c:	4b14      	ldr	r3, [pc, #80]	; (404f90 <USART1_Handler+0x70>)
  404f3e:	b182      	cbz	r2, 404f62 <USART1_Handler+0x42>
  404f40:	6819      	ldr	r1, [r3, #0]
  404f42:	2909      	cmp	r1, #9
  404f44:	d80d      	bhi.n	404f62 <USART1_Handler+0x42>
			harmony_list_fill[harmony_idx] = midi_note_frequencies[received_byte]; 
  404f46:	4913      	ldr	r1, [pc, #76]	; (404f94 <USART1_Handler+0x74>)
  404f48:	4813      	ldr	r0, [pc, #76]	; (404f98 <USART1_Handler+0x78>)
  404f4a:	681c      	ldr	r4, [r3, #0]
  404f4c:	6809      	ldr	r1, [r1, #0]
  404f4e:	eb00 0282 	add.w	r2, r0, r2, lsl #2
  404f52:	eb01 0184 	add.w	r1, r1, r4, lsl #2
  404f56:	6812      	ldr	r2, [r2, #0]
  404f58:	600a      	str	r2, [r1, #0]
			harmony_idx++;
  404f5a:	681a      	ldr	r2, [r3, #0]
  404f5c:	3201      	adds	r2, #1
  404f5e:	601a      	str	r2, [r3, #0]
  404f60:	e7e5      	b.n	404f2e <USART1_Handler+0xe>
			harmony_list_fill[harmony_idx] = END_OF_SHIFTS; 
  404f62:	4a0c      	ldr	r2, [pc, #48]	; (404f94 <USART1_Handler+0x74>)
			harmony_idx = 0; 
  404f64:	2500      	movs	r5, #0
			harmony_list_fill[harmony_idx] = END_OF_SHIFTS; 
  404f66:	681e      	ldr	r6, [r3, #0]
  404f68:	6811      	ldr	r1, [r2, #0]
			float *temp = (float *)harmony_list_read; 
  404f6a:	480c      	ldr	r0, [pc, #48]	; (404f9c <USART1_Handler+0x7c>)
			harmony_list_fill[harmony_idx] = END_OF_SHIFTS; 
  404f6c:	eb01 0186 	add.w	r1, r1, r6, lsl #2
  404f70:	4c0b      	ldr	r4, [pc, #44]	; (404fa0 <USART1_Handler+0x80>)
  404f72:	600c      	str	r4, [r1, #0]
			float *temp = (float *)harmony_list_read; 
  404f74:	6804      	ldr	r4, [r0, #0]
			harmony_list_read = harmony_list_fill; 
  404f76:	6811      	ldr	r1, [r2, #0]
			harmony_idx = 0; 
  404f78:	601d      	str	r5, [r3, #0]
			harmony_list_fill = temp; 
  404f7a:	6014      	str	r4, [r2, #0]
			harmony_list_read = harmony_list_fill; 
  404f7c:	6001      	str	r1, [r0, #0]
}
  404f7e:	b002      	add	sp, #8
  404f80:	bd70      	pop	{r4, r5, r6, pc}
  404f82:	bf00      	nop
  404f84:	004022ed 	.word	0x004022ed
  404f88:	40028000 	.word	0x40028000
  404f8c:	004022f1 	.word	0x004022f1
  404f90:	2042827c 	.word	0x2042827c
  404f94:	20400040 	.word	0x20400040
  404f98:	004086fc 	.word	0x004086fc
  404f9c:	20400044 	.word	0x20400044
  404fa0:	bf800000 	.word	0xbf800000

00404fa4 <main>:

int main(void)
{
  404fa4:	e92d 4ff0 	stmdb	sp!, {r4, r5, r6, r7, r8, r9, sl, fp, lr}
	sysclk_init();
  404fa8:	4bcf      	ldr	r3, [pc, #828]	; (4052e8 <main+0x344>)
{
  404faa:	ed2d 8b02 	vpush	{d8}
  404fae:	b091      	sub	sp, #68	; 0x44
	sysclk_init();
  404fb0:	4798      	blx	r3
	board_init();
  404fb2:	4bce      	ldr	r3, [pc, #824]	; (4052ec <main+0x348>)
  404fb4:	4798      	blx	r3
  __ASM volatile ("dsb");
  404fb6:	f3bf 8f4f 	dsb	sy
  __ASM volatile ("isb");
  404fba:	f3bf 8f6f 	isb	sy
__STATIC_INLINE void SCB_DisableICache(void)
{
  #if (__ICACHE_PRESENT == 1)
    __DSB();
    __ISB();
    SCB->CCR &= ~SCB_CCR_IC_Msk;            // disable I-Cache
  404fbe:	4ccc      	ldr	r4, [pc, #816]	; (4052f0 <main+0x34c>)
    SCB->ICIALLU = 0;                       // invalidate I-Cache
  404fc0:	2700      	movs	r7, #0
    SCB->CCR &= ~SCB_CCR_IC_Msk;            // disable I-Cache
  404fc2:	6963      	ldr	r3, [r4, #20]
  404fc4:	f423 3300 	bic.w	r3, r3, #131072	; 0x20000
  404fc8:	6163      	str	r3, [r4, #20]
    SCB->ICIALLU = 0;                       // invalidate I-Cache
  404fca:	f8c4 7250 	str.w	r7, [r4, #592]	; 0x250
  __ASM volatile ("dsb");
  404fce:	f3bf 8f4f 	dsb	sy
  __ASM volatile ("isb");
  404fd2:	f3bf 8f6f 	isb	sy
	SCB_DisableICache(); 
	lcd_init(); 
  404fd6:	4bc7      	ldr	r3, [pc, #796]	; (4052f4 <main+0x350>)
  404fd8:	4798      	blx	r3
  __ASM volatile ("dsb");
  404fda:	f3bf 8f4f 	dsb	sy
  __ASM volatile ("isb");
  404fde:	f3bf 8f6f 	isb	sy
    SCB->ICIALLU = 0;                       // invalidate I-Cache
  404fe2:	f8c4 7250 	str.w	r7, [r4, #592]	; 0x250
    SCB->CCR |=  SCB_CCR_IC_Msk;            // enable I-Cache
  404fe6:	6963      	ldr	r3, [r4, #20]
  404fe8:	f443 3300 	orr.w	r3, r3, #131072	; 0x20000
  404fec:	6163      	str	r3, [r4, #20]
  __ASM volatile ("dsb");
  404fee:	f3bf 8f4f 	dsb	sy
  __ASM volatile ("isb");
  404ff2:	f3bf 8f6f 	isb	sy
	SCB_EnableICache();
	audio_init();
  404ff6:	4bc0      	ldr	r3, [pc, #768]	; (4052f8 <main+0x354>)
  404ff8:	4798      	blx	r3
	//configure_console();
	PSOLA_init(); 
  404ffa:	4bc0      	ldr	r3, [pc, #768]	; (4052fc <main+0x358>)
  404ffc:	4798      	blx	r3
  __ASM volatile ("dsb");
  404ffe:	f3bf 8f4f 	dsb	sy
  __ASM volatile ("isb");
  405002:	f3bf 8f6f 	isb	sy
    SCB->CCR &= ~SCB_CCR_IC_Msk;            // disable I-Cache
  405006:	6963      	ldr	r3, [r4, #20]
  405008:	f423 3300 	bic.w	r3, r3, #131072	; 0x20000
  40500c:	6163      	str	r3, [r4, #20]
    SCB->ICIALLU = 0;                       // invalidate I-Cache
  40500e:	f8c4 7250 	str.w	r7, [r4, #592]	; 0x250
  __ASM volatile ("dsb");
  405012:	f3bf 8f4f 	dsb	sy
  __ASM volatile ("isb");
  405016:	f3bf 8f6f 	isb	sy
	 
	SCB_DisableICache(); 
	gfx_draw_filled_rect(100, 100, 20, 20, GFX_COLOR_YELLOW);
  40501a:	f64f 76e0 	movw	r6, #65504	; 0xffe0
  40501e:	2314      	movs	r3, #20
  405020:	2164      	movs	r1, #100	; 0x64
  405022:	4db7      	ldr	r5, [pc, #732]	; (405300 <main+0x35c>)
  405024:	461a      	mov	r2, r3
  405026:	9600      	str	r6, [sp, #0]
  405028:	4608      	mov	r0, r1
  40502a:	47a8      	blx	r5
	gfx_draw_filled_rect(200, 100, 20, 20, GFX_COLOR_YELLOW);
  40502c:	2314      	movs	r3, #20
  40502e:	9600      	str	r6, [sp, #0]
  405030:	2164      	movs	r1, #100	; 0x64
  405032:	461a      	mov	r2, r3
  405034:	20c8      	movs	r0, #200	; 0xc8
  405036:	47a8      	blx	r5
	gfx_draw_filled_rect(80, 180, 20, 20, GFX_COLOR_YELLOW);
  405038:	2314      	movs	r3, #20
  40503a:	9600      	str	r6, [sp, #0]
  40503c:	21b4      	movs	r1, #180	; 0xb4
  40503e:	461a      	mov	r2, r3
  405040:	2050      	movs	r0, #80	; 0x50
  405042:	47a8      	blx	r5
	gfx_draw_filled_rect(100, 200, 20, 20, GFX_COLOR_YELLOW);
  405044:	2314      	movs	r3, #20
  405046:	9600      	str	r6, [sp, #0]
  405048:	21c8      	movs	r1, #200	; 0xc8
  40504a:	461a      	mov	r2, r3
  40504c:	2064      	movs	r0, #100	; 0x64
  40504e:	47a8      	blx	r5
	gfx_draw_filled_rect(120, 220, 20, 20, GFX_COLOR_YELLOW);
  405050:	2314      	movs	r3, #20
  405052:	9600      	str	r6, [sp, #0]
  405054:	21dc      	movs	r1, #220	; 0xdc
  405056:	461a      	mov	r2, r3
  405058:	2078      	movs	r0, #120	; 0x78
  40505a:	47a8      	blx	r5
	gfx_draw_filled_rect(140, 220, 20, 20, GFX_COLOR_YELLOW);
  40505c:	2314      	movs	r3, #20
  40505e:	9600      	str	r6, [sp, #0]
  405060:	21dc      	movs	r1, #220	; 0xdc
  405062:	461a      	mov	r2, r3
  405064:	208c      	movs	r0, #140	; 0x8c
  405066:	47a8      	blx	r5
	gfx_draw_filled_rect(160, 220, 20, 20, GFX_COLOR_YELLOW);
  405068:	2314      	movs	r3, #20
  40506a:	9600      	str	r6, [sp, #0]
  40506c:	21dc      	movs	r1, #220	; 0xdc
  40506e:	461a      	mov	r2, r3
  405070:	20a0      	movs	r0, #160	; 0xa0
  405072:	47a8      	blx	r5
	gfx_draw_filled_rect(180, 220, 20, 20, GFX_COLOR_YELLOW);
  405074:	2314      	movs	r3, #20
  405076:	9600      	str	r6, [sp, #0]
  405078:	21dc      	movs	r1, #220	; 0xdc
  40507a:	461a      	mov	r2, r3
  40507c:	20b4      	movs	r0, #180	; 0xb4
  40507e:	47a8      	blx	r5
	gfx_draw_filled_rect(200, 200, 20, 20, GFX_COLOR_YELLOW);
  405080:	2314      	movs	r3, #20
  405082:	21c8      	movs	r1, #200	; 0xc8
  405084:	9600      	str	r6, [sp, #0]
  405086:	461a      	mov	r2, r3
  405088:	4608      	mov	r0, r1
  40508a:	47a8      	blx	r5
	gfx_draw_filled_rect(220, 180, 20, 20, GFX_COLOR_YELLOW);
  40508c:	2314      	movs	r3, #20
  40508e:	9600      	str	r6, [sp, #0]
  405090:	21b4      	movs	r1, #180	; 0xb4
  405092:	461a      	mov	r2, r3
  405094:	20dc      	movs	r0, #220	; 0xdc
  405096:	47a8      	blx	r5
  __ASM volatile ("dsb");
  405098:	f3bf 8f4f 	dsb	sy
  __ASM volatile ("isb");
  40509c:	f3bf 8f6f 	isb	sy
    SCB->ICIALLU = 0;                       // invalidate I-Cache
  4050a0:	f8c4 7250 	str.w	r7, [r4, #592]	; 0x250
    SCB->CCR |=  SCB_CCR_IC_Msk;            // enable I-Cache
  4050a4:	6963      	ldr	r3, [r4, #20]
  4050a6:	f443 3300 	orr.w	r3, r3, #131072	; 0x20000
  4050aa:	6163      	str	r3, [r4, #20]
  __ASM volatile ("dsb");
  4050ac:	f3bf 8f4f 	dsb	sy
  __ASM volatile ("isb");
  4050b0:	f3bf 8f6f 	isb	sy
	uart_settings.ul_mode = opt->paritytype;
#endif

	sam_usart_opt_t usart_settings;
	usart_settings.baudrate = opt->baudrate;
	usart_settings.char_length = opt->charlength;
  4050b4:	21c0      	movs	r1, #192	; 0xc0
	usart_settings.parity_type = opt->paritytype;
  4050b6:	f44f 6200 	mov.w	r2, #2048	; 0x800
	usart_settings.baudrate = opt->baudrate;
  4050ba:	f44f 34e1 	mov.w	r4, #115200	; 0x1c200
  4050be:	4b91      	ldr	r3, [pc, #580]	; (405304 <main+0x360>)
  4050c0:	200e      	movs	r0, #14
	usart_settings.stop_bits= opt->stopbits;
  4050c2:	9708      	str	r7, [sp, #32]
	usart_settings.channel_mode= US_MR_CHMODE_NORMAL;
  4050c4:	9709      	str	r7, [sp, #36]	; 0x24
  NVIC->ICPR[((uint32_t)(IRQn) >> 5)] = (1 << ((uint32_t)(IRQn) & 0x1F)); /* Clear pending interrupt */
  4050c6:	f44f 4880 	mov.w	r8, #16384	; 0x4000
	usart_settings.baudrate = opt->baudrate;
  4050ca:	9405      	str	r4, [sp, #20]
  4050cc:	f06f 0601 	mvn.w	r6, #1
	usart_settings.char_length = opt->charlength;
  4050d0:	9106      	str	r1, [sp, #24]
	usart_settings.parity_type = opt->paritytype;
  4050d2:	9207      	str	r2, [sp, #28]
  4050d4:	4798      	blx	r3
		flexcom_set_opmode(FLEXCOM1, FLEXCOM_USART);
#else
		sysclk_enable_peripheral_clock(ID_USART1);
#endif
		/* Configure USART */
		usart_init_rs232(p_usart, &usart_settings,
  4050d6:	4a8c      	ldr	r2, [pc, #560]	; (405308 <main+0x364>)
  4050d8:	a905      	add	r1, sp, #20
  4050da:	4b8c      	ldr	r3, [pc, #560]	; (40530c <main+0x368>)
  4050dc:	488c      	ldr	r0, [pc, #560]	; (405310 <main+0x36c>)
  4050de:	4798      	blx	r3
		/* Configure USART */
		usart_init_rs232(p_usart, &usart_settings,
				sysclk_get_peripheral_bus_hz(p_usart));
#endif
		/* Enable the receiver and transmitter. */
		usart_enable_tx(p_usart);
  4050e0:	4d8c      	ldr	r5, [pc, #560]	; (405314 <main+0x370>)
  4050e2:	488b      	ldr	r0, [pc, #556]	; (405310 <main+0x36c>)
  4050e4:	47a8      	blx	r5
		usart_enable_rx(p_usart);
  4050e6:	4c8c      	ldr	r4, [pc, #560]	; (405318 <main+0x374>)
  4050e8:	4889      	ldr	r0, [pc, #548]	; (405310 <main+0x36c>)
  4050ea:	47a0      	blx	r4
		USART_SERIAL_CHAR_LENGTH,
		USART_SERIAL_PARITY,
		USART_SERIAL_STOP_BIT
	};
	usart_serial_init(USART_SERIAL, &usart_console_settings);
	usart_enable_tx(USART_SERIAL);
  4050ec:	4888      	ldr	r0, [pc, #544]	; (405310 <main+0x36c>)
  4050ee:	47a8      	blx	r5
	usart_enable_rx(USART_SERIAL);
  4050f0:	4887      	ldr	r0, [pc, #540]	; (405310 <main+0x36c>)
  4050f2:	47a0      	blx	r4
  4050f4:	4f89      	ldr	r7, [pc, #548]	; (40531c <main+0x378>)
	
	usart_enable_interrupt(USART_SERIAL, US_IER_RXRDY); 
  4050f6:	2101      	movs	r1, #1
  4050f8:	4885      	ldr	r0, [pc, #532]	; (405310 <main+0x36c>)
  4050fa:	4b89      	ldr	r3, [pc, #548]	; (405320 <main+0x37c>)
				inputPitch = MINIMUM_PITCH; 
				harmony_shifts[0] = NO_SHIFT; // forces no pitch shift ... might need to revisit if this is a good idea 
				harmony_shifts[1] = END_OF_SHIFTS; 	
			}
			
			create_harmonies((float  *)processBuffer, mixed_buffer, inputPitch, harmony_shifts); 
  4050fc:	f5a7 6500 	sub.w	r5, r7, #2048	; 0x800
	usart_enable_interrupt(USART_SERIAL, US_IER_RXRDY); 
  405100:	4798      	blx	r3
    NVIC->IP[(uint32_t)(IRQn)]            = ((priority << (8 - __NVIC_PRIO_BITS)) & 0xff); } /* set Priority for device specific Interrupts  */
  405102:	f8df c238 	ldr.w	ip, [pc, #568]	; 40533c <main+0x398>
  405106:	2040      	movs	r0, #64	; 0x40
		harmony_list_a[i] = 0.0f; harmony_list_b[i] = 0.0f; 
  405108:	2300      	movs	r3, #0
  40510a:	f8df e234 	ldr.w	lr, [pc, #564]	; 405340 <main+0x39c>
	float harmony_shifts[MAX_NUM_SHIFTS+1]; arm_fill_f32(NO_SHIFT, harmony_shifts, MAX_NUM_SHIFTS); 
  40510e:	a905      	add	r1, sp, #20
		harmony_list_a[i] = 0.0f; harmony_list_b[i] = 0.0f; 
  405110:	4c84      	ldr	r4, [pc, #528]	; (405324 <main+0x380>)
	float harmony_shifts[MAX_NUM_SHIFTS+1]; arm_fill_f32(NO_SHIFT, harmony_shifts, MAX_NUM_SHIFTS); 
  405112:	220a      	movs	r2, #10
  405114:	f88c 030e 	strb.w	r0, [ip, #782]	; 0x30e
  405118:	f04f 507e 	mov.w	r0, #1065353216	; 0x3f800000
  NVIC->ICPR[((uint32_t)(IRQn) >> 5)] = (1 << ((uint32_t)(IRQn) & 0x1F)); /* Clear pending interrupt */
  40511c:	f8cc 8180 	str.w	r8, [ip, #384]	; 0x180
  405120:	1b76      	subs	r6, r6, r5
  NVIC->ISER[(uint32_t)((int32_t)IRQn) >> 5] = (uint32_t)(1 << ((uint32_t)((int32_t)IRQn) & (uint32_t)0x1F)); /* enable interrupt */
  405122:	f8cc 8000 	str.w	r8, [ip]
  405126:	f8df 821c 	ldr.w	r8, [pc, #540]	; 405344 <main+0x3a0>
		harmony_list_a[i] = 0.0f; harmony_list_b[i] = 0.0f; 
  40512a:	f8ce 3000 	str.w	r3, [lr]
  40512e:	f8df 9218 	ldr.w	r9, [pc, #536]	; 405348 <main+0x3a4>
  405132:	6023      	str	r3, [r4, #0]
  405134:	f8df a214 	ldr.w	sl, [pc, #532]	; 40534c <main+0x3a8>
  405138:	f8ce 3004 	str.w	r3, [lr, #4]
			if (inputPitch > MINIMUM_PITCH)
  40513c:	ed9f 8a7a 	vldr	s16, [pc, #488]	; 405328 <main+0x384>
		harmony_list_a[i] = 0.0f; harmony_list_b[i] = 0.0f; 
  405140:	6063      	str	r3, [r4, #4]
			
			arm_scale_f32(mixed_buffer, 0.95f, mixed_buffer, WIN_SIZE); 
			arm_add_f32((float *)processBuffer, mixed_buffer, mixed_buffer, WIN_SIZE); 
			arm_scale_f32(mixed_buffer, (float)INT16_MAX * 0.5f , mixed_buffer, WIN_SIZE); 
  405142:	f8df b20c 	ldr.w	fp, [pc, #524]	; 405350 <main+0x3ac>
		harmony_list_a[i] = 0.0f; harmony_list_b[i] = 0.0f; 
  405146:	f8ce 3008 	str.w	r3, [lr, #8]
  40514a:	60a3      	str	r3, [r4, #8]
  40514c:	f8ce 300c 	str.w	r3, [lr, #12]
  405150:	60e3      	str	r3, [r4, #12]
  405152:	f8ce 3010 	str.w	r3, [lr, #16]
  405156:	6123      	str	r3, [r4, #16]
  405158:	f8ce 3014 	str.w	r3, [lr, #20]
  40515c:	6163      	str	r3, [r4, #20]
  40515e:	f8ce 3018 	str.w	r3, [lr, #24]
  405162:	61a3      	str	r3, [r4, #24]
  405164:	f8ce 301c 	str.w	r3, [lr, #28]
  405168:	61e3      	str	r3, [r4, #28]
  40516a:	f8ce 3020 	str.w	r3, [lr, #32]
  40516e:	6223      	str	r3, [r4, #32]
  405170:	f8ce 3024 	str.w	r3, [lr, #36]	; 0x24
  405174:	6263      	str	r3, [r4, #36]	; 0x24
  405176:	f8ce 3028 	str.w	r3, [lr, #40]	; 0x28
  40517a:	62a3      	str	r3, [r4, #40]	; 0x28
	float harmony_shifts[MAX_NUM_SHIFTS+1]; arm_fill_f32(NO_SHIFT, harmony_shifts, MAX_NUM_SHIFTS); 
  40517c:	47c0      	blx	r8
  40517e:	4c6b      	ldr	r4, [pc, #428]	; (40532c <main+0x388>)
	harmony_shifts[MAX_NUM_SHIFTS] = END_OF_SHIFTS; 
  405180:	4b6b      	ldr	r3, [pc, #428]	; (405330 <main+0x38c>)
  405182:	f8df 81d0 	ldr.w	r8, [pc, #464]	; 405354 <main+0x3b0>
  405186:	930f      	str	r3, [sp, #60]	; 0x3c
  405188:	9603      	str	r6, [sp, #12]
		if (dataReceived)
  40518a:	f898 3000 	ldrb.w	r3, [r8]
  40518e:	2b00      	cmp	r3, #0
  405190:	d0fb      	beq.n	40518a <main+0x1e6>
		    inputPitch = computeWaveletPitch((float  *)processBuffer); 
  405192:	f8d9 0000 	ldr.w	r0, [r9]
  405196:	4b67      	ldr	r3, [pc, #412]	; (405334 <main+0x390>)
  405198:	4798      	blx	r3
  40519a:	ee07 0a90 	vmov	s15, r0
			if (inputPitch > MINIMUM_PITCH)
  40519e:	eef4 7ac8 	vcmpe.f32	s15, s16
  4051a2:	eef1 fa10 	vmrs	APSR_nzcv, fpscr
  4051a6:	f340 8130 	ble.w	40540a <main+0x466>
				while(harmony_list_read[i] > 1.0f && i < MAX_NUM_SHIFTS)
  4051aa:	4b63      	ldr	r3, [pc, #396]	; (405338 <main+0x394>)
				oneOverInputPitch = 1.0f / inputPitch;
  4051ac:	eeb7 7a00 	vmov.f32	s14, #112	; 0x3f800000  1.0
				while(harmony_list_read[i] > 1.0f && i < MAX_NUM_SHIFTS)
  4051b0:	681b      	ldr	r3, [r3, #0]
				oneOverInputPitch = 1.0f / inputPitch;
  4051b2:	eec7 6a27 	vdiv.f32	s13, s14, s15
				while(harmony_list_read[i] > 1.0f && i < MAX_NUM_SHIFTS)
  4051b6:	ed93 6a00 	vldr	s12, [r3]
  4051ba:	eeb4 6ac7 	vcmpe.f32	s12, s14
  4051be:	eef1 fa10 	vmrs	APSR_nzcv, fpscr
  4051c2:	f340 812a 	ble.w	40541a <main+0x476>
					pitch_shift = 1.0f - (inputPitch-harmony_list_read[i])*oneOverInputPitch;
  4051c6:	ed93 6a00 	vldr	s12, [r3]
  4051ca:	eef0 5a47 	vmov.f32	s11, s14
  4051ce:	ee36 6a67 	vsub.f32	s12, s12, s15
  4051d2:	eee6 5a86 	vfma.f32	s11, s13, s12
					harmony_shifts[i] = pitch_shift; 
  4051d6:	edcd 5a05 	vstr	s11, [sp, #20]
				while(harmony_list_read[i] > 1.0f && i < MAX_NUM_SHIFTS)
  4051da:	ed93 6a01 	vldr	s12, [r3, #4]
  4051de:	eeb4 6ac7 	vcmpe.f32	s12, s14
  4051e2:	eef1 fa10 	vmrs	APSR_nzcv, fpscr
  4051e6:	f340 8125 	ble.w	405434 <main+0x490>
					pitch_shift = 1.0f - (inputPitch-harmony_list_read[i])*oneOverInputPitch;
  4051ea:	ed93 6a01 	vldr	s12, [r3, #4]
  4051ee:	eef0 5a47 	vmov.f32	s11, s14
  4051f2:	ee36 6a67 	vsub.f32	s12, s12, s15
  4051f6:	eee6 5a86 	vfma.f32	s11, s13, s12
					harmony_shifts[i] = pitch_shift; 
  4051fa:	edcd 5a06 	vstr	s11, [sp, #24]
				while(harmony_list_read[i] > 1.0f && i < MAX_NUM_SHIFTS)
  4051fe:	ed93 6a02 	vldr	s12, [r3, #8]
  405202:	eeb4 6ac7 	vcmpe.f32	s12, s14
  405206:	eef1 fa10 	vmrs	APSR_nzcv, fpscr
  40520a:	f340 8111 	ble.w	405430 <main+0x48c>
					pitch_shift = 1.0f - (inputPitch-harmony_list_read[i])*oneOverInputPitch;
  40520e:	ed93 6a02 	vldr	s12, [r3, #8]
  405212:	eef0 5a47 	vmov.f32	s11, s14
  405216:	ee36 6a67 	vsub.f32	s12, s12, s15
  40521a:	eee6 5a86 	vfma.f32	s11, s13, s12
					harmony_shifts[i] = pitch_shift; 
  40521e:	edcd 5a07 	vstr	s11, [sp, #28]
				while(harmony_list_read[i] > 1.0f && i < MAX_NUM_SHIFTS)
  405222:	ed93 6a03 	vldr	s12, [r3, #12]
  405226:	eeb4 6ac7 	vcmpe.f32	s12, s14
  40522a:	eef1 fa10 	vmrs	APSR_nzcv, fpscr
  40522e:	f340 8109 	ble.w	405444 <main+0x4a0>
					pitch_shift = 1.0f - (inputPitch-harmony_list_read[i])*oneOverInputPitch;
  405232:	ed93 6a03 	vldr	s12, [r3, #12]
  405236:	eef0 5a47 	vmov.f32	s11, s14
  40523a:	ee36 6a67 	vsub.f32	s12, s12, s15
  40523e:	eee6 5a86 	vfma.f32	s11, s13, s12
					harmony_shifts[i] = pitch_shift; 
  405242:	edcd 5a08 	vstr	s11, [sp, #32]
				while(harmony_list_read[i] > 1.0f && i < MAX_NUM_SHIFTS)
  405246:	ed93 6a04 	vldr	s12, [r3, #16]
  40524a:	eeb4 6ac7 	vcmpe.f32	s12, s14
  40524e:	eef1 fa10 	vmrs	APSR_nzcv, fpscr
  405252:	f340 80f5 	ble.w	405440 <main+0x49c>
					pitch_shift = 1.0f - (inputPitch-harmony_list_read[i])*oneOverInputPitch;
  405256:	ed93 6a04 	vldr	s12, [r3, #16]
  40525a:	eef0 5a47 	vmov.f32	s11, s14
  40525e:	ee36 6a67 	vsub.f32	s12, s12, s15
  405262:	eee6 5a86 	vfma.f32	s11, s13, s12
					harmony_shifts[i] = pitch_shift; 
  405266:	edcd 5a09 	vstr	s11, [sp, #36]	; 0x24
				while(harmony_list_read[i] > 1.0f && i < MAX_NUM_SHIFTS)
  40526a:	ed93 6a05 	vldr	s12, [r3, #20]
  40526e:	eeb4 6ac7 	vcmpe.f32	s12, s14
  405272:	eef1 fa10 	vmrs	APSR_nzcv, fpscr
  405276:	f340 80e1 	ble.w	40543c <main+0x498>
					pitch_shift = 1.0f - (inputPitch-harmony_list_read[i])*oneOverInputPitch;
  40527a:	ed93 6a05 	vldr	s12, [r3, #20]
  40527e:	eef0 5a47 	vmov.f32	s11, s14
  405282:	ee36 6a67 	vsub.f32	s12, s12, s15
  405286:	eee6 5a86 	vfma.f32	s11, s13, s12
					harmony_shifts[i] = pitch_shift; 
  40528a:	edcd 5a0a 	vstr	s11, [sp, #40]	; 0x28
				while(harmony_list_read[i] > 1.0f && i < MAX_NUM_SHIFTS)
  40528e:	ed93 6a06 	vldr	s12, [r3, #24]
  405292:	eeb4 6ac7 	vcmpe.f32	s12, s14
  405296:	eef1 fa10 	vmrs	APSR_nzcv, fpscr
  40529a:	f340 80cd 	ble.w	405438 <main+0x494>
					pitch_shift = 1.0f - (inputPitch-harmony_list_read[i])*oneOverInputPitch;
  40529e:	ed93 6a06 	vldr	s12, [r3, #24]
  4052a2:	eef0 5a47 	vmov.f32	s11, s14
  4052a6:	ee36 6a67 	vsub.f32	s12, s12, s15
  4052aa:	eee6 5a86 	vfma.f32	s11, s13, s12
					harmony_shifts[i] = pitch_shift; 
  4052ae:	edcd 5a0b 	vstr	s11, [sp, #44]	; 0x2c
				while(harmony_list_read[i] > 1.0f && i < MAX_NUM_SHIFTS)
  4052b2:	ed93 6a07 	vldr	s12, [r3, #28]
  4052b6:	eeb4 6ac7 	vcmpe.f32	s12, s14
  4052ba:	eef1 fa10 	vmrs	APSR_nzcv, fpscr
  4052be:	f340 80b5 	ble.w	40542c <main+0x488>
					pitch_shift = 1.0f - (inputPitch-harmony_list_read[i])*oneOverInputPitch;
  4052c2:	ed93 6a07 	vldr	s12, [r3, #28]
  4052c6:	eef0 5a47 	vmov.f32	s11, s14
  4052ca:	ee36 6a67 	vsub.f32	s12, s12, s15
  4052ce:	eee6 5a86 	vfma.f32	s11, s13, s12
					harmony_shifts[i] = pitch_shift; 
  4052d2:	edcd 5a0c 	vstr	s11, [sp, #48]	; 0x30
				while(harmony_list_read[i] > 1.0f && i < MAX_NUM_SHIFTS)
  4052d6:	ed93 6a08 	vldr	s12, [r3, #32]
  4052da:	eeb4 6ac7 	vcmpe.f32	s12, s14
  4052de:	eef1 fa10 	vmrs	APSR_nzcv, fpscr
  4052e2:	f340 80a1 	ble.w	405428 <main+0x484>
  4052e6:	e037      	b.n	405358 <main+0x3b4>
  4052e8:	00402345 	.word	0x00402345
  4052ec:	004023b5 	.word	0x004023b5
  4052f0:	e000ed00 	.word	0xe000ed00
  4052f4:	00400f59 	.word	0x00400f59
  4052f8:	00400379 	.word	0x00400379
  4052fc:	00401119 	.word	0x00401119
  405300:	00400d81 	.word	0x00400d81
  405304:	00402e99 	.word	0x00402e99
  405308:	08f0d180 	.word	0x08f0d180
  40530c:	00402239 	.word	0x00402239
  405310:	40028000 	.word	0x40028000
  405314:	004022d9 	.word	0x004022d9
  405318:	004022e1 	.word	0x004022e1
  40531c:	20428c00 	.word	0x20428c00
  405320:	004022e9 	.word	0x004022e9
  405324:	2042c018 	.word	0x2042c018
  405328:	42200000 	.word	0x42200000
  40532c:	20400014 	.word	0x20400014
  405330:	bf800000 	.word	0xbf800000
  405334:	004005e5 	.word	0x004005e5
  405338:	20400044 	.word	0x20400044
  40533c:	e000e100 	.word	0xe000e100
  405340:	2042c044 	.word	0x2042c044
  405344:	004054a5 	.word	0x004054a5
  405348:	2040001c 	.word	0x2040001c
  40534c:	00405769 	.word	0x00405769
  405350:	467ffe00 	.word	0x467ffe00
  405354:	20400c1c 	.word	0x20400c1c
					pitch_shift = 1.0f - (inputPitch-harmony_list_read[i])*oneOverInputPitch;
  405358:	ed93 6a08 	vldr	s12, [r3, #32]
  40535c:	eef0 5a47 	vmov.f32	s11, s14
  405360:	ee36 6a67 	vsub.f32	s12, s12, s15
  405364:	eee6 5a86 	vfma.f32	s11, s13, s12
					harmony_shifts[i] = pitch_shift; 
  405368:	edcd 5a0d 	vstr	s11, [sp, #52]	; 0x34
				while(harmony_list_read[i] > 1.0f && i < MAX_NUM_SHIFTS)
  40536c:	ed93 6a09 	vldr	s12, [r3, #36]	; 0x24
  405370:	eeb4 6ac7 	vcmpe.f32	s12, s14
  405374:	eef1 fa10 	vmrs	APSR_nzcv, fpscr
  405378:	dd54      	ble.n	405424 <main+0x480>
					pitch_shift = 1.0f - (inputPitch-harmony_list_read[i])*oneOverInputPitch;
  40537a:	ed93 6a09 	vldr	s12, [r3, #36]	; 0x24
					i++; 
  40537e:	220a      	movs	r2, #10
					pitch_shift = 1.0f - (inputPitch-harmony_list_read[i])*oneOverInputPitch;
  405380:	ee36 6a67 	vsub.f32	s12, s12, s15
  405384:	eea6 7a86 	vfma.f32	s14, s13, s12
					harmony_shifts[i] = pitch_shift; 
  405388:	ed8d 7a0e 	vstr	s14, [sp, #56]	; 0x38
				while(harmony_list_read[i] > 1.0f && i < MAX_NUM_SHIFTS)
  40538c:	6a9b      	ldr	r3, [r3, #40]	; 0x28
					harmony_shifts[i] = END_OF_SHIFTS; 
  40538e:	a910      	add	r1, sp, #64	; 0x40
  405390:	4b2d      	ldr	r3, [pc, #180]	; (405448 <main+0x4a4>)
  405392:	eb01 0282 	add.w	r2, r1, r2, lsl #2
  405396:	f842 3c2c 	str.w	r3, [r2, #-44]
			create_harmonies((float  *)processBuffer, mixed_buffer, inputPitch, harmony_shifts); 
  40539a:	ee17 2a90 	vmov	r2, s15
  40539e:	ab05      	add	r3, sp, #20
  4053a0:	4629      	mov	r1, r5
  4053a2:	f8d9 0000 	ldr.w	r0, [r9]
  4053a6:	4e29      	ldr	r6, [pc, #164]	; (40544c <main+0x4a8>)
  4053a8:	47b0      	blx	r6
			arm_scale_f32(mixed_buffer, 0.95f, mixed_buffer, WIN_SIZE); 
  4053aa:	f44f 7300 	mov.w	r3, #512	; 0x200
  4053ae:	462a      	mov	r2, r5
  4053b0:	4927      	ldr	r1, [pc, #156]	; (405450 <main+0x4ac>)
  4053b2:	4828      	ldr	r0, [pc, #160]	; (405454 <main+0x4b0>)
  4053b4:	47d0      	blx	sl
			arm_add_f32((float *)processBuffer, mixed_buffer, mixed_buffer, WIN_SIZE); 
  4053b6:	4e28      	ldr	r6, [pc, #160]	; (405458 <main+0x4b4>)
  4053b8:	f44f 7300 	mov.w	r3, #512	; 0x200
  4053bc:	462a      	mov	r2, r5
  4053be:	4925      	ldr	r1, [pc, #148]	; (405454 <main+0x4b0>)
  4053c0:	f8d9 0000 	ldr.w	r0, [r9]
  4053c4:	47b0      	blx	r6
			arm_scale_f32(mixed_buffer, (float)INT16_MAX * 0.5f , mixed_buffer, WIN_SIZE); 
  4053c6:	f44f 7300 	mov.w	r3, #512	; 0x200
  4053ca:	462a      	mov	r2, r5
  4053cc:	4659      	mov	r1, fp
  4053ce:	4821      	ldr	r0, [pc, #132]	; (405454 <main+0x4b0>)
  4053d0:	47d0      	blx	sl
  4053d2:	4b20      	ldr	r3, [pc, #128]	; (405454 <main+0x4b0>)
  4053d4:	9e03      	ldr	r6, [sp, #12]
  4053d6:	eba3 0c05 	sub.w	ip, r3, r5

			uint32_t idx = 0; 
			for(i = 0; i < IO_BUF_SIZE; i+=2)
			{
				outBuffer[i] = (uint16_t)(int16_t)(mixed_buffer[idx++]);  
  4053da:	ecf3 7a01 	vldmia	r3!, {s15}
  4053de:	6822      	ldr	r2, [r4, #0]
  4053e0:	eefd 7ae7 	vcvt.s32.f32	s15, s15
				outBuffer[i+1] = outBuffer[i]; 
  4053e4:	18f0      	adds	r0, r6, r3
  4053e6:	4611      	mov	r1, r2
			for(i = 0; i < IO_BUF_SIZE; i+=2)
  4053e8:	429f      	cmp	r7, r3
				outBuffer[i] = (uint16_t)(int16_t)(mixed_buffer[idx++]);  
  4053ea:	edcd 7a03 	vstr	s15, [sp, #12]
  4053ee:	f8bd e00c 	ldrh.w	lr, [sp, #12]
  4053f2:	f822 e00c 	strh.w	lr, [r2, ip]
				outBuffer[i+1] = outBuffer[i]; 
  4053f6:	f832 200c 	ldrh.w	r2, [r2, ip]
  4053fa:	b292      	uxth	r2, r2
  4053fc:	520a      	strh	r2, [r1, r0]
			for(i = 0; i < IO_BUF_SIZE; i+=2)
  4053fe:	d1ea      	bne.n	4053d6 <main+0x432>
			}
			
			dataReceived = false; 
  405400:	2300      	movs	r3, #0
  405402:	9603      	str	r6, [sp, #12]
  405404:	f888 3000 	strb.w	r3, [r8]
  405408:	e6bf      	b.n	40518a <main+0x1e6>
				harmony_shifts[0] = NO_SHIFT; // forces no pitch shift ... might need to revisit if this is a good idea 
  40540a:	f04f 527e 	mov.w	r2, #1065353216	; 0x3f800000
				harmony_shifts[1] = END_OF_SHIFTS; 	
  40540e:	4b0e      	ldr	r3, [pc, #56]	; (405448 <main+0x4a4>)
				inputPitch = MINIMUM_PITCH; 
  405410:	eef0 7a48 	vmov.f32	s15, s16
				harmony_shifts[0] = NO_SHIFT; // forces no pitch shift ... might need to revisit if this is a good idea 
  405414:	9205      	str	r2, [sp, #20]
				harmony_shifts[1] = END_OF_SHIFTS; 	
  405416:	9306      	str	r3, [sp, #24]
  405418:	e7bf      	b.n	40539a <main+0x3f6>
					harmony_shifts[1] = END_OF_SHIFTS; 
  40541a:	4b0b      	ldr	r3, [pc, #44]	; (405448 <main+0x4a4>)
					harmony_shifts[0] = NO_SHIFT; 
  40541c:	ed8d 7a05 	vstr	s14, [sp, #20]
					harmony_shifts[1] = END_OF_SHIFTS; 
  405420:	9306      	str	r3, [sp, #24]
  405422:	e7ba      	b.n	40539a <main+0x3f6>
					i++; 
  405424:	2209      	movs	r2, #9
  405426:	e7b2      	b.n	40538e <main+0x3ea>
  405428:	2208      	movs	r2, #8
  40542a:	e7b0      	b.n	40538e <main+0x3ea>
  40542c:	2207      	movs	r2, #7
  40542e:	e7ae      	b.n	40538e <main+0x3ea>
  405430:	2202      	movs	r2, #2
  405432:	e7ac      	b.n	40538e <main+0x3ea>
  405434:	2201      	movs	r2, #1
  405436:	e7aa      	b.n	40538e <main+0x3ea>
  405438:	2206      	movs	r2, #6
  40543a:	e7a8      	b.n	40538e <main+0x3ea>
  40543c:	2205      	movs	r2, #5
  40543e:	e7a6      	b.n	40538e <main+0x3ea>
  405440:	2204      	movs	r2, #4
  405442:	e7a4      	b.n	40538e <main+0x3ea>
  405444:	2203      	movs	r2, #3
  405446:	e7a2      	b.n	40538e <main+0x3ea>
  405448:	bf800000 	.word	0xbf800000
  40544c:	004011a9 	.word	0x004011a9
  405450:	3f733333 	.word	0x3f733333
  405454:	20428400 	.word	0x20428400
  405458:	004057d5 	.word	0x004057d5

0040545c <vApplicationStackOverflowHook>:
  40545c:	f04f 0380 	mov.w	r3, #128	; 0x80
  405460:	b672      	cpsid	i
  405462:	f383 8811 	msr	BASEPRI, r3
  405466:	f3bf 8f6f 	isb	sy
  40546a:	f3bf 8f4f 	dsb	sy
  40546e:	b662      	cpsie	i
  405470:	e7fe      	b.n	405470 <vApplicationStackOverflowHook+0x14>
  405472:	bf00      	nop

00405474 <vApplicationTickHook>:
	( void ) xFreeHeapSpace;
}
/*-----------------------------------------------------------*/

void vApplicationTickHook( void )
{
  405474:	b510      	push	{r4, lr}
	#if mainCREATE_SIMPLE_BLINKY_DEMO_ONLY == 0
	{
		/* The full demo includes a software timer demo/test that requires
		prodding periodically from the tick interrupt. */
		vTimerPeriodicISRTests();
  405476:	4b06      	ldr	r3, [pc, #24]	; (405490 <vApplicationTickHook+0x1c>)
  405478:	4798      	blx	r3

		/* Call the periodic queue overwrite from ISR demo. */
		vQueueOverwritePeriodicISRDemo();
  40547a:	4b06      	ldr	r3, [pc, #24]	; (405494 <vApplicationTickHook+0x20>)
  40547c:	4798      	blx	r3

		/* Call the periodic event group from ISR demo. */
		vPeriodicEventGroupsProcessing();
  40547e:	4b06      	ldr	r3, [pc, #24]	; (405498 <vApplicationTickHook+0x24>)
  405480:	4798      	blx	r3

		/* Call the code that uses a mutex from an ISR. */
		vInterruptSemaphorePeriodicTest();
  405482:	4b06      	ldr	r3, [pc, #24]	; (40549c <vApplicationTickHook+0x28>)
  405484:	4798      	blx	r3

		/* Call the code that 'gives' a task notification from an ISR. */
		xNotifyTaskFromISR();
  405486:	4b06      	ldr	r3, [pc, #24]	; (4054a0 <vApplicationTickHook+0x2c>)
	}
	#endif
}
  405488:	e8bd 4010 	ldmia.w	sp!, {r4, lr}
		xNotifyTaskFromISR();
  40548c:	4718      	bx	r3
  40548e:	bf00      	nop
  405490:	00404935 	.word	0x00404935
  405494:	004047e5 	.word	0x004047e5
  405498:	004046b9 	.word	0x004046b9
  40549c:	00404751 	.word	0x00404751
  4054a0:	00404885 	.word	0x00404885

004054a4 <arm_fill_f32>:
  4054a4:	b430      	push	{r4, r5}
  4054a6:	0895      	lsrs	r5, r2, #2
  4054a8:	d00b      	beq.n	4054c2 <arm_fill_f32+0x1e>
  4054aa:	460b      	mov	r3, r1
  4054ac:	462c      	mov	r4, r5
  4054ae:	3c01      	subs	r4, #1
  4054b0:	6018      	str	r0, [r3, #0]
  4054b2:	6058      	str	r0, [r3, #4]
  4054b4:	6098      	str	r0, [r3, #8]
  4054b6:	60d8      	str	r0, [r3, #12]
  4054b8:	f103 0310 	add.w	r3, r3, #16
  4054bc:	d1f7      	bne.n	4054ae <arm_fill_f32+0xa>
  4054be:	eb01 1105 	add.w	r1, r1, r5, lsl #4
  4054c2:	f012 0203 	ands.w	r2, r2, #3
  4054c6:	d003      	beq.n	4054d0 <arm_fill_f32+0x2c>
  4054c8:	3a01      	subs	r2, #1
  4054ca:	f841 0b04 	str.w	r0, [r1], #4
  4054ce:	d1fb      	bne.n	4054c8 <arm_fill_f32+0x24>
  4054d0:	bc30      	pop	{r4, r5}
  4054d2:	4770      	bx	lr

004054d4 <arm_copy_f32>:
  4054d4:	e92d 03f0 	stmdb	sp!, {r4, r5, r6, r7, r8, r9}
  4054d8:	ea5f 0992 	movs.w	r9, r2, lsr #2
  4054dc:	d018      	beq.n	405510 <arm_copy_f32+0x3c>
  4054de:	4604      	mov	r4, r0
  4054e0:	460b      	mov	r3, r1
  4054e2:	464d      	mov	r5, r9
  4054e4:	f8d4 8000 	ldr.w	r8, [r4]
  4054e8:	f8d4 c004 	ldr.w	ip, [r4, #4]
  4054ec:	68a7      	ldr	r7, [r4, #8]
  4054ee:	68e6      	ldr	r6, [r4, #12]
  4054f0:	3d01      	subs	r5, #1
  4054f2:	f8c3 8000 	str.w	r8, [r3]
  4054f6:	f8c3 c004 	str.w	ip, [r3, #4]
  4054fa:	609f      	str	r7, [r3, #8]
  4054fc:	60de      	str	r6, [r3, #12]
  4054fe:	f104 0410 	add.w	r4, r4, #16
  405502:	f103 0310 	add.w	r3, r3, #16
  405506:	d1ed      	bne.n	4054e4 <arm_copy_f32+0x10>
  405508:	ea4f 1909 	mov.w	r9, r9, lsl #4
  40550c:	4448      	add	r0, r9
  40550e:	4449      	add	r1, r9
  405510:	f012 0203 	ands.w	r2, r2, #3
  405514:	d005      	beq.n	405522 <arm_copy_f32+0x4e>
  405516:	f850 3b04 	ldr.w	r3, [r0], #4
  40551a:	3a01      	subs	r2, #1
  40551c:	f841 3b04 	str.w	r3, [r1], #4
  405520:	d1f9      	bne.n	405516 <arm_copy_f32+0x42>
  405522:	e8bd 03f0 	ldmia.w	sp!, {r4, r5, r6, r7, r8, r9}
  405526:	4770      	bx	lr

00405528 <arm_min_f32>:
  405528:	e92d 03f0 	stmdb	sp!, {r4, r5, r6, r7, r8, r9}
  40552c:	f101 3cff 	add.w	ip, r1, #4294967295
  405530:	ea5f 099c 	movs.w	r9, ip, lsr #2
  405534:	f100 0704 	add.w	r7, r0, #4
  405538:	edd0 7a00 	vldr	s15, [r0]
  40553c:	d05c      	beq.n	4055f8 <arm_min_f32+0xd0>
  40553e:	463c      	mov	r4, r7
  405540:	464e      	mov	r6, r9
  405542:	2004      	movs	r0, #4
  405544:	2500      	movs	r5, #0
  405546:	edd4 6a00 	vldr	s13, [r4]
  40554a:	eef4 6ae7 	vcmpe.f32	s13, s15
  40554e:	eef1 fa10 	vmrs	APSR_nzcv, fpscr
  405552:	ed94 7a01 	vldr	s14, [r4, #4]
  405556:	bf48      	it	mi
  405558:	eef0 7a66 	vmovmi.f32	s15, s13
  40555c:	eef4 7ac7 	vcmpe.f32	s15, s14
  405560:	f1a0 0803 	sub.w	r8, r0, #3
  405564:	bf48      	it	mi
  405566:	4645      	movmi	r5, r8
  405568:	eef1 fa10 	vmrs	APSR_nzcv, fpscr
  40556c:	edd4 6a02 	vldr	s13, [r4, #8]
  405570:	bfc8      	it	gt
  405572:	eef0 7a47 	vmovgt.f32	s15, s14
  405576:	eef4 7ae6 	vcmpe.f32	s15, s13
  40557a:	f1a0 0802 	sub.w	r8, r0, #2
  40557e:	bfc8      	it	gt
  405580:	4645      	movgt	r5, r8
  405582:	eef1 fa10 	vmrs	APSR_nzcv, fpscr
  405586:	ed94 7a03 	vldr	s14, [r4, #12]
  40558a:	bfc8      	it	gt
  40558c:	eef0 7a66 	vmovgt.f32	s15, s13
  405590:	eef4 7ac7 	vcmpe.f32	s15, s14
  405594:	f100 38ff 	add.w	r8, r0, #4294967295
  405598:	bfc8      	it	gt
  40559a:	4645      	movgt	r5, r8
  40559c:	eef1 fa10 	vmrs	APSR_nzcv, fpscr
  4055a0:	bfc8      	it	gt
  4055a2:	4605      	movgt	r5, r0
  4055a4:	bfc8      	it	gt
  4055a6:	eef0 7a47 	vmovgt.f32	s15, s14
  4055aa:	3e01      	subs	r6, #1
  4055ac:	f104 0410 	add.w	r4, r4, #16
  4055b0:	f100 0004 	add.w	r0, r0, #4
  4055b4:	d1c7      	bne.n	405546 <arm_min_f32+0x1e>
  4055b6:	eb07 1709 	add.w	r7, r7, r9, lsl #4
  4055ba:	f01c 0c03 	ands.w	ip, ip, #3
  4055be:	d01d      	beq.n	4055fc <arm_min_f32+0xd4>
  4055c0:	ebcc 0101 	rsb	r1, ip, r1
  4055c4:	2000      	movs	r0, #0
  4055c6:	ecb7 7a01 	vldmia	r7!, {s14}
  4055ca:	eeb4 7ae7 	vcmpe.f32	s14, s15
  4055ce:	eef1 fa10 	vmrs	APSR_nzcv, fpscr
  4055d2:	bf48      	it	mi
  4055d4:	eef0 7a47 	vmovmi.f32	s15, s14
  4055d8:	eb01 0400 	add.w	r4, r1, r0
  4055dc:	f100 0001 	add.w	r0, r0, #1
  4055e0:	bf48      	it	mi
  4055e2:	4625      	movmi	r5, r4
  4055e4:	4560      	cmp	r0, ip
  4055e6:	eeb0 7a67 	vmov.f32	s14, s15
  4055ea:	d1ec      	bne.n	4055c6 <arm_min_f32+0x9e>
  4055ec:	ed82 7a00 	vstr	s14, [r2]
  4055f0:	601d      	str	r5, [r3, #0]
  4055f2:	e8bd 03f0 	ldmia.w	sp!, {r4, r5, r6, r7, r8, r9}
  4055f6:	4770      	bx	lr
  4055f8:	464d      	mov	r5, r9
  4055fa:	e7de      	b.n	4055ba <arm_min_f32+0x92>
  4055fc:	eeb0 7a67 	vmov.f32	s14, s15
  405600:	e7f4      	b.n	4055ec <arm_min_f32+0xc4>
  405602:	bf00      	nop

00405604 <arm_max_f32>:
  405604:	e92d 03f0 	stmdb	sp!, {r4, r5, r6, r7, r8, r9}
  405608:	f101 3cff 	add.w	ip, r1, #4294967295
  40560c:	ea5f 099c 	movs.w	r9, ip, lsr #2
  405610:	f100 0704 	add.w	r7, r0, #4
  405614:	edd0 7a00 	vldr	s15, [r0]
  405618:	d05c      	beq.n	4056d4 <arm_max_f32+0xd0>
  40561a:	463c      	mov	r4, r7
  40561c:	464e      	mov	r6, r9
  40561e:	2004      	movs	r0, #4
  405620:	2500      	movs	r5, #0
  405622:	edd4 6a00 	vldr	s13, [r4]
  405626:	eef4 6ae7 	vcmpe.f32	s13, s15
  40562a:	eef1 fa10 	vmrs	APSR_nzcv, fpscr
  40562e:	ed94 7a01 	vldr	s14, [r4, #4]
  405632:	bfc8      	it	gt
  405634:	eef0 7a66 	vmovgt.f32	s15, s13
  405638:	eef4 7ac7 	vcmpe.f32	s15, s14
  40563c:	f1a0 0803 	sub.w	r8, r0, #3
  405640:	bfc8      	it	gt
  405642:	4645      	movgt	r5, r8
  405644:	eef1 fa10 	vmrs	APSR_nzcv, fpscr
  405648:	edd4 6a02 	vldr	s13, [r4, #8]
  40564c:	bf48      	it	mi
  40564e:	eef0 7a47 	vmovmi.f32	s15, s14
  405652:	eef4 7ae6 	vcmpe.f32	s15, s13
  405656:	f1a0 0802 	sub.w	r8, r0, #2
  40565a:	bf48      	it	mi
  40565c:	4645      	movmi	r5, r8
  40565e:	eef1 fa10 	vmrs	APSR_nzcv, fpscr
  405662:	ed94 7a03 	vldr	s14, [r4, #12]
  405666:	bf48      	it	mi
  405668:	eef0 7a66 	vmovmi.f32	s15, s13
  40566c:	eef4 7ac7 	vcmpe.f32	s15, s14
  405670:	f100 38ff 	add.w	r8, r0, #4294967295
  405674:	bf48      	it	mi
  405676:	4645      	movmi	r5, r8
  405678:	eef1 fa10 	vmrs	APSR_nzcv, fpscr
  40567c:	bf48      	it	mi
  40567e:	4605      	movmi	r5, r0
  405680:	bf48      	it	mi
  405682:	eef0 7a47 	vmovmi.f32	s15, s14
  405686:	3e01      	subs	r6, #1
  405688:	f104 0410 	add.w	r4, r4, #16
  40568c:	f100 0004 	add.w	r0, r0, #4
  405690:	d1c7      	bne.n	405622 <arm_max_f32+0x1e>
  405692:	eb07 1709 	add.w	r7, r7, r9, lsl #4
  405696:	f01c 0c03 	ands.w	ip, ip, #3
  40569a:	d01d      	beq.n	4056d8 <arm_max_f32+0xd4>
  40569c:	ebcc 0101 	rsb	r1, ip, r1
  4056a0:	2000      	movs	r0, #0
  4056a2:	ecb7 7a01 	vldmia	r7!, {s14}
  4056a6:	eeb4 7ae7 	vcmpe.f32	s14, s15
  4056aa:	eef1 fa10 	vmrs	APSR_nzcv, fpscr
  4056ae:	bfc8      	it	gt
  4056b0:	eef0 7a47 	vmovgt.f32	s15, s14
  4056b4:	eb01 0400 	add.w	r4, r1, r0
  4056b8:	f100 0001 	add.w	r0, r0, #1
  4056bc:	bfc8      	it	gt
  4056be:	4625      	movgt	r5, r4
  4056c0:	4560      	cmp	r0, ip
  4056c2:	eeb0 7a67 	vmov.f32	s14, s15
  4056c6:	d1ec      	bne.n	4056a2 <arm_max_f32+0x9e>
  4056c8:	ed82 7a00 	vstr	s14, [r2]
  4056cc:	601d      	str	r5, [r3, #0]
  4056ce:	e8bd 03f0 	ldmia.w	sp!, {r4, r5, r6, r7, r8, r9}
  4056d2:	4770      	bx	lr
  4056d4:	464d      	mov	r5, r9
  4056d6:	e7de      	b.n	405696 <arm_max_f32+0x92>
  4056d8:	eeb0 7a67 	vmov.f32	s14, s15
  4056dc:	e7f4      	b.n	4056c8 <arm_max_f32+0xc4>
  4056de:	bf00      	nop

004056e0 <arm_cos_f32>:
  4056e0:	eddf 7a1e 	vldr	s15, [pc, #120]	; 40575c <arm_cos_f32+0x7c>
  4056e4:	ee06 0a90 	vmov	s13, r0
  4056e8:	eeb5 7a00 	vmov.f32	s14, #80	; 0x3e800000  0.250
  4056ec:	ee66 7aa7 	vmul.f32	s15, s13, s15
  4056f0:	ee77 7a87 	vadd.f32	s15, s15, s14
  4056f4:	eef5 7ac0 	vcmpe.f32	s15, #0.0
  4056f8:	eef1 fa10 	vmrs	APSR_nzcv, fpscr
  4056fc:	eebd 7ae7 	vcvt.s32.f32	s14, s15
  405700:	d504      	bpl.n	40570c <arm_cos_f32+0x2c>
  405702:	ee17 3a10 	vmov	r3, s14
  405706:	3b01      	subs	r3, #1
  405708:	ee07 3a10 	vmov	s14, r3
  40570c:	eeb8 7ac7 	vcvt.f32.s32	s14, s14
  405710:	eddf 6a13 	vldr	s13, [pc, #76]	; 405760 <arm_cos_f32+0x80>
  405714:	ee77 7ac7 	vsub.f32	s15, s15, s14
  405718:	ee67 7aa6 	vmul.f32	s15, s15, s13
  40571c:	eefc 6ae7 	vcvt.u32.f32	s13, s15
  405720:	ee16 3a90 	vmov	r3, s13
  405724:	f3c3 0308 	ubfx	r3, r3, #0, #9
  405728:	ee07 3a10 	vmov	s14, r3
  40572c:	eef8 6a47 	vcvt.f32.u32	s13, s14
  405730:	eeb7 7a00 	vmov.f32	s14, #112	; 0x3f800000  1.0
  405734:	ee77 7ae6 	vsub.f32	s15, s15, s13
  405738:	4a0a      	ldr	r2, [pc, #40]	; (405764 <arm_cos_f32+0x84>)
  40573a:	ee37 7a67 	vsub.f32	s14, s14, s15
  40573e:	eb02 0183 	add.w	r1, r2, r3, lsl #2
  405742:	ed91 6a00 	vldr	s12, [r1]
  405746:	edd1 6a01 	vldr	s13, [r1, #4]
  40574a:	ee27 7a06 	vmul.f32	s14, s14, s12
  40574e:	ee67 7aa6 	vmul.f32	s15, s15, s13
  405752:	ee77 7a27 	vadd.f32	s15, s14, s15
  405756:	ee17 0a90 	vmov	r0, s15
  40575a:	4770      	bx	lr
  40575c:	3e22f983 	.word	0x3e22f983
  405760:	44000000 	.word	0x44000000
  405764:	004088fc 	.word	0x004088fc

00405768 <arm_scale_f32>:
  405768:	b470      	push	{r4, r5, r6}
  40576a:	089e      	lsrs	r6, r3, #2
  40576c:	ee07 1a90 	vmov	s15, r1
  405770:	d023      	beq.n	4057ba <arm_scale_f32+0x52>
  405772:	4635      	mov	r5, r6
  405774:	4614      	mov	r4, r2
  405776:	4601      	mov	r1, r0
  405778:	edd1 5a00 	vldr	s11, [r1]
  40577c:	ed91 6a01 	vldr	s12, [r1, #4]
  405780:	edd1 6a02 	vldr	s13, [r1, #8]
  405784:	ed91 7a03 	vldr	s14, [r1, #12]
  405788:	ee65 5aa7 	vmul.f32	s11, s11, s15
  40578c:	ee26 6a27 	vmul.f32	s12, s12, s15
  405790:	ee66 6aa7 	vmul.f32	s13, s13, s15
  405794:	ee27 7a27 	vmul.f32	s14, s14, s15
  405798:	3d01      	subs	r5, #1
  40579a:	edc4 5a00 	vstr	s11, [r4]
  40579e:	ed84 6a01 	vstr	s12, [r4, #4]
  4057a2:	edc4 6a02 	vstr	s13, [r4, #8]
  4057a6:	ed84 7a03 	vstr	s14, [r4, #12]
  4057aa:	f101 0110 	add.w	r1, r1, #16
  4057ae:	f104 0410 	add.w	r4, r4, #16
  4057b2:	d1e1      	bne.n	405778 <arm_scale_f32+0x10>
  4057b4:	0136      	lsls	r6, r6, #4
  4057b6:	4430      	add	r0, r6
  4057b8:	4432      	add	r2, r6
  4057ba:	f013 0303 	ands.w	r3, r3, #3
  4057be:	d007      	beq.n	4057d0 <arm_scale_f32+0x68>
  4057c0:	ecb0 7a01 	vldmia	r0!, {s14}
  4057c4:	ee27 7a27 	vmul.f32	s14, s14, s15
  4057c8:	3b01      	subs	r3, #1
  4057ca:	eca2 7a01 	vstmia	r2!, {s14}
  4057ce:	d1f7      	bne.n	4057c0 <arm_scale_f32+0x58>
  4057d0:	bc70      	pop	{r4, r5, r6}
  4057d2:	4770      	bx	lr

004057d4 <arm_add_f32>:
  4057d4:	ea5f 0c93 	movs.w	ip, r3, lsr #2
  4057d8:	e92d 01f0 	stmdb	sp!, {r4, r5, r6, r7, r8}
  4057dc:	d032      	beq.n	405844 <arm_add_f32+0x70>
  4057de:	4667      	mov	r7, ip
  4057e0:	4614      	mov	r4, r2
  4057e2:	460e      	mov	r6, r1
  4057e4:	4605      	mov	r5, r0
  4057e6:	46a8      	mov	r8, r5
  4057e8:	edd8 5a00 	vldr	s11, [r8]
  4057ec:	46b0      	mov	r8, r6
  4057ee:	ed95 4a01 	vldr	s8, [r5, #4]
  4057f2:	ed96 6a01 	vldr	s12, [r6, #4]
  4057f6:	edd5 4a02 	vldr	s9, [r5, #8]
  4057fa:	edd6 6a02 	vldr	s13, [r6, #8]
  4057fe:	ed95 5a03 	vldr	s10, [r5, #12]
  405802:	ed96 7a03 	vldr	s14, [r6, #12]
  405806:	edd8 7a00 	vldr	s15, [r8]
  40580a:	ee34 6a06 	vadd.f32	s12, s8, s12
  40580e:	ee74 6aa6 	vadd.f32	s13, s9, s13
  405812:	ee35 7a07 	vadd.f32	s14, s10, s14
  405816:	ee75 7aa7 	vadd.f32	s15, s11, s15
  40581a:	3f01      	subs	r7, #1
  40581c:	ed84 6a01 	vstr	s12, [r4, #4]
  405820:	edc4 6a02 	vstr	s13, [r4, #8]
  405824:	ed84 7a03 	vstr	s14, [r4, #12]
  405828:	edc4 7a00 	vstr	s15, [r4]
  40582c:	f105 0510 	add.w	r5, r5, #16
  405830:	f106 0610 	add.w	r6, r6, #16
  405834:	f104 0410 	add.w	r4, r4, #16
  405838:	d1d5      	bne.n	4057e6 <arm_add_f32+0x12>
  40583a:	ea4f 140c 	mov.w	r4, ip, lsl #4
  40583e:	4420      	add	r0, r4
  405840:	4421      	add	r1, r4
  405842:	4422      	add	r2, r4
  405844:	f013 0303 	ands.w	r3, r3, #3
  405848:	d009      	beq.n	40585e <arm_add_f32+0x8a>
  40584a:	ecb0 7a01 	vldmia	r0!, {s14}
  40584e:	ecf1 7a01 	vldmia	r1!, {s15}
  405852:	ee77 7a27 	vadd.f32	s15, s14, s15
  405856:	3b01      	subs	r3, #1
  405858:	ece2 7a01 	vstmia	r2!, {s15}
  40585c:	d1f5      	bne.n	40584a <arm_add_f32+0x76>
  40585e:	e8bd 01f0 	ldmia.w	sp!, {r4, r5, r6, r7, r8}
  405862:	4770      	bx	lr

00405864 <__libc_init_array>:
  405864:	b570      	push	{r4, r5, r6, lr}
  405866:	4e0f      	ldr	r6, [pc, #60]	; (4058a4 <__libc_init_array+0x40>)
  405868:	4d0f      	ldr	r5, [pc, #60]	; (4058a8 <__libc_init_array+0x44>)
  40586a:	1b76      	subs	r6, r6, r5
  40586c:	10b6      	asrs	r6, r6, #2
  40586e:	bf18      	it	ne
  405870:	2400      	movne	r4, #0
  405872:	d005      	beq.n	405880 <__libc_init_array+0x1c>
  405874:	3401      	adds	r4, #1
  405876:	f855 3b04 	ldr.w	r3, [r5], #4
  40587a:	4798      	blx	r3
  40587c:	42a6      	cmp	r6, r4
  40587e:	d1f9      	bne.n	405874 <__libc_init_array+0x10>
  405880:	4e0a      	ldr	r6, [pc, #40]	; (4058ac <__libc_init_array+0x48>)
  405882:	4d0b      	ldr	r5, [pc, #44]	; (4058b0 <__libc_init_array+0x4c>)
  405884:	1b76      	subs	r6, r6, r5
  405886:	f003 fcef 	bl	409268 <_init>
  40588a:	10b6      	asrs	r6, r6, #2
  40588c:	bf18      	it	ne
  40588e:	2400      	movne	r4, #0
  405890:	d006      	beq.n	4058a0 <__libc_init_array+0x3c>
  405892:	3401      	adds	r4, #1
  405894:	f855 3b04 	ldr.w	r3, [r5], #4
  405898:	4798      	blx	r3
  40589a:	42a6      	cmp	r6, r4
  40589c:	d1f9      	bne.n	405892 <__libc_init_array+0x2e>
  40589e:	bd70      	pop	{r4, r5, r6, pc}
  4058a0:	bd70      	pop	{r4, r5, r6, pc}
  4058a2:	bf00      	nop
  4058a4:	00409274 	.word	0x00409274
  4058a8:	00409274 	.word	0x00409274
  4058ac:	0040927c 	.word	0x0040927c
  4058b0:	00409274 	.word	0x00409274

004058b4 <iprintf>:
  4058b4:	b40f      	push	{r0, r1, r2, r3}
  4058b6:	b500      	push	{lr}
  4058b8:	4907      	ldr	r1, [pc, #28]	; (4058d8 <iprintf+0x24>)
  4058ba:	b083      	sub	sp, #12
  4058bc:	ab04      	add	r3, sp, #16
  4058be:	6808      	ldr	r0, [r1, #0]
  4058c0:	f853 2b04 	ldr.w	r2, [r3], #4
  4058c4:	6881      	ldr	r1, [r0, #8]
  4058c6:	9301      	str	r3, [sp, #4]
  4058c8:	f000 fc88 	bl	4061dc <_vfiprintf_r>
  4058cc:	b003      	add	sp, #12
  4058ce:	f85d eb04 	ldr.w	lr, [sp], #4
  4058d2:	b004      	add	sp, #16
  4058d4:	4770      	bx	lr
  4058d6:	bf00      	nop
  4058d8:	20400048 	.word	0x20400048

004058dc <malloc>:
  4058dc:	4b02      	ldr	r3, [pc, #8]	; (4058e8 <malloc+0xc>)
  4058de:	4601      	mov	r1, r0
  4058e0:	6818      	ldr	r0, [r3, #0]
  4058e2:	f000 b803 	b.w	4058ec <_malloc_r>
  4058e6:	bf00      	nop
  4058e8:	20400048 	.word	0x20400048

004058ec <_malloc_r>:
  4058ec:	e92d 4ff0 	stmdb	sp!, {r4, r5, r6, r7, r8, r9, sl, fp, lr}
  4058f0:	f101 060b 	add.w	r6, r1, #11
  4058f4:	2e16      	cmp	r6, #22
  4058f6:	b083      	sub	sp, #12
  4058f8:	4605      	mov	r5, r0
  4058fa:	f240 809e 	bls.w	405a3a <_malloc_r+0x14e>
  4058fe:	f036 0607 	bics.w	r6, r6, #7
  405902:	f100 80bd 	bmi.w	405a80 <_malloc_r+0x194>
  405906:	42b1      	cmp	r1, r6
  405908:	f200 80ba 	bhi.w	405a80 <_malloc_r+0x194>
  40590c:	f000 fb86 	bl	40601c <__malloc_lock>
  405910:	f5b6 7ffc 	cmp.w	r6, #504	; 0x1f8
  405914:	f0c0 8293 	bcc.w	405e3e <_malloc_r+0x552>
  405918:	0a73      	lsrs	r3, r6, #9
  40591a:	f000 80b8 	beq.w	405a8e <_malloc_r+0x1a2>
  40591e:	2b04      	cmp	r3, #4
  405920:	f200 8179 	bhi.w	405c16 <_malloc_r+0x32a>
  405924:	09b3      	lsrs	r3, r6, #6
  405926:	f103 0039 	add.w	r0, r3, #57	; 0x39
  40592a:	f103 0e38 	add.w	lr, r3, #56	; 0x38
  40592e:	00c3      	lsls	r3, r0, #3
  405930:	4fbf      	ldr	r7, [pc, #764]	; (405c30 <_malloc_r+0x344>)
  405932:	443b      	add	r3, r7
  405934:	f1a3 0108 	sub.w	r1, r3, #8
  405938:	685c      	ldr	r4, [r3, #4]
  40593a:	42a1      	cmp	r1, r4
  40593c:	d106      	bne.n	40594c <_malloc_r+0x60>
  40593e:	e00c      	b.n	40595a <_malloc_r+0x6e>
  405940:	2a00      	cmp	r2, #0
  405942:	f280 80aa 	bge.w	405a9a <_malloc_r+0x1ae>
  405946:	68e4      	ldr	r4, [r4, #12]
  405948:	42a1      	cmp	r1, r4
  40594a:	d006      	beq.n	40595a <_malloc_r+0x6e>
  40594c:	6863      	ldr	r3, [r4, #4]
  40594e:	f023 0303 	bic.w	r3, r3, #3
  405952:	1b9a      	subs	r2, r3, r6
  405954:	2a0f      	cmp	r2, #15
  405956:	ddf3      	ble.n	405940 <_malloc_r+0x54>
  405958:	4670      	mov	r0, lr
  40595a:	693c      	ldr	r4, [r7, #16]
  40595c:	f8df e2e4 	ldr.w	lr, [pc, #740]	; 405c44 <_malloc_r+0x358>
  405960:	4574      	cmp	r4, lr
  405962:	f000 81ab 	beq.w	405cbc <_malloc_r+0x3d0>
  405966:	6863      	ldr	r3, [r4, #4]
  405968:	f023 0303 	bic.w	r3, r3, #3
  40596c:	1b9a      	subs	r2, r3, r6
  40596e:	2a0f      	cmp	r2, #15
  405970:	f300 8190 	bgt.w	405c94 <_malloc_r+0x3a8>
  405974:	2a00      	cmp	r2, #0
  405976:	f8c7 e014 	str.w	lr, [r7, #20]
  40597a:	f8c7 e010 	str.w	lr, [r7, #16]
  40597e:	f280 809d 	bge.w	405abc <_malloc_r+0x1d0>
  405982:	f5b3 7f00 	cmp.w	r3, #512	; 0x200
  405986:	f080 8161 	bcs.w	405c4c <_malloc_r+0x360>
  40598a:	08db      	lsrs	r3, r3, #3
  40598c:	f103 0c01 	add.w	ip, r3, #1
  405990:	1099      	asrs	r1, r3, #2
  405992:	687a      	ldr	r2, [r7, #4]
  405994:	f857 803c 	ldr.w	r8, [r7, ip, lsl #3]
  405998:	f8c4 8008 	str.w	r8, [r4, #8]
  40599c:	2301      	movs	r3, #1
  40599e:	408b      	lsls	r3, r1
  4059a0:	eb07 01cc 	add.w	r1, r7, ip, lsl #3
  4059a4:	4313      	orrs	r3, r2
  4059a6:	3908      	subs	r1, #8
  4059a8:	60e1      	str	r1, [r4, #12]
  4059aa:	607b      	str	r3, [r7, #4]
  4059ac:	f847 403c 	str.w	r4, [r7, ip, lsl #3]
  4059b0:	f8c8 400c 	str.w	r4, [r8, #12]
  4059b4:	1082      	asrs	r2, r0, #2
  4059b6:	2401      	movs	r4, #1
  4059b8:	4094      	lsls	r4, r2
  4059ba:	429c      	cmp	r4, r3
  4059bc:	f200 808b 	bhi.w	405ad6 <_malloc_r+0x1ea>
  4059c0:	421c      	tst	r4, r3
  4059c2:	d106      	bne.n	4059d2 <_malloc_r+0xe6>
  4059c4:	f020 0003 	bic.w	r0, r0, #3
  4059c8:	0064      	lsls	r4, r4, #1
  4059ca:	421c      	tst	r4, r3
  4059cc:	f100 0004 	add.w	r0, r0, #4
  4059d0:	d0fa      	beq.n	4059c8 <_malloc_r+0xdc>
  4059d2:	eb07 09c0 	add.w	r9, r7, r0, lsl #3
  4059d6:	46cc      	mov	ip, r9
  4059d8:	4680      	mov	r8, r0
  4059da:	f8dc 300c 	ldr.w	r3, [ip, #12]
  4059de:	459c      	cmp	ip, r3
  4059e0:	d107      	bne.n	4059f2 <_malloc_r+0x106>
  4059e2:	e16d      	b.n	405cc0 <_malloc_r+0x3d4>
  4059e4:	2a00      	cmp	r2, #0
  4059e6:	f280 817b 	bge.w	405ce0 <_malloc_r+0x3f4>
  4059ea:	68db      	ldr	r3, [r3, #12]
  4059ec:	459c      	cmp	ip, r3
  4059ee:	f000 8167 	beq.w	405cc0 <_malloc_r+0x3d4>
  4059f2:	6859      	ldr	r1, [r3, #4]
  4059f4:	f021 0103 	bic.w	r1, r1, #3
  4059f8:	1b8a      	subs	r2, r1, r6
  4059fa:	2a0f      	cmp	r2, #15
  4059fc:	ddf2      	ble.n	4059e4 <_malloc_r+0xf8>
  4059fe:	f8d3 c00c 	ldr.w	ip, [r3, #12]
  405a02:	f8d3 8008 	ldr.w	r8, [r3, #8]
  405a06:	9300      	str	r3, [sp, #0]
  405a08:	199c      	adds	r4, r3, r6
  405a0a:	4628      	mov	r0, r5
  405a0c:	f046 0601 	orr.w	r6, r6, #1
  405a10:	f042 0501 	orr.w	r5, r2, #1
  405a14:	605e      	str	r6, [r3, #4]
  405a16:	f8c8 c00c 	str.w	ip, [r8, #12]
  405a1a:	f8cc 8008 	str.w	r8, [ip, #8]
  405a1e:	617c      	str	r4, [r7, #20]
  405a20:	613c      	str	r4, [r7, #16]
  405a22:	f8c4 e00c 	str.w	lr, [r4, #12]
  405a26:	f8c4 e008 	str.w	lr, [r4, #8]
  405a2a:	6065      	str	r5, [r4, #4]
  405a2c:	505a      	str	r2, [r3, r1]
  405a2e:	f000 fafb 	bl	406028 <__malloc_unlock>
  405a32:	9b00      	ldr	r3, [sp, #0]
  405a34:	f103 0408 	add.w	r4, r3, #8
  405a38:	e01e      	b.n	405a78 <_malloc_r+0x18c>
  405a3a:	2910      	cmp	r1, #16
  405a3c:	d820      	bhi.n	405a80 <_malloc_r+0x194>
  405a3e:	f000 faed 	bl	40601c <__malloc_lock>
  405a42:	2610      	movs	r6, #16
  405a44:	2318      	movs	r3, #24
  405a46:	2002      	movs	r0, #2
  405a48:	4f79      	ldr	r7, [pc, #484]	; (405c30 <_malloc_r+0x344>)
  405a4a:	443b      	add	r3, r7
  405a4c:	f1a3 0208 	sub.w	r2, r3, #8
  405a50:	685c      	ldr	r4, [r3, #4]
  405a52:	4294      	cmp	r4, r2
  405a54:	f000 813d 	beq.w	405cd2 <_malloc_r+0x3e6>
  405a58:	6863      	ldr	r3, [r4, #4]
  405a5a:	68e1      	ldr	r1, [r4, #12]
  405a5c:	68a6      	ldr	r6, [r4, #8]
  405a5e:	f023 0303 	bic.w	r3, r3, #3
  405a62:	4423      	add	r3, r4
  405a64:	4628      	mov	r0, r5
  405a66:	685a      	ldr	r2, [r3, #4]
  405a68:	60f1      	str	r1, [r6, #12]
  405a6a:	f042 0201 	orr.w	r2, r2, #1
  405a6e:	608e      	str	r6, [r1, #8]
  405a70:	605a      	str	r2, [r3, #4]
  405a72:	f000 fad9 	bl	406028 <__malloc_unlock>
  405a76:	3408      	adds	r4, #8
  405a78:	4620      	mov	r0, r4
  405a7a:	b003      	add	sp, #12
  405a7c:	e8bd 8ff0 	ldmia.w	sp!, {r4, r5, r6, r7, r8, r9, sl, fp, pc}
  405a80:	2400      	movs	r4, #0
  405a82:	230c      	movs	r3, #12
  405a84:	4620      	mov	r0, r4
  405a86:	602b      	str	r3, [r5, #0]
  405a88:	b003      	add	sp, #12
  405a8a:	e8bd 8ff0 	ldmia.w	sp!, {r4, r5, r6, r7, r8, r9, sl, fp, pc}
  405a8e:	2040      	movs	r0, #64	; 0x40
  405a90:	f44f 7300 	mov.w	r3, #512	; 0x200
  405a94:	f04f 0e3f 	mov.w	lr, #63	; 0x3f
  405a98:	e74a      	b.n	405930 <_malloc_r+0x44>
  405a9a:	4423      	add	r3, r4
  405a9c:	68e1      	ldr	r1, [r4, #12]
  405a9e:	685a      	ldr	r2, [r3, #4]
  405aa0:	68a6      	ldr	r6, [r4, #8]
  405aa2:	f042 0201 	orr.w	r2, r2, #1
  405aa6:	60f1      	str	r1, [r6, #12]
  405aa8:	4628      	mov	r0, r5
  405aaa:	608e      	str	r6, [r1, #8]
  405aac:	605a      	str	r2, [r3, #4]
  405aae:	f000 fabb 	bl	406028 <__malloc_unlock>
  405ab2:	3408      	adds	r4, #8
  405ab4:	4620      	mov	r0, r4
  405ab6:	b003      	add	sp, #12
  405ab8:	e8bd 8ff0 	ldmia.w	sp!, {r4, r5, r6, r7, r8, r9, sl, fp, pc}
  405abc:	4423      	add	r3, r4
  405abe:	4628      	mov	r0, r5
  405ac0:	685a      	ldr	r2, [r3, #4]
  405ac2:	f042 0201 	orr.w	r2, r2, #1
  405ac6:	605a      	str	r2, [r3, #4]
  405ac8:	f000 faae 	bl	406028 <__malloc_unlock>
  405acc:	3408      	adds	r4, #8
  405ace:	4620      	mov	r0, r4
  405ad0:	b003      	add	sp, #12
  405ad2:	e8bd 8ff0 	ldmia.w	sp!, {r4, r5, r6, r7, r8, r9, sl, fp, pc}
  405ad6:	68bc      	ldr	r4, [r7, #8]
  405ad8:	6863      	ldr	r3, [r4, #4]
  405ada:	f023 0803 	bic.w	r8, r3, #3
  405ade:	45b0      	cmp	r8, r6
  405ae0:	d304      	bcc.n	405aec <_malloc_r+0x200>
  405ae2:	eba8 0306 	sub.w	r3, r8, r6
  405ae6:	2b0f      	cmp	r3, #15
  405ae8:	f300 8085 	bgt.w	405bf6 <_malloc_r+0x30a>
  405aec:	f8df 9158 	ldr.w	r9, [pc, #344]	; 405c48 <_malloc_r+0x35c>
  405af0:	4b50      	ldr	r3, [pc, #320]	; (405c34 <_malloc_r+0x348>)
  405af2:	f8d9 2000 	ldr.w	r2, [r9]
  405af6:	681b      	ldr	r3, [r3, #0]
  405af8:	3201      	adds	r2, #1
  405afa:	4433      	add	r3, r6
  405afc:	eb04 0a08 	add.w	sl, r4, r8
  405b00:	f000 8155 	beq.w	405dae <_malloc_r+0x4c2>
  405b04:	f503 5380 	add.w	r3, r3, #4096	; 0x1000
  405b08:	330f      	adds	r3, #15
  405b0a:	f423 6b7f 	bic.w	fp, r3, #4080	; 0xff0
  405b0e:	f02b 0b0f 	bic.w	fp, fp, #15
  405b12:	4659      	mov	r1, fp
  405b14:	4628      	mov	r0, r5
  405b16:	f000 fa8d 	bl	406034 <_sbrk_r>
  405b1a:	1c41      	adds	r1, r0, #1
  405b1c:	4602      	mov	r2, r0
  405b1e:	f000 80fc 	beq.w	405d1a <_malloc_r+0x42e>
  405b22:	4582      	cmp	sl, r0
  405b24:	f200 80f7 	bhi.w	405d16 <_malloc_r+0x42a>
  405b28:	4b43      	ldr	r3, [pc, #268]	; (405c38 <_malloc_r+0x34c>)
  405b2a:	6819      	ldr	r1, [r3, #0]
  405b2c:	4459      	add	r1, fp
  405b2e:	6019      	str	r1, [r3, #0]
  405b30:	f000 814d 	beq.w	405dce <_malloc_r+0x4e2>
  405b34:	f8d9 0000 	ldr.w	r0, [r9]
  405b38:	3001      	adds	r0, #1
  405b3a:	bf1b      	ittet	ne
  405b3c:	eba2 0a0a 	subne.w	sl, r2, sl
  405b40:	4451      	addne	r1, sl
  405b42:	f8c9 2000 	streq.w	r2, [r9]
  405b46:	6019      	strne	r1, [r3, #0]
  405b48:	f012 0107 	ands.w	r1, r2, #7
  405b4c:	f000 8115 	beq.w	405d7a <_malloc_r+0x48e>
  405b50:	f1c1 0008 	rsb	r0, r1, #8
  405b54:	f5c1 5180 	rsb	r1, r1, #4096	; 0x1000
  405b58:	4402      	add	r2, r0
  405b5a:	3108      	adds	r1, #8
  405b5c:	eb02 090b 	add.w	r9, r2, fp
  405b60:	f3c9 090b 	ubfx	r9, r9, #0, #12
  405b64:	eba1 0909 	sub.w	r9, r1, r9
  405b68:	4649      	mov	r1, r9
  405b6a:	4628      	mov	r0, r5
  405b6c:	9301      	str	r3, [sp, #4]
  405b6e:	9200      	str	r2, [sp, #0]
  405b70:	f000 fa60 	bl	406034 <_sbrk_r>
  405b74:	1c43      	adds	r3, r0, #1
  405b76:	e89d 000c 	ldmia.w	sp, {r2, r3}
  405b7a:	f000 8143 	beq.w	405e04 <_malloc_r+0x518>
  405b7e:	1a80      	subs	r0, r0, r2
  405b80:	4448      	add	r0, r9
  405b82:	f040 0001 	orr.w	r0, r0, #1
  405b86:	6819      	ldr	r1, [r3, #0]
  405b88:	60ba      	str	r2, [r7, #8]
  405b8a:	4449      	add	r1, r9
  405b8c:	42bc      	cmp	r4, r7
  405b8e:	6050      	str	r0, [r2, #4]
  405b90:	6019      	str	r1, [r3, #0]
  405b92:	d017      	beq.n	405bc4 <_malloc_r+0x2d8>
  405b94:	f1b8 0f0f 	cmp.w	r8, #15
  405b98:	f240 80fb 	bls.w	405d92 <_malloc_r+0x4a6>
  405b9c:	6860      	ldr	r0, [r4, #4]
  405b9e:	f1a8 020c 	sub.w	r2, r8, #12
  405ba2:	f022 0207 	bic.w	r2, r2, #7
  405ba6:	eb04 0e02 	add.w	lr, r4, r2
  405baa:	f000 0001 	and.w	r0, r0, #1
  405bae:	f04f 0c05 	mov.w	ip, #5
  405bb2:	4310      	orrs	r0, r2
  405bb4:	2a0f      	cmp	r2, #15
  405bb6:	6060      	str	r0, [r4, #4]
  405bb8:	f8ce c004 	str.w	ip, [lr, #4]
  405bbc:	f8ce c008 	str.w	ip, [lr, #8]
  405bc0:	f200 8117 	bhi.w	405df2 <_malloc_r+0x506>
  405bc4:	4b1d      	ldr	r3, [pc, #116]	; (405c3c <_malloc_r+0x350>)
  405bc6:	68bc      	ldr	r4, [r7, #8]
  405bc8:	681a      	ldr	r2, [r3, #0]
  405bca:	4291      	cmp	r1, r2
  405bcc:	bf88      	it	hi
  405bce:	6019      	strhi	r1, [r3, #0]
  405bd0:	4b1b      	ldr	r3, [pc, #108]	; (405c40 <_malloc_r+0x354>)
  405bd2:	681a      	ldr	r2, [r3, #0]
  405bd4:	4291      	cmp	r1, r2
  405bd6:	6862      	ldr	r2, [r4, #4]
  405bd8:	bf88      	it	hi
  405bda:	6019      	strhi	r1, [r3, #0]
  405bdc:	f022 0203 	bic.w	r2, r2, #3
  405be0:	4296      	cmp	r6, r2
  405be2:	eba2 0306 	sub.w	r3, r2, r6
  405be6:	d801      	bhi.n	405bec <_malloc_r+0x300>
  405be8:	2b0f      	cmp	r3, #15
  405bea:	dc04      	bgt.n	405bf6 <_malloc_r+0x30a>
  405bec:	4628      	mov	r0, r5
  405bee:	f000 fa1b 	bl	406028 <__malloc_unlock>
  405bf2:	2400      	movs	r4, #0
  405bf4:	e740      	b.n	405a78 <_malloc_r+0x18c>
  405bf6:	19a2      	adds	r2, r4, r6
  405bf8:	f043 0301 	orr.w	r3, r3, #1
  405bfc:	f046 0601 	orr.w	r6, r6, #1
  405c00:	6066      	str	r6, [r4, #4]
  405c02:	4628      	mov	r0, r5
  405c04:	60ba      	str	r2, [r7, #8]
  405c06:	6053      	str	r3, [r2, #4]
  405c08:	f000 fa0e 	bl	406028 <__malloc_unlock>
  405c0c:	3408      	adds	r4, #8
  405c0e:	4620      	mov	r0, r4
  405c10:	b003      	add	sp, #12
  405c12:	e8bd 8ff0 	ldmia.w	sp!, {r4, r5, r6, r7, r8, r9, sl, fp, pc}
  405c16:	2b14      	cmp	r3, #20
  405c18:	d971      	bls.n	405cfe <_malloc_r+0x412>
  405c1a:	2b54      	cmp	r3, #84	; 0x54
  405c1c:	f200 80a3 	bhi.w	405d66 <_malloc_r+0x47a>
  405c20:	0b33      	lsrs	r3, r6, #12
  405c22:	f103 006f 	add.w	r0, r3, #111	; 0x6f
  405c26:	f103 0e6e 	add.w	lr, r3, #110	; 0x6e
  405c2a:	00c3      	lsls	r3, r0, #3
  405c2c:	e680      	b.n	405930 <_malloc_r+0x44>
  405c2e:	bf00      	nop
  405c30:	20400478 	.word	0x20400478
  405c34:	20428c30 	.word	0x20428c30
  405c38:	20428c00 	.word	0x20428c00
  405c3c:	20428c28 	.word	0x20428c28
  405c40:	20428c2c 	.word	0x20428c2c
  405c44:	20400480 	.word	0x20400480
  405c48:	20400880 	.word	0x20400880
  405c4c:	0a5a      	lsrs	r2, r3, #9
  405c4e:	2a04      	cmp	r2, #4
  405c50:	d95b      	bls.n	405d0a <_malloc_r+0x41e>
  405c52:	2a14      	cmp	r2, #20
  405c54:	f200 80ae 	bhi.w	405db4 <_malloc_r+0x4c8>
  405c58:	f102 015c 	add.w	r1, r2, #92	; 0x5c
  405c5c:	00c9      	lsls	r1, r1, #3
  405c5e:	325b      	adds	r2, #91	; 0x5b
  405c60:	eb07 0c01 	add.w	ip, r7, r1
  405c64:	5879      	ldr	r1, [r7, r1]
  405c66:	f1ac 0c08 	sub.w	ip, ip, #8
  405c6a:	458c      	cmp	ip, r1
  405c6c:	f000 8088 	beq.w	405d80 <_malloc_r+0x494>
  405c70:	684a      	ldr	r2, [r1, #4]
  405c72:	f022 0203 	bic.w	r2, r2, #3
  405c76:	4293      	cmp	r3, r2
  405c78:	d273      	bcs.n	405d62 <_malloc_r+0x476>
  405c7a:	6889      	ldr	r1, [r1, #8]
  405c7c:	458c      	cmp	ip, r1
  405c7e:	d1f7      	bne.n	405c70 <_malloc_r+0x384>
  405c80:	f8dc 200c 	ldr.w	r2, [ip, #12]
  405c84:	687b      	ldr	r3, [r7, #4]
  405c86:	60e2      	str	r2, [r4, #12]
  405c88:	f8c4 c008 	str.w	ip, [r4, #8]
  405c8c:	6094      	str	r4, [r2, #8]
  405c8e:	f8cc 400c 	str.w	r4, [ip, #12]
  405c92:	e68f      	b.n	4059b4 <_malloc_r+0xc8>
  405c94:	19a1      	adds	r1, r4, r6
  405c96:	f046 0c01 	orr.w	ip, r6, #1
  405c9a:	f042 0601 	orr.w	r6, r2, #1
  405c9e:	f8c4 c004 	str.w	ip, [r4, #4]
  405ca2:	4628      	mov	r0, r5
  405ca4:	6179      	str	r1, [r7, #20]
  405ca6:	6139      	str	r1, [r7, #16]
  405ca8:	f8c1 e00c 	str.w	lr, [r1, #12]
  405cac:	f8c1 e008 	str.w	lr, [r1, #8]
  405cb0:	604e      	str	r6, [r1, #4]
  405cb2:	50e2      	str	r2, [r4, r3]
  405cb4:	f000 f9b8 	bl	406028 <__malloc_unlock>
  405cb8:	3408      	adds	r4, #8
  405cba:	e6dd      	b.n	405a78 <_malloc_r+0x18c>
  405cbc:	687b      	ldr	r3, [r7, #4]
  405cbe:	e679      	b.n	4059b4 <_malloc_r+0xc8>
  405cc0:	f108 0801 	add.w	r8, r8, #1
  405cc4:	f018 0f03 	tst.w	r8, #3
  405cc8:	f10c 0c08 	add.w	ip, ip, #8
  405ccc:	f47f ae85 	bne.w	4059da <_malloc_r+0xee>
  405cd0:	e02d      	b.n	405d2e <_malloc_r+0x442>
  405cd2:	68dc      	ldr	r4, [r3, #12]
  405cd4:	42a3      	cmp	r3, r4
  405cd6:	bf08      	it	eq
  405cd8:	3002      	addeq	r0, #2
  405cda:	f43f ae3e 	beq.w	40595a <_malloc_r+0x6e>
  405cde:	e6bb      	b.n	405a58 <_malloc_r+0x16c>
  405ce0:	4419      	add	r1, r3
  405ce2:	461c      	mov	r4, r3
  405ce4:	684a      	ldr	r2, [r1, #4]
  405ce6:	68db      	ldr	r3, [r3, #12]
  405ce8:	f854 6f08 	ldr.w	r6, [r4, #8]!
  405cec:	f042 0201 	orr.w	r2, r2, #1
  405cf0:	604a      	str	r2, [r1, #4]
  405cf2:	4628      	mov	r0, r5
  405cf4:	60f3      	str	r3, [r6, #12]
  405cf6:	609e      	str	r6, [r3, #8]
  405cf8:	f000 f996 	bl	406028 <__malloc_unlock>
  405cfc:	e6bc      	b.n	405a78 <_malloc_r+0x18c>
  405cfe:	f103 005c 	add.w	r0, r3, #92	; 0x5c
  405d02:	f103 0e5b 	add.w	lr, r3, #91	; 0x5b
  405d06:	00c3      	lsls	r3, r0, #3
  405d08:	e612      	b.n	405930 <_malloc_r+0x44>
  405d0a:	099a      	lsrs	r2, r3, #6
  405d0c:	f102 0139 	add.w	r1, r2, #57	; 0x39
  405d10:	00c9      	lsls	r1, r1, #3
  405d12:	3238      	adds	r2, #56	; 0x38
  405d14:	e7a4      	b.n	405c60 <_malloc_r+0x374>
  405d16:	42bc      	cmp	r4, r7
  405d18:	d054      	beq.n	405dc4 <_malloc_r+0x4d8>
  405d1a:	68bc      	ldr	r4, [r7, #8]
  405d1c:	6862      	ldr	r2, [r4, #4]
  405d1e:	f022 0203 	bic.w	r2, r2, #3
  405d22:	e75d      	b.n	405be0 <_malloc_r+0x2f4>
  405d24:	f859 3908 	ldr.w	r3, [r9], #-8
  405d28:	4599      	cmp	r9, r3
  405d2a:	f040 8086 	bne.w	405e3a <_malloc_r+0x54e>
  405d2e:	f010 0f03 	tst.w	r0, #3
  405d32:	f100 30ff 	add.w	r0, r0, #4294967295
  405d36:	d1f5      	bne.n	405d24 <_malloc_r+0x438>
  405d38:	687b      	ldr	r3, [r7, #4]
  405d3a:	ea23 0304 	bic.w	r3, r3, r4
  405d3e:	607b      	str	r3, [r7, #4]
  405d40:	0064      	lsls	r4, r4, #1
  405d42:	429c      	cmp	r4, r3
  405d44:	f63f aec7 	bhi.w	405ad6 <_malloc_r+0x1ea>
  405d48:	2c00      	cmp	r4, #0
  405d4a:	f43f aec4 	beq.w	405ad6 <_malloc_r+0x1ea>
  405d4e:	421c      	tst	r4, r3
  405d50:	4640      	mov	r0, r8
  405d52:	f47f ae3e 	bne.w	4059d2 <_malloc_r+0xe6>
  405d56:	0064      	lsls	r4, r4, #1
  405d58:	421c      	tst	r4, r3
  405d5a:	f100 0004 	add.w	r0, r0, #4
  405d5e:	d0fa      	beq.n	405d56 <_malloc_r+0x46a>
  405d60:	e637      	b.n	4059d2 <_malloc_r+0xe6>
  405d62:	468c      	mov	ip, r1
  405d64:	e78c      	b.n	405c80 <_malloc_r+0x394>
  405d66:	f5b3 7faa 	cmp.w	r3, #340	; 0x154
  405d6a:	d815      	bhi.n	405d98 <_malloc_r+0x4ac>
  405d6c:	0bf3      	lsrs	r3, r6, #15
  405d6e:	f103 0078 	add.w	r0, r3, #120	; 0x78
  405d72:	f103 0e77 	add.w	lr, r3, #119	; 0x77
  405d76:	00c3      	lsls	r3, r0, #3
  405d78:	e5da      	b.n	405930 <_malloc_r+0x44>
  405d7a:	f44f 5180 	mov.w	r1, #4096	; 0x1000
  405d7e:	e6ed      	b.n	405b5c <_malloc_r+0x270>
  405d80:	687b      	ldr	r3, [r7, #4]
  405d82:	1092      	asrs	r2, r2, #2
  405d84:	2101      	movs	r1, #1
  405d86:	fa01 f202 	lsl.w	r2, r1, r2
  405d8a:	4313      	orrs	r3, r2
  405d8c:	607b      	str	r3, [r7, #4]
  405d8e:	4662      	mov	r2, ip
  405d90:	e779      	b.n	405c86 <_malloc_r+0x39a>
  405d92:	2301      	movs	r3, #1
  405d94:	6053      	str	r3, [r2, #4]
  405d96:	e729      	b.n	405bec <_malloc_r+0x300>
  405d98:	f240 5254 	movw	r2, #1364	; 0x554
  405d9c:	4293      	cmp	r3, r2
  405d9e:	d822      	bhi.n	405de6 <_malloc_r+0x4fa>
  405da0:	0cb3      	lsrs	r3, r6, #18
  405da2:	f103 007d 	add.w	r0, r3, #125	; 0x7d
  405da6:	f103 0e7c 	add.w	lr, r3, #124	; 0x7c
  405daa:	00c3      	lsls	r3, r0, #3
  405dac:	e5c0      	b.n	405930 <_malloc_r+0x44>
  405dae:	f103 0b10 	add.w	fp, r3, #16
  405db2:	e6ae      	b.n	405b12 <_malloc_r+0x226>
  405db4:	2a54      	cmp	r2, #84	; 0x54
  405db6:	d829      	bhi.n	405e0c <_malloc_r+0x520>
  405db8:	0b1a      	lsrs	r2, r3, #12
  405dba:	f102 016f 	add.w	r1, r2, #111	; 0x6f
  405dbe:	00c9      	lsls	r1, r1, #3
  405dc0:	326e      	adds	r2, #110	; 0x6e
  405dc2:	e74d      	b.n	405c60 <_malloc_r+0x374>
  405dc4:	4b20      	ldr	r3, [pc, #128]	; (405e48 <_malloc_r+0x55c>)
  405dc6:	6819      	ldr	r1, [r3, #0]
  405dc8:	4459      	add	r1, fp
  405dca:	6019      	str	r1, [r3, #0]
  405dcc:	e6b2      	b.n	405b34 <_malloc_r+0x248>
  405dce:	f3ca 000b 	ubfx	r0, sl, #0, #12
  405dd2:	2800      	cmp	r0, #0
  405dd4:	f47f aeae 	bne.w	405b34 <_malloc_r+0x248>
  405dd8:	eb08 030b 	add.w	r3, r8, fp
  405ddc:	68ba      	ldr	r2, [r7, #8]
  405dde:	f043 0301 	orr.w	r3, r3, #1
  405de2:	6053      	str	r3, [r2, #4]
  405de4:	e6ee      	b.n	405bc4 <_malloc_r+0x2d8>
  405de6:	207f      	movs	r0, #127	; 0x7f
  405de8:	f44f 737e 	mov.w	r3, #1016	; 0x3f8
  405dec:	f04f 0e7e 	mov.w	lr, #126	; 0x7e
  405df0:	e59e      	b.n	405930 <_malloc_r+0x44>
  405df2:	f104 0108 	add.w	r1, r4, #8
  405df6:	4628      	mov	r0, r5
  405df8:	9300      	str	r3, [sp, #0]
  405dfa:	f001 fb0b 	bl	407414 <_free_r>
  405dfe:	9b00      	ldr	r3, [sp, #0]
  405e00:	6819      	ldr	r1, [r3, #0]
  405e02:	e6df      	b.n	405bc4 <_malloc_r+0x2d8>
  405e04:	2001      	movs	r0, #1
  405e06:	f04f 0900 	mov.w	r9, #0
  405e0a:	e6bc      	b.n	405b86 <_malloc_r+0x29a>
  405e0c:	f5b2 7faa 	cmp.w	r2, #340	; 0x154
  405e10:	d805      	bhi.n	405e1e <_malloc_r+0x532>
  405e12:	0bda      	lsrs	r2, r3, #15
  405e14:	f102 0178 	add.w	r1, r2, #120	; 0x78
  405e18:	00c9      	lsls	r1, r1, #3
  405e1a:	3277      	adds	r2, #119	; 0x77
  405e1c:	e720      	b.n	405c60 <_malloc_r+0x374>
  405e1e:	f240 5154 	movw	r1, #1364	; 0x554
  405e22:	428a      	cmp	r2, r1
  405e24:	d805      	bhi.n	405e32 <_malloc_r+0x546>
  405e26:	0c9a      	lsrs	r2, r3, #18
  405e28:	f102 017d 	add.w	r1, r2, #125	; 0x7d
  405e2c:	00c9      	lsls	r1, r1, #3
  405e2e:	327c      	adds	r2, #124	; 0x7c
  405e30:	e716      	b.n	405c60 <_malloc_r+0x374>
  405e32:	f44f 717e 	mov.w	r1, #1016	; 0x3f8
  405e36:	227e      	movs	r2, #126	; 0x7e
  405e38:	e712      	b.n	405c60 <_malloc_r+0x374>
  405e3a:	687b      	ldr	r3, [r7, #4]
  405e3c:	e780      	b.n	405d40 <_malloc_r+0x454>
  405e3e:	08f0      	lsrs	r0, r6, #3
  405e40:	f106 0308 	add.w	r3, r6, #8
  405e44:	e600      	b.n	405a48 <_malloc_r+0x15c>
  405e46:	bf00      	nop
  405e48:	20428c00 	.word	0x20428c00

00405e4c <memcpy>:
  405e4c:	4684      	mov	ip, r0
  405e4e:	ea41 0300 	orr.w	r3, r1, r0
  405e52:	f013 0303 	ands.w	r3, r3, #3
  405e56:	d16d      	bne.n	405f34 <memcpy+0xe8>
  405e58:	3a40      	subs	r2, #64	; 0x40
  405e5a:	d341      	bcc.n	405ee0 <memcpy+0x94>
  405e5c:	f851 3b04 	ldr.w	r3, [r1], #4
  405e60:	f840 3b04 	str.w	r3, [r0], #4
  405e64:	f851 3b04 	ldr.w	r3, [r1], #4
  405e68:	f840 3b04 	str.w	r3, [r0], #4
  405e6c:	f851 3b04 	ldr.w	r3, [r1], #4
  405e70:	f840 3b04 	str.w	r3, [r0], #4
  405e74:	f851 3b04 	ldr.w	r3, [r1], #4
  405e78:	f840 3b04 	str.w	r3, [r0], #4
  405e7c:	f851 3b04 	ldr.w	r3, [r1], #4
  405e80:	f840 3b04 	str.w	r3, [r0], #4
  405e84:	f851 3b04 	ldr.w	r3, [r1], #4
  405e88:	f840 3b04 	str.w	r3, [r0], #4
  405e8c:	f851 3b04 	ldr.w	r3, [r1], #4
  405e90:	f840 3b04 	str.w	r3, [r0], #4
  405e94:	f851 3b04 	ldr.w	r3, [r1], #4
  405e98:	f840 3b04 	str.w	r3, [r0], #4
  405e9c:	f851 3b04 	ldr.w	r3, [r1], #4
  405ea0:	f840 3b04 	str.w	r3, [r0], #4
  405ea4:	f851 3b04 	ldr.w	r3, [r1], #4
  405ea8:	f840 3b04 	str.w	r3, [r0], #4
  405eac:	f851 3b04 	ldr.w	r3, [r1], #4
  405eb0:	f840 3b04 	str.w	r3, [r0], #4
  405eb4:	f851 3b04 	ldr.w	r3, [r1], #4
  405eb8:	f840 3b04 	str.w	r3, [r0], #4
  405ebc:	f851 3b04 	ldr.w	r3, [r1], #4
  405ec0:	f840 3b04 	str.w	r3, [r0], #4
  405ec4:	f851 3b04 	ldr.w	r3, [r1], #4
  405ec8:	f840 3b04 	str.w	r3, [r0], #4
  405ecc:	f851 3b04 	ldr.w	r3, [r1], #4
  405ed0:	f840 3b04 	str.w	r3, [r0], #4
  405ed4:	f851 3b04 	ldr.w	r3, [r1], #4
  405ed8:	f840 3b04 	str.w	r3, [r0], #4
  405edc:	3a40      	subs	r2, #64	; 0x40
  405ede:	d2bd      	bcs.n	405e5c <memcpy+0x10>
  405ee0:	3230      	adds	r2, #48	; 0x30
  405ee2:	d311      	bcc.n	405f08 <memcpy+0xbc>
  405ee4:	f851 3b04 	ldr.w	r3, [r1], #4
  405ee8:	f840 3b04 	str.w	r3, [r0], #4
  405eec:	f851 3b04 	ldr.w	r3, [r1], #4
  405ef0:	f840 3b04 	str.w	r3, [r0], #4
  405ef4:	f851 3b04 	ldr.w	r3, [r1], #4
  405ef8:	f840 3b04 	str.w	r3, [r0], #4
  405efc:	f851 3b04 	ldr.w	r3, [r1], #4
  405f00:	f840 3b04 	str.w	r3, [r0], #4
  405f04:	3a10      	subs	r2, #16
  405f06:	d2ed      	bcs.n	405ee4 <memcpy+0x98>
  405f08:	320c      	adds	r2, #12
  405f0a:	d305      	bcc.n	405f18 <memcpy+0xcc>
  405f0c:	f851 3b04 	ldr.w	r3, [r1], #4
  405f10:	f840 3b04 	str.w	r3, [r0], #4
  405f14:	3a04      	subs	r2, #4
  405f16:	d2f9      	bcs.n	405f0c <memcpy+0xc0>
  405f18:	3204      	adds	r2, #4
  405f1a:	d008      	beq.n	405f2e <memcpy+0xe2>
  405f1c:	07d2      	lsls	r2, r2, #31
  405f1e:	bf1c      	itt	ne
  405f20:	f811 3b01 	ldrbne.w	r3, [r1], #1
  405f24:	f800 3b01 	strbne.w	r3, [r0], #1
  405f28:	d301      	bcc.n	405f2e <memcpy+0xe2>
  405f2a:	880b      	ldrh	r3, [r1, #0]
  405f2c:	8003      	strh	r3, [r0, #0]
  405f2e:	4660      	mov	r0, ip
  405f30:	4770      	bx	lr
  405f32:	bf00      	nop
  405f34:	2a08      	cmp	r2, #8
  405f36:	d313      	bcc.n	405f60 <memcpy+0x114>
  405f38:	078b      	lsls	r3, r1, #30
  405f3a:	d08d      	beq.n	405e58 <memcpy+0xc>
  405f3c:	f010 0303 	ands.w	r3, r0, #3
  405f40:	d08a      	beq.n	405e58 <memcpy+0xc>
  405f42:	f1c3 0304 	rsb	r3, r3, #4
  405f46:	1ad2      	subs	r2, r2, r3
  405f48:	07db      	lsls	r3, r3, #31
  405f4a:	bf1c      	itt	ne
  405f4c:	f811 3b01 	ldrbne.w	r3, [r1], #1
  405f50:	f800 3b01 	strbne.w	r3, [r0], #1
  405f54:	d380      	bcc.n	405e58 <memcpy+0xc>
  405f56:	f831 3b02 	ldrh.w	r3, [r1], #2
  405f5a:	f820 3b02 	strh.w	r3, [r0], #2
  405f5e:	e77b      	b.n	405e58 <memcpy+0xc>
  405f60:	3a04      	subs	r2, #4
  405f62:	d3d9      	bcc.n	405f18 <memcpy+0xcc>
  405f64:	3a01      	subs	r2, #1
  405f66:	f811 3b01 	ldrb.w	r3, [r1], #1
  405f6a:	f800 3b01 	strb.w	r3, [r0], #1
  405f6e:	d2f9      	bcs.n	405f64 <memcpy+0x118>
  405f70:	780b      	ldrb	r3, [r1, #0]
  405f72:	7003      	strb	r3, [r0, #0]
  405f74:	784b      	ldrb	r3, [r1, #1]
  405f76:	7043      	strb	r3, [r0, #1]
  405f78:	788b      	ldrb	r3, [r1, #2]
  405f7a:	7083      	strb	r3, [r0, #2]
  405f7c:	4660      	mov	r0, ip
  405f7e:	4770      	bx	lr

00405f80 <memset>:
  405f80:	b470      	push	{r4, r5, r6}
  405f82:	0786      	lsls	r6, r0, #30
  405f84:	d046      	beq.n	406014 <memset+0x94>
  405f86:	1e54      	subs	r4, r2, #1
  405f88:	2a00      	cmp	r2, #0
  405f8a:	d041      	beq.n	406010 <memset+0x90>
  405f8c:	b2ca      	uxtb	r2, r1
  405f8e:	4603      	mov	r3, r0
  405f90:	e002      	b.n	405f98 <memset+0x18>
  405f92:	f114 34ff 	adds.w	r4, r4, #4294967295
  405f96:	d33b      	bcc.n	406010 <memset+0x90>
  405f98:	f803 2b01 	strb.w	r2, [r3], #1
  405f9c:	079d      	lsls	r5, r3, #30
  405f9e:	d1f8      	bne.n	405f92 <memset+0x12>
  405fa0:	2c03      	cmp	r4, #3
  405fa2:	d92e      	bls.n	406002 <memset+0x82>
  405fa4:	b2cd      	uxtb	r5, r1
  405fa6:	ea45 2505 	orr.w	r5, r5, r5, lsl #8
  405faa:	2c0f      	cmp	r4, #15
  405fac:	ea45 4505 	orr.w	r5, r5, r5, lsl #16
  405fb0:	d919      	bls.n	405fe6 <memset+0x66>
  405fb2:	f103 0210 	add.w	r2, r3, #16
  405fb6:	4626      	mov	r6, r4
  405fb8:	3e10      	subs	r6, #16
  405fba:	2e0f      	cmp	r6, #15
  405fbc:	f842 5c10 	str.w	r5, [r2, #-16]
  405fc0:	f842 5c0c 	str.w	r5, [r2, #-12]
  405fc4:	f842 5c08 	str.w	r5, [r2, #-8]
  405fc8:	f842 5c04 	str.w	r5, [r2, #-4]
  405fcc:	f102 0210 	add.w	r2, r2, #16
  405fd0:	d8f2      	bhi.n	405fb8 <memset+0x38>
  405fd2:	f1a4 0210 	sub.w	r2, r4, #16
  405fd6:	f022 020f 	bic.w	r2, r2, #15
  405fda:	f004 040f 	and.w	r4, r4, #15
  405fde:	3210      	adds	r2, #16
  405fe0:	2c03      	cmp	r4, #3
  405fe2:	4413      	add	r3, r2
  405fe4:	d90d      	bls.n	406002 <memset+0x82>
  405fe6:	461e      	mov	r6, r3
  405fe8:	4622      	mov	r2, r4
  405fea:	3a04      	subs	r2, #4
  405fec:	2a03      	cmp	r2, #3
  405fee:	f846 5b04 	str.w	r5, [r6], #4
  405ff2:	d8fa      	bhi.n	405fea <memset+0x6a>
  405ff4:	1f22      	subs	r2, r4, #4
  405ff6:	f022 0203 	bic.w	r2, r2, #3
  405ffa:	3204      	adds	r2, #4
  405ffc:	4413      	add	r3, r2
  405ffe:	f004 0403 	and.w	r4, r4, #3
  406002:	b12c      	cbz	r4, 406010 <memset+0x90>
  406004:	b2c9      	uxtb	r1, r1
  406006:	441c      	add	r4, r3
  406008:	f803 1b01 	strb.w	r1, [r3], #1
  40600c:	429c      	cmp	r4, r3
  40600e:	d1fb      	bne.n	406008 <memset+0x88>
  406010:	bc70      	pop	{r4, r5, r6}
  406012:	4770      	bx	lr
  406014:	4614      	mov	r4, r2
  406016:	4603      	mov	r3, r0
  406018:	e7c2      	b.n	405fa0 <memset+0x20>
  40601a:	bf00      	nop

0040601c <__malloc_lock>:
  40601c:	4801      	ldr	r0, [pc, #4]	; (406024 <__malloc_lock+0x8>)
  40601e:	f001 bc93 	b.w	407948 <__retarget_lock_acquire_recursive>
  406022:	bf00      	nop
  406024:	2042c080 	.word	0x2042c080

00406028 <__malloc_unlock>:
  406028:	4801      	ldr	r0, [pc, #4]	; (406030 <__malloc_unlock+0x8>)
  40602a:	f001 bc8f 	b.w	40794c <__retarget_lock_release_recursive>
  40602e:	bf00      	nop
  406030:	2042c080 	.word	0x2042c080

00406034 <_sbrk_r>:
  406034:	b538      	push	{r3, r4, r5, lr}
  406036:	4c07      	ldr	r4, [pc, #28]	; (406054 <_sbrk_r+0x20>)
  406038:	2300      	movs	r3, #0
  40603a:	4605      	mov	r5, r0
  40603c:	4608      	mov	r0, r1
  40603e:	6023      	str	r3, [r4, #0]
  406040:	f7fd f8a6 	bl	403190 <_sbrk>
  406044:	1c43      	adds	r3, r0, #1
  406046:	d000      	beq.n	40604a <_sbrk_r+0x16>
  406048:	bd38      	pop	{r3, r4, r5, pc}
  40604a:	6823      	ldr	r3, [r4, #0]
  40604c:	2b00      	cmp	r3, #0
  40604e:	d0fb      	beq.n	406048 <_sbrk_r+0x14>
  406050:	602b      	str	r3, [r5, #0]
  406052:	bd38      	pop	{r3, r4, r5, pc}
  406054:	2042c094 	.word	0x2042c094
	...

00406080 <strlen>:
  406080:	f890 f000 	pld	[r0]
  406084:	e96d 4502 	strd	r4, r5, [sp, #-8]!
  406088:	f020 0107 	bic.w	r1, r0, #7
  40608c:	f06f 0c00 	mvn.w	ip, #0
  406090:	f010 0407 	ands.w	r4, r0, #7
  406094:	f891 f020 	pld	[r1, #32]
  406098:	f040 8049 	bne.w	40612e <strlen+0xae>
  40609c:	f04f 0400 	mov.w	r4, #0
  4060a0:	f06f 0007 	mvn.w	r0, #7
  4060a4:	e9d1 2300 	ldrd	r2, r3, [r1]
  4060a8:	f891 f040 	pld	[r1, #64]	; 0x40
  4060ac:	f100 0008 	add.w	r0, r0, #8
  4060b0:	fa82 f24c 	uadd8	r2, r2, ip
  4060b4:	faa4 f28c 	sel	r2, r4, ip
  4060b8:	fa83 f34c 	uadd8	r3, r3, ip
  4060bc:	faa2 f38c 	sel	r3, r2, ip
  4060c0:	bb4b      	cbnz	r3, 406116 <strlen+0x96>
  4060c2:	e9d1 2302 	ldrd	r2, r3, [r1, #8]
  4060c6:	fa82 f24c 	uadd8	r2, r2, ip
  4060ca:	f100 0008 	add.w	r0, r0, #8
  4060ce:	faa4 f28c 	sel	r2, r4, ip
  4060d2:	fa83 f34c 	uadd8	r3, r3, ip
  4060d6:	faa2 f38c 	sel	r3, r2, ip
  4060da:	b9e3      	cbnz	r3, 406116 <strlen+0x96>
  4060dc:	e9d1 2304 	ldrd	r2, r3, [r1, #16]
  4060e0:	fa82 f24c 	uadd8	r2, r2, ip
  4060e4:	f100 0008 	add.w	r0, r0, #8
  4060e8:	faa4 f28c 	sel	r2, r4, ip
  4060ec:	fa83 f34c 	uadd8	r3, r3, ip
  4060f0:	faa2 f38c 	sel	r3, r2, ip
  4060f4:	b97b      	cbnz	r3, 406116 <strlen+0x96>
  4060f6:	e9d1 2306 	ldrd	r2, r3, [r1, #24]
  4060fa:	f101 0120 	add.w	r1, r1, #32
  4060fe:	fa82 f24c 	uadd8	r2, r2, ip
  406102:	f100 0008 	add.w	r0, r0, #8
  406106:	faa4 f28c 	sel	r2, r4, ip
  40610a:	fa83 f34c 	uadd8	r3, r3, ip
  40610e:	faa2 f38c 	sel	r3, r2, ip
  406112:	2b00      	cmp	r3, #0
  406114:	d0c6      	beq.n	4060a4 <strlen+0x24>
  406116:	2a00      	cmp	r2, #0
  406118:	bf04      	itt	eq
  40611a:	3004      	addeq	r0, #4
  40611c:	461a      	moveq	r2, r3
  40611e:	ba12      	rev	r2, r2
  406120:	fab2 f282 	clz	r2, r2
  406124:	e8fd 4502 	ldrd	r4, r5, [sp], #8
  406128:	eb00 00d2 	add.w	r0, r0, r2, lsr #3
  40612c:	4770      	bx	lr
  40612e:	e9d1 2300 	ldrd	r2, r3, [r1]
  406132:	f004 0503 	and.w	r5, r4, #3
  406136:	f1c4 0000 	rsb	r0, r4, #0
  40613a:	ea4f 05c5 	mov.w	r5, r5, lsl #3
  40613e:	f014 0f04 	tst.w	r4, #4
  406142:	f891 f040 	pld	[r1, #64]	; 0x40
  406146:	fa0c f505 	lsl.w	r5, ip, r5
  40614a:	ea62 0205 	orn	r2, r2, r5
  40614e:	bf1c      	itt	ne
  406150:	ea63 0305 	ornne	r3, r3, r5
  406154:	4662      	movne	r2, ip
  406156:	f04f 0400 	mov.w	r4, #0
  40615a:	e7a9      	b.n	4060b0 <strlen+0x30>

0040615c <__sprint_r.part.0>:
  40615c:	e92d 4ff8 	stmdb	sp!, {r3, r4, r5, r6, r7, r8, r9, sl, fp, lr}
  406160:	6e4b      	ldr	r3, [r1, #100]	; 0x64
  406162:	049c      	lsls	r4, r3, #18
  406164:	4693      	mov	fp, r2
  406166:	d52f      	bpl.n	4061c8 <__sprint_r.part.0+0x6c>
  406168:	6893      	ldr	r3, [r2, #8]
  40616a:	6812      	ldr	r2, [r2, #0]
  40616c:	b353      	cbz	r3, 4061c4 <__sprint_r.part.0+0x68>
  40616e:	460e      	mov	r6, r1
  406170:	4607      	mov	r7, r0
  406172:	f102 0908 	add.w	r9, r2, #8
  406176:	e919 0420 	ldmdb	r9, {r5, sl}
  40617a:	ea5f 089a 	movs.w	r8, sl, lsr #2
  40617e:	d017      	beq.n	4061b0 <__sprint_r.part.0+0x54>
  406180:	3d04      	subs	r5, #4
  406182:	2400      	movs	r4, #0
  406184:	e001      	b.n	40618a <__sprint_r.part.0+0x2e>
  406186:	45a0      	cmp	r8, r4
  406188:	d010      	beq.n	4061ac <__sprint_r.part.0+0x50>
  40618a:	4632      	mov	r2, r6
  40618c:	f855 1f04 	ldr.w	r1, [r5, #4]!
  406190:	4638      	mov	r0, r7
  406192:	f001 f8bb 	bl	40730c <_fputwc_r>
  406196:	1c43      	adds	r3, r0, #1
  406198:	f104 0401 	add.w	r4, r4, #1
  40619c:	d1f3      	bne.n	406186 <__sprint_r.part.0+0x2a>
  40619e:	2300      	movs	r3, #0
  4061a0:	f8cb 3008 	str.w	r3, [fp, #8]
  4061a4:	f8cb 3004 	str.w	r3, [fp, #4]
  4061a8:	e8bd 8ff8 	ldmia.w	sp!, {r3, r4, r5, r6, r7, r8, r9, sl, fp, pc}
  4061ac:	f8db 3008 	ldr.w	r3, [fp, #8]
  4061b0:	f02a 0a03 	bic.w	sl, sl, #3
  4061b4:	eba3 030a 	sub.w	r3, r3, sl
  4061b8:	f8cb 3008 	str.w	r3, [fp, #8]
  4061bc:	f109 0908 	add.w	r9, r9, #8
  4061c0:	2b00      	cmp	r3, #0
  4061c2:	d1d8      	bne.n	406176 <__sprint_r.part.0+0x1a>
  4061c4:	2000      	movs	r0, #0
  4061c6:	e7ea      	b.n	40619e <__sprint_r.part.0+0x42>
  4061c8:	f001 fa0a 	bl	4075e0 <__sfvwrite_r>
  4061cc:	2300      	movs	r3, #0
  4061ce:	f8cb 3008 	str.w	r3, [fp, #8]
  4061d2:	f8cb 3004 	str.w	r3, [fp, #4]
  4061d6:	e8bd 8ff8 	ldmia.w	sp!, {r3, r4, r5, r6, r7, r8, r9, sl, fp, pc}
  4061da:	bf00      	nop

004061dc <_vfiprintf_r>:
  4061dc:	e92d 4ff0 	stmdb	sp!, {r4, r5, r6, r7, r8, r9, sl, fp, lr}
  4061e0:	b0ad      	sub	sp, #180	; 0xb4
  4061e2:	461d      	mov	r5, r3
  4061e4:	468b      	mov	fp, r1
  4061e6:	4690      	mov	r8, r2
  4061e8:	9307      	str	r3, [sp, #28]
  4061ea:	9006      	str	r0, [sp, #24]
  4061ec:	b118      	cbz	r0, 4061f6 <_vfiprintf_r+0x1a>
  4061ee:	6b83      	ldr	r3, [r0, #56]	; 0x38
  4061f0:	2b00      	cmp	r3, #0
  4061f2:	f000 80f3 	beq.w	4063dc <_vfiprintf_r+0x200>
  4061f6:	f8db 3064 	ldr.w	r3, [fp, #100]	; 0x64
  4061fa:	f9bb 000c 	ldrsh.w	r0, [fp, #12]
  4061fe:	07df      	lsls	r7, r3, #31
  406200:	b281      	uxth	r1, r0
  406202:	d402      	bmi.n	40620a <_vfiprintf_r+0x2e>
  406204:	058e      	lsls	r6, r1, #22
  406206:	f140 80fc 	bpl.w	406402 <_vfiprintf_r+0x226>
  40620a:	048c      	lsls	r4, r1, #18
  40620c:	d40a      	bmi.n	406224 <_vfiprintf_r+0x48>
  40620e:	f8db 3064 	ldr.w	r3, [fp, #100]	; 0x64
  406212:	f440 5100 	orr.w	r1, r0, #8192	; 0x2000
  406216:	f423 5300 	bic.w	r3, r3, #8192	; 0x2000
  40621a:	f8ab 100c 	strh.w	r1, [fp, #12]
  40621e:	f8cb 3064 	str.w	r3, [fp, #100]	; 0x64
  406222:	b289      	uxth	r1, r1
  406224:	0708      	lsls	r0, r1, #28
  406226:	f140 80b3 	bpl.w	406390 <_vfiprintf_r+0x1b4>
  40622a:	f8db 3010 	ldr.w	r3, [fp, #16]
  40622e:	2b00      	cmp	r3, #0
  406230:	f000 80ae 	beq.w	406390 <_vfiprintf_r+0x1b4>
  406234:	f001 031a 	and.w	r3, r1, #26
  406238:	2b0a      	cmp	r3, #10
  40623a:	f000 80b5 	beq.w	4063a8 <_vfiprintf_r+0x1cc>
  40623e:	2300      	movs	r3, #0
  406240:	f10d 0970 	add.w	r9, sp, #112	; 0x70
  406244:	930b      	str	r3, [sp, #44]	; 0x2c
  406246:	9311      	str	r3, [sp, #68]	; 0x44
  406248:	9310      	str	r3, [sp, #64]	; 0x40
  40624a:	9303      	str	r3, [sp, #12]
  40624c:	f8cd 903c 	str.w	r9, [sp, #60]	; 0x3c
  406250:	46ca      	mov	sl, r9
  406252:	f8cd b010 	str.w	fp, [sp, #16]
  406256:	f898 3000 	ldrb.w	r3, [r8]
  40625a:	4644      	mov	r4, r8
  40625c:	b1fb      	cbz	r3, 40629e <_vfiprintf_r+0xc2>
  40625e:	2b25      	cmp	r3, #37	; 0x25
  406260:	d102      	bne.n	406268 <_vfiprintf_r+0x8c>
  406262:	e01c      	b.n	40629e <_vfiprintf_r+0xc2>
  406264:	2b25      	cmp	r3, #37	; 0x25
  406266:	d003      	beq.n	406270 <_vfiprintf_r+0x94>
  406268:	f814 3f01 	ldrb.w	r3, [r4, #1]!
  40626c:	2b00      	cmp	r3, #0
  40626e:	d1f9      	bne.n	406264 <_vfiprintf_r+0x88>
  406270:	eba4 0508 	sub.w	r5, r4, r8
  406274:	b19d      	cbz	r5, 40629e <_vfiprintf_r+0xc2>
  406276:	9b10      	ldr	r3, [sp, #64]	; 0x40
  406278:	9a11      	ldr	r2, [sp, #68]	; 0x44
  40627a:	f8ca 8000 	str.w	r8, [sl]
  40627e:	3301      	adds	r3, #1
  406280:	442a      	add	r2, r5
  406282:	2b07      	cmp	r3, #7
  406284:	f8ca 5004 	str.w	r5, [sl, #4]
  406288:	9211      	str	r2, [sp, #68]	; 0x44
  40628a:	9310      	str	r3, [sp, #64]	; 0x40
  40628c:	dd7a      	ble.n	406384 <_vfiprintf_r+0x1a8>
  40628e:	2a00      	cmp	r2, #0
  406290:	f040 84b0 	bne.w	406bf4 <_vfiprintf_r+0xa18>
  406294:	9b03      	ldr	r3, [sp, #12]
  406296:	9210      	str	r2, [sp, #64]	; 0x40
  406298:	442b      	add	r3, r5
  40629a:	46ca      	mov	sl, r9
  40629c:	9303      	str	r3, [sp, #12]
  40629e:	7823      	ldrb	r3, [r4, #0]
  4062a0:	2b00      	cmp	r3, #0
  4062a2:	f000 83e0 	beq.w	406a66 <_vfiprintf_r+0x88a>
  4062a6:	2000      	movs	r0, #0
  4062a8:	f04f 0300 	mov.w	r3, #0
  4062ac:	f88d 3037 	strb.w	r3, [sp, #55]	; 0x37
  4062b0:	f104 0801 	add.w	r8, r4, #1
  4062b4:	7862      	ldrb	r2, [r4, #1]
  4062b6:	4605      	mov	r5, r0
  4062b8:	4606      	mov	r6, r0
  4062ba:	4603      	mov	r3, r0
  4062bc:	f04f 34ff 	mov.w	r4, #4294967295
  4062c0:	f108 0801 	add.w	r8, r8, #1
  4062c4:	f1a2 0120 	sub.w	r1, r2, #32
  4062c8:	2958      	cmp	r1, #88	; 0x58
  4062ca:	f200 82de 	bhi.w	40688a <_vfiprintf_r+0x6ae>
  4062ce:	e8df f011 	tbh	[pc, r1, lsl #1]
  4062d2:	0221      	.short	0x0221
  4062d4:	02dc02dc 	.word	0x02dc02dc
  4062d8:	02dc0229 	.word	0x02dc0229
  4062dc:	02dc02dc 	.word	0x02dc02dc
  4062e0:	02dc02dc 	.word	0x02dc02dc
  4062e4:	028902dc 	.word	0x028902dc
  4062e8:	02dc0295 	.word	0x02dc0295
  4062ec:	02bd00a2 	.word	0x02bd00a2
  4062f0:	019f02dc 	.word	0x019f02dc
  4062f4:	01a401a4 	.word	0x01a401a4
  4062f8:	01a401a4 	.word	0x01a401a4
  4062fc:	01a401a4 	.word	0x01a401a4
  406300:	01a401a4 	.word	0x01a401a4
  406304:	02dc01a4 	.word	0x02dc01a4
  406308:	02dc02dc 	.word	0x02dc02dc
  40630c:	02dc02dc 	.word	0x02dc02dc
  406310:	02dc02dc 	.word	0x02dc02dc
  406314:	02dc02dc 	.word	0x02dc02dc
  406318:	01b202dc 	.word	0x01b202dc
  40631c:	02dc02dc 	.word	0x02dc02dc
  406320:	02dc02dc 	.word	0x02dc02dc
  406324:	02dc02dc 	.word	0x02dc02dc
  406328:	02dc02dc 	.word	0x02dc02dc
  40632c:	02dc02dc 	.word	0x02dc02dc
  406330:	02dc0197 	.word	0x02dc0197
  406334:	02dc02dc 	.word	0x02dc02dc
  406338:	02dc02dc 	.word	0x02dc02dc
  40633c:	02dc019b 	.word	0x02dc019b
  406340:	025302dc 	.word	0x025302dc
  406344:	02dc02dc 	.word	0x02dc02dc
  406348:	02dc02dc 	.word	0x02dc02dc
  40634c:	02dc02dc 	.word	0x02dc02dc
  406350:	02dc02dc 	.word	0x02dc02dc
  406354:	02dc02dc 	.word	0x02dc02dc
  406358:	021b025a 	.word	0x021b025a
  40635c:	02dc02dc 	.word	0x02dc02dc
  406360:	026e02dc 	.word	0x026e02dc
  406364:	02dc021b 	.word	0x02dc021b
  406368:	027302dc 	.word	0x027302dc
  40636c:	01f502dc 	.word	0x01f502dc
  406370:	02090182 	.word	0x02090182
  406374:	02dc02d7 	.word	0x02dc02d7
  406378:	02dc029a 	.word	0x02dc029a
  40637c:	02dc00a7 	.word	0x02dc00a7
  406380:	022e02dc 	.word	0x022e02dc
  406384:	f10a 0a08 	add.w	sl, sl, #8
  406388:	9b03      	ldr	r3, [sp, #12]
  40638a:	442b      	add	r3, r5
  40638c:	9303      	str	r3, [sp, #12]
  40638e:	e786      	b.n	40629e <_vfiprintf_r+0xc2>
  406390:	4659      	mov	r1, fp
  406392:	9806      	ldr	r0, [sp, #24]
  406394:	f000 fdac 	bl	406ef0 <__swsetup_r>
  406398:	bb18      	cbnz	r0, 4063e2 <_vfiprintf_r+0x206>
  40639a:	f8bb 100c 	ldrh.w	r1, [fp, #12]
  40639e:	f001 031a 	and.w	r3, r1, #26
  4063a2:	2b0a      	cmp	r3, #10
  4063a4:	f47f af4b 	bne.w	40623e <_vfiprintf_r+0x62>
  4063a8:	f9bb 300e 	ldrsh.w	r3, [fp, #14]
  4063ac:	2b00      	cmp	r3, #0
  4063ae:	f6ff af46 	blt.w	40623e <_vfiprintf_r+0x62>
  4063b2:	f8db 3064 	ldr.w	r3, [fp, #100]	; 0x64
  4063b6:	07db      	lsls	r3, r3, #31
  4063b8:	d405      	bmi.n	4063c6 <_vfiprintf_r+0x1ea>
  4063ba:	058f      	lsls	r7, r1, #22
  4063bc:	d403      	bmi.n	4063c6 <_vfiprintf_r+0x1ea>
  4063be:	f8db 0058 	ldr.w	r0, [fp, #88]	; 0x58
  4063c2:	f001 fac3 	bl	40794c <__retarget_lock_release_recursive>
  4063c6:	462b      	mov	r3, r5
  4063c8:	4642      	mov	r2, r8
  4063ca:	4659      	mov	r1, fp
  4063cc:	9806      	ldr	r0, [sp, #24]
  4063ce:	f000 fd4d 	bl	406e6c <__sbprintf>
  4063d2:	9003      	str	r0, [sp, #12]
  4063d4:	9803      	ldr	r0, [sp, #12]
  4063d6:	b02d      	add	sp, #180	; 0xb4
  4063d8:	e8bd 8ff0 	ldmia.w	sp!, {r4, r5, r6, r7, r8, r9, sl, fp, pc}
  4063dc:	f000 fef4 	bl	4071c8 <__sinit>
  4063e0:	e709      	b.n	4061f6 <_vfiprintf_r+0x1a>
  4063e2:	f8db 3064 	ldr.w	r3, [fp, #100]	; 0x64
  4063e6:	07d9      	lsls	r1, r3, #31
  4063e8:	d404      	bmi.n	4063f4 <_vfiprintf_r+0x218>
  4063ea:	f8bb 300c 	ldrh.w	r3, [fp, #12]
  4063ee:	059a      	lsls	r2, r3, #22
  4063f0:	f140 84aa 	bpl.w	406d48 <_vfiprintf_r+0xb6c>
  4063f4:	f04f 33ff 	mov.w	r3, #4294967295
  4063f8:	9303      	str	r3, [sp, #12]
  4063fa:	9803      	ldr	r0, [sp, #12]
  4063fc:	b02d      	add	sp, #180	; 0xb4
  4063fe:	e8bd 8ff0 	ldmia.w	sp!, {r4, r5, r6, r7, r8, r9, sl, fp, pc}
  406402:	f8db 0058 	ldr.w	r0, [fp, #88]	; 0x58
  406406:	f001 fa9f 	bl	407948 <__retarget_lock_acquire_recursive>
  40640a:	f9bb 000c 	ldrsh.w	r0, [fp, #12]
  40640e:	b281      	uxth	r1, r0
  406410:	e6fb      	b.n	40620a <_vfiprintf_r+0x2e>
  406412:	4276      	negs	r6, r6
  406414:	9207      	str	r2, [sp, #28]
  406416:	f043 0304 	orr.w	r3, r3, #4
  40641a:	f898 2000 	ldrb.w	r2, [r8]
  40641e:	e74f      	b.n	4062c0 <_vfiprintf_r+0xe4>
  406420:	9608      	str	r6, [sp, #32]
  406422:	069e      	lsls	r6, r3, #26
  406424:	f100 8450 	bmi.w	406cc8 <_vfiprintf_r+0xaec>
  406428:	9907      	ldr	r1, [sp, #28]
  40642a:	06dd      	lsls	r5, r3, #27
  40642c:	460a      	mov	r2, r1
  40642e:	f100 83ef 	bmi.w	406c10 <_vfiprintf_r+0xa34>
  406432:	0658      	lsls	r0, r3, #25
  406434:	f140 83ec 	bpl.w	406c10 <_vfiprintf_r+0xa34>
  406438:	880e      	ldrh	r6, [r1, #0]
  40643a:	3104      	adds	r1, #4
  40643c:	2700      	movs	r7, #0
  40643e:	2201      	movs	r2, #1
  406440:	9107      	str	r1, [sp, #28]
  406442:	f04f 0100 	mov.w	r1, #0
  406446:	f88d 1037 	strb.w	r1, [sp, #55]	; 0x37
  40644a:	2500      	movs	r5, #0
  40644c:	1c61      	adds	r1, r4, #1
  40644e:	f000 8116 	beq.w	40667e <_vfiprintf_r+0x4a2>
  406452:	f023 0180 	bic.w	r1, r3, #128	; 0x80
  406456:	9102      	str	r1, [sp, #8]
  406458:	ea56 0107 	orrs.w	r1, r6, r7
  40645c:	f040 8114 	bne.w	406688 <_vfiprintf_r+0x4ac>
  406460:	2c00      	cmp	r4, #0
  406462:	f040 835c 	bne.w	406b1e <_vfiprintf_r+0x942>
  406466:	2a00      	cmp	r2, #0
  406468:	f040 83b7 	bne.w	406bda <_vfiprintf_r+0x9fe>
  40646c:	f013 0301 	ands.w	r3, r3, #1
  406470:	9305      	str	r3, [sp, #20]
  406472:	f000 8457 	beq.w	406d24 <_vfiprintf_r+0xb48>
  406476:	f10d 0bb0 	add.w	fp, sp, #176	; 0xb0
  40647a:	2330      	movs	r3, #48	; 0x30
  40647c:	f80b 3d41 	strb.w	r3, [fp, #-65]!
  406480:	9b05      	ldr	r3, [sp, #20]
  406482:	42a3      	cmp	r3, r4
  406484:	bfb8      	it	lt
  406486:	4623      	movlt	r3, r4
  406488:	9301      	str	r3, [sp, #4]
  40648a:	b10d      	cbz	r5, 406490 <_vfiprintf_r+0x2b4>
  40648c:	3301      	adds	r3, #1
  40648e:	9301      	str	r3, [sp, #4]
  406490:	9b02      	ldr	r3, [sp, #8]
  406492:	f013 0302 	ands.w	r3, r3, #2
  406496:	9309      	str	r3, [sp, #36]	; 0x24
  406498:	d002      	beq.n	4064a0 <_vfiprintf_r+0x2c4>
  40649a:	9b01      	ldr	r3, [sp, #4]
  40649c:	3302      	adds	r3, #2
  40649e:	9301      	str	r3, [sp, #4]
  4064a0:	9b02      	ldr	r3, [sp, #8]
  4064a2:	f013 0384 	ands.w	r3, r3, #132	; 0x84
  4064a6:	930a      	str	r3, [sp, #40]	; 0x28
  4064a8:	f040 8217 	bne.w	4068da <_vfiprintf_r+0x6fe>
  4064ac:	9b08      	ldr	r3, [sp, #32]
  4064ae:	9a01      	ldr	r2, [sp, #4]
  4064b0:	1a9d      	subs	r5, r3, r2
  4064b2:	2d00      	cmp	r5, #0
  4064b4:	f340 8211 	ble.w	4068da <_vfiprintf_r+0x6fe>
  4064b8:	2d10      	cmp	r5, #16
  4064ba:	f340 8490 	ble.w	406dde <_vfiprintf_r+0xc02>
  4064be:	9b10      	ldr	r3, [sp, #64]	; 0x40
  4064c0:	9a11      	ldr	r2, [sp, #68]	; 0x44
  4064c2:	4ec4      	ldr	r6, [pc, #784]	; (4067d4 <_vfiprintf_r+0x5f8>)
  4064c4:	46d6      	mov	lr, sl
  4064c6:	2710      	movs	r7, #16
  4064c8:	46a2      	mov	sl, r4
  4064ca:	4619      	mov	r1, r3
  4064cc:	9c06      	ldr	r4, [sp, #24]
  4064ce:	e007      	b.n	4064e0 <_vfiprintf_r+0x304>
  4064d0:	f101 0c02 	add.w	ip, r1, #2
  4064d4:	f10e 0e08 	add.w	lr, lr, #8
  4064d8:	4601      	mov	r1, r0
  4064da:	3d10      	subs	r5, #16
  4064dc:	2d10      	cmp	r5, #16
  4064de:	dd11      	ble.n	406504 <_vfiprintf_r+0x328>
  4064e0:	1c48      	adds	r0, r1, #1
  4064e2:	3210      	adds	r2, #16
  4064e4:	2807      	cmp	r0, #7
  4064e6:	9211      	str	r2, [sp, #68]	; 0x44
  4064e8:	e88e 00c0 	stmia.w	lr, {r6, r7}
  4064ec:	9010      	str	r0, [sp, #64]	; 0x40
  4064ee:	ddef      	ble.n	4064d0 <_vfiprintf_r+0x2f4>
  4064f0:	2a00      	cmp	r2, #0
  4064f2:	f040 81e4 	bne.w	4068be <_vfiprintf_r+0x6e2>
  4064f6:	3d10      	subs	r5, #16
  4064f8:	2d10      	cmp	r5, #16
  4064fa:	4611      	mov	r1, r2
  4064fc:	f04f 0c01 	mov.w	ip, #1
  406500:	46ce      	mov	lr, r9
  406502:	dced      	bgt.n	4064e0 <_vfiprintf_r+0x304>
  406504:	4654      	mov	r4, sl
  406506:	4661      	mov	r1, ip
  406508:	46f2      	mov	sl, lr
  40650a:	442a      	add	r2, r5
  40650c:	2907      	cmp	r1, #7
  40650e:	9211      	str	r2, [sp, #68]	; 0x44
  406510:	f8ca 6000 	str.w	r6, [sl]
  406514:	f8ca 5004 	str.w	r5, [sl, #4]
  406518:	9110      	str	r1, [sp, #64]	; 0x40
  40651a:	f300 82ec 	bgt.w	406af6 <_vfiprintf_r+0x91a>
  40651e:	f89d 5037 	ldrb.w	r5, [sp, #55]	; 0x37
  406522:	f10a 0a08 	add.w	sl, sl, #8
  406526:	1c48      	adds	r0, r1, #1
  406528:	2d00      	cmp	r5, #0
  40652a:	f040 81de 	bne.w	4068ea <_vfiprintf_r+0x70e>
  40652e:	9b09      	ldr	r3, [sp, #36]	; 0x24
  406530:	2b00      	cmp	r3, #0
  406532:	f000 81f8 	beq.w	406926 <_vfiprintf_r+0x74a>
  406536:	3202      	adds	r2, #2
  406538:	a90e      	add	r1, sp, #56	; 0x38
  40653a:	2302      	movs	r3, #2
  40653c:	2807      	cmp	r0, #7
  40653e:	9211      	str	r2, [sp, #68]	; 0x44
  406540:	9010      	str	r0, [sp, #64]	; 0x40
  406542:	e88a 000a 	stmia.w	sl, {r1, r3}
  406546:	f340 81ea 	ble.w	40691e <_vfiprintf_r+0x742>
  40654a:	2a00      	cmp	r2, #0
  40654c:	f040 838c 	bne.w	406c68 <_vfiprintf_r+0xa8c>
  406550:	9b0a      	ldr	r3, [sp, #40]	; 0x28
  406552:	2b80      	cmp	r3, #128	; 0x80
  406554:	f04f 0001 	mov.w	r0, #1
  406558:	4611      	mov	r1, r2
  40655a:	46ca      	mov	sl, r9
  40655c:	f040 81e7 	bne.w	40692e <_vfiprintf_r+0x752>
  406560:	9b08      	ldr	r3, [sp, #32]
  406562:	9d01      	ldr	r5, [sp, #4]
  406564:	1b5e      	subs	r6, r3, r5
  406566:	2e00      	cmp	r6, #0
  406568:	f340 81e1 	ble.w	40692e <_vfiprintf_r+0x752>
  40656c:	2e10      	cmp	r6, #16
  40656e:	4d9a      	ldr	r5, [pc, #616]	; (4067d8 <_vfiprintf_r+0x5fc>)
  406570:	f340 8450 	ble.w	406e14 <_vfiprintf_r+0xc38>
  406574:	46d4      	mov	ip, sl
  406576:	2710      	movs	r7, #16
  406578:	46a2      	mov	sl, r4
  40657a:	9c06      	ldr	r4, [sp, #24]
  40657c:	e007      	b.n	40658e <_vfiprintf_r+0x3b2>
  40657e:	f101 0e02 	add.w	lr, r1, #2
  406582:	f10c 0c08 	add.w	ip, ip, #8
  406586:	4601      	mov	r1, r0
  406588:	3e10      	subs	r6, #16
  40658a:	2e10      	cmp	r6, #16
  40658c:	dd11      	ble.n	4065b2 <_vfiprintf_r+0x3d6>
  40658e:	1c48      	adds	r0, r1, #1
  406590:	3210      	adds	r2, #16
  406592:	2807      	cmp	r0, #7
  406594:	9211      	str	r2, [sp, #68]	; 0x44
  406596:	e88c 00a0 	stmia.w	ip, {r5, r7}
  40659a:	9010      	str	r0, [sp, #64]	; 0x40
  40659c:	ddef      	ble.n	40657e <_vfiprintf_r+0x3a2>
  40659e:	2a00      	cmp	r2, #0
  4065a0:	f040 829d 	bne.w	406ade <_vfiprintf_r+0x902>
  4065a4:	3e10      	subs	r6, #16
  4065a6:	2e10      	cmp	r6, #16
  4065a8:	f04f 0e01 	mov.w	lr, #1
  4065ac:	4611      	mov	r1, r2
  4065ae:	46cc      	mov	ip, r9
  4065b0:	dced      	bgt.n	40658e <_vfiprintf_r+0x3b2>
  4065b2:	4654      	mov	r4, sl
  4065b4:	46e2      	mov	sl, ip
  4065b6:	4432      	add	r2, r6
  4065b8:	f1be 0f07 	cmp.w	lr, #7
  4065bc:	9211      	str	r2, [sp, #68]	; 0x44
  4065be:	e88a 0060 	stmia.w	sl, {r5, r6}
  4065c2:	f8cd e040 	str.w	lr, [sp, #64]	; 0x40
  4065c6:	f300 8369 	bgt.w	406c9c <_vfiprintf_r+0xac0>
  4065ca:	f10a 0a08 	add.w	sl, sl, #8
  4065ce:	f10e 0001 	add.w	r0, lr, #1
  4065d2:	4671      	mov	r1, lr
  4065d4:	e1ab      	b.n	40692e <_vfiprintf_r+0x752>
  4065d6:	9608      	str	r6, [sp, #32]
  4065d8:	f013 0220 	ands.w	r2, r3, #32
  4065dc:	f040 838c 	bne.w	406cf8 <_vfiprintf_r+0xb1c>
  4065e0:	f013 0110 	ands.w	r1, r3, #16
  4065e4:	f040 831a 	bne.w	406c1c <_vfiprintf_r+0xa40>
  4065e8:	f013 0240 	ands.w	r2, r3, #64	; 0x40
  4065ec:	f000 8316 	beq.w	406c1c <_vfiprintf_r+0xa40>
  4065f0:	9807      	ldr	r0, [sp, #28]
  4065f2:	460a      	mov	r2, r1
  4065f4:	4601      	mov	r1, r0
  4065f6:	3104      	adds	r1, #4
  4065f8:	8806      	ldrh	r6, [r0, #0]
  4065fa:	9107      	str	r1, [sp, #28]
  4065fc:	2700      	movs	r7, #0
  4065fe:	e720      	b.n	406442 <_vfiprintf_r+0x266>
  406600:	9608      	str	r6, [sp, #32]
  406602:	f043 0310 	orr.w	r3, r3, #16
  406606:	e7e7      	b.n	4065d8 <_vfiprintf_r+0x3fc>
  406608:	9608      	str	r6, [sp, #32]
  40660a:	f043 0310 	orr.w	r3, r3, #16
  40660e:	e708      	b.n	406422 <_vfiprintf_r+0x246>
  406610:	f043 0380 	orr.w	r3, r3, #128	; 0x80
  406614:	f898 2000 	ldrb.w	r2, [r8]
  406618:	e652      	b.n	4062c0 <_vfiprintf_r+0xe4>
  40661a:	f1a2 0130 	sub.w	r1, r2, #48	; 0x30
  40661e:	2600      	movs	r6, #0
  406620:	f818 2b01 	ldrb.w	r2, [r8], #1
  406624:	eb06 0686 	add.w	r6, r6, r6, lsl #2
  406628:	eb01 0646 	add.w	r6, r1, r6, lsl #1
  40662c:	f1a2 0130 	sub.w	r1, r2, #48	; 0x30
  406630:	2909      	cmp	r1, #9
  406632:	d9f5      	bls.n	406620 <_vfiprintf_r+0x444>
  406634:	e646      	b.n	4062c4 <_vfiprintf_r+0xe8>
  406636:	9608      	str	r6, [sp, #32]
  406638:	2800      	cmp	r0, #0
  40663a:	f040 8408 	bne.w	406e4e <_vfiprintf_r+0xc72>
  40663e:	f043 0310 	orr.w	r3, r3, #16
  406642:	069e      	lsls	r6, r3, #26
  406644:	f100 834c 	bmi.w	406ce0 <_vfiprintf_r+0xb04>
  406648:	06dd      	lsls	r5, r3, #27
  40664a:	f100 82f3 	bmi.w	406c34 <_vfiprintf_r+0xa58>
  40664e:	0658      	lsls	r0, r3, #25
  406650:	f140 82f0 	bpl.w	406c34 <_vfiprintf_r+0xa58>
  406654:	9d07      	ldr	r5, [sp, #28]
  406656:	f9b5 6000 	ldrsh.w	r6, [r5]
  40665a:	462a      	mov	r2, r5
  40665c:	17f7      	asrs	r7, r6, #31
  40665e:	3204      	adds	r2, #4
  406660:	4630      	mov	r0, r6
  406662:	4639      	mov	r1, r7
  406664:	9207      	str	r2, [sp, #28]
  406666:	2800      	cmp	r0, #0
  406668:	f171 0200 	sbcs.w	r2, r1, #0
  40666c:	f2c0 835d 	blt.w	406d2a <_vfiprintf_r+0xb4e>
  406670:	1c61      	adds	r1, r4, #1
  406672:	f89d 5037 	ldrb.w	r5, [sp, #55]	; 0x37
  406676:	f04f 0201 	mov.w	r2, #1
  40667a:	f47f aeea 	bne.w	406452 <_vfiprintf_r+0x276>
  40667e:	ea56 0107 	orrs.w	r1, r6, r7
  406682:	f000 824d 	beq.w	406b20 <_vfiprintf_r+0x944>
  406686:	9302      	str	r3, [sp, #8]
  406688:	2a01      	cmp	r2, #1
  40668a:	f000 828c 	beq.w	406ba6 <_vfiprintf_r+0x9ca>
  40668e:	2a02      	cmp	r2, #2
  406690:	f040 825c 	bne.w	406b4c <_vfiprintf_r+0x970>
  406694:	980b      	ldr	r0, [sp, #44]	; 0x2c
  406696:	46cb      	mov	fp, r9
  406698:	0933      	lsrs	r3, r6, #4
  40669a:	f006 010f 	and.w	r1, r6, #15
  40669e:	ea43 7307 	orr.w	r3, r3, r7, lsl #28
  4066a2:	093a      	lsrs	r2, r7, #4
  4066a4:	461e      	mov	r6, r3
  4066a6:	4617      	mov	r7, r2
  4066a8:	5c43      	ldrb	r3, [r0, r1]
  4066aa:	f80b 3d01 	strb.w	r3, [fp, #-1]!
  4066ae:	ea56 0307 	orrs.w	r3, r6, r7
  4066b2:	d1f1      	bne.n	406698 <_vfiprintf_r+0x4bc>
  4066b4:	eba9 030b 	sub.w	r3, r9, fp
  4066b8:	9305      	str	r3, [sp, #20]
  4066ba:	e6e1      	b.n	406480 <_vfiprintf_r+0x2a4>
  4066bc:	2800      	cmp	r0, #0
  4066be:	f040 83c0 	bne.w	406e42 <_vfiprintf_r+0xc66>
  4066c2:	0699      	lsls	r1, r3, #26
  4066c4:	f100 8367 	bmi.w	406d96 <_vfiprintf_r+0xbba>
  4066c8:	06da      	lsls	r2, r3, #27
  4066ca:	f100 80f1 	bmi.w	4068b0 <_vfiprintf_r+0x6d4>
  4066ce:	065b      	lsls	r3, r3, #25
  4066d0:	f140 80ee 	bpl.w	4068b0 <_vfiprintf_r+0x6d4>
  4066d4:	9a07      	ldr	r2, [sp, #28]
  4066d6:	6813      	ldr	r3, [r2, #0]
  4066d8:	3204      	adds	r2, #4
  4066da:	9207      	str	r2, [sp, #28]
  4066dc:	f8bd 200c 	ldrh.w	r2, [sp, #12]
  4066e0:	801a      	strh	r2, [r3, #0]
  4066e2:	e5b8      	b.n	406256 <_vfiprintf_r+0x7a>
  4066e4:	9807      	ldr	r0, [sp, #28]
  4066e6:	4a3d      	ldr	r2, [pc, #244]	; (4067dc <_vfiprintf_r+0x600>)
  4066e8:	9608      	str	r6, [sp, #32]
  4066ea:	920b      	str	r2, [sp, #44]	; 0x2c
  4066ec:	6806      	ldr	r6, [r0, #0]
  4066ee:	2278      	movs	r2, #120	; 0x78
  4066f0:	2130      	movs	r1, #48	; 0x30
  4066f2:	3004      	adds	r0, #4
  4066f4:	f88d 2039 	strb.w	r2, [sp, #57]	; 0x39
  4066f8:	f043 0302 	orr.w	r3, r3, #2
  4066fc:	9007      	str	r0, [sp, #28]
  4066fe:	2700      	movs	r7, #0
  406700:	f88d 1038 	strb.w	r1, [sp, #56]	; 0x38
  406704:	2202      	movs	r2, #2
  406706:	e69c      	b.n	406442 <_vfiprintf_r+0x266>
  406708:	9608      	str	r6, [sp, #32]
  40670a:	2800      	cmp	r0, #0
  40670c:	d099      	beq.n	406642 <_vfiprintf_r+0x466>
  40670e:	f88d 5037 	strb.w	r5, [sp, #55]	; 0x37
  406712:	e796      	b.n	406642 <_vfiprintf_r+0x466>
  406714:	f898 2000 	ldrb.w	r2, [r8]
  406718:	2d00      	cmp	r5, #0
  40671a:	f47f add1 	bne.w	4062c0 <_vfiprintf_r+0xe4>
  40671e:	2001      	movs	r0, #1
  406720:	2520      	movs	r5, #32
  406722:	e5cd      	b.n	4062c0 <_vfiprintf_r+0xe4>
  406724:	f043 0301 	orr.w	r3, r3, #1
  406728:	f898 2000 	ldrb.w	r2, [r8]
  40672c:	e5c8      	b.n	4062c0 <_vfiprintf_r+0xe4>
  40672e:	9608      	str	r6, [sp, #32]
  406730:	2800      	cmp	r0, #0
  406732:	f040 8393 	bne.w	406e5c <_vfiprintf_r+0xc80>
  406736:	4929      	ldr	r1, [pc, #164]	; (4067dc <_vfiprintf_r+0x600>)
  406738:	910b      	str	r1, [sp, #44]	; 0x2c
  40673a:	069f      	lsls	r7, r3, #26
  40673c:	f100 82e8 	bmi.w	406d10 <_vfiprintf_r+0xb34>
  406740:	9807      	ldr	r0, [sp, #28]
  406742:	06de      	lsls	r6, r3, #27
  406744:	4601      	mov	r1, r0
  406746:	f100 8270 	bmi.w	406c2a <_vfiprintf_r+0xa4e>
  40674a:	065d      	lsls	r5, r3, #25
  40674c:	f140 826d 	bpl.w	406c2a <_vfiprintf_r+0xa4e>
  406750:	3104      	adds	r1, #4
  406752:	8806      	ldrh	r6, [r0, #0]
  406754:	9107      	str	r1, [sp, #28]
  406756:	2700      	movs	r7, #0
  406758:	07d8      	lsls	r0, r3, #31
  40675a:	f140 8222 	bpl.w	406ba2 <_vfiprintf_r+0x9c6>
  40675e:	ea56 0107 	orrs.w	r1, r6, r7
  406762:	f000 821e 	beq.w	406ba2 <_vfiprintf_r+0x9c6>
  406766:	2130      	movs	r1, #48	; 0x30
  406768:	f88d 2039 	strb.w	r2, [sp, #57]	; 0x39
  40676c:	f043 0302 	orr.w	r3, r3, #2
  406770:	f88d 1038 	strb.w	r1, [sp, #56]	; 0x38
  406774:	2202      	movs	r2, #2
  406776:	e664      	b.n	406442 <_vfiprintf_r+0x266>
  406778:	9608      	str	r6, [sp, #32]
  40677a:	2800      	cmp	r0, #0
  40677c:	f040 836b 	bne.w	406e56 <_vfiprintf_r+0xc7a>
  406780:	4917      	ldr	r1, [pc, #92]	; (4067e0 <_vfiprintf_r+0x604>)
  406782:	910b      	str	r1, [sp, #44]	; 0x2c
  406784:	e7d9      	b.n	40673a <_vfiprintf_r+0x55e>
  406786:	9907      	ldr	r1, [sp, #28]
  406788:	9608      	str	r6, [sp, #32]
  40678a:	680a      	ldr	r2, [r1, #0]
  40678c:	f88d 2048 	strb.w	r2, [sp, #72]	; 0x48
  406790:	f04f 0000 	mov.w	r0, #0
  406794:	460a      	mov	r2, r1
  406796:	f88d 0037 	strb.w	r0, [sp, #55]	; 0x37
  40679a:	3204      	adds	r2, #4
  40679c:	2001      	movs	r0, #1
  40679e:	9001      	str	r0, [sp, #4]
  4067a0:	9207      	str	r2, [sp, #28]
  4067a2:	9005      	str	r0, [sp, #20]
  4067a4:	f10d 0b48 	add.w	fp, sp, #72	; 0x48
  4067a8:	9302      	str	r3, [sp, #8]
  4067aa:	2400      	movs	r4, #0
  4067ac:	e670      	b.n	406490 <_vfiprintf_r+0x2b4>
  4067ae:	f043 0340 	orr.w	r3, r3, #64	; 0x40
  4067b2:	f898 2000 	ldrb.w	r2, [r8]
  4067b6:	e583      	b.n	4062c0 <_vfiprintf_r+0xe4>
  4067b8:	f898 2000 	ldrb.w	r2, [r8]
  4067bc:	2a6c      	cmp	r2, #108	; 0x6c
  4067be:	bf03      	ittte	eq
  4067c0:	f898 2001 	ldrbeq.w	r2, [r8, #1]
  4067c4:	f043 0320 	orreq.w	r3, r3, #32
  4067c8:	f108 0801 	addeq.w	r8, r8, #1
  4067cc:	f043 0310 	orrne.w	r3, r3, #16
  4067d0:	e576      	b.n	4062c0 <_vfiprintf_r+0xe4>
  4067d2:	bf00      	nop
  4067d4:	00409134 	.word	0x00409134
  4067d8:	00409144 	.word	0x00409144
  4067dc:	00409118 	.word	0x00409118
  4067e0:	00409104 	.word	0x00409104
  4067e4:	9907      	ldr	r1, [sp, #28]
  4067e6:	680e      	ldr	r6, [r1, #0]
  4067e8:	460a      	mov	r2, r1
  4067ea:	2e00      	cmp	r6, #0
  4067ec:	f102 0204 	add.w	r2, r2, #4
  4067f0:	f6ff ae0f 	blt.w	406412 <_vfiprintf_r+0x236>
  4067f4:	9207      	str	r2, [sp, #28]
  4067f6:	f898 2000 	ldrb.w	r2, [r8]
  4067fa:	e561      	b.n	4062c0 <_vfiprintf_r+0xe4>
  4067fc:	f898 2000 	ldrb.w	r2, [r8]
  406800:	2001      	movs	r0, #1
  406802:	252b      	movs	r5, #43	; 0x2b
  406804:	e55c      	b.n	4062c0 <_vfiprintf_r+0xe4>
  406806:	9907      	ldr	r1, [sp, #28]
  406808:	9608      	str	r6, [sp, #32]
  40680a:	f8d1 b000 	ldr.w	fp, [r1]
  40680e:	f04f 0200 	mov.w	r2, #0
  406812:	f88d 2037 	strb.w	r2, [sp, #55]	; 0x37
  406816:	1d0e      	adds	r6, r1, #4
  406818:	f1bb 0f00 	cmp.w	fp, #0
  40681c:	f000 82e5 	beq.w	406dea <_vfiprintf_r+0xc0e>
  406820:	1c67      	adds	r7, r4, #1
  406822:	f000 82c4 	beq.w	406dae <_vfiprintf_r+0xbd2>
  406826:	4622      	mov	r2, r4
  406828:	2100      	movs	r1, #0
  40682a:	4658      	mov	r0, fp
  40682c:	9301      	str	r3, [sp, #4]
  40682e:	f001 f91f 	bl	407a70 <memchr>
  406832:	9b01      	ldr	r3, [sp, #4]
  406834:	2800      	cmp	r0, #0
  406836:	f000 82e5 	beq.w	406e04 <_vfiprintf_r+0xc28>
  40683a:	eba0 020b 	sub.w	r2, r0, fp
  40683e:	9205      	str	r2, [sp, #20]
  406840:	9607      	str	r6, [sp, #28]
  406842:	9302      	str	r3, [sp, #8]
  406844:	f89d 5037 	ldrb.w	r5, [sp, #55]	; 0x37
  406848:	2400      	movs	r4, #0
  40684a:	e619      	b.n	406480 <_vfiprintf_r+0x2a4>
  40684c:	f898 2000 	ldrb.w	r2, [r8]
  406850:	2a2a      	cmp	r2, #42	; 0x2a
  406852:	f108 0701 	add.w	r7, r8, #1
  406856:	f000 82e9 	beq.w	406e2c <_vfiprintf_r+0xc50>
  40685a:	f1a2 0130 	sub.w	r1, r2, #48	; 0x30
  40685e:	2909      	cmp	r1, #9
  406860:	46b8      	mov	r8, r7
  406862:	f04f 0400 	mov.w	r4, #0
  406866:	f63f ad2d 	bhi.w	4062c4 <_vfiprintf_r+0xe8>
  40686a:	f818 2b01 	ldrb.w	r2, [r8], #1
  40686e:	eb04 0484 	add.w	r4, r4, r4, lsl #2
  406872:	eb01 0444 	add.w	r4, r1, r4, lsl #1
  406876:	f1a2 0130 	sub.w	r1, r2, #48	; 0x30
  40687a:	2909      	cmp	r1, #9
  40687c:	d9f5      	bls.n	40686a <_vfiprintf_r+0x68e>
  40687e:	e521      	b.n	4062c4 <_vfiprintf_r+0xe8>
  406880:	f043 0320 	orr.w	r3, r3, #32
  406884:	f898 2000 	ldrb.w	r2, [r8]
  406888:	e51a      	b.n	4062c0 <_vfiprintf_r+0xe4>
  40688a:	9608      	str	r6, [sp, #32]
  40688c:	2800      	cmp	r0, #0
  40688e:	f040 82db 	bne.w	406e48 <_vfiprintf_r+0xc6c>
  406892:	2a00      	cmp	r2, #0
  406894:	f000 80e7 	beq.w	406a66 <_vfiprintf_r+0x88a>
  406898:	2101      	movs	r1, #1
  40689a:	f88d 2048 	strb.w	r2, [sp, #72]	; 0x48
  40689e:	f04f 0200 	mov.w	r2, #0
  4068a2:	9101      	str	r1, [sp, #4]
  4068a4:	f88d 2037 	strb.w	r2, [sp, #55]	; 0x37
  4068a8:	9105      	str	r1, [sp, #20]
  4068aa:	f10d 0b48 	add.w	fp, sp, #72	; 0x48
  4068ae:	e77b      	b.n	4067a8 <_vfiprintf_r+0x5cc>
  4068b0:	9a07      	ldr	r2, [sp, #28]
  4068b2:	6813      	ldr	r3, [r2, #0]
  4068b4:	3204      	adds	r2, #4
  4068b6:	9207      	str	r2, [sp, #28]
  4068b8:	9a03      	ldr	r2, [sp, #12]
  4068ba:	601a      	str	r2, [r3, #0]
  4068bc:	e4cb      	b.n	406256 <_vfiprintf_r+0x7a>
  4068be:	aa0f      	add	r2, sp, #60	; 0x3c
  4068c0:	9904      	ldr	r1, [sp, #16]
  4068c2:	4620      	mov	r0, r4
  4068c4:	f7ff fc4a 	bl	40615c <__sprint_r.part.0>
  4068c8:	2800      	cmp	r0, #0
  4068ca:	f040 8139 	bne.w	406b40 <_vfiprintf_r+0x964>
  4068ce:	9910      	ldr	r1, [sp, #64]	; 0x40
  4068d0:	9a11      	ldr	r2, [sp, #68]	; 0x44
  4068d2:	f101 0c01 	add.w	ip, r1, #1
  4068d6:	46ce      	mov	lr, r9
  4068d8:	e5ff      	b.n	4064da <_vfiprintf_r+0x2fe>
  4068da:	9910      	ldr	r1, [sp, #64]	; 0x40
  4068dc:	9a11      	ldr	r2, [sp, #68]	; 0x44
  4068de:	1c48      	adds	r0, r1, #1
  4068e0:	f89d 5037 	ldrb.w	r5, [sp, #55]	; 0x37
  4068e4:	2d00      	cmp	r5, #0
  4068e6:	f43f ae22 	beq.w	40652e <_vfiprintf_r+0x352>
  4068ea:	3201      	adds	r2, #1
  4068ec:	f10d 0537 	add.w	r5, sp, #55	; 0x37
  4068f0:	2101      	movs	r1, #1
  4068f2:	2807      	cmp	r0, #7
  4068f4:	9211      	str	r2, [sp, #68]	; 0x44
  4068f6:	9010      	str	r0, [sp, #64]	; 0x40
  4068f8:	f8ca 5000 	str.w	r5, [sl]
  4068fc:	f8ca 1004 	str.w	r1, [sl, #4]
  406900:	f340 8108 	ble.w	406b14 <_vfiprintf_r+0x938>
  406904:	2a00      	cmp	r2, #0
  406906:	f040 81bc 	bne.w	406c82 <_vfiprintf_r+0xaa6>
  40690a:	9b09      	ldr	r3, [sp, #36]	; 0x24
  40690c:	2b00      	cmp	r3, #0
  40690e:	f43f ae1f 	beq.w	406550 <_vfiprintf_r+0x374>
  406912:	ab0e      	add	r3, sp, #56	; 0x38
  406914:	2202      	movs	r2, #2
  406916:	4608      	mov	r0, r1
  406918:	931c      	str	r3, [sp, #112]	; 0x70
  40691a:	921d      	str	r2, [sp, #116]	; 0x74
  40691c:	46ca      	mov	sl, r9
  40691e:	4601      	mov	r1, r0
  406920:	f10a 0a08 	add.w	sl, sl, #8
  406924:	3001      	adds	r0, #1
  406926:	9b0a      	ldr	r3, [sp, #40]	; 0x28
  406928:	2b80      	cmp	r3, #128	; 0x80
  40692a:	f43f ae19 	beq.w	406560 <_vfiprintf_r+0x384>
  40692e:	9b05      	ldr	r3, [sp, #20]
  406930:	1ae4      	subs	r4, r4, r3
  406932:	2c00      	cmp	r4, #0
  406934:	dd2e      	ble.n	406994 <_vfiprintf_r+0x7b8>
  406936:	2c10      	cmp	r4, #16
  406938:	4db3      	ldr	r5, [pc, #716]	; (406c08 <_vfiprintf_r+0xa2c>)
  40693a:	dd1e      	ble.n	40697a <_vfiprintf_r+0x79e>
  40693c:	46d6      	mov	lr, sl
  40693e:	2610      	movs	r6, #16
  406940:	9f06      	ldr	r7, [sp, #24]
  406942:	f8dd a010 	ldr.w	sl, [sp, #16]
  406946:	e006      	b.n	406956 <_vfiprintf_r+0x77a>
  406948:	1c88      	adds	r0, r1, #2
  40694a:	f10e 0e08 	add.w	lr, lr, #8
  40694e:	4619      	mov	r1, r3
  406950:	3c10      	subs	r4, #16
  406952:	2c10      	cmp	r4, #16
  406954:	dd10      	ble.n	406978 <_vfiprintf_r+0x79c>
  406956:	1c4b      	adds	r3, r1, #1
  406958:	3210      	adds	r2, #16
  40695a:	2b07      	cmp	r3, #7
  40695c:	9211      	str	r2, [sp, #68]	; 0x44
  40695e:	e88e 0060 	stmia.w	lr, {r5, r6}
  406962:	9310      	str	r3, [sp, #64]	; 0x40
  406964:	ddf0      	ble.n	406948 <_vfiprintf_r+0x76c>
  406966:	2a00      	cmp	r2, #0
  406968:	d165      	bne.n	406a36 <_vfiprintf_r+0x85a>
  40696a:	3c10      	subs	r4, #16
  40696c:	2c10      	cmp	r4, #16
  40696e:	f04f 0001 	mov.w	r0, #1
  406972:	4611      	mov	r1, r2
  406974:	46ce      	mov	lr, r9
  406976:	dcee      	bgt.n	406956 <_vfiprintf_r+0x77a>
  406978:	46f2      	mov	sl, lr
  40697a:	4422      	add	r2, r4
  40697c:	2807      	cmp	r0, #7
  40697e:	9211      	str	r2, [sp, #68]	; 0x44
  406980:	f8ca 5000 	str.w	r5, [sl]
  406984:	f8ca 4004 	str.w	r4, [sl, #4]
  406988:	9010      	str	r0, [sp, #64]	; 0x40
  40698a:	f300 8085 	bgt.w	406a98 <_vfiprintf_r+0x8bc>
  40698e:	f10a 0a08 	add.w	sl, sl, #8
  406992:	3001      	adds	r0, #1
  406994:	9905      	ldr	r1, [sp, #20]
  406996:	f8ca b000 	str.w	fp, [sl]
  40699a:	440a      	add	r2, r1
  40699c:	2807      	cmp	r0, #7
  40699e:	9211      	str	r2, [sp, #68]	; 0x44
  4069a0:	f8ca 1004 	str.w	r1, [sl, #4]
  4069a4:	9010      	str	r0, [sp, #64]	; 0x40
  4069a6:	f340 8082 	ble.w	406aae <_vfiprintf_r+0x8d2>
  4069aa:	2a00      	cmp	r2, #0
  4069ac:	f040 8118 	bne.w	406be0 <_vfiprintf_r+0xa04>
  4069b0:	9b02      	ldr	r3, [sp, #8]
  4069b2:	9210      	str	r2, [sp, #64]	; 0x40
  4069b4:	0758      	lsls	r0, r3, #29
  4069b6:	d535      	bpl.n	406a24 <_vfiprintf_r+0x848>
  4069b8:	9b08      	ldr	r3, [sp, #32]
  4069ba:	9901      	ldr	r1, [sp, #4]
  4069bc:	1a5c      	subs	r4, r3, r1
  4069be:	2c00      	cmp	r4, #0
  4069c0:	f340 80e7 	ble.w	406b92 <_vfiprintf_r+0x9b6>
  4069c4:	46ca      	mov	sl, r9
  4069c6:	2c10      	cmp	r4, #16
  4069c8:	f340 8218 	ble.w	406dfc <_vfiprintf_r+0xc20>
  4069cc:	9910      	ldr	r1, [sp, #64]	; 0x40
  4069ce:	4e8f      	ldr	r6, [pc, #572]	; (406c0c <_vfiprintf_r+0xa30>)
  4069d0:	9f06      	ldr	r7, [sp, #24]
  4069d2:	f8dd b010 	ldr.w	fp, [sp, #16]
  4069d6:	2510      	movs	r5, #16
  4069d8:	e006      	b.n	4069e8 <_vfiprintf_r+0x80c>
  4069da:	1c88      	adds	r0, r1, #2
  4069dc:	f10a 0a08 	add.w	sl, sl, #8
  4069e0:	4619      	mov	r1, r3
  4069e2:	3c10      	subs	r4, #16
  4069e4:	2c10      	cmp	r4, #16
  4069e6:	dd11      	ble.n	406a0c <_vfiprintf_r+0x830>
  4069e8:	1c4b      	adds	r3, r1, #1
  4069ea:	3210      	adds	r2, #16
  4069ec:	2b07      	cmp	r3, #7
  4069ee:	9211      	str	r2, [sp, #68]	; 0x44
  4069f0:	f8ca 6000 	str.w	r6, [sl]
  4069f4:	f8ca 5004 	str.w	r5, [sl, #4]
  4069f8:	9310      	str	r3, [sp, #64]	; 0x40
  4069fa:	ddee      	ble.n	4069da <_vfiprintf_r+0x7fe>
  4069fc:	bb42      	cbnz	r2, 406a50 <_vfiprintf_r+0x874>
  4069fe:	3c10      	subs	r4, #16
  406a00:	2c10      	cmp	r4, #16
  406a02:	f04f 0001 	mov.w	r0, #1
  406a06:	4611      	mov	r1, r2
  406a08:	46ca      	mov	sl, r9
  406a0a:	dced      	bgt.n	4069e8 <_vfiprintf_r+0x80c>
  406a0c:	4422      	add	r2, r4
  406a0e:	2807      	cmp	r0, #7
  406a10:	9211      	str	r2, [sp, #68]	; 0x44
  406a12:	f8ca 6000 	str.w	r6, [sl]
  406a16:	f8ca 4004 	str.w	r4, [sl, #4]
  406a1a:	9010      	str	r0, [sp, #64]	; 0x40
  406a1c:	dd51      	ble.n	406ac2 <_vfiprintf_r+0x8e6>
  406a1e:	2a00      	cmp	r2, #0
  406a20:	f040 819b 	bne.w	406d5a <_vfiprintf_r+0xb7e>
  406a24:	9b03      	ldr	r3, [sp, #12]
  406a26:	9a08      	ldr	r2, [sp, #32]
  406a28:	9901      	ldr	r1, [sp, #4]
  406a2a:	428a      	cmp	r2, r1
  406a2c:	bfac      	ite	ge
  406a2e:	189b      	addge	r3, r3, r2
  406a30:	185b      	addlt	r3, r3, r1
  406a32:	9303      	str	r3, [sp, #12]
  406a34:	e04e      	b.n	406ad4 <_vfiprintf_r+0x8f8>
  406a36:	aa0f      	add	r2, sp, #60	; 0x3c
  406a38:	4651      	mov	r1, sl
  406a3a:	4638      	mov	r0, r7
  406a3c:	f7ff fb8e 	bl	40615c <__sprint_r.part.0>
  406a40:	2800      	cmp	r0, #0
  406a42:	f040 813f 	bne.w	406cc4 <_vfiprintf_r+0xae8>
  406a46:	9910      	ldr	r1, [sp, #64]	; 0x40
  406a48:	9a11      	ldr	r2, [sp, #68]	; 0x44
  406a4a:	1c48      	adds	r0, r1, #1
  406a4c:	46ce      	mov	lr, r9
  406a4e:	e77f      	b.n	406950 <_vfiprintf_r+0x774>
  406a50:	aa0f      	add	r2, sp, #60	; 0x3c
  406a52:	4659      	mov	r1, fp
  406a54:	4638      	mov	r0, r7
  406a56:	f7ff fb81 	bl	40615c <__sprint_r.part.0>
  406a5a:	b960      	cbnz	r0, 406a76 <_vfiprintf_r+0x89a>
  406a5c:	9910      	ldr	r1, [sp, #64]	; 0x40
  406a5e:	9a11      	ldr	r2, [sp, #68]	; 0x44
  406a60:	1c48      	adds	r0, r1, #1
  406a62:	46ca      	mov	sl, r9
  406a64:	e7bd      	b.n	4069e2 <_vfiprintf_r+0x806>
  406a66:	9b11      	ldr	r3, [sp, #68]	; 0x44
  406a68:	f8dd b010 	ldr.w	fp, [sp, #16]
  406a6c:	2b00      	cmp	r3, #0
  406a6e:	f040 81d4 	bne.w	406e1a <_vfiprintf_r+0xc3e>
  406a72:	2300      	movs	r3, #0
  406a74:	9310      	str	r3, [sp, #64]	; 0x40
  406a76:	f8db 3064 	ldr.w	r3, [fp, #100]	; 0x64
  406a7a:	f013 0f01 	tst.w	r3, #1
  406a7e:	f8bb 300c 	ldrh.w	r3, [fp, #12]
  406a82:	d102      	bne.n	406a8a <_vfiprintf_r+0x8ae>
  406a84:	059a      	lsls	r2, r3, #22
  406a86:	f140 80de 	bpl.w	406c46 <_vfiprintf_r+0xa6a>
  406a8a:	065b      	lsls	r3, r3, #25
  406a8c:	f53f acb2 	bmi.w	4063f4 <_vfiprintf_r+0x218>
  406a90:	9803      	ldr	r0, [sp, #12]
  406a92:	b02d      	add	sp, #180	; 0xb4
  406a94:	e8bd 8ff0 	ldmia.w	sp!, {r4, r5, r6, r7, r8, r9, sl, fp, pc}
  406a98:	2a00      	cmp	r2, #0
  406a9a:	f040 8106 	bne.w	406caa <_vfiprintf_r+0xace>
  406a9e:	9a05      	ldr	r2, [sp, #20]
  406aa0:	921d      	str	r2, [sp, #116]	; 0x74
  406aa2:	2301      	movs	r3, #1
  406aa4:	9211      	str	r2, [sp, #68]	; 0x44
  406aa6:	f8cd b070 	str.w	fp, [sp, #112]	; 0x70
  406aaa:	9310      	str	r3, [sp, #64]	; 0x40
  406aac:	46ca      	mov	sl, r9
  406aae:	f10a 0a08 	add.w	sl, sl, #8
  406ab2:	9b02      	ldr	r3, [sp, #8]
  406ab4:	0759      	lsls	r1, r3, #29
  406ab6:	d504      	bpl.n	406ac2 <_vfiprintf_r+0x8e6>
  406ab8:	9b08      	ldr	r3, [sp, #32]
  406aba:	9901      	ldr	r1, [sp, #4]
  406abc:	1a5c      	subs	r4, r3, r1
  406abe:	2c00      	cmp	r4, #0
  406ac0:	dc81      	bgt.n	4069c6 <_vfiprintf_r+0x7ea>
  406ac2:	9b03      	ldr	r3, [sp, #12]
  406ac4:	9908      	ldr	r1, [sp, #32]
  406ac6:	9801      	ldr	r0, [sp, #4]
  406ac8:	4281      	cmp	r1, r0
  406aca:	bfac      	ite	ge
  406acc:	185b      	addge	r3, r3, r1
  406ace:	181b      	addlt	r3, r3, r0
  406ad0:	9303      	str	r3, [sp, #12]
  406ad2:	bb72      	cbnz	r2, 406b32 <_vfiprintf_r+0x956>
  406ad4:	2300      	movs	r3, #0
  406ad6:	9310      	str	r3, [sp, #64]	; 0x40
  406ad8:	46ca      	mov	sl, r9
  406ada:	f7ff bbbc 	b.w	406256 <_vfiprintf_r+0x7a>
  406ade:	aa0f      	add	r2, sp, #60	; 0x3c
  406ae0:	9904      	ldr	r1, [sp, #16]
  406ae2:	4620      	mov	r0, r4
  406ae4:	f7ff fb3a 	bl	40615c <__sprint_r.part.0>
  406ae8:	bb50      	cbnz	r0, 406b40 <_vfiprintf_r+0x964>
  406aea:	9910      	ldr	r1, [sp, #64]	; 0x40
  406aec:	9a11      	ldr	r2, [sp, #68]	; 0x44
  406aee:	f101 0e01 	add.w	lr, r1, #1
  406af2:	46cc      	mov	ip, r9
  406af4:	e548      	b.n	406588 <_vfiprintf_r+0x3ac>
  406af6:	2a00      	cmp	r2, #0
  406af8:	f040 8140 	bne.w	406d7c <_vfiprintf_r+0xba0>
  406afc:	f89d 1037 	ldrb.w	r1, [sp, #55]	; 0x37
  406b00:	2900      	cmp	r1, #0
  406b02:	f000 811b 	beq.w	406d3c <_vfiprintf_r+0xb60>
  406b06:	2201      	movs	r2, #1
  406b08:	f10d 0137 	add.w	r1, sp, #55	; 0x37
  406b0c:	4610      	mov	r0, r2
  406b0e:	921d      	str	r2, [sp, #116]	; 0x74
  406b10:	911c      	str	r1, [sp, #112]	; 0x70
  406b12:	46ca      	mov	sl, r9
  406b14:	4601      	mov	r1, r0
  406b16:	f10a 0a08 	add.w	sl, sl, #8
  406b1a:	3001      	adds	r0, #1
  406b1c:	e507      	b.n	40652e <_vfiprintf_r+0x352>
  406b1e:	9b02      	ldr	r3, [sp, #8]
  406b20:	2a01      	cmp	r2, #1
  406b22:	f000 8098 	beq.w	406c56 <_vfiprintf_r+0xa7a>
  406b26:	2a02      	cmp	r2, #2
  406b28:	d10d      	bne.n	406b46 <_vfiprintf_r+0x96a>
  406b2a:	9302      	str	r3, [sp, #8]
  406b2c:	2600      	movs	r6, #0
  406b2e:	2700      	movs	r7, #0
  406b30:	e5b0      	b.n	406694 <_vfiprintf_r+0x4b8>
  406b32:	aa0f      	add	r2, sp, #60	; 0x3c
  406b34:	9904      	ldr	r1, [sp, #16]
  406b36:	9806      	ldr	r0, [sp, #24]
  406b38:	f7ff fb10 	bl	40615c <__sprint_r.part.0>
  406b3c:	2800      	cmp	r0, #0
  406b3e:	d0c9      	beq.n	406ad4 <_vfiprintf_r+0x8f8>
  406b40:	f8dd b010 	ldr.w	fp, [sp, #16]
  406b44:	e797      	b.n	406a76 <_vfiprintf_r+0x89a>
  406b46:	9302      	str	r3, [sp, #8]
  406b48:	2600      	movs	r6, #0
  406b4a:	2700      	movs	r7, #0
  406b4c:	4649      	mov	r1, r9
  406b4e:	e000      	b.n	406b52 <_vfiprintf_r+0x976>
  406b50:	4659      	mov	r1, fp
  406b52:	08f2      	lsrs	r2, r6, #3
  406b54:	ea42 7247 	orr.w	r2, r2, r7, lsl #29
  406b58:	08f8      	lsrs	r0, r7, #3
  406b5a:	f006 0307 	and.w	r3, r6, #7
  406b5e:	4607      	mov	r7, r0
  406b60:	4616      	mov	r6, r2
  406b62:	3330      	adds	r3, #48	; 0x30
  406b64:	ea56 0207 	orrs.w	r2, r6, r7
  406b68:	f801 3c01 	strb.w	r3, [r1, #-1]
  406b6c:	f101 3bff 	add.w	fp, r1, #4294967295
  406b70:	d1ee      	bne.n	406b50 <_vfiprintf_r+0x974>
  406b72:	9a02      	ldr	r2, [sp, #8]
  406b74:	07d6      	lsls	r6, r2, #31
  406b76:	f57f ad9d 	bpl.w	4066b4 <_vfiprintf_r+0x4d8>
  406b7a:	2b30      	cmp	r3, #48	; 0x30
  406b7c:	f43f ad9a 	beq.w	4066b4 <_vfiprintf_r+0x4d8>
  406b80:	3902      	subs	r1, #2
  406b82:	2330      	movs	r3, #48	; 0x30
  406b84:	f80b 3c01 	strb.w	r3, [fp, #-1]
  406b88:	eba9 0301 	sub.w	r3, r9, r1
  406b8c:	9305      	str	r3, [sp, #20]
  406b8e:	468b      	mov	fp, r1
  406b90:	e476      	b.n	406480 <_vfiprintf_r+0x2a4>
  406b92:	9b03      	ldr	r3, [sp, #12]
  406b94:	9a08      	ldr	r2, [sp, #32]
  406b96:	428a      	cmp	r2, r1
  406b98:	bfac      	ite	ge
  406b9a:	189b      	addge	r3, r3, r2
  406b9c:	185b      	addlt	r3, r3, r1
  406b9e:	9303      	str	r3, [sp, #12]
  406ba0:	e798      	b.n	406ad4 <_vfiprintf_r+0x8f8>
  406ba2:	2202      	movs	r2, #2
  406ba4:	e44d      	b.n	406442 <_vfiprintf_r+0x266>
  406ba6:	2f00      	cmp	r7, #0
  406ba8:	bf08      	it	eq
  406baa:	2e0a      	cmpeq	r6, #10
  406bac:	d352      	bcc.n	406c54 <_vfiprintf_r+0xa78>
  406bae:	46cb      	mov	fp, r9
  406bb0:	4630      	mov	r0, r6
  406bb2:	4639      	mov	r1, r7
  406bb4:	220a      	movs	r2, #10
  406bb6:	2300      	movs	r3, #0
  406bb8:	f001 fbc6 	bl	408348 <__aeabi_uldivmod>
  406bbc:	3230      	adds	r2, #48	; 0x30
  406bbe:	f80b 2d01 	strb.w	r2, [fp, #-1]!
  406bc2:	4630      	mov	r0, r6
  406bc4:	4639      	mov	r1, r7
  406bc6:	2300      	movs	r3, #0
  406bc8:	220a      	movs	r2, #10
  406bca:	f001 fbbd 	bl	408348 <__aeabi_uldivmod>
  406bce:	4606      	mov	r6, r0
  406bd0:	460f      	mov	r7, r1
  406bd2:	ea56 0307 	orrs.w	r3, r6, r7
  406bd6:	d1eb      	bne.n	406bb0 <_vfiprintf_r+0x9d4>
  406bd8:	e56c      	b.n	4066b4 <_vfiprintf_r+0x4d8>
  406bda:	9405      	str	r4, [sp, #20]
  406bdc:	46cb      	mov	fp, r9
  406bde:	e44f      	b.n	406480 <_vfiprintf_r+0x2a4>
  406be0:	aa0f      	add	r2, sp, #60	; 0x3c
  406be2:	9904      	ldr	r1, [sp, #16]
  406be4:	9806      	ldr	r0, [sp, #24]
  406be6:	f7ff fab9 	bl	40615c <__sprint_r.part.0>
  406bea:	2800      	cmp	r0, #0
  406bec:	d1a8      	bne.n	406b40 <_vfiprintf_r+0x964>
  406bee:	9a11      	ldr	r2, [sp, #68]	; 0x44
  406bf0:	46ca      	mov	sl, r9
  406bf2:	e75e      	b.n	406ab2 <_vfiprintf_r+0x8d6>
  406bf4:	aa0f      	add	r2, sp, #60	; 0x3c
  406bf6:	9904      	ldr	r1, [sp, #16]
  406bf8:	9806      	ldr	r0, [sp, #24]
  406bfa:	f7ff faaf 	bl	40615c <__sprint_r.part.0>
  406bfe:	2800      	cmp	r0, #0
  406c00:	d19e      	bne.n	406b40 <_vfiprintf_r+0x964>
  406c02:	46ca      	mov	sl, r9
  406c04:	f7ff bbc0 	b.w	406388 <_vfiprintf_r+0x1ac>
  406c08:	00409144 	.word	0x00409144
  406c0c:	00409134 	.word	0x00409134
  406c10:	3104      	adds	r1, #4
  406c12:	6816      	ldr	r6, [r2, #0]
  406c14:	9107      	str	r1, [sp, #28]
  406c16:	2201      	movs	r2, #1
  406c18:	2700      	movs	r7, #0
  406c1a:	e412      	b.n	406442 <_vfiprintf_r+0x266>
  406c1c:	9807      	ldr	r0, [sp, #28]
  406c1e:	4601      	mov	r1, r0
  406c20:	3104      	adds	r1, #4
  406c22:	6806      	ldr	r6, [r0, #0]
  406c24:	9107      	str	r1, [sp, #28]
  406c26:	2700      	movs	r7, #0
  406c28:	e40b      	b.n	406442 <_vfiprintf_r+0x266>
  406c2a:	680e      	ldr	r6, [r1, #0]
  406c2c:	3104      	adds	r1, #4
  406c2e:	9107      	str	r1, [sp, #28]
  406c30:	2700      	movs	r7, #0
  406c32:	e591      	b.n	406758 <_vfiprintf_r+0x57c>
  406c34:	9907      	ldr	r1, [sp, #28]
  406c36:	680e      	ldr	r6, [r1, #0]
  406c38:	460a      	mov	r2, r1
  406c3a:	17f7      	asrs	r7, r6, #31
  406c3c:	3204      	adds	r2, #4
  406c3e:	9207      	str	r2, [sp, #28]
  406c40:	4630      	mov	r0, r6
  406c42:	4639      	mov	r1, r7
  406c44:	e50f      	b.n	406666 <_vfiprintf_r+0x48a>
  406c46:	f8db 0058 	ldr.w	r0, [fp, #88]	; 0x58
  406c4a:	f000 fe7f 	bl	40794c <__retarget_lock_release_recursive>
  406c4e:	f8bb 300c 	ldrh.w	r3, [fp, #12]
  406c52:	e71a      	b.n	406a8a <_vfiprintf_r+0x8ae>
  406c54:	9b02      	ldr	r3, [sp, #8]
  406c56:	9302      	str	r3, [sp, #8]
  406c58:	f10d 0bb0 	add.w	fp, sp, #176	; 0xb0
  406c5c:	3630      	adds	r6, #48	; 0x30
  406c5e:	2301      	movs	r3, #1
  406c60:	f80b 6d41 	strb.w	r6, [fp, #-65]!
  406c64:	9305      	str	r3, [sp, #20]
  406c66:	e40b      	b.n	406480 <_vfiprintf_r+0x2a4>
  406c68:	aa0f      	add	r2, sp, #60	; 0x3c
  406c6a:	9904      	ldr	r1, [sp, #16]
  406c6c:	9806      	ldr	r0, [sp, #24]
  406c6e:	f7ff fa75 	bl	40615c <__sprint_r.part.0>
  406c72:	2800      	cmp	r0, #0
  406c74:	f47f af64 	bne.w	406b40 <_vfiprintf_r+0x964>
  406c78:	9910      	ldr	r1, [sp, #64]	; 0x40
  406c7a:	9a11      	ldr	r2, [sp, #68]	; 0x44
  406c7c:	1c48      	adds	r0, r1, #1
  406c7e:	46ca      	mov	sl, r9
  406c80:	e651      	b.n	406926 <_vfiprintf_r+0x74a>
  406c82:	aa0f      	add	r2, sp, #60	; 0x3c
  406c84:	9904      	ldr	r1, [sp, #16]
  406c86:	9806      	ldr	r0, [sp, #24]
  406c88:	f7ff fa68 	bl	40615c <__sprint_r.part.0>
  406c8c:	2800      	cmp	r0, #0
  406c8e:	f47f af57 	bne.w	406b40 <_vfiprintf_r+0x964>
  406c92:	9910      	ldr	r1, [sp, #64]	; 0x40
  406c94:	9a11      	ldr	r2, [sp, #68]	; 0x44
  406c96:	1c48      	adds	r0, r1, #1
  406c98:	46ca      	mov	sl, r9
  406c9a:	e448      	b.n	40652e <_vfiprintf_r+0x352>
  406c9c:	2a00      	cmp	r2, #0
  406c9e:	f040 8091 	bne.w	406dc4 <_vfiprintf_r+0xbe8>
  406ca2:	2001      	movs	r0, #1
  406ca4:	4611      	mov	r1, r2
  406ca6:	46ca      	mov	sl, r9
  406ca8:	e641      	b.n	40692e <_vfiprintf_r+0x752>
  406caa:	aa0f      	add	r2, sp, #60	; 0x3c
  406cac:	9904      	ldr	r1, [sp, #16]
  406cae:	9806      	ldr	r0, [sp, #24]
  406cb0:	f7ff fa54 	bl	40615c <__sprint_r.part.0>
  406cb4:	2800      	cmp	r0, #0
  406cb6:	f47f af43 	bne.w	406b40 <_vfiprintf_r+0x964>
  406cba:	9810      	ldr	r0, [sp, #64]	; 0x40
  406cbc:	9a11      	ldr	r2, [sp, #68]	; 0x44
  406cbe:	3001      	adds	r0, #1
  406cc0:	46ca      	mov	sl, r9
  406cc2:	e667      	b.n	406994 <_vfiprintf_r+0x7b8>
  406cc4:	46d3      	mov	fp, sl
  406cc6:	e6d6      	b.n	406a76 <_vfiprintf_r+0x89a>
  406cc8:	9e07      	ldr	r6, [sp, #28]
  406cca:	3607      	adds	r6, #7
  406ccc:	f026 0207 	bic.w	r2, r6, #7
  406cd0:	f102 0108 	add.w	r1, r2, #8
  406cd4:	e9d2 6700 	ldrd	r6, r7, [r2]
  406cd8:	9107      	str	r1, [sp, #28]
  406cda:	2201      	movs	r2, #1
  406cdc:	f7ff bbb1 	b.w	406442 <_vfiprintf_r+0x266>
  406ce0:	9e07      	ldr	r6, [sp, #28]
  406ce2:	3607      	adds	r6, #7
  406ce4:	f026 0607 	bic.w	r6, r6, #7
  406ce8:	e9d6 0100 	ldrd	r0, r1, [r6]
  406cec:	f106 0208 	add.w	r2, r6, #8
  406cf0:	9207      	str	r2, [sp, #28]
  406cf2:	4606      	mov	r6, r0
  406cf4:	460f      	mov	r7, r1
  406cf6:	e4b6      	b.n	406666 <_vfiprintf_r+0x48a>
  406cf8:	9e07      	ldr	r6, [sp, #28]
  406cfa:	3607      	adds	r6, #7
  406cfc:	f026 0207 	bic.w	r2, r6, #7
  406d00:	f102 0108 	add.w	r1, r2, #8
  406d04:	e9d2 6700 	ldrd	r6, r7, [r2]
  406d08:	9107      	str	r1, [sp, #28]
  406d0a:	2200      	movs	r2, #0
  406d0c:	f7ff bb99 	b.w	406442 <_vfiprintf_r+0x266>
  406d10:	9e07      	ldr	r6, [sp, #28]
  406d12:	3607      	adds	r6, #7
  406d14:	f026 0107 	bic.w	r1, r6, #7
  406d18:	f101 0008 	add.w	r0, r1, #8
  406d1c:	9007      	str	r0, [sp, #28]
  406d1e:	e9d1 6700 	ldrd	r6, r7, [r1]
  406d22:	e519      	b.n	406758 <_vfiprintf_r+0x57c>
  406d24:	46cb      	mov	fp, r9
  406d26:	f7ff bbab 	b.w	406480 <_vfiprintf_r+0x2a4>
  406d2a:	252d      	movs	r5, #45	; 0x2d
  406d2c:	4276      	negs	r6, r6
  406d2e:	eb67 0747 	sbc.w	r7, r7, r7, lsl #1
  406d32:	f88d 5037 	strb.w	r5, [sp, #55]	; 0x37
  406d36:	2201      	movs	r2, #1
  406d38:	f7ff bb88 	b.w	40644c <_vfiprintf_r+0x270>
  406d3c:	9b09      	ldr	r3, [sp, #36]	; 0x24
  406d3e:	b9b3      	cbnz	r3, 406d6e <_vfiprintf_r+0xb92>
  406d40:	4611      	mov	r1, r2
  406d42:	2001      	movs	r0, #1
  406d44:	46ca      	mov	sl, r9
  406d46:	e5f2      	b.n	40692e <_vfiprintf_r+0x752>
  406d48:	f8db 0058 	ldr.w	r0, [fp, #88]	; 0x58
  406d4c:	f000 fdfe 	bl	40794c <__retarget_lock_release_recursive>
  406d50:	f04f 33ff 	mov.w	r3, #4294967295
  406d54:	9303      	str	r3, [sp, #12]
  406d56:	f7ff bb50 	b.w	4063fa <_vfiprintf_r+0x21e>
  406d5a:	aa0f      	add	r2, sp, #60	; 0x3c
  406d5c:	9904      	ldr	r1, [sp, #16]
  406d5e:	9806      	ldr	r0, [sp, #24]
  406d60:	f7ff f9fc 	bl	40615c <__sprint_r.part.0>
  406d64:	2800      	cmp	r0, #0
  406d66:	f47f aeeb 	bne.w	406b40 <_vfiprintf_r+0x964>
  406d6a:	9a11      	ldr	r2, [sp, #68]	; 0x44
  406d6c:	e6a9      	b.n	406ac2 <_vfiprintf_r+0x8e6>
  406d6e:	ab0e      	add	r3, sp, #56	; 0x38
  406d70:	2202      	movs	r2, #2
  406d72:	931c      	str	r3, [sp, #112]	; 0x70
  406d74:	921d      	str	r2, [sp, #116]	; 0x74
  406d76:	2001      	movs	r0, #1
  406d78:	46ca      	mov	sl, r9
  406d7a:	e5d0      	b.n	40691e <_vfiprintf_r+0x742>
  406d7c:	aa0f      	add	r2, sp, #60	; 0x3c
  406d7e:	9904      	ldr	r1, [sp, #16]
  406d80:	9806      	ldr	r0, [sp, #24]
  406d82:	f7ff f9eb 	bl	40615c <__sprint_r.part.0>
  406d86:	2800      	cmp	r0, #0
  406d88:	f47f aeda 	bne.w	406b40 <_vfiprintf_r+0x964>
  406d8c:	9910      	ldr	r1, [sp, #64]	; 0x40
  406d8e:	9a11      	ldr	r2, [sp, #68]	; 0x44
  406d90:	1c48      	adds	r0, r1, #1
  406d92:	46ca      	mov	sl, r9
  406d94:	e5a4      	b.n	4068e0 <_vfiprintf_r+0x704>
  406d96:	9a07      	ldr	r2, [sp, #28]
  406d98:	9903      	ldr	r1, [sp, #12]
  406d9a:	6813      	ldr	r3, [r2, #0]
  406d9c:	17cd      	asrs	r5, r1, #31
  406d9e:	4608      	mov	r0, r1
  406da0:	3204      	adds	r2, #4
  406da2:	4629      	mov	r1, r5
  406da4:	9207      	str	r2, [sp, #28]
  406da6:	e9c3 0100 	strd	r0, r1, [r3]
  406daa:	f7ff ba54 	b.w	406256 <_vfiprintf_r+0x7a>
  406dae:	4658      	mov	r0, fp
  406db0:	9607      	str	r6, [sp, #28]
  406db2:	9302      	str	r3, [sp, #8]
  406db4:	f7ff f964 	bl	406080 <strlen>
  406db8:	2400      	movs	r4, #0
  406dba:	9005      	str	r0, [sp, #20]
  406dbc:	f89d 5037 	ldrb.w	r5, [sp, #55]	; 0x37
  406dc0:	f7ff bb5e 	b.w	406480 <_vfiprintf_r+0x2a4>
  406dc4:	aa0f      	add	r2, sp, #60	; 0x3c
  406dc6:	9904      	ldr	r1, [sp, #16]
  406dc8:	9806      	ldr	r0, [sp, #24]
  406dca:	f7ff f9c7 	bl	40615c <__sprint_r.part.0>
  406dce:	2800      	cmp	r0, #0
  406dd0:	f47f aeb6 	bne.w	406b40 <_vfiprintf_r+0x964>
  406dd4:	9910      	ldr	r1, [sp, #64]	; 0x40
  406dd6:	9a11      	ldr	r2, [sp, #68]	; 0x44
  406dd8:	1c48      	adds	r0, r1, #1
  406dda:	46ca      	mov	sl, r9
  406ddc:	e5a7      	b.n	40692e <_vfiprintf_r+0x752>
  406dde:	9910      	ldr	r1, [sp, #64]	; 0x40
  406de0:	9a11      	ldr	r2, [sp, #68]	; 0x44
  406de2:	4e20      	ldr	r6, [pc, #128]	; (406e64 <_vfiprintf_r+0xc88>)
  406de4:	3101      	adds	r1, #1
  406de6:	f7ff bb90 	b.w	40650a <_vfiprintf_r+0x32e>
  406dea:	2c06      	cmp	r4, #6
  406dec:	bf28      	it	cs
  406dee:	2406      	movcs	r4, #6
  406df0:	9405      	str	r4, [sp, #20]
  406df2:	9607      	str	r6, [sp, #28]
  406df4:	9401      	str	r4, [sp, #4]
  406df6:	f8df b070 	ldr.w	fp, [pc, #112]	; 406e68 <_vfiprintf_r+0xc8c>
  406dfa:	e4d5      	b.n	4067a8 <_vfiprintf_r+0x5cc>
  406dfc:	9810      	ldr	r0, [sp, #64]	; 0x40
  406dfe:	4e19      	ldr	r6, [pc, #100]	; (406e64 <_vfiprintf_r+0xc88>)
  406e00:	3001      	adds	r0, #1
  406e02:	e603      	b.n	406a0c <_vfiprintf_r+0x830>
  406e04:	9405      	str	r4, [sp, #20]
  406e06:	f89d 5037 	ldrb.w	r5, [sp, #55]	; 0x37
  406e0a:	9607      	str	r6, [sp, #28]
  406e0c:	9302      	str	r3, [sp, #8]
  406e0e:	4604      	mov	r4, r0
  406e10:	f7ff bb36 	b.w	406480 <_vfiprintf_r+0x2a4>
  406e14:	4686      	mov	lr, r0
  406e16:	f7ff bbce 	b.w	4065b6 <_vfiprintf_r+0x3da>
  406e1a:	9806      	ldr	r0, [sp, #24]
  406e1c:	aa0f      	add	r2, sp, #60	; 0x3c
  406e1e:	4659      	mov	r1, fp
  406e20:	f7ff f99c 	bl	40615c <__sprint_r.part.0>
  406e24:	2800      	cmp	r0, #0
  406e26:	f43f ae24 	beq.w	406a72 <_vfiprintf_r+0x896>
  406e2a:	e624      	b.n	406a76 <_vfiprintf_r+0x89a>
  406e2c:	9907      	ldr	r1, [sp, #28]
  406e2e:	f898 2001 	ldrb.w	r2, [r8, #1]
  406e32:	680c      	ldr	r4, [r1, #0]
  406e34:	3104      	adds	r1, #4
  406e36:	ea44 74e4 	orr.w	r4, r4, r4, asr #31
  406e3a:	46b8      	mov	r8, r7
  406e3c:	9107      	str	r1, [sp, #28]
  406e3e:	f7ff ba3f 	b.w	4062c0 <_vfiprintf_r+0xe4>
  406e42:	f88d 5037 	strb.w	r5, [sp, #55]	; 0x37
  406e46:	e43c      	b.n	4066c2 <_vfiprintf_r+0x4e6>
  406e48:	f88d 5037 	strb.w	r5, [sp, #55]	; 0x37
  406e4c:	e521      	b.n	406892 <_vfiprintf_r+0x6b6>
  406e4e:	f88d 5037 	strb.w	r5, [sp, #55]	; 0x37
  406e52:	f7ff bbf4 	b.w	40663e <_vfiprintf_r+0x462>
  406e56:	f88d 5037 	strb.w	r5, [sp, #55]	; 0x37
  406e5a:	e491      	b.n	406780 <_vfiprintf_r+0x5a4>
  406e5c:	f88d 5037 	strb.w	r5, [sp, #55]	; 0x37
  406e60:	e469      	b.n	406736 <_vfiprintf_r+0x55a>
  406e62:	bf00      	nop
  406e64:	00409134 	.word	0x00409134
  406e68:	0040912c 	.word	0x0040912c

00406e6c <__sbprintf>:
  406e6c:	e92d 41f0 	stmdb	sp!, {r4, r5, r6, r7, r8, lr}
  406e70:	460c      	mov	r4, r1
  406e72:	f5ad 6d8d 	sub.w	sp, sp, #1128	; 0x468
  406e76:	8989      	ldrh	r1, [r1, #12]
  406e78:	6e66      	ldr	r6, [r4, #100]	; 0x64
  406e7a:	89e5      	ldrh	r5, [r4, #14]
  406e7c:	9619      	str	r6, [sp, #100]	; 0x64
  406e7e:	f021 0102 	bic.w	r1, r1, #2
  406e82:	4606      	mov	r6, r0
  406e84:	69e0      	ldr	r0, [r4, #28]
  406e86:	f8ad 100c 	strh.w	r1, [sp, #12]
  406e8a:	4617      	mov	r7, r2
  406e8c:	f44f 6180 	mov.w	r1, #1024	; 0x400
  406e90:	6a62      	ldr	r2, [r4, #36]	; 0x24
  406e92:	f8ad 500e 	strh.w	r5, [sp, #14]
  406e96:	4698      	mov	r8, r3
  406e98:	ad1a      	add	r5, sp, #104	; 0x68
  406e9a:	2300      	movs	r3, #0
  406e9c:	9007      	str	r0, [sp, #28]
  406e9e:	a816      	add	r0, sp, #88	; 0x58
  406ea0:	9209      	str	r2, [sp, #36]	; 0x24
  406ea2:	9306      	str	r3, [sp, #24]
  406ea4:	9500      	str	r5, [sp, #0]
  406ea6:	9504      	str	r5, [sp, #16]
  406ea8:	9102      	str	r1, [sp, #8]
  406eaa:	9105      	str	r1, [sp, #20]
  406eac:	f000 fd48 	bl	407940 <__retarget_lock_init_recursive>
  406eb0:	4643      	mov	r3, r8
  406eb2:	463a      	mov	r2, r7
  406eb4:	4669      	mov	r1, sp
  406eb6:	4630      	mov	r0, r6
  406eb8:	f7ff f990 	bl	4061dc <_vfiprintf_r>
  406ebc:	1e05      	subs	r5, r0, #0
  406ebe:	db07      	blt.n	406ed0 <__sbprintf+0x64>
  406ec0:	4630      	mov	r0, r6
  406ec2:	4669      	mov	r1, sp
  406ec4:	f000 f928 	bl	407118 <_fflush_r>
  406ec8:	2800      	cmp	r0, #0
  406eca:	bf18      	it	ne
  406ecc:	f04f 35ff 	movne.w	r5, #4294967295
  406ed0:	f8bd 300c 	ldrh.w	r3, [sp, #12]
  406ed4:	065b      	lsls	r3, r3, #25
  406ed6:	d503      	bpl.n	406ee0 <__sbprintf+0x74>
  406ed8:	89a3      	ldrh	r3, [r4, #12]
  406eda:	f043 0340 	orr.w	r3, r3, #64	; 0x40
  406ede:	81a3      	strh	r3, [r4, #12]
  406ee0:	9816      	ldr	r0, [sp, #88]	; 0x58
  406ee2:	f000 fd2f 	bl	407944 <__retarget_lock_close_recursive>
  406ee6:	4628      	mov	r0, r5
  406ee8:	f50d 6d8d 	add.w	sp, sp, #1128	; 0x468
  406eec:	e8bd 81f0 	ldmia.w	sp!, {r4, r5, r6, r7, r8, pc}

00406ef0 <__swsetup_r>:
  406ef0:	b538      	push	{r3, r4, r5, lr}
  406ef2:	4b30      	ldr	r3, [pc, #192]	; (406fb4 <__swsetup_r+0xc4>)
  406ef4:	681b      	ldr	r3, [r3, #0]
  406ef6:	4605      	mov	r5, r0
  406ef8:	460c      	mov	r4, r1
  406efa:	b113      	cbz	r3, 406f02 <__swsetup_r+0x12>
  406efc:	6b9a      	ldr	r2, [r3, #56]	; 0x38
  406efe:	2a00      	cmp	r2, #0
  406f00:	d038      	beq.n	406f74 <__swsetup_r+0x84>
  406f02:	f9b4 200c 	ldrsh.w	r2, [r4, #12]
  406f06:	b293      	uxth	r3, r2
  406f08:	0718      	lsls	r0, r3, #28
  406f0a:	d50c      	bpl.n	406f26 <__swsetup_r+0x36>
  406f0c:	6920      	ldr	r0, [r4, #16]
  406f0e:	b1a8      	cbz	r0, 406f3c <__swsetup_r+0x4c>
  406f10:	f013 0201 	ands.w	r2, r3, #1
  406f14:	d01e      	beq.n	406f54 <__swsetup_r+0x64>
  406f16:	6963      	ldr	r3, [r4, #20]
  406f18:	2200      	movs	r2, #0
  406f1a:	425b      	negs	r3, r3
  406f1c:	61a3      	str	r3, [r4, #24]
  406f1e:	60a2      	str	r2, [r4, #8]
  406f20:	b1f0      	cbz	r0, 406f60 <__swsetup_r+0x70>
  406f22:	2000      	movs	r0, #0
  406f24:	bd38      	pop	{r3, r4, r5, pc}
  406f26:	06d9      	lsls	r1, r3, #27
  406f28:	d53c      	bpl.n	406fa4 <__swsetup_r+0xb4>
  406f2a:	0758      	lsls	r0, r3, #29
  406f2c:	d426      	bmi.n	406f7c <__swsetup_r+0x8c>
  406f2e:	6920      	ldr	r0, [r4, #16]
  406f30:	f042 0308 	orr.w	r3, r2, #8
  406f34:	81a3      	strh	r3, [r4, #12]
  406f36:	b29b      	uxth	r3, r3
  406f38:	2800      	cmp	r0, #0
  406f3a:	d1e9      	bne.n	406f10 <__swsetup_r+0x20>
  406f3c:	f403 7220 	and.w	r2, r3, #640	; 0x280
  406f40:	f5b2 7f00 	cmp.w	r2, #512	; 0x200
  406f44:	d0e4      	beq.n	406f10 <__swsetup_r+0x20>
  406f46:	4628      	mov	r0, r5
  406f48:	4621      	mov	r1, r4
  406f4a:	f000 fd2f 	bl	4079ac <__smakebuf_r>
  406f4e:	89a3      	ldrh	r3, [r4, #12]
  406f50:	6920      	ldr	r0, [r4, #16]
  406f52:	e7dd      	b.n	406f10 <__swsetup_r+0x20>
  406f54:	0799      	lsls	r1, r3, #30
  406f56:	bf58      	it	pl
  406f58:	6962      	ldrpl	r2, [r4, #20]
  406f5a:	60a2      	str	r2, [r4, #8]
  406f5c:	2800      	cmp	r0, #0
  406f5e:	d1e0      	bne.n	406f22 <__swsetup_r+0x32>
  406f60:	f9b4 300c 	ldrsh.w	r3, [r4, #12]
  406f64:	061a      	lsls	r2, r3, #24
  406f66:	d5dd      	bpl.n	406f24 <__swsetup_r+0x34>
  406f68:	f043 0340 	orr.w	r3, r3, #64	; 0x40
  406f6c:	81a3      	strh	r3, [r4, #12]
  406f6e:	f04f 30ff 	mov.w	r0, #4294967295
  406f72:	bd38      	pop	{r3, r4, r5, pc}
  406f74:	4618      	mov	r0, r3
  406f76:	f000 f927 	bl	4071c8 <__sinit>
  406f7a:	e7c2      	b.n	406f02 <__swsetup_r+0x12>
  406f7c:	6b21      	ldr	r1, [r4, #48]	; 0x30
  406f7e:	b151      	cbz	r1, 406f96 <__swsetup_r+0xa6>
  406f80:	f104 0340 	add.w	r3, r4, #64	; 0x40
  406f84:	4299      	cmp	r1, r3
  406f86:	d004      	beq.n	406f92 <__swsetup_r+0xa2>
  406f88:	4628      	mov	r0, r5
  406f8a:	f000 fa43 	bl	407414 <_free_r>
  406f8e:	f9b4 200c 	ldrsh.w	r2, [r4, #12]
  406f92:	2300      	movs	r3, #0
  406f94:	6323      	str	r3, [r4, #48]	; 0x30
  406f96:	2300      	movs	r3, #0
  406f98:	6920      	ldr	r0, [r4, #16]
  406f9a:	6063      	str	r3, [r4, #4]
  406f9c:	f022 0224 	bic.w	r2, r2, #36	; 0x24
  406fa0:	6020      	str	r0, [r4, #0]
  406fa2:	e7c5      	b.n	406f30 <__swsetup_r+0x40>
  406fa4:	f042 0240 	orr.w	r2, r2, #64	; 0x40
  406fa8:	2309      	movs	r3, #9
  406faa:	602b      	str	r3, [r5, #0]
  406fac:	f04f 30ff 	mov.w	r0, #4294967295
  406fb0:	81a2      	strh	r2, [r4, #12]
  406fb2:	bd38      	pop	{r3, r4, r5, pc}
  406fb4:	20400048 	.word	0x20400048

00406fb8 <register_fini>:
  406fb8:	4b02      	ldr	r3, [pc, #8]	; (406fc4 <register_fini+0xc>)
  406fba:	b113      	cbz	r3, 406fc2 <register_fini+0xa>
  406fbc:	4802      	ldr	r0, [pc, #8]	; (406fc8 <register_fini+0x10>)
  406fbe:	f000 b805 	b.w	406fcc <atexit>
  406fc2:	4770      	bx	lr
  406fc4:	00000000 	.word	0x00000000
  406fc8:	00407239 	.word	0x00407239

00406fcc <atexit>:
  406fcc:	2300      	movs	r3, #0
  406fce:	4601      	mov	r1, r0
  406fd0:	461a      	mov	r2, r3
  406fd2:	4618      	mov	r0, r3
  406fd4:	f001 b890 	b.w	4080f8 <__register_exitproc>

00406fd8 <__sflush_r>:
  406fd8:	f9b1 300c 	ldrsh.w	r3, [r1, #12]
  406fdc:	b29a      	uxth	r2, r3
  406fde:	e92d 41f0 	stmdb	sp!, {r4, r5, r6, r7, r8, lr}
  406fe2:	460d      	mov	r5, r1
  406fe4:	0711      	lsls	r1, r2, #28
  406fe6:	4680      	mov	r8, r0
  406fe8:	d43a      	bmi.n	407060 <__sflush_r+0x88>
  406fea:	686a      	ldr	r2, [r5, #4]
  406fec:	f443 6300 	orr.w	r3, r3, #2048	; 0x800
  406ff0:	2a00      	cmp	r2, #0
  406ff2:	81ab      	strh	r3, [r5, #12]
  406ff4:	dd6f      	ble.n	4070d6 <__sflush_r+0xfe>
  406ff6:	6aac      	ldr	r4, [r5, #40]	; 0x28
  406ff8:	2c00      	cmp	r4, #0
  406ffa:	d049      	beq.n	407090 <__sflush_r+0xb8>
  406ffc:	2200      	movs	r2, #0
  406ffe:	b29b      	uxth	r3, r3
  407000:	f8d8 6000 	ldr.w	r6, [r8]
  407004:	f8c8 2000 	str.w	r2, [r8]
  407008:	f413 5280 	ands.w	r2, r3, #4096	; 0x1000
  40700c:	d067      	beq.n	4070de <__sflush_r+0x106>
  40700e:	6d2a      	ldr	r2, [r5, #80]	; 0x50
  407010:	075f      	lsls	r7, r3, #29
  407012:	d505      	bpl.n	407020 <__sflush_r+0x48>
  407014:	6869      	ldr	r1, [r5, #4]
  407016:	6b2b      	ldr	r3, [r5, #48]	; 0x30
  407018:	1a52      	subs	r2, r2, r1
  40701a:	b10b      	cbz	r3, 407020 <__sflush_r+0x48>
  40701c:	6beb      	ldr	r3, [r5, #60]	; 0x3c
  40701e:	1ad2      	subs	r2, r2, r3
  407020:	2300      	movs	r3, #0
  407022:	69e9      	ldr	r1, [r5, #28]
  407024:	4640      	mov	r0, r8
  407026:	47a0      	blx	r4
  407028:	1c44      	adds	r4, r0, #1
  40702a:	d03c      	beq.n	4070a6 <__sflush_r+0xce>
  40702c:	f9b5 300c 	ldrsh.w	r3, [r5, #12]
  407030:	692a      	ldr	r2, [r5, #16]
  407032:	602a      	str	r2, [r5, #0]
  407034:	f423 6300 	bic.w	r3, r3, #2048	; 0x800
  407038:	2200      	movs	r2, #0
  40703a:	81ab      	strh	r3, [r5, #12]
  40703c:	04db      	lsls	r3, r3, #19
  40703e:	606a      	str	r2, [r5, #4]
  407040:	d447      	bmi.n	4070d2 <__sflush_r+0xfa>
  407042:	6b29      	ldr	r1, [r5, #48]	; 0x30
  407044:	f8c8 6000 	str.w	r6, [r8]
  407048:	b311      	cbz	r1, 407090 <__sflush_r+0xb8>
  40704a:	f105 0340 	add.w	r3, r5, #64	; 0x40
  40704e:	4299      	cmp	r1, r3
  407050:	d002      	beq.n	407058 <__sflush_r+0x80>
  407052:	4640      	mov	r0, r8
  407054:	f000 f9de 	bl	407414 <_free_r>
  407058:	2000      	movs	r0, #0
  40705a:	6328      	str	r0, [r5, #48]	; 0x30
  40705c:	e8bd 81f0 	ldmia.w	sp!, {r4, r5, r6, r7, r8, pc}
  407060:	692e      	ldr	r6, [r5, #16]
  407062:	b1ae      	cbz	r6, 407090 <__sflush_r+0xb8>
  407064:	682c      	ldr	r4, [r5, #0]
  407066:	602e      	str	r6, [r5, #0]
  407068:	0791      	lsls	r1, r2, #30
  40706a:	bf0c      	ite	eq
  40706c:	696b      	ldreq	r3, [r5, #20]
  40706e:	2300      	movne	r3, #0
  407070:	1ba4      	subs	r4, r4, r6
  407072:	60ab      	str	r3, [r5, #8]
  407074:	e00a      	b.n	40708c <__sflush_r+0xb4>
  407076:	4623      	mov	r3, r4
  407078:	4632      	mov	r2, r6
  40707a:	6a6f      	ldr	r7, [r5, #36]	; 0x24
  40707c:	69e9      	ldr	r1, [r5, #28]
  40707e:	4640      	mov	r0, r8
  407080:	47b8      	blx	r7
  407082:	2800      	cmp	r0, #0
  407084:	eba4 0400 	sub.w	r4, r4, r0
  407088:	4406      	add	r6, r0
  40708a:	dd04      	ble.n	407096 <__sflush_r+0xbe>
  40708c:	2c00      	cmp	r4, #0
  40708e:	dcf2      	bgt.n	407076 <__sflush_r+0x9e>
  407090:	2000      	movs	r0, #0
  407092:	e8bd 81f0 	ldmia.w	sp!, {r4, r5, r6, r7, r8, pc}
  407096:	89ab      	ldrh	r3, [r5, #12]
  407098:	f043 0340 	orr.w	r3, r3, #64	; 0x40
  40709c:	81ab      	strh	r3, [r5, #12]
  40709e:	f04f 30ff 	mov.w	r0, #4294967295
  4070a2:	e8bd 81f0 	ldmia.w	sp!, {r4, r5, r6, r7, r8, pc}
  4070a6:	f8d8 4000 	ldr.w	r4, [r8]
  4070aa:	2c1d      	cmp	r4, #29
  4070ac:	d8f3      	bhi.n	407096 <__sflush_r+0xbe>
  4070ae:	4b19      	ldr	r3, [pc, #100]	; (407114 <__sflush_r+0x13c>)
  4070b0:	40e3      	lsrs	r3, r4
  4070b2:	43db      	mvns	r3, r3
  4070b4:	f013 0301 	ands.w	r3, r3, #1
  4070b8:	d1ed      	bne.n	407096 <__sflush_r+0xbe>
  4070ba:	f9b5 200c 	ldrsh.w	r2, [r5, #12]
  4070be:	606b      	str	r3, [r5, #4]
  4070c0:	f422 6300 	bic.w	r3, r2, #2048	; 0x800
  4070c4:	6929      	ldr	r1, [r5, #16]
  4070c6:	81ab      	strh	r3, [r5, #12]
  4070c8:	04da      	lsls	r2, r3, #19
  4070ca:	6029      	str	r1, [r5, #0]
  4070cc:	d5b9      	bpl.n	407042 <__sflush_r+0x6a>
  4070ce:	2c00      	cmp	r4, #0
  4070d0:	d1b7      	bne.n	407042 <__sflush_r+0x6a>
  4070d2:	6528      	str	r0, [r5, #80]	; 0x50
  4070d4:	e7b5      	b.n	407042 <__sflush_r+0x6a>
  4070d6:	6bea      	ldr	r2, [r5, #60]	; 0x3c
  4070d8:	2a00      	cmp	r2, #0
  4070da:	dc8c      	bgt.n	406ff6 <__sflush_r+0x1e>
  4070dc:	e7d8      	b.n	407090 <__sflush_r+0xb8>
  4070de:	2301      	movs	r3, #1
  4070e0:	69e9      	ldr	r1, [r5, #28]
  4070e2:	4640      	mov	r0, r8
  4070e4:	47a0      	blx	r4
  4070e6:	1c43      	adds	r3, r0, #1
  4070e8:	4602      	mov	r2, r0
  4070ea:	d002      	beq.n	4070f2 <__sflush_r+0x11a>
  4070ec:	89ab      	ldrh	r3, [r5, #12]
  4070ee:	6aac      	ldr	r4, [r5, #40]	; 0x28
  4070f0:	e78e      	b.n	407010 <__sflush_r+0x38>
  4070f2:	f8d8 3000 	ldr.w	r3, [r8]
  4070f6:	2b00      	cmp	r3, #0
  4070f8:	d0f8      	beq.n	4070ec <__sflush_r+0x114>
  4070fa:	2b1d      	cmp	r3, #29
  4070fc:	d001      	beq.n	407102 <__sflush_r+0x12a>
  4070fe:	2b16      	cmp	r3, #22
  407100:	d102      	bne.n	407108 <__sflush_r+0x130>
  407102:	f8c8 6000 	str.w	r6, [r8]
  407106:	e7c3      	b.n	407090 <__sflush_r+0xb8>
  407108:	89ab      	ldrh	r3, [r5, #12]
  40710a:	f043 0340 	orr.w	r3, r3, #64	; 0x40
  40710e:	81ab      	strh	r3, [r5, #12]
  407110:	e8bd 81f0 	ldmia.w	sp!, {r4, r5, r6, r7, r8, pc}
  407114:	20400001 	.word	0x20400001

00407118 <_fflush_r>:
  407118:	b538      	push	{r3, r4, r5, lr}
  40711a:	460d      	mov	r5, r1
  40711c:	4604      	mov	r4, r0
  40711e:	b108      	cbz	r0, 407124 <_fflush_r+0xc>
  407120:	6b83      	ldr	r3, [r0, #56]	; 0x38
  407122:	b1bb      	cbz	r3, 407154 <_fflush_r+0x3c>
  407124:	f9b5 000c 	ldrsh.w	r0, [r5, #12]
  407128:	b188      	cbz	r0, 40714e <_fflush_r+0x36>
  40712a:	6e6b      	ldr	r3, [r5, #100]	; 0x64
  40712c:	07db      	lsls	r3, r3, #31
  40712e:	d401      	bmi.n	407134 <_fflush_r+0x1c>
  407130:	0581      	lsls	r1, r0, #22
  407132:	d517      	bpl.n	407164 <_fflush_r+0x4c>
  407134:	4620      	mov	r0, r4
  407136:	4629      	mov	r1, r5
  407138:	f7ff ff4e 	bl	406fd8 <__sflush_r>
  40713c:	6e6b      	ldr	r3, [r5, #100]	; 0x64
  40713e:	07da      	lsls	r2, r3, #31
  407140:	4604      	mov	r4, r0
  407142:	d402      	bmi.n	40714a <_fflush_r+0x32>
  407144:	89ab      	ldrh	r3, [r5, #12]
  407146:	059b      	lsls	r3, r3, #22
  407148:	d507      	bpl.n	40715a <_fflush_r+0x42>
  40714a:	4620      	mov	r0, r4
  40714c:	bd38      	pop	{r3, r4, r5, pc}
  40714e:	4604      	mov	r4, r0
  407150:	4620      	mov	r0, r4
  407152:	bd38      	pop	{r3, r4, r5, pc}
  407154:	f000 f838 	bl	4071c8 <__sinit>
  407158:	e7e4      	b.n	407124 <_fflush_r+0xc>
  40715a:	6da8      	ldr	r0, [r5, #88]	; 0x58
  40715c:	f000 fbf6 	bl	40794c <__retarget_lock_release_recursive>
  407160:	4620      	mov	r0, r4
  407162:	bd38      	pop	{r3, r4, r5, pc}
  407164:	6da8      	ldr	r0, [r5, #88]	; 0x58
  407166:	f000 fbef 	bl	407948 <__retarget_lock_acquire_recursive>
  40716a:	e7e3      	b.n	407134 <_fflush_r+0x1c>

0040716c <_cleanup_r>:
  40716c:	4901      	ldr	r1, [pc, #4]	; (407174 <_cleanup_r+0x8>)
  40716e:	f000 bbaf 	b.w	4078d0 <_fwalk_reent>
  407172:	bf00      	nop
  407174:	004081e1 	.word	0x004081e1

00407178 <std.isra.0>:
  407178:	b510      	push	{r4, lr}
  40717a:	2300      	movs	r3, #0
  40717c:	4604      	mov	r4, r0
  40717e:	8181      	strh	r1, [r0, #12]
  407180:	81c2      	strh	r2, [r0, #14]
  407182:	6003      	str	r3, [r0, #0]
  407184:	6043      	str	r3, [r0, #4]
  407186:	6083      	str	r3, [r0, #8]
  407188:	6643      	str	r3, [r0, #100]	; 0x64
  40718a:	6103      	str	r3, [r0, #16]
  40718c:	6143      	str	r3, [r0, #20]
  40718e:	6183      	str	r3, [r0, #24]
  407190:	4619      	mov	r1, r3
  407192:	2208      	movs	r2, #8
  407194:	305c      	adds	r0, #92	; 0x5c
  407196:	f7fe fef3 	bl	405f80 <memset>
  40719a:	4807      	ldr	r0, [pc, #28]	; (4071b8 <std.isra.0+0x40>)
  40719c:	4907      	ldr	r1, [pc, #28]	; (4071bc <std.isra.0+0x44>)
  40719e:	4a08      	ldr	r2, [pc, #32]	; (4071c0 <std.isra.0+0x48>)
  4071a0:	4b08      	ldr	r3, [pc, #32]	; (4071c4 <std.isra.0+0x4c>)
  4071a2:	6220      	str	r0, [r4, #32]
  4071a4:	61e4      	str	r4, [r4, #28]
  4071a6:	6261      	str	r1, [r4, #36]	; 0x24
  4071a8:	62a2      	str	r2, [r4, #40]	; 0x28
  4071aa:	62e3      	str	r3, [r4, #44]	; 0x2c
  4071ac:	f104 0058 	add.w	r0, r4, #88	; 0x58
  4071b0:	e8bd 4010 	ldmia.w	sp!, {r4, lr}
  4071b4:	f000 bbc4 	b.w	407940 <__retarget_lock_init_recursive>
  4071b8:	00407f25 	.word	0x00407f25
  4071bc:	00407f49 	.word	0x00407f49
  4071c0:	00407f85 	.word	0x00407f85
  4071c4:	00407fa5 	.word	0x00407fa5

004071c8 <__sinit>:
  4071c8:	b510      	push	{r4, lr}
  4071ca:	4604      	mov	r4, r0
  4071cc:	4812      	ldr	r0, [pc, #72]	; (407218 <__sinit+0x50>)
  4071ce:	f000 fbbb 	bl	407948 <__retarget_lock_acquire_recursive>
  4071d2:	6ba2      	ldr	r2, [r4, #56]	; 0x38
  4071d4:	b9d2      	cbnz	r2, 40720c <__sinit+0x44>
  4071d6:	f504 733b 	add.w	r3, r4, #748	; 0x2ec
  4071da:	4810      	ldr	r0, [pc, #64]	; (40721c <__sinit+0x54>)
  4071dc:	f8c4 32e8 	str.w	r3, [r4, #744]	; 0x2e8
  4071e0:	2103      	movs	r1, #3
  4071e2:	f8c4 22e0 	str.w	r2, [r4, #736]	; 0x2e0
  4071e6:	63e0      	str	r0, [r4, #60]	; 0x3c
  4071e8:	f8c4 12e4 	str.w	r1, [r4, #740]	; 0x2e4
  4071ec:	6860      	ldr	r0, [r4, #4]
  4071ee:	2104      	movs	r1, #4
  4071f0:	f7ff ffc2 	bl	407178 <std.isra.0>
  4071f4:	2201      	movs	r2, #1
  4071f6:	2109      	movs	r1, #9
  4071f8:	68a0      	ldr	r0, [r4, #8]
  4071fa:	f7ff ffbd 	bl	407178 <std.isra.0>
  4071fe:	2202      	movs	r2, #2
  407200:	2112      	movs	r1, #18
  407202:	68e0      	ldr	r0, [r4, #12]
  407204:	f7ff ffb8 	bl	407178 <std.isra.0>
  407208:	2301      	movs	r3, #1
  40720a:	63a3      	str	r3, [r4, #56]	; 0x38
  40720c:	4802      	ldr	r0, [pc, #8]	; (407218 <__sinit+0x50>)
  40720e:	e8bd 4010 	ldmia.w	sp!, {r4, lr}
  407212:	f000 bb9b 	b.w	40794c <__retarget_lock_release_recursive>
  407216:	bf00      	nop
  407218:	2042c07c 	.word	0x2042c07c
  40721c:	0040716d 	.word	0x0040716d

00407220 <__sfp_lock_acquire>:
  407220:	4801      	ldr	r0, [pc, #4]	; (407228 <__sfp_lock_acquire+0x8>)
  407222:	f000 bb91 	b.w	407948 <__retarget_lock_acquire_recursive>
  407226:	bf00      	nop
  407228:	2042c090 	.word	0x2042c090

0040722c <__sfp_lock_release>:
  40722c:	4801      	ldr	r0, [pc, #4]	; (407234 <__sfp_lock_release+0x8>)
  40722e:	f000 bb8d 	b.w	40794c <__retarget_lock_release_recursive>
  407232:	bf00      	nop
  407234:	2042c090 	.word	0x2042c090

00407238 <__libc_fini_array>:
  407238:	b538      	push	{r3, r4, r5, lr}
  40723a:	4c0a      	ldr	r4, [pc, #40]	; (407264 <__libc_fini_array+0x2c>)
  40723c:	4d0a      	ldr	r5, [pc, #40]	; (407268 <__libc_fini_array+0x30>)
  40723e:	1b64      	subs	r4, r4, r5
  407240:	10a4      	asrs	r4, r4, #2
  407242:	d00a      	beq.n	40725a <__libc_fini_array+0x22>
  407244:	f104 4380 	add.w	r3, r4, #1073741824	; 0x40000000
  407248:	3b01      	subs	r3, #1
  40724a:	eb05 0583 	add.w	r5, r5, r3, lsl #2
  40724e:	3c01      	subs	r4, #1
  407250:	f855 3904 	ldr.w	r3, [r5], #-4
  407254:	4798      	blx	r3
  407256:	2c00      	cmp	r4, #0
  407258:	d1f9      	bne.n	40724e <__libc_fini_array+0x16>
  40725a:	e8bd 4038 	ldmia.w	sp!, {r3, r4, r5, lr}
  40725e:	f002 b80d 	b.w	40927c <_fini>
  407262:	bf00      	nop
  407264:	0040928c 	.word	0x0040928c
  407268:	00409288 	.word	0x00409288

0040726c <__fputwc>:
  40726c:	e92d 47f0 	stmdb	sp!, {r4, r5, r6, r7, r8, r9, sl, lr}
  407270:	b082      	sub	sp, #8
  407272:	4680      	mov	r8, r0
  407274:	4689      	mov	r9, r1
  407276:	4614      	mov	r4, r2
  407278:	f000 fb54 	bl	407924 <__locale_mb_cur_max>
  40727c:	2801      	cmp	r0, #1
  40727e:	d036      	beq.n	4072ee <__fputwc+0x82>
  407280:	464a      	mov	r2, r9
  407282:	f104 035c 	add.w	r3, r4, #92	; 0x5c
  407286:	a901      	add	r1, sp, #4
  407288:	4640      	mov	r0, r8
  40728a:	f000 fee7 	bl	40805c <_wcrtomb_r>
  40728e:	1c42      	adds	r2, r0, #1
  407290:	4606      	mov	r6, r0
  407292:	d025      	beq.n	4072e0 <__fputwc+0x74>
  407294:	b3a8      	cbz	r0, 407302 <__fputwc+0x96>
  407296:	f89d e004 	ldrb.w	lr, [sp, #4]
  40729a:	2500      	movs	r5, #0
  40729c:	f10d 0a04 	add.w	sl, sp, #4
  4072a0:	e009      	b.n	4072b6 <__fputwc+0x4a>
  4072a2:	6823      	ldr	r3, [r4, #0]
  4072a4:	1c5a      	adds	r2, r3, #1
  4072a6:	6022      	str	r2, [r4, #0]
  4072a8:	f883 e000 	strb.w	lr, [r3]
  4072ac:	3501      	adds	r5, #1
  4072ae:	42b5      	cmp	r5, r6
  4072b0:	d227      	bcs.n	407302 <__fputwc+0x96>
  4072b2:	f815 e00a 	ldrb.w	lr, [r5, sl]
  4072b6:	68a3      	ldr	r3, [r4, #8]
  4072b8:	3b01      	subs	r3, #1
  4072ba:	2b00      	cmp	r3, #0
  4072bc:	60a3      	str	r3, [r4, #8]
  4072be:	daf0      	bge.n	4072a2 <__fputwc+0x36>
  4072c0:	69a7      	ldr	r7, [r4, #24]
  4072c2:	42bb      	cmp	r3, r7
  4072c4:	4671      	mov	r1, lr
  4072c6:	4622      	mov	r2, r4
  4072c8:	4640      	mov	r0, r8
  4072ca:	db02      	blt.n	4072d2 <__fputwc+0x66>
  4072cc:	f1be 0f0a 	cmp.w	lr, #10
  4072d0:	d1e7      	bne.n	4072a2 <__fputwc+0x36>
  4072d2:	f000 fe6b 	bl	407fac <__swbuf_r>
  4072d6:	1c43      	adds	r3, r0, #1
  4072d8:	d1e8      	bne.n	4072ac <__fputwc+0x40>
  4072da:	b002      	add	sp, #8
  4072dc:	e8bd 87f0 	ldmia.w	sp!, {r4, r5, r6, r7, r8, r9, sl, pc}
  4072e0:	89a3      	ldrh	r3, [r4, #12]
  4072e2:	f043 0340 	orr.w	r3, r3, #64	; 0x40
  4072e6:	81a3      	strh	r3, [r4, #12]
  4072e8:	b002      	add	sp, #8
  4072ea:	e8bd 87f0 	ldmia.w	sp!, {r4, r5, r6, r7, r8, r9, sl, pc}
  4072ee:	f109 33ff 	add.w	r3, r9, #4294967295
  4072f2:	2bfe      	cmp	r3, #254	; 0xfe
  4072f4:	d8c4      	bhi.n	407280 <__fputwc+0x14>
  4072f6:	fa5f fe89 	uxtb.w	lr, r9
  4072fa:	4606      	mov	r6, r0
  4072fc:	f88d e004 	strb.w	lr, [sp, #4]
  407300:	e7cb      	b.n	40729a <__fputwc+0x2e>
  407302:	4648      	mov	r0, r9
  407304:	b002      	add	sp, #8
  407306:	e8bd 87f0 	ldmia.w	sp!, {r4, r5, r6, r7, r8, r9, sl, pc}
  40730a:	bf00      	nop

0040730c <_fputwc_r>:
  40730c:	b530      	push	{r4, r5, lr}
  40730e:	6e53      	ldr	r3, [r2, #100]	; 0x64
  407310:	f013 0f01 	tst.w	r3, #1
  407314:	f9b2 300c 	ldrsh.w	r3, [r2, #12]
  407318:	4614      	mov	r4, r2
  40731a:	b083      	sub	sp, #12
  40731c:	4605      	mov	r5, r0
  40731e:	b29a      	uxth	r2, r3
  407320:	d101      	bne.n	407326 <_fputwc_r+0x1a>
  407322:	0590      	lsls	r0, r2, #22
  407324:	d51c      	bpl.n	407360 <_fputwc_r+0x54>
  407326:	0490      	lsls	r0, r2, #18
  407328:	d406      	bmi.n	407338 <_fputwc_r+0x2c>
  40732a:	6e62      	ldr	r2, [r4, #100]	; 0x64
  40732c:	f443 5300 	orr.w	r3, r3, #8192	; 0x2000
  407330:	f442 5200 	orr.w	r2, r2, #8192	; 0x2000
  407334:	81a3      	strh	r3, [r4, #12]
  407336:	6662      	str	r2, [r4, #100]	; 0x64
  407338:	4628      	mov	r0, r5
  40733a:	4622      	mov	r2, r4
  40733c:	f7ff ff96 	bl	40726c <__fputwc>
  407340:	6e63      	ldr	r3, [r4, #100]	; 0x64
  407342:	07da      	lsls	r2, r3, #31
  407344:	4605      	mov	r5, r0
  407346:	d402      	bmi.n	40734e <_fputwc_r+0x42>
  407348:	89a3      	ldrh	r3, [r4, #12]
  40734a:	059b      	lsls	r3, r3, #22
  40734c:	d502      	bpl.n	407354 <_fputwc_r+0x48>
  40734e:	4628      	mov	r0, r5
  407350:	b003      	add	sp, #12
  407352:	bd30      	pop	{r4, r5, pc}
  407354:	6da0      	ldr	r0, [r4, #88]	; 0x58
  407356:	f000 faf9 	bl	40794c <__retarget_lock_release_recursive>
  40735a:	4628      	mov	r0, r5
  40735c:	b003      	add	sp, #12
  40735e:	bd30      	pop	{r4, r5, pc}
  407360:	6da0      	ldr	r0, [r4, #88]	; 0x58
  407362:	9101      	str	r1, [sp, #4]
  407364:	f000 faf0 	bl	407948 <__retarget_lock_acquire_recursive>
  407368:	f9b4 300c 	ldrsh.w	r3, [r4, #12]
  40736c:	9901      	ldr	r1, [sp, #4]
  40736e:	b29a      	uxth	r2, r3
  407370:	e7d9      	b.n	407326 <_fputwc_r+0x1a>
  407372:	bf00      	nop

00407374 <_malloc_trim_r>:
  407374:	b5f8      	push	{r3, r4, r5, r6, r7, lr}
  407376:	4f24      	ldr	r7, [pc, #144]	; (407408 <_malloc_trim_r+0x94>)
  407378:	460c      	mov	r4, r1
  40737a:	4606      	mov	r6, r0
  40737c:	f7fe fe4e 	bl	40601c <__malloc_lock>
  407380:	68bb      	ldr	r3, [r7, #8]
  407382:	685d      	ldr	r5, [r3, #4]
  407384:	f5c4 617e 	rsb	r1, r4, #4064	; 0xfe0
  407388:	310f      	adds	r1, #15
  40738a:	f025 0503 	bic.w	r5, r5, #3
  40738e:	4429      	add	r1, r5
  407390:	f421 617f 	bic.w	r1, r1, #4080	; 0xff0
  407394:	f021 010f 	bic.w	r1, r1, #15
  407398:	f5a1 5480 	sub.w	r4, r1, #4096	; 0x1000
  40739c:	f5b4 5f80 	cmp.w	r4, #4096	; 0x1000
  4073a0:	db07      	blt.n	4073b2 <_malloc_trim_r+0x3e>
  4073a2:	2100      	movs	r1, #0
  4073a4:	4630      	mov	r0, r6
  4073a6:	f7fe fe45 	bl	406034 <_sbrk_r>
  4073aa:	68bb      	ldr	r3, [r7, #8]
  4073ac:	442b      	add	r3, r5
  4073ae:	4298      	cmp	r0, r3
  4073b0:	d004      	beq.n	4073bc <_malloc_trim_r+0x48>
  4073b2:	4630      	mov	r0, r6
  4073b4:	f7fe fe38 	bl	406028 <__malloc_unlock>
  4073b8:	2000      	movs	r0, #0
  4073ba:	bdf8      	pop	{r3, r4, r5, r6, r7, pc}
  4073bc:	4261      	negs	r1, r4
  4073be:	4630      	mov	r0, r6
  4073c0:	f7fe fe38 	bl	406034 <_sbrk_r>
  4073c4:	3001      	adds	r0, #1
  4073c6:	d00d      	beq.n	4073e4 <_malloc_trim_r+0x70>
  4073c8:	4b10      	ldr	r3, [pc, #64]	; (40740c <_malloc_trim_r+0x98>)
  4073ca:	68ba      	ldr	r2, [r7, #8]
  4073cc:	6819      	ldr	r1, [r3, #0]
  4073ce:	1b2d      	subs	r5, r5, r4
  4073d0:	f045 0501 	orr.w	r5, r5, #1
  4073d4:	4630      	mov	r0, r6
  4073d6:	1b09      	subs	r1, r1, r4
  4073d8:	6055      	str	r5, [r2, #4]
  4073da:	6019      	str	r1, [r3, #0]
  4073dc:	f7fe fe24 	bl	406028 <__malloc_unlock>
  4073e0:	2001      	movs	r0, #1
  4073e2:	bdf8      	pop	{r3, r4, r5, r6, r7, pc}
  4073e4:	2100      	movs	r1, #0
  4073e6:	4630      	mov	r0, r6
  4073e8:	f7fe fe24 	bl	406034 <_sbrk_r>
  4073ec:	68ba      	ldr	r2, [r7, #8]
  4073ee:	1a83      	subs	r3, r0, r2
  4073f0:	2b0f      	cmp	r3, #15
  4073f2:	ddde      	ble.n	4073b2 <_malloc_trim_r+0x3e>
  4073f4:	4c06      	ldr	r4, [pc, #24]	; (407410 <_malloc_trim_r+0x9c>)
  4073f6:	4905      	ldr	r1, [pc, #20]	; (40740c <_malloc_trim_r+0x98>)
  4073f8:	6824      	ldr	r4, [r4, #0]
  4073fa:	f043 0301 	orr.w	r3, r3, #1
  4073fe:	1b00      	subs	r0, r0, r4
  407400:	6053      	str	r3, [r2, #4]
  407402:	6008      	str	r0, [r1, #0]
  407404:	e7d5      	b.n	4073b2 <_malloc_trim_r+0x3e>
  407406:	bf00      	nop
  407408:	20400478 	.word	0x20400478
  40740c:	20428c00 	.word	0x20428c00
  407410:	20400880 	.word	0x20400880

00407414 <_free_r>:
  407414:	2900      	cmp	r1, #0
  407416:	d044      	beq.n	4074a2 <_free_r+0x8e>
  407418:	e92d 41f0 	stmdb	sp!, {r4, r5, r6, r7, r8, lr}
  40741c:	460d      	mov	r5, r1
  40741e:	4680      	mov	r8, r0
  407420:	f7fe fdfc 	bl	40601c <__malloc_lock>
  407424:	f855 7c04 	ldr.w	r7, [r5, #-4]
  407428:	4969      	ldr	r1, [pc, #420]	; (4075d0 <_free_r+0x1bc>)
  40742a:	f027 0301 	bic.w	r3, r7, #1
  40742e:	f1a5 0408 	sub.w	r4, r5, #8
  407432:	18e2      	adds	r2, r4, r3
  407434:	688e      	ldr	r6, [r1, #8]
  407436:	6850      	ldr	r0, [r2, #4]
  407438:	42b2      	cmp	r2, r6
  40743a:	f020 0003 	bic.w	r0, r0, #3
  40743e:	d05e      	beq.n	4074fe <_free_r+0xea>
  407440:	07fe      	lsls	r6, r7, #31
  407442:	6050      	str	r0, [r2, #4]
  407444:	d40b      	bmi.n	40745e <_free_r+0x4a>
  407446:	f855 7c08 	ldr.w	r7, [r5, #-8]
  40744a:	1be4      	subs	r4, r4, r7
  40744c:	f101 0e08 	add.w	lr, r1, #8
  407450:	68a5      	ldr	r5, [r4, #8]
  407452:	4575      	cmp	r5, lr
  407454:	443b      	add	r3, r7
  407456:	d06d      	beq.n	407534 <_free_r+0x120>
  407458:	68e7      	ldr	r7, [r4, #12]
  40745a:	60ef      	str	r7, [r5, #12]
  40745c:	60bd      	str	r5, [r7, #8]
  40745e:	1815      	adds	r5, r2, r0
  407460:	686d      	ldr	r5, [r5, #4]
  407462:	07ed      	lsls	r5, r5, #31
  407464:	d53e      	bpl.n	4074e4 <_free_r+0xd0>
  407466:	f043 0201 	orr.w	r2, r3, #1
  40746a:	6062      	str	r2, [r4, #4]
  40746c:	50e3      	str	r3, [r4, r3]
  40746e:	f5b3 7f00 	cmp.w	r3, #512	; 0x200
  407472:	d217      	bcs.n	4074a4 <_free_r+0x90>
  407474:	08db      	lsrs	r3, r3, #3
  407476:	1c58      	adds	r0, r3, #1
  407478:	109a      	asrs	r2, r3, #2
  40747a:	684d      	ldr	r5, [r1, #4]
  40747c:	f851 7030 	ldr.w	r7, [r1, r0, lsl #3]
  407480:	60a7      	str	r7, [r4, #8]
  407482:	2301      	movs	r3, #1
  407484:	4093      	lsls	r3, r2
  407486:	eb01 02c0 	add.w	r2, r1, r0, lsl #3
  40748a:	432b      	orrs	r3, r5
  40748c:	3a08      	subs	r2, #8
  40748e:	60e2      	str	r2, [r4, #12]
  407490:	604b      	str	r3, [r1, #4]
  407492:	f841 4030 	str.w	r4, [r1, r0, lsl #3]
  407496:	60fc      	str	r4, [r7, #12]
  407498:	4640      	mov	r0, r8
  40749a:	e8bd 41f0 	ldmia.w	sp!, {r4, r5, r6, r7, r8, lr}
  40749e:	f7fe bdc3 	b.w	406028 <__malloc_unlock>
  4074a2:	4770      	bx	lr
  4074a4:	0a5a      	lsrs	r2, r3, #9
  4074a6:	2a04      	cmp	r2, #4
  4074a8:	d852      	bhi.n	407550 <_free_r+0x13c>
  4074aa:	099a      	lsrs	r2, r3, #6
  4074ac:	f102 0739 	add.w	r7, r2, #57	; 0x39
  4074b0:	00ff      	lsls	r7, r7, #3
  4074b2:	f102 0538 	add.w	r5, r2, #56	; 0x38
  4074b6:	19c8      	adds	r0, r1, r7
  4074b8:	59ca      	ldr	r2, [r1, r7]
  4074ba:	3808      	subs	r0, #8
  4074bc:	4290      	cmp	r0, r2
  4074be:	d04f      	beq.n	407560 <_free_r+0x14c>
  4074c0:	6851      	ldr	r1, [r2, #4]
  4074c2:	f021 0103 	bic.w	r1, r1, #3
  4074c6:	428b      	cmp	r3, r1
  4074c8:	d232      	bcs.n	407530 <_free_r+0x11c>
  4074ca:	6892      	ldr	r2, [r2, #8]
  4074cc:	4290      	cmp	r0, r2
  4074ce:	d1f7      	bne.n	4074c0 <_free_r+0xac>
  4074d0:	68c3      	ldr	r3, [r0, #12]
  4074d2:	60a0      	str	r0, [r4, #8]
  4074d4:	60e3      	str	r3, [r4, #12]
  4074d6:	609c      	str	r4, [r3, #8]
  4074d8:	60c4      	str	r4, [r0, #12]
  4074da:	4640      	mov	r0, r8
  4074dc:	e8bd 41f0 	ldmia.w	sp!, {r4, r5, r6, r7, r8, lr}
  4074e0:	f7fe bda2 	b.w	406028 <__malloc_unlock>
  4074e4:	6895      	ldr	r5, [r2, #8]
  4074e6:	4f3b      	ldr	r7, [pc, #236]	; (4075d4 <_free_r+0x1c0>)
  4074e8:	42bd      	cmp	r5, r7
  4074ea:	4403      	add	r3, r0
  4074ec:	d040      	beq.n	407570 <_free_r+0x15c>
  4074ee:	68d0      	ldr	r0, [r2, #12]
  4074f0:	60e8      	str	r0, [r5, #12]
  4074f2:	f043 0201 	orr.w	r2, r3, #1
  4074f6:	6085      	str	r5, [r0, #8]
  4074f8:	6062      	str	r2, [r4, #4]
  4074fa:	50e3      	str	r3, [r4, r3]
  4074fc:	e7b7      	b.n	40746e <_free_r+0x5a>
  4074fe:	07ff      	lsls	r7, r7, #31
  407500:	4403      	add	r3, r0
  407502:	d407      	bmi.n	407514 <_free_r+0x100>
  407504:	f855 2c08 	ldr.w	r2, [r5, #-8]
  407508:	1aa4      	subs	r4, r4, r2
  40750a:	4413      	add	r3, r2
  40750c:	68a0      	ldr	r0, [r4, #8]
  40750e:	68e2      	ldr	r2, [r4, #12]
  407510:	60c2      	str	r2, [r0, #12]
  407512:	6090      	str	r0, [r2, #8]
  407514:	4a30      	ldr	r2, [pc, #192]	; (4075d8 <_free_r+0x1c4>)
  407516:	6812      	ldr	r2, [r2, #0]
  407518:	f043 0001 	orr.w	r0, r3, #1
  40751c:	4293      	cmp	r3, r2
  40751e:	6060      	str	r0, [r4, #4]
  407520:	608c      	str	r4, [r1, #8]
  407522:	d3b9      	bcc.n	407498 <_free_r+0x84>
  407524:	4b2d      	ldr	r3, [pc, #180]	; (4075dc <_free_r+0x1c8>)
  407526:	4640      	mov	r0, r8
  407528:	6819      	ldr	r1, [r3, #0]
  40752a:	f7ff ff23 	bl	407374 <_malloc_trim_r>
  40752e:	e7b3      	b.n	407498 <_free_r+0x84>
  407530:	4610      	mov	r0, r2
  407532:	e7cd      	b.n	4074d0 <_free_r+0xbc>
  407534:	1811      	adds	r1, r2, r0
  407536:	6849      	ldr	r1, [r1, #4]
  407538:	07c9      	lsls	r1, r1, #31
  40753a:	d444      	bmi.n	4075c6 <_free_r+0x1b2>
  40753c:	6891      	ldr	r1, [r2, #8]
  40753e:	68d2      	ldr	r2, [r2, #12]
  407540:	60ca      	str	r2, [r1, #12]
  407542:	4403      	add	r3, r0
  407544:	f043 0001 	orr.w	r0, r3, #1
  407548:	6091      	str	r1, [r2, #8]
  40754a:	6060      	str	r0, [r4, #4]
  40754c:	50e3      	str	r3, [r4, r3]
  40754e:	e7a3      	b.n	407498 <_free_r+0x84>
  407550:	2a14      	cmp	r2, #20
  407552:	d816      	bhi.n	407582 <_free_r+0x16e>
  407554:	f102 075c 	add.w	r7, r2, #92	; 0x5c
  407558:	00ff      	lsls	r7, r7, #3
  40755a:	f102 055b 	add.w	r5, r2, #91	; 0x5b
  40755e:	e7aa      	b.n	4074b6 <_free_r+0xa2>
  407560:	10aa      	asrs	r2, r5, #2
  407562:	2301      	movs	r3, #1
  407564:	684d      	ldr	r5, [r1, #4]
  407566:	4093      	lsls	r3, r2
  407568:	432b      	orrs	r3, r5
  40756a:	604b      	str	r3, [r1, #4]
  40756c:	4603      	mov	r3, r0
  40756e:	e7b0      	b.n	4074d2 <_free_r+0xbe>
  407570:	f043 0201 	orr.w	r2, r3, #1
  407574:	614c      	str	r4, [r1, #20]
  407576:	610c      	str	r4, [r1, #16]
  407578:	60e5      	str	r5, [r4, #12]
  40757a:	60a5      	str	r5, [r4, #8]
  40757c:	6062      	str	r2, [r4, #4]
  40757e:	50e3      	str	r3, [r4, r3]
  407580:	e78a      	b.n	407498 <_free_r+0x84>
  407582:	2a54      	cmp	r2, #84	; 0x54
  407584:	d806      	bhi.n	407594 <_free_r+0x180>
  407586:	0b1a      	lsrs	r2, r3, #12
  407588:	f102 076f 	add.w	r7, r2, #111	; 0x6f
  40758c:	00ff      	lsls	r7, r7, #3
  40758e:	f102 056e 	add.w	r5, r2, #110	; 0x6e
  407592:	e790      	b.n	4074b6 <_free_r+0xa2>
  407594:	f5b2 7faa 	cmp.w	r2, #340	; 0x154
  407598:	d806      	bhi.n	4075a8 <_free_r+0x194>
  40759a:	0bda      	lsrs	r2, r3, #15
  40759c:	f102 0778 	add.w	r7, r2, #120	; 0x78
  4075a0:	00ff      	lsls	r7, r7, #3
  4075a2:	f102 0577 	add.w	r5, r2, #119	; 0x77
  4075a6:	e786      	b.n	4074b6 <_free_r+0xa2>
  4075a8:	f240 5054 	movw	r0, #1364	; 0x554
  4075ac:	4282      	cmp	r2, r0
  4075ae:	d806      	bhi.n	4075be <_free_r+0x1aa>
  4075b0:	0c9a      	lsrs	r2, r3, #18
  4075b2:	f102 077d 	add.w	r7, r2, #125	; 0x7d
  4075b6:	00ff      	lsls	r7, r7, #3
  4075b8:	f102 057c 	add.w	r5, r2, #124	; 0x7c
  4075bc:	e77b      	b.n	4074b6 <_free_r+0xa2>
  4075be:	f44f 777e 	mov.w	r7, #1016	; 0x3f8
  4075c2:	257e      	movs	r5, #126	; 0x7e
  4075c4:	e777      	b.n	4074b6 <_free_r+0xa2>
  4075c6:	f043 0101 	orr.w	r1, r3, #1
  4075ca:	6061      	str	r1, [r4, #4]
  4075cc:	6013      	str	r3, [r2, #0]
  4075ce:	e763      	b.n	407498 <_free_r+0x84>
  4075d0:	20400478 	.word	0x20400478
  4075d4:	20400480 	.word	0x20400480
  4075d8:	20400884 	.word	0x20400884
  4075dc:	20428c30 	.word	0x20428c30

004075e0 <__sfvwrite_r>:
  4075e0:	6893      	ldr	r3, [r2, #8]
  4075e2:	2b00      	cmp	r3, #0
  4075e4:	d073      	beq.n	4076ce <__sfvwrite_r+0xee>
  4075e6:	e92d 4ff0 	stmdb	sp!, {r4, r5, r6, r7, r8, r9, sl, fp, lr}
  4075ea:	898b      	ldrh	r3, [r1, #12]
  4075ec:	b083      	sub	sp, #12
  4075ee:	460c      	mov	r4, r1
  4075f0:	0719      	lsls	r1, r3, #28
  4075f2:	9000      	str	r0, [sp, #0]
  4075f4:	4616      	mov	r6, r2
  4075f6:	d526      	bpl.n	407646 <__sfvwrite_r+0x66>
  4075f8:	6922      	ldr	r2, [r4, #16]
  4075fa:	b322      	cbz	r2, 407646 <__sfvwrite_r+0x66>
  4075fc:	f013 0002 	ands.w	r0, r3, #2
  407600:	6835      	ldr	r5, [r6, #0]
  407602:	d02c      	beq.n	40765e <__sfvwrite_r+0x7e>
  407604:	f04f 0900 	mov.w	r9, #0
  407608:	4fb0      	ldr	r7, [pc, #704]	; (4078cc <__sfvwrite_r+0x2ec>)
  40760a:	46c8      	mov	r8, r9
  40760c:	46b2      	mov	sl, r6
  40760e:	45b8      	cmp	r8, r7
  407610:	4643      	mov	r3, r8
  407612:	464a      	mov	r2, r9
  407614:	bf28      	it	cs
  407616:	463b      	movcs	r3, r7
  407618:	9800      	ldr	r0, [sp, #0]
  40761a:	f1b8 0f00 	cmp.w	r8, #0
  40761e:	d050      	beq.n	4076c2 <__sfvwrite_r+0xe2>
  407620:	69e1      	ldr	r1, [r4, #28]
  407622:	6a66      	ldr	r6, [r4, #36]	; 0x24
  407624:	47b0      	blx	r6
  407626:	2800      	cmp	r0, #0
  407628:	dd58      	ble.n	4076dc <__sfvwrite_r+0xfc>
  40762a:	f8da 3008 	ldr.w	r3, [sl, #8]
  40762e:	1a1b      	subs	r3, r3, r0
  407630:	4481      	add	r9, r0
  407632:	eba8 0800 	sub.w	r8, r8, r0
  407636:	f8ca 3008 	str.w	r3, [sl, #8]
  40763a:	2b00      	cmp	r3, #0
  40763c:	d1e7      	bne.n	40760e <__sfvwrite_r+0x2e>
  40763e:	2000      	movs	r0, #0
  407640:	b003      	add	sp, #12
  407642:	e8bd 8ff0 	ldmia.w	sp!, {r4, r5, r6, r7, r8, r9, sl, fp, pc}
  407646:	4621      	mov	r1, r4
  407648:	9800      	ldr	r0, [sp, #0]
  40764a:	f7ff fc51 	bl	406ef0 <__swsetup_r>
  40764e:	2800      	cmp	r0, #0
  407650:	f040 8133 	bne.w	4078ba <__sfvwrite_r+0x2da>
  407654:	89a3      	ldrh	r3, [r4, #12]
  407656:	6835      	ldr	r5, [r6, #0]
  407658:	f013 0002 	ands.w	r0, r3, #2
  40765c:	d1d2      	bne.n	407604 <__sfvwrite_r+0x24>
  40765e:	f013 0901 	ands.w	r9, r3, #1
  407662:	d145      	bne.n	4076f0 <__sfvwrite_r+0x110>
  407664:	464f      	mov	r7, r9
  407666:	9601      	str	r6, [sp, #4]
  407668:	b337      	cbz	r7, 4076b8 <__sfvwrite_r+0xd8>
  40766a:	059a      	lsls	r2, r3, #22
  40766c:	f8d4 8008 	ldr.w	r8, [r4, #8]
  407670:	f140 8083 	bpl.w	40777a <__sfvwrite_r+0x19a>
  407674:	4547      	cmp	r7, r8
  407676:	46c3      	mov	fp, r8
  407678:	f0c0 80ab 	bcc.w	4077d2 <__sfvwrite_r+0x1f2>
  40767c:	f413 6f90 	tst.w	r3, #1152	; 0x480
  407680:	f040 80ac 	bne.w	4077dc <__sfvwrite_r+0x1fc>
  407684:	6820      	ldr	r0, [r4, #0]
  407686:	46ba      	mov	sl, r7
  407688:	465a      	mov	r2, fp
  40768a:	4649      	mov	r1, r9
  40768c:	f000 fa40 	bl	407b10 <memmove>
  407690:	68a2      	ldr	r2, [r4, #8]
  407692:	6823      	ldr	r3, [r4, #0]
  407694:	eba2 0208 	sub.w	r2, r2, r8
  407698:	445b      	add	r3, fp
  40769a:	60a2      	str	r2, [r4, #8]
  40769c:	6023      	str	r3, [r4, #0]
  40769e:	9a01      	ldr	r2, [sp, #4]
  4076a0:	6893      	ldr	r3, [r2, #8]
  4076a2:	eba3 030a 	sub.w	r3, r3, sl
  4076a6:	44d1      	add	r9, sl
  4076a8:	eba7 070a 	sub.w	r7, r7, sl
  4076ac:	6093      	str	r3, [r2, #8]
  4076ae:	2b00      	cmp	r3, #0
  4076b0:	d0c5      	beq.n	40763e <__sfvwrite_r+0x5e>
  4076b2:	89a3      	ldrh	r3, [r4, #12]
  4076b4:	2f00      	cmp	r7, #0
  4076b6:	d1d8      	bne.n	40766a <__sfvwrite_r+0x8a>
  4076b8:	f8d5 9000 	ldr.w	r9, [r5]
  4076bc:	686f      	ldr	r7, [r5, #4]
  4076be:	3508      	adds	r5, #8
  4076c0:	e7d2      	b.n	407668 <__sfvwrite_r+0x88>
  4076c2:	f8d5 9000 	ldr.w	r9, [r5]
  4076c6:	f8d5 8004 	ldr.w	r8, [r5, #4]
  4076ca:	3508      	adds	r5, #8
  4076cc:	e79f      	b.n	40760e <__sfvwrite_r+0x2e>
  4076ce:	2000      	movs	r0, #0
  4076d0:	4770      	bx	lr
  4076d2:	4621      	mov	r1, r4
  4076d4:	9800      	ldr	r0, [sp, #0]
  4076d6:	f7ff fd1f 	bl	407118 <_fflush_r>
  4076da:	b370      	cbz	r0, 40773a <__sfvwrite_r+0x15a>
  4076dc:	f9b4 300c 	ldrsh.w	r3, [r4, #12]
  4076e0:	f043 0340 	orr.w	r3, r3, #64	; 0x40
  4076e4:	f04f 30ff 	mov.w	r0, #4294967295
  4076e8:	81a3      	strh	r3, [r4, #12]
  4076ea:	b003      	add	sp, #12
  4076ec:	e8bd 8ff0 	ldmia.w	sp!, {r4, r5, r6, r7, r8, r9, sl, fp, pc}
  4076f0:	4681      	mov	r9, r0
  4076f2:	4633      	mov	r3, r6
  4076f4:	464e      	mov	r6, r9
  4076f6:	46a8      	mov	r8, r5
  4076f8:	469a      	mov	sl, r3
  4076fa:	464d      	mov	r5, r9
  4076fc:	b34e      	cbz	r6, 407752 <__sfvwrite_r+0x172>
  4076fe:	b380      	cbz	r0, 407762 <__sfvwrite_r+0x182>
  407700:	6820      	ldr	r0, [r4, #0]
  407702:	6923      	ldr	r3, [r4, #16]
  407704:	6962      	ldr	r2, [r4, #20]
  407706:	45b1      	cmp	r9, r6
  407708:	46cb      	mov	fp, r9
  40770a:	bf28      	it	cs
  40770c:	46b3      	movcs	fp, r6
  40770e:	4298      	cmp	r0, r3
  407710:	465f      	mov	r7, fp
  407712:	d904      	bls.n	40771e <__sfvwrite_r+0x13e>
  407714:	68a3      	ldr	r3, [r4, #8]
  407716:	4413      	add	r3, r2
  407718:	459b      	cmp	fp, r3
  40771a:	f300 80a6 	bgt.w	40786a <__sfvwrite_r+0x28a>
  40771e:	4593      	cmp	fp, r2
  407720:	db4b      	blt.n	4077ba <__sfvwrite_r+0x1da>
  407722:	4613      	mov	r3, r2
  407724:	6a67      	ldr	r7, [r4, #36]	; 0x24
  407726:	69e1      	ldr	r1, [r4, #28]
  407728:	9800      	ldr	r0, [sp, #0]
  40772a:	462a      	mov	r2, r5
  40772c:	47b8      	blx	r7
  40772e:	1e07      	subs	r7, r0, #0
  407730:	ddd4      	ble.n	4076dc <__sfvwrite_r+0xfc>
  407732:	ebb9 0907 	subs.w	r9, r9, r7
  407736:	d0cc      	beq.n	4076d2 <__sfvwrite_r+0xf2>
  407738:	2001      	movs	r0, #1
  40773a:	f8da 3008 	ldr.w	r3, [sl, #8]
  40773e:	1bdb      	subs	r3, r3, r7
  407740:	443d      	add	r5, r7
  407742:	1bf6      	subs	r6, r6, r7
  407744:	f8ca 3008 	str.w	r3, [sl, #8]
  407748:	2b00      	cmp	r3, #0
  40774a:	f43f af78 	beq.w	40763e <__sfvwrite_r+0x5e>
  40774e:	2e00      	cmp	r6, #0
  407750:	d1d5      	bne.n	4076fe <__sfvwrite_r+0x11e>
  407752:	f108 0308 	add.w	r3, r8, #8
  407756:	e913 0060 	ldmdb	r3, {r5, r6}
  40775a:	4698      	mov	r8, r3
  40775c:	3308      	adds	r3, #8
  40775e:	2e00      	cmp	r6, #0
  407760:	d0f9      	beq.n	407756 <__sfvwrite_r+0x176>
  407762:	4632      	mov	r2, r6
  407764:	210a      	movs	r1, #10
  407766:	4628      	mov	r0, r5
  407768:	f000 f982 	bl	407a70 <memchr>
  40776c:	2800      	cmp	r0, #0
  40776e:	f000 80a1 	beq.w	4078b4 <__sfvwrite_r+0x2d4>
  407772:	3001      	adds	r0, #1
  407774:	eba0 0905 	sub.w	r9, r0, r5
  407778:	e7c2      	b.n	407700 <__sfvwrite_r+0x120>
  40777a:	6820      	ldr	r0, [r4, #0]
  40777c:	6923      	ldr	r3, [r4, #16]
  40777e:	4298      	cmp	r0, r3
  407780:	d802      	bhi.n	407788 <__sfvwrite_r+0x1a8>
  407782:	6963      	ldr	r3, [r4, #20]
  407784:	429f      	cmp	r7, r3
  407786:	d25d      	bcs.n	407844 <__sfvwrite_r+0x264>
  407788:	45b8      	cmp	r8, r7
  40778a:	bf28      	it	cs
  40778c:	46b8      	movcs	r8, r7
  40778e:	4642      	mov	r2, r8
  407790:	4649      	mov	r1, r9
  407792:	f000 f9bd 	bl	407b10 <memmove>
  407796:	68a3      	ldr	r3, [r4, #8]
  407798:	6822      	ldr	r2, [r4, #0]
  40779a:	eba3 0308 	sub.w	r3, r3, r8
  40779e:	4442      	add	r2, r8
  4077a0:	60a3      	str	r3, [r4, #8]
  4077a2:	6022      	str	r2, [r4, #0]
  4077a4:	b10b      	cbz	r3, 4077aa <__sfvwrite_r+0x1ca>
  4077a6:	46c2      	mov	sl, r8
  4077a8:	e779      	b.n	40769e <__sfvwrite_r+0xbe>
  4077aa:	4621      	mov	r1, r4
  4077ac:	9800      	ldr	r0, [sp, #0]
  4077ae:	f7ff fcb3 	bl	407118 <_fflush_r>
  4077b2:	2800      	cmp	r0, #0
  4077b4:	d192      	bne.n	4076dc <__sfvwrite_r+0xfc>
  4077b6:	46c2      	mov	sl, r8
  4077b8:	e771      	b.n	40769e <__sfvwrite_r+0xbe>
  4077ba:	465a      	mov	r2, fp
  4077bc:	4629      	mov	r1, r5
  4077be:	f000 f9a7 	bl	407b10 <memmove>
  4077c2:	68a2      	ldr	r2, [r4, #8]
  4077c4:	6823      	ldr	r3, [r4, #0]
  4077c6:	eba2 020b 	sub.w	r2, r2, fp
  4077ca:	445b      	add	r3, fp
  4077cc:	60a2      	str	r2, [r4, #8]
  4077ce:	6023      	str	r3, [r4, #0]
  4077d0:	e7af      	b.n	407732 <__sfvwrite_r+0x152>
  4077d2:	6820      	ldr	r0, [r4, #0]
  4077d4:	46b8      	mov	r8, r7
  4077d6:	46ba      	mov	sl, r7
  4077d8:	46bb      	mov	fp, r7
  4077da:	e755      	b.n	407688 <__sfvwrite_r+0xa8>
  4077dc:	6962      	ldr	r2, [r4, #20]
  4077de:	6820      	ldr	r0, [r4, #0]
  4077e0:	6921      	ldr	r1, [r4, #16]
  4077e2:	eb02 0842 	add.w	r8, r2, r2, lsl #1
  4077e6:	eba0 0a01 	sub.w	sl, r0, r1
  4077ea:	eb08 78d8 	add.w	r8, r8, r8, lsr #31
  4077ee:	f10a 0001 	add.w	r0, sl, #1
  4077f2:	ea4f 0868 	mov.w	r8, r8, asr #1
  4077f6:	4438      	add	r0, r7
  4077f8:	4540      	cmp	r0, r8
  4077fa:	4642      	mov	r2, r8
  4077fc:	bf84      	itt	hi
  4077fe:	4680      	movhi	r8, r0
  407800:	4642      	movhi	r2, r8
  407802:	055b      	lsls	r3, r3, #21
  407804:	d544      	bpl.n	407890 <__sfvwrite_r+0x2b0>
  407806:	4611      	mov	r1, r2
  407808:	9800      	ldr	r0, [sp, #0]
  40780a:	f7fe f86f 	bl	4058ec <_malloc_r>
  40780e:	4683      	mov	fp, r0
  407810:	2800      	cmp	r0, #0
  407812:	d055      	beq.n	4078c0 <__sfvwrite_r+0x2e0>
  407814:	4652      	mov	r2, sl
  407816:	6921      	ldr	r1, [r4, #16]
  407818:	f7fe fb18 	bl	405e4c <memcpy>
  40781c:	89a3      	ldrh	r3, [r4, #12]
  40781e:	f423 6390 	bic.w	r3, r3, #1152	; 0x480
  407822:	f043 0380 	orr.w	r3, r3, #128	; 0x80
  407826:	81a3      	strh	r3, [r4, #12]
  407828:	eb0b 000a 	add.w	r0, fp, sl
  40782c:	eba8 030a 	sub.w	r3, r8, sl
  407830:	f8c4 b010 	str.w	fp, [r4, #16]
  407834:	f8c4 8014 	str.w	r8, [r4, #20]
  407838:	6020      	str	r0, [r4, #0]
  40783a:	60a3      	str	r3, [r4, #8]
  40783c:	46b8      	mov	r8, r7
  40783e:	46ba      	mov	sl, r7
  407840:	46bb      	mov	fp, r7
  407842:	e721      	b.n	407688 <__sfvwrite_r+0xa8>
  407844:	f06f 4100 	mvn.w	r1, #2147483648	; 0x80000000
  407848:	42b9      	cmp	r1, r7
  40784a:	bf28      	it	cs
  40784c:	4639      	movcs	r1, r7
  40784e:	464a      	mov	r2, r9
  407850:	fb91 f1f3 	sdiv	r1, r1, r3
  407854:	9800      	ldr	r0, [sp, #0]
  407856:	6a66      	ldr	r6, [r4, #36]	; 0x24
  407858:	fb03 f301 	mul.w	r3, r3, r1
  40785c:	69e1      	ldr	r1, [r4, #28]
  40785e:	47b0      	blx	r6
  407860:	f1b0 0a00 	subs.w	sl, r0, #0
  407864:	f73f af1b 	bgt.w	40769e <__sfvwrite_r+0xbe>
  407868:	e738      	b.n	4076dc <__sfvwrite_r+0xfc>
  40786a:	461a      	mov	r2, r3
  40786c:	4629      	mov	r1, r5
  40786e:	9301      	str	r3, [sp, #4]
  407870:	f000 f94e 	bl	407b10 <memmove>
  407874:	6822      	ldr	r2, [r4, #0]
  407876:	9b01      	ldr	r3, [sp, #4]
  407878:	9800      	ldr	r0, [sp, #0]
  40787a:	441a      	add	r2, r3
  40787c:	6022      	str	r2, [r4, #0]
  40787e:	4621      	mov	r1, r4
  407880:	f7ff fc4a 	bl	407118 <_fflush_r>
  407884:	9b01      	ldr	r3, [sp, #4]
  407886:	2800      	cmp	r0, #0
  407888:	f47f af28 	bne.w	4076dc <__sfvwrite_r+0xfc>
  40788c:	461f      	mov	r7, r3
  40788e:	e750      	b.n	407732 <__sfvwrite_r+0x152>
  407890:	9800      	ldr	r0, [sp, #0]
  407892:	f000 f9a1 	bl	407bd8 <_realloc_r>
  407896:	4683      	mov	fp, r0
  407898:	2800      	cmp	r0, #0
  40789a:	d1c5      	bne.n	407828 <__sfvwrite_r+0x248>
  40789c:	9d00      	ldr	r5, [sp, #0]
  40789e:	6921      	ldr	r1, [r4, #16]
  4078a0:	4628      	mov	r0, r5
  4078a2:	f7ff fdb7 	bl	407414 <_free_r>
  4078a6:	f9b4 300c 	ldrsh.w	r3, [r4, #12]
  4078aa:	220c      	movs	r2, #12
  4078ac:	f023 0380 	bic.w	r3, r3, #128	; 0x80
  4078b0:	602a      	str	r2, [r5, #0]
  4078b2:	e715      	b.n	4076e0 <__sfvwrite_r+0x100>
  4078b4:	f106 0901 	add.w	r9, r6, #1
  4078b8:	e722      	b.n	407700 <__sfvwrite_r+0x120>
  4078ba:	f04f 30ff 	mov.w	r0, #4294967295
  4078be:	e6bf      	b.n	407640 <__sfvwrite_r+0x60>
  4078c0:	9a00      	ldr	r2, [sp, #0]
  4078c2:	230c      	movs	r3, #12
  4078c4:	6013      	str	r3, [r2, #0]
  4078c6:	f9b4 300c 	ldrsh.w	r3, [r4, #12]
  4078ca:	e709      	b.n	4076e0 <__sfvwrite_r+0x100>
  4078cc:	7ffffc00 	.word	0x7ffffc00

004078d0 <_fwalk_reent>:
  4078d0:	e92d 43f8 	stmdb	sp!, {r3, r4, r5, r6, r7, r8, r9, lr}
  4078d4:	f510 7738 	adds.w	r7, r0, #736	; 0x2e0
  4078d8:	d01f      	beq.n	40791a <_fwalk_reent+0x4a>
  4078da:	4688      	mov	r8, r1
  4078dc:	4606      	mov	r6, r0
  4078de:	f04f 0900 	mov.w	r9, #0
  4078e2:	687d      	ldr	r5, [r7, #4]
  4078e4:	68bc      	ldr	r4, [r7, #8]
  4078e6:	3d01      	subs	r5, #1
  4078e8:	d411      	bmi.n	40790e <_fwalk_reent+0x3e>
  4078ea:	89a3      	ldrh	r3, [r4, #12]
  4078ec:	2b01      	cmp	r3, #1
  4078ee:	f105 35ff 	add.w	r5, r5, #4294967295
  4078f2:	d908      	bls.n	407906 <_fwalk_reent+0x36>
  4078f4:	f9b4 300e 	ldrsh.w	r3, [r4, #14]
  4078f8:	3301      	adds	r3, #1
  4078fa:	4621      	mov	r1, r4
  4078fc:	4630      	mov	r0, r6
  4078fe:	d002      	beq.n	407906 <_fwalk_reent+0x36>
  407900:	47c0      	blx	r8
  407902:	ea49 0900 	orr.w	r9, r9, r0
  407906:	1c6b      	adds	r3, r5, #1
  407908:	f104 0468 	add.w	r4, r4, #104	; 0x68
  40790c:	d1ed      	bne.n	4078ea <_fwalk_reent+0x1a>
  40790e:	683f      	ldr	r7, [r7, #0]
  407910:	2f00      	cmp	r7, #0
  407912:	d1e6      	bne.n	4078e2 <_fwalk_reent+0x12>
  407914:	4648      	mov	r0, r9
  407916:	e8bd 83f8 	ldmia.w	sp!, {r3, r4, r5, r6, r7, r8, r9, pc}
  40791a:	46b9      	mov	r9, r7
  40791c:	4648      	mov	r0, r9
  40791e:	e8bd 83f8 	ldmia.w	sp!, {r3, r4, r5, r6, r7, r8, r9, pc}
  407922:	bf00      	nop

00407924 <__locale_mb_cur_max>:
  407924:	4b04      	ldr	r3, [pc, #16]	; (407938 <__locale_mb_cur_max+0x14>)
  407926:	4a05      	ldr	r2, [pc, #20]	; (40793c <__locale_mb_cur_max+0x18>)
  407928:	681b      	ldr	r3, [r3, #0]
  40792a:	6b5b      	ldr	r3, [r3, #52]	; 0x34
  40792c:	2b00      	cmp	r3, #0
  40792e:	bf08      	it	eq
  407930:	4613      	moveq	r3, r2
  407932:	f893 0128 	ldrb.w	r0, [r3, #296]	; 0x128
  407936:	4770      	bx	lr
  407938:	20400048 	.word	0x20400048
  40793c:	2040088c 	.word	0x2040088c

00407940 <__retarget_lock_init_recursive>:
  407940:	4770      	bx	lr
  407942:	bf00      	nop

00407944 <__retarget_lock_close_recursive>:
  407944:	4770      	bx	lr
  407946:	bf00      	nop

00407948 <__retarget_lock_acquire_recursive>:
  407948:	4770      	bx	lr
  40794a:	bf00      	nop

0040794c <__retarget_lock_release_recursive>:
  40794c:	4770      	bx	lr
  40794e:	bf00      	nop

00407950 <__swhatbuf_r>:
  407950:	b570      	push	{r4, r5, r6, lr}
  407952:	460c      	mov	r4, r1
  407954:	f9b1 100e 	ldrsh.w	r1, [r1, #14]
  407958:	2900      	cmp	r1, #0
  40795a:	b090      	sub	sp, #64	; 0x40
  40795c:	4615      	mov	r5, r2
  40795e:	461e      	mov	r6, r3
  407960:	db14      	blt.n	40798c <__swhatbuf_r+0x3c>
  407962:	aa01      	add	r2, sp, #4
  407964:	f000 fc9e 	bl	4082a4 <_fstat_r>
  407968:	2800      	cmp	r0, #0
  40796a:	db0f      	blt.n	40798c <__swhatbuf_r+0x3c>
  40796c:	9a02      	ldr	r2, [sp, #8]
  40796e:	f402 4270 	and.w	r2, r2, #61440	; 0xf000
  407972:	f5a2 5200 	sub.w	r2, r2, #8192	; 0x2000
  407976:	fab2 f282 	clz	r2, r2
  40797a:	0952      	lsrs	r2, r2, #5
  40797c:	f44f 6380 	mov.w	r3, #1024	; 0x400
  407980:	f44f 6000 	mov.w	r0, #2048	; 0x800
  407984:	6032      	str	r2, [r6, #0]
  407986:	602b      	str	r3, [r5, #0]
  407988:	b010      	add	sp, #64	; 0x40
  40798a:	bd70      	pop	{r4, r5, r6, pc}
  40798c:	89a2      	ldrh	r2, [r4, #12]
  40798e:	2300      	movs	r3, #0
  407990:	f012 0080 	ands.w	r0, r2, #128	; 0x80
  407994:	6033      	str	r3, [r6, #0]
  407996:	d004      	beq.n	4079a2 <__swhatbuf_r+0x52>
  407998:	2240      	movs	r2, #64	; 0x40
  40799a:	4618      	mov	r0, r3
  40799c:	602a      	str	r2, [r5, #0]
  40799e:	b010      	add	sp, #64	; 0x40
  4079a0:	bd70      	pop	{r4, r5, r6, pc}
  4079a2:	f44f 6380 	mov.w	r3, #1024	; 0x400
  4079a6:	602b      	str	r3, [r5, #0]
  4079a8:	b010      	add	sp, #64	; 0x40
  4079aa:	bd70      	pop	{r4, r5, r6, pc}

004079ac <__smakebuf_r>:
  4079ac:	898a      	ldrh	r2, [r1, #12]
  4079ae:	0792      	lsls	r2, r2, #30
  4079b0:	460b      	mov	r3, r1
  4079b2:	d506      	bpl.n	4079c2 <__smakebuf_r+0x16>
  4079b4:	f101 0243 	add.w	r2, r1, #67	; 0x43
  4079b8:	2101      	movs	r1, #1
  4079ba:	601a      	str	r2, [r3, #0]
  4079bc:	611a      	str	r2, [r3, #16]
  4079be:	6159      	str	r1, [r3, #20]
  4079c0:	4770      	bx	lr
  4079c2:	b5f0      	push	{r4, r5, r6, r7, lr}
  4079c4:	b083      	sub	sp, #12
  4079c6:	ab01      	add	r3, sp, #4
  4079c8:	466a      	mov	r2, sp
  4079ca:	460c      	mov	r4, r1
  4079cc:	4606      	mov	r6, r0
  4079ce:	f7ff ffbf 	bl	407950 <__swhatbuf_r>
  4079d2:	9900      	ldr	r1, [sp, #0]
  4079d4:	4605      	mov	r5, r0
  4079d6:	4630      	mov	r0, r6
  4079d8:	f7fd ff88 	bl	4058ec <_malloc_r>
  4079dc:	f9b4 300c 	ldrsh.w	r3, [r4, #12]
  4079e0:	b1d8      	cbz	r0, 407a1a <__smakebuf_r+0x6e>
  4079e2:	9a01      	ldr	r2, [sp, #4]
  4079e4:	4f15      	ldr	r7, [pc, #84]	; (407a3c <__smakebuf_r+0x90>)
  4079e6:	9900      	ldr	r1, [sp, #0]
  4079e8:	63f7      	str	r7, [r6, #60]	; 0x3c
  4079ea:	f043 0380 	orr.w	r3, r3, #128	; 0x80
  4079ee:	81a3      	strh	r3, [r4, #12]
  4079f0:	6020      	str	r0, [r4, #0]
  4079f2:	6120      	str	r0, [r4, #16]
  4079f4:	6161      	str	r1, [r4, #20]
  4079f6:	b91a      	cbnz	r2, 407a00 <__smakebuf_r+0x54>
  4079f8:	432b      	orrs	r3, r5
  4079fa:	81a3      	strh	r3, [r4, #12]
  4079fc:	b003      	add	sp, #12
  4079fe:	bdf0      	pop	{r4, r5, r6, r7, pc}
  407a00:	4630      	mov	r0, r6
  407a02:	f9b4 100e 	ldrsh.w	r1, [r4, #14]
  407a06:	f000 fc61 	bl	4082cc <_isatty_r>
  407a0a:	b1a0      	cbz	r0, 407a36 <__smakebuf_r+0x8a>
  407a0c:	89a3      	ldrh	r3, [r4, #12]
  407a0e:	f023 0303 	bic.w	r3, r3, #3
  407a12:	f043 0301 	orr.w	r3, r3, #1
  407a16:	b21b      	sxth	r3, r3
  407a18:	e7ee      	b.n	4079f8 <__smakebuf_r+0x4c>
  407a1a:	059a      	lsls	r2, r3, #22
  407a1c:	d4ee      	bmi.n	4079fc <__smakebuf_r+0x50>
  407a1e:	f023 0303 	bic.w	r3, r3, #3
  407a22:	f104 0243 	add.w	r2, r4, #67	; 0x43
  407a26:	f043 0302 	orr.w	r3, r3, #2
  407a2a:	2101      	movs	r1, #1
  407a2c:	81a3      	strh	r3, [r4, #12]
  407a2e:	6022      	str	r2, [r4, #0]
  407a30:	6122      	str	r2, [r4, #16]
  407a32:	6161      	str	r1, [r4, #20]
  407a34:	e7e2      	b.n	4079fc <__smakebuf_r+0x50>
  407a36:	f9b4 300c 	ldrsh.w	r3, [r4, #12]
  407a3a:	e7dd      	b.n	4079f8 <__smakebuf_r+0x4c>
  407a3c:	0040716d 	.word	0x0040716d

00407a40 <__ascii_mbtowc>:
  407a40:	b082      	sub	sp, #8
  407a42:	b149      	cbz	r1, 407a58 <__ascii_mbtowc+0x18>
  407a44:	b15a      	cbz	r2, 407a5e <__ascii_mbtowc+0x1e>
  407a46:	b16b      	cbz	r3, 407a64 <__ascii_mbtowc+0x24>
  407a48:	7813      	ldrb	r3, [r2, #0]
  407a4a:	600b      	str	r3, [r1, #0]
  407a4c:	7812      	ldrb	r2, [r2, #0]
  407a4e:	1c10      	adds	r0, r2, #0
  407a50:	bf18      	it	ne
  407a52:	2001      	movne	r0, #1
  407a54:	b002      	add	sp, #8
  407a56:	4770      	bx	lr
  407a58:	a901      	add	r1, sp, #4
  407a5a:	2a00      	cmp	r2, #0
  407a5c:	d1f3      	bne.n	407a46 <__ascii_mbtowc+0x6>
  407a5e:	4610      	mov	r0, r2
  407a60:	b002      	add	sp, #8
  407a62:	4770      	bx	lr
  407a64:	f06f 0001 	mvn.w	r0, #1
  407a68:	e7f4      	b.n	407a54 <__ascii_mbtowc+0x14>
  407a6a:	bf00      	nop
  407a6c:	0000      	movs	r0, r0
	...

00407a70 <memchr>:
  407a70:	f001 01ff 	and.w	r1, r1, #255	; 0xff
  407a74:	2a10      	cmp	r2, #16
  407a76:	db2b      	blt.n	407ad0 <memchr+0x60>
  407a78:	f010 0f07 	tst.w	r0, #7
  407a7c:	d008      	beq.n	407a90 <memchr+0x20>
  407a7e:	f810 3b01 	ldrb.w	r3, [r0], #1
  407a82:	3a01      	subs	r2, #1
  407a84:	428b      	cmp	r3, r1
  407a86:	d02d      	beq.n	407ae4 <memchr+0x74>
  407a88:	f010 0f07 	tst.w	r0, #7
  407a8c:	b342      	cbz	r2, 407ae0 <memchr+0x70>
  407a8e:	d1f6      	bne.n	407a7e <memchr+0xe>
  407a90:	b4f0      	push	{r4, r5, r6, r7}
  407a92:	ea41 2101 	orr.w	r1, r1, r1, lsl #8
  407a96:	ea41 4101 	orr.w	r1, r1, r1, lsl #16
  407a9a:	f022 0407 	bic.w	r4, r2, #7
  407a9e:	f07f 0700 	mvns.w	r7, #0
  407aa2:	2300      	movs	r3, #0
  407aa4:	e8f0 5602 	ldrd	r5, r6, [r0], #8
  407aa8:	3c08      	subs	r4, #8
  407aaa:	ea85 0501 	eor.w	r5, r5, r1
  407aae:	ea86 0601 	eor.w	r6, r6, r1
  407ab2:	fa85 f547 	uadd8	r5, r5, r7
  407ab6:	faa3 f587 	sel	r5, r3, r7
  407aba:	fa86 f647 	uadd8	r6, r6, r7
  407abe:	faa5 f687 	sel	r6, r5, r7
  407ac2:	b98e      	cbnz	r6, 407ae8 <memchr+0x78>
  407ac4:	d1ee      	bne.n	407aa4 <memchr+0x34>
  407ac6:	bcf0      	pop	{r4, r5, r6, r7}
  407ac8:	f001 01ff 	and.w	r1, r1, #255	; 0xff
  407acc:	f002 0207 	and.w	r2, r2, #7
  407ad0:	b132      	cbz	r2, 407ae0 <memchr+0x70>
  407ad2:	f810 3b01 	ldrb.w	r3, [r0], #1
  407ad6:	3a01      	subs	r2, #1
  407ad8:	ea83 0301 	eor.w	r3, r3, r1
  407adc:	b113      	cbz	r3, 407ae4 <memchr+0x74>
  407ade:	d1f8      	bne.n	407ad2 <memchr+0x62>
  407ae0:	2000      	movs	r0, #0
  407ae2:	4770      	bx	lr
  407ae4:	3801      	subs	r0, #1
  407ae6:	4770      	bx	lr
  407ae8:	2d00      	cmp	r5, #0
  407aea:	bf06      	itte	eq
  407aec:	4635      	moveq	r5, r6
  407aee:	3803      	subeq	r0, #3
  407af0:	3807      	subne	r0, #7
  407af2:	f015 0f01 	tst.w	r5, #1
  407af6:	d107      	bne.n	407b08 <memchr+0x98>
  407af8:	3001      	adds	r0, #1
  407afa:	f415 7f80 	tst.w	r5, #256	; 0x100
  407afe:	bf02      	ittt	eq
  407b00:	3001      	addeq	r0, #1
  407b02:	f415 3fc0 	tsteq.w	r5, #98304	; 0x18000
  407b06:	3001      	addeq	r0, #1
  407b08:	bcf0      	pop	{r4, r5, r6, r7}
  407b0a:	3801      	subs	r0, #1
  407b0c:	4770      	bx	lr
  407b0e:	bf00      	nop

00407b10 <memmove>:
  407b10:	4288      	cmp	r0, r1
  407b12:	b5f0      	push	{r4, r5, r6, r7, lr}
  407b14:	d90d      	bls.n	407b32 <memmove+0x22>
  407b16:	188b      	adds	r3, r1, r2
  407b18:	4298      	cmp	r0, r3
  407b1a:	d20a      	bcs.n	407b32 <memmove+0x22>
  407b1c:	1884      	adds	r4, r0, r2
  407b1e:	2a00      	cmp	r2, #0
  407b20:	d051      	beq.n	407bc6 <memmove+0xb6>
  407b22:	4622      	mov	r2, r4
  407b24:	f813 4d01 	ldrb.w	r4, [r3, #-1]!
  407b28:	f802 4d01 	strb.w	r4, [r2, #-1]!
  407b2c:	4299      	cmp	r1, r3
  407b2e:	d1f9      	bne.n	407b24 <memmove+0x14>
  407b30:	bdf0      	pop	{r4, r5, r6, r7, pc}
  407b32:	2a0f      	cmp	r2, #15
  407b34:	d948      	bls.n	407bc8 <memmove+0xb8>
  407b36:	ea41 0300 	orr.w	r3, r1, r0
  407b3a:	079b      	lsls	r3, r3, #30
  407b3c:	d146      	bne.n	407bcc <memmove+0xbc>
  407b3e:	f100 0410 	add.w	r4, r0, #16
  407b42:	f101 0310 	add.w	r3, r1, #16
  407b46:	4615      	mov	r5, r2
  407b48:	f853 6c10 	ldr.w	r6, [r3, #-16]
  407b4c:	f844 6c10 	str.w	r6, [r4, #-16]
  407b50:	f853 6c0c 	ldr.w	r6, [r3, #-12]
  407b54:	f844 6c0c 	str.w	r6, [r4, #-12]
  407b58:	f853 6c08 	ldr.w	r6, [r3, #-8]
  407b5c:	f844 6c08 	str.w	r6, [r4, #-8]
  407b60:	3d10      	subs	r5, #16
  407b62:	f853 6c04 	ldr.w	r6, [r3, #-4]
  407b66:	f844 6c04 	str.w	r6, [r4, #-4]
  407b6a:	2d0f      	cmp	r5, #15
  407b6c:	f103 0310 	add.w	r3, r3, #16
  407b70:	f104 0410 	add.w	r4, r4, #16
  407b74:	d8e8      	bhi.n	407b48 <memmove+0x38>
  407b76:	f1a2 0310 	sub.w	r3, r2, #16
  407b7a:	f023 030f 	bic.w	r3, r3, #15
  407b7e:	f002 0e0f 	and.w	lr, r2, #15
  407b82:	3310      	adds	r3, #16
  407b84:	f1be 0f03 	cmp.w	lr, #3
  407b88:	4419      	add	r1, r3
  407b8a:	4403      	add	r3, r0
  407b8c:	d921      	bls.n	407bd2 <memmove+0xc2>
  407b8e:	1f1e      	subs	r6, r3, #4
  407b90:	460d      	mov	r5, r1
  407b92:	4674      	mov	r4, lr
  407b94:	3c04      	subs	r4, #4
  407b96:	f855 7b04 	ldr.w	r7, [r5], #4
  407b9a:	f846 7f04 	str.w	r7, [r6, #4]!
  407b9e:	2c03      	cmp	r4, #3
  407ba0:	d8f8      	bhi.n	407b94 <memmove+0x84>
  407ba2:	f1ae 0404 	sub.w	r4, lr, #4
  407ba6:	f024 0403 	bic.w	r4, r4, #3
  407baa:	3404      	adds	r4, #4
  407bac:	4421      	add	r1, r4
  407bae:	4423      	add	r3, r4
  407bb0:	f002 0203 	and.w	r2, r2, #3
  407bb4:	b162      	cbz	r2, 407bd0 <memmove+0xc0>
  407bb6:	3b01      	subs	r3, #1
  407bb8:	440a      	add	r2, r1
  407bba:	f811 4b01 	ldrb.w	r4, [r1], #1
  407bbe:	f803 4f01 	strb.w	r4, [r3, #1]!
  407bc2:	428a      	cmp	r2, r1
  407bc4:	d1f9      	bne.n	407bba <memmove+0xaa>
  407bc6:	bdf0      	pop	{r4, r5, r6, r7, pc}
  407bc8:	4603      	mov	r3, r0
  407bca:	e7f3      	b.n	407bb4 <memmove+0xa4>
  407bcc:	4603      	mov	r3, r0
  407bce:	e7f2      	b.n	407bb6 <memmove+0xa6>
  407bd0:	bdf0      	pop	{r4, r5, r6, r7, pc}
  407bd2:	4672      	mov	r2, lr
  407bd4:	e7ee      	b.n	407bb4 <memmove+0xa4>
  407bd6:	bf00      	nop

00407bd8 <_realloc_r>:
  407bd8:	2900      	cmp	r1, #0
  407bda:	f000 8095 	beq.w	407d08 <_realloc_r+0x130>
  407bde:	e92d 4ff0 	stmdb	sp!, {r4, r5, r6, r7, r8, r9, sl, fp, lr}
  407be2:	460d      	mov	r5, r1
  407be4:	4616      	mov	r6, r2
  407be6:	b083      	sub	sp, #12
  407be8:	4680      	mov	r8, r0
  407bea:	f106 070b 	add.w	r7, r6, #11
  407bee:	f7fe fa15 	bl	40601c <__malloc_lock>
  407bf2:	f855 ec04 	ldr.w	lr, [r5, #-4]
  407bf6:	2f16      	cmp	r7, #22
  407bf8:	f02e 0403 	bic.w	r4, lr, #3
  407bfc:	f1a5 0908 	sub.w	r9, r5, #8
  407c00:	d83c      	bhi.n	407c7c <_realloc_r+0xa4>
  407c02:	2210      	movs	r2, #16
  407c04:	4617      	mov	r7, r2
  407c06:	42be      	cmp	r6, r7
  407c08:	d83d      	bhi.n	407c86 <_realloc_r+0xae>
  407c0a:	4294      	cmp	r4, r2
  407c0c:	da43      	bge.n	407c96 <_realloc_r+0xbe>
  407c0e:	4bc4      	ldr	r3, [pc, #784]	; (407f20 <_realloc_r+0x348>)
  407c10:	6899      	ldr	r1, [r3, #8]
  407c12:	eb09 0004 	add.w	r0, r9, r4
  407c16:	4288      	cmp	r0, r1
  407c18:	f000 80b4 	beq.w	407d84 <_realloc_r+0x1ac>
  407c1c:	6843      	ldr	r3, [r0, #4]
  407c1e:	f023 0101 	bic.w	r1, r3, #1
  407c22:	4401      	add	r1, r0
  407c24:	6849      	ldr	r1, [r1, #4]
  407c26:	07c9      	lsls	r1, r1, #31
  407c28:	d54c      	bpl.n	407cc4 <_realloc_r+0xec>
  407c2a:	f01e 0f01 	tst.w	lr, #1
  407c2e:	f000 809b 	beq.w	407d68 <_realloc_r+0x190>
  407c32:	4631      	mov	r1, r6
  407c34:	4640      	mov	r0, r8
  407c36:	f7fd fe59 	bl	4058ec <_malloc_r>
  407c3a:	4606      	mov	r6, r0
  407c3c:	2800      	cmp	r0, #0
  407c3e:	d03a      	beq.n	407cb6 <_realloc_r+0xde>
  407c40:	f855 3c04 	ldr.w	r3, [r5, #-4]
  407c44:	f023 0301 	bic.w	r3, r3, #1
  407c48:	444b      	add	r3, r9
  407c4a:	f1a0 0208 	sub.w	r2, r0, #8
  407c4e:	429a      	cmp	r2, r3
  407c50:	f000 8121 	beq.w	407e96 <_realloc_r+0x2be>
  407c54:	1f22      	subs	r2, r4, #4
  407c56:	2a24      	cmp	r2, #36	; 0x24
  407c58:	f200 8107 	bhi.w	407e6a <_realloc_r+0x292>
  407c5c:	2a13      	cmp	r2, #19
  407c5e:	f200 80db 	bhi.w	407e18 <_realloc_r+0x240>
  407c62:	4603      	mov	r3, r0
  407c64:	462a      	mov	r2, r5
  407c66:	6811      	ldr	r1, [r2, #0]
  407c68:	6019      	str	r1, [r3, #0]
  407c6a:	6851      	ldr	r1, [r2, #4]
  407c6c:	6059      	str	r1, [r3, #4]
  407c6e:	6892      	ldr	r2, [r2, #8]
  407c70:	609a      	str	r2, [r3, #8]
  407c72:	4629      	mov	r1, r5
  407c74:	4640      	mov	r0, r8
  407c76:	f7ff fbcd 	bl	407414 <_free_r>
  407c7a:	e01c      	b.n	407cb6 <_realloc_r+0xde>
  407c7c:	f027 0707 	bic.w	r7, r7, #7
  407c80:	2f00      	cmp	r7, #0
  407c82:	463a      	mov	r2, r7
  407c84:	dabf      	bge.n	407c06 <_realloc_r+0x2e>
  407c86:	2600      	movs	r6, #0
  407c88:	230c      	movs	r3, #12
  407c8a:	4630      	mov	r0, r6
  407c8c:	f8c8 3000 	str.w	r3, [r8]
  407c90:	b003      	add	sp, #12
  407c92:	e8bd 8ff0 	ldmia.w	sp!, {r4, r5, r6, r7, r8, r9, sl, fp, pc}
  407c96:	462e      	mov	r6, r5
  407c98:	1be3      	subs	r3, r4, r7
  407c9a:	2b0f      	cmp	r3, #15
  407c9c:	d81e      	bhi.n	407cdc <_realloc_r+0x104>
  407c9e:	f8d9 3004 	ldr.w	r3, [r9, #4]
  407ca2:	f003 0301 	and.w	r3, r3, #1
  407ca6:	4323      	orrs	r3, r4
  407ca8:	444c      	add	r4, r9
  407caa:	f8c9 3004 	str.w	r3, [r9, #4]
  407cae:	6863      	ldr	r3, [r4, #4]
  407cb0:	f043 0301 	orr.w	r3, r3, #1
  407cb4:	6063      	str	r3, [r4, #4]
  407cb6:	4640      	mov	r0, r8
  407cb8:	f7fe f9b6 	bl	406028 <__malloc_unlock>
  407cbc:	4630      	mov	r0, r6
  407cbe:	b003      	add	sp, #12
  407cc0:	e8bd 8ff0 	ldmia.w	sp!, {r4, r5, r6, r7, r8, r9, sl, fp, pc}
  407cc4:	f023 0303 	bic.w	r3, r3, #3
  407cc8:	18e1      	adds	r1, r4, r3
  407cca:	4291      	cmp	r1, r2
  407ccc:	db1f      	blt.n	407d0e <_realloc_r+0x136>
  407cce:	68c3      	ldr	r3, [r0, #12]
  407cd0:	6882      	ldr	r2, [r0, #8]
  407cd2:	462e      	mov	r6, r5
  407cd4:	60d3      	str	r3, [r2, #12]
  407cd6:	460c      	mov	r4, r1
  407cd8:	609a      	str	r2, [r3, #8]
  407cda:	e7dd      	b.n	407c98 <_realloc_r+0xc0>
  407cdc:	f8d9 2004 	ldr.w	r2, [r9, #4]
  407ce0:	eb09 0107 	add.w	r1, r9, r7
  407ce4:	f002 0201 	and.w	r2, r2, #1
  407ce8:	444c      	add	r4, r9
  407cea:	f043 0301 	orr.w	r3, r3, #1
  407cee:	4317      	orrs	r7, r2
  407cf0:	f8c9 7004 	str.w	r7, [r9, #4]
  407cf4:	604b      	str	r3, [r1, #4]
  407cf6:	6863      	ldr	r3, [r4, #4]
  407cf8:	f043 0301 	orr.w	r3, r3, #1
  407cfc:	3108      	adds	r1, #8
  407cfe:	6063      	str	r3, [r4, #4]
  407d00:	4640      	mov	r0, r8
  407d02:	f7ff fb87 	bl	407414 <_free_r>
  407d06:	e7d6      	b.n	407cb6 <_realloc_r+0xde>
  407d08:	4611      	mov	r1, r2
  407d0a:	f7fd bdef 	b.w	4058ec <_malloc_r>
  407d0e:	f01e 0f01 	tst.w	lr, #1
  407d12:	d18e      	bne.n	407c32 <_realloc_r+0x5a>
  407d14:	f855 1c08 	ldr.w	r1, [r5, #-8]
  407d18:	eba9 0a01 	sub.w	sl, r9, r1
  407d1c:	f8da 1004 	ldr.w	r1, [sl, #4]
  407d20:	f021 0103 	bic.w	r1, r1, #3
  407d24:	440b      	add	r3, r1
  407d26:	4423      	add	r3, r4
  407d28:	4293      	cmp	r3, r2
  407d2a:	db25      	blt.n	407d78 <_realloc_r+0x1a0>
  407d2c:	68c2      	ldr	r2, [r0, #12]
  407d2e:	6881      	ldr	r1, [r0, #8]
  407d30:	4656      	mov	r6, sl
  407d32:	60ca      	str	r2, [r1, #12]
  407d34:	6091      	str	r1, [r2, #8]
  407d36:	f8da 100c 	ldr.w	r1, [sl, #12]
  407d3a:	f856 0f08 	ldr.w	r0, [r6, #8]!
  407d3e:	1f22      	subs	r2, r4, #4
  407d40:	2a24      	cmp	r2, #36	; 0x24
  407d42:	60c1      	str	r1, [r0, #12]
  407d44:	6088      	str	r0, [r1, #8]
  407d46:	f200 8094 	bhi.w	407e72 <_realloc_r+0x29a>
  407d4a:	2a13      	cmp	r2, #19
  407d4c:	d96f      	bls.n	407e2e <_realloc_r+0x256>
  407d4e:	6829      	ldr	r1, [r5, #0]
  407d50:	f8ca 1008 	str.w	r1, [sl, #8]
  407d54:	6869      	ldr	r1, [r5, #4]
  407d56:	f8ca 100c 	str.w	r1, [sl, #12]
  407d5a:	2a1b      	cmp	r2, #27
  407d5c:	f200 80a2 	bhi.w	407ea4 <_realloc_r+0x2cc>
  407d60:	3508      	adds	r5, #8
  407d62:	f10a 0210 	add.w	r2, sl, #16
  407d66:	e063      	b.n	407e30 <_realloc_r+0x258>
  407d68:	f855 3c08 	ldr.w	r3, [r5, #-8]
  407d6c:	eba9 0a03 	sub.w	sl, r9, r3
  407d70:	f8da 1004 	ldr.w	r1, [sl, #4]
  407d74:	f021 0103 	bic.w	r1, r1, #3
  407d78:	1863      	adds	r3, r4, r1
  407d7a:	4293      	cmp	r3, r2
  407d7c:	f6ff af59 	blt.w	407c32 <_realloc_r+0x5a>
  407d80:	4656      	mov	r6, sl
  407d82:	e7d8      	b.n	407d36 <_realloc_r+0x15e>
  407d84:	6841      	ldr	r1, [r0, #4]
  407d86:	f021 0b03 	bic.w	fp, r1, #3
  407d8a:	44a3      	add	fp, r4
  407d8c:	f107 0010 	add.w	r0, r7, #16
  407d90:	4583      	cmp	fp, r0
  407d92:	da56      	bge.n	407e42 <_realloc_r+0x26a>
  407d94:	f01e 0f01 	tst.w	lr, #1
  407d98:	f47f af4b 	bne.w	407c32 <_realloc_r+0x5a>
  407d9c:	f855 1c08 	ldr.w	r1, [r5, #-8]
  407da0:	eba9 0a01 	sub.w	sl, r9, r1
  407da4:	f8da 1004 	ldr.w	r1, [sl, #4]
  407da8:	f021 0103 	bic.w	r1, r1, #3
  407dac:	448b      	add	fp, r1
  407dae:	4558      	cmp	r0, fp
  407db0:	dce2      	bgt.n	407d78 <_realloc_r+0x1a0>
  407db2:	4656      	mov	r6, sl
  407db4:	f8da 100c 	ldr.w	r1, [sl, #12]
  407db8:	f856 0f08 	ldr.w	r0, [r6, #8]!
  407dbc:	1f22      	subs	r2, r4, #4
  407dbe:	2a24      	cmp	r2, #36	; 0x24
  407dc0:	60c1      	str	r1, [r0, #12]
  407dc2:	6088      	str	r0, [r1, #8]
  407dc4:	f200 808f 	bhi.w	407ee6 <_realloc_r+0x30e>
  407dc8:	2a13      	cmp	r2, #19
  407dca:	f240 808a 	bls.w	407ee2 <_realloc_r+0x30a>
  407dce:	6829      	ldr	r1, [r5, #0]
  407dd0:	f8ca 1008 	str.w	r1, [sl, #8]
  407dd4:	6869      	ldr	r1, [r5, #4]
  407dd6:	f8ca 100c 	str.w	r1, [sl, #12]
  407dda:	2a1b      	cmp	r2, #27
  407ddc:	f200 808a 	bhi.w	407ef4 <_realloc_r+0x31c>
  407de0:	3508      	adds	r5, #8
  407de2:	f10a 0210 	add.w	r2, sl, #16
  407de6:	6829      	ldr	r1, [r5, #0]
  407de8:	6011      	str	r1, [r2, #0]
  407dea:	6869      	ldr	r1, [r5, #4]
  407dec:	6051      	str	r1, [r2, #4]
  407dee:	68a9      	ldr	r1, [r5, #8]
  407df0:	6091      	str	r1, [r2, #8]
  407df2:	eb0a 0107 	add.w	r1, sl, r7
  407df6:	ebab 0207 	sub.w	r2, fp, r7
  407dfa:	f042 0201 	orr.w	r2, r2, #1
  407dfe:	6099      	str	r1, [r3, #8]
  407e00:	604a      	str	r2, [r1, #4]
  407e02:	f8da 3004 	ldr.w	r3, [sl, #4]
  407e06:	f003 0301 	and.w	r3, r3, #1
  407e0a:	431f      	orrs	r7, r3
  407e0c:	4640      	mov	r0, r8
  407e0e:	f8ca 7004 	str.w	r7, [sl, #4]
  407e12:	f7fe f909 	bl	406028 <__malloc_unlock>
  407e16:	e751      	b.n	407cbc <_realloc_r+0xe4>
  407e18:	682b      	ldr	r3, [r5, #0]
  407e1a:	6003      	str	r3, [r0, #0]
  407e1c:	686b      	ldr	r3, [r5, #4]
  407e1e:	6043      	str	r3, [r0, #4]
  407e20:	2a1b      	cmp	r2, #27
  407e22:	d82d      	bhi.n	407e80 <_realloc_r+0x2a8>
  407e24:	f100 0308 	add.w	r3, r0, #8
  407e28:	f105 0208 	add.w	r2, r5, #8
  407e2c:	e71b      	b.n	407c66 <_realloc_r+0x8e>
  407e2e:	4632      	mov	r2, r6
  407e30:	6829      	ldr	r1, [r5, #0]
  407e32:	6011      	str	r1, [r2, #0]
  407e34:	6869      	ldr	r1, [r5, #4]
  407e36:	6051      	str	r1, [r2, #4]
  407e38:	68a9      	ldr	r1, [r5, #8]
  407e3a:	6091      	str	r1, [r2, #8]
  407e3c:	461c      	mov	r4, r3
  407e3e:	46d1      	mov	r9, sl
  407e40:	e72a      	b.n	407c98 <_realloc_r+0xc0>
  407e42:	eb09 0107 	add.w	r1, r9, r7
  407e46:	ebab 0b07 	sub.w	fp, fp, r7
  407e4a:	f04b 0201 	orr.w	r2, fp, #1
  407e4e:	6099      	str	r1, [r3, #8]
  407e50:	604a      	str	r2, [r1, #4]
  407e52:	f855 3c04 	ldr.w	r3, [r5, #-4]
  407e56:	f003 0301 	and.w	r3, r3, #1
  407e5a:	431f      	orrs	r7, r3
  407e5c:	4640      	mov	r0, r8
  407e5e:	f845 7c04 	str.w	r7, [r5, #-4]
  407e62:	f7fe f8e1 	bl	406028 <__malloc_unlock>
  407e66:	462e      	mov	r6, r5
  407e68:	e728      	b.n	407cbc <_realloc_r+0xe4>
  407e6a:	4629      	mov	r1, r5
  407e6c:	f7ff fe50 	bl	407b10 <memmove>
  407e70:	e6ff      	b.n	407c72 <_realloc_r+0x9a>
  407e72:	4629      	mov	r1, r5
  407e74:	4630      	mov	r0, r6
  407e76:	461c      	mov	r4, r3
  407e78:	46d1      	mov	r9, sl
  407e7a:	f7ff fe49 	bl	407b10 <memmove>
  407e7e:	e70b      	b.n	407c98 <_realloc_r+0xc0>
  407e80:	68ab      	ldr	r3, [r5, #8]
  407e82:	6083      	str	r3, [r0, #8]
  407e84:	68eb      	ldr	r3, [r5, #12]
  407e86:	60c3      	str	r3, [r0, #12]
  407e88:	2a24      	cmp	r2, #36	; 0x24
  407e8a:	d017      	beq.n	407ebc <_realloc_r+0x2e4>
  407e8c:	f100 0310 	add.w	r3, r0, #16
  407e90:	f105 0210 	add.w	r2, r5, #16
  407e94:	e6e7      	b.n	407c66 <_realloc_r+0x8e>
  407e96:	f850 3c04 	ldr.w	r3, [r0, #-4]
  407e9a:	f023 0303 	bic.w	r3, r3, #3
  407e9e:	441c      	add	r4, r3
  407ea0:	462e      	mov	r6, r5
  407ea2:	e6f9      	b.n	407c98 <_realloc_r+0xc0>
  407ea4:	68a9      	ldr	r1, [r5, #8]
  407ea6:	f8ca 1010 	str.w	r1, [sl, #16]
  407eaa:	68e9      	ldr	r1, [r5, #12]
  407eac:	f8ca 1014 	str.w	r1, [sl, #20]
  407eb0:	2a24      	cmp	r2, #36	; 0x24
  407eb2:	d00c      	beq.n	407ece <_realloc_r+0x2f6>
  407eb4:	3510      	adds	r5, #16
  407eb6:	f10a 0218 	add.w	r2, sl, #24
  407eba:	e7b9      	b.n	407e30 <_realloc_r+0x258>
  407ebc:	692b      	ldr	r3, [r5, #16]
  407ebe:	6103      	str	r3, [r0, #16]
  407ec0:	696b      	ldr	r3, [r5, #20]
  407ec2:	6143      	str	r3, [r0, #20]
  407ec4:	f105 0218 	add.w	r2, r5, #24
  407ec8:	f100 0318 	add.w	r3, r0, #24
  407ecc:	e6cb      	b.n	407c66 <_realloc_r+0x8e>
  407ece:	692a      	ldr	r2, [r5, #16]
  407ed0:	f8ca 2018 	str.w	r2, [sl, #24]
  407ed4:	696a      	ldr	r2, [r5, #20]
  407ed6:	f8ca 201c 	str.w	r2, [sl, #28]
  407eda:	3518      	adds	r5, #24
  407edc:	f10a 0220 	add.w	r2, sl, #32
  407ee0:	e7a6      	b.n	407e30 <_realloc_r+0x258>
  407ee2:	4632      	mov	r2, r6
  407ee4:	e77f      	b.n	407de6 <_realloc_r+0x20e>
  407ee6:	4629      	mov	r1, r5
  407ee8:	4630      	mov	r0, r6
  407eea:	9301      	str	r3, [sp, #4]
  407eec:	f7ff fe10 	bl	407b10 <memmove>
  407ef0:	9b01      	ldr	r3, [sp, #4]
  407ef2:	e77e      	b.n	407df2 <_realloc_r+0x21a>
  407ef4:	68a9      	ldr	r1, [r5, #8]
  407ef6:	f8ca 1010 	str.w	r1, [sl, #16]
  407efa:	68e9      	ldr	r1, [r5, #12]
  407efc:	f8ca 1014 	str.w	r1, [sl, #20]
  407f00:	2a24      	cmp	r2, #36	; 0x24
  407f02:	d003      	beq.n	407f0c <_realloc_r+0x334>
  407f04:	3510      	adds	r5, #16
  407f06:	f10a 0218 	add.w	r2, sl, #24
  407f0a:	e76c      	b.n	407de6 <_realloc_r+0x20e>
  407f0c:	692a      	ldr	r2, [r5, #16]
  407f0e:	f8ca 2018 	str.w	r2, [sl, #24]
  407f12:	696a      	ldr	r2, [r5, #20]
  407f14:	f8ca 201c 	str.w	r2, [sl, #28]
  407f18:	3518      	adds	r5, #24
  407f1a:	f10a 0220 	add.w	r2, sl, #32
  407f1e:	e762      	b.n	407de6 <_realloc_r+0x20e>
  407f20:	20400478 	.word	0x20400478

00407f24 <__sread>:
  407f24:	b510      	push	{r4, lr}
  407f26:	460c      	mov	r4, r1
  407f28:	f9b1 100e 	ldrsh.w	r1, [r1, #14]
  407f2c:	f000 f9f6 	bl	40831c <_read_r>
  407f30:	2800      	cmp	r0, #0
  407f32:	db03      	blt.n	407f3c <__sread+0x18>
  407f34:	6d23      	ldr	r3, [r4, #80]	; 0x50
  407f36:	4403      	add	r3, r0
  407f38:	6523      	str	r3, [r4, #80]	; 0x50
  407f3a:	bd10      	pop	{r4, pc}
  407f3c:	89a3      	ldrh	r3, [r4, #12]
  407f3e:	f423 5380 	bic.w	r3, r3, #4096	; 0x1000
  407f42:	81a3      	strh	r3, [r4, #12]
  407f44:	bd10      	pop	{r4, pc}
  407f46:	bf00      	nop

00407f48 <__swrite>:
  407f48:	e92d 41f0 	stmdb	sp!, {r4, r5, r6, r7, r8, lr}
  407f4c:	4616      	mov	r6, r2
  407f4e:	f9b1 200c 	ldrsh.w	r2, [r1, #12]
  407f52:	461f      	mov	r7, r3
  407f54:	05d3      	lsls	r3, r2, #23
  407f56:	460c      	mov	r4, r1
  407f58:	4605      	mov	r5, r0
  407f5a:	d507      	bpl.n	407f6c <__swrite+0x24>
  407f5c:	2200      	movs	r2, #0
  407f5e:	2302      	movs	r3, #2
  407f60:	f9b1 100e 	ldrsh.w	r1, [r1, #14]
  407f64:	f000 f9c4 	bl	4082f0 <_lseek_r>
  407f68:	f9b4 200c 	ldrsh.w	r2, [r4, #12]
  407f6c:	f9b4 100e 	ldrsh.w	r1, [r4, #14]
  407f70:	f422 5280 	bic.w	r2, r2, #4096	; 0x1000
  407f74:	81a2      	strh	r2, [r4, #12]
  407f76:	463b      	mov	r3, r7
  407f78:	4632      	mov	r2, r6
  407f7a:	4628      	mov	r0, r5
  407f7c:	e8bd 41f0 	ldmia.w	sp!, {r4, r5, r6, r7, r8, lr}
  407f80:	f000 b8a4 	b.w	4080cc <_write_r>

00407f84 <__sseek>:
  407f84:	b510      	push	{r4, lr}
  407f86:	460c      	mov	r4, r1
  407f88:	f9b1 100e 	ldrsh.w	r1, [r1, #14]
  407f8c:	f000 f9b0 	bl	4082f0 <_lseek_r>
  407f90:	89a3      	ldrh	r3, [r4, #12]
  407f92:	1c42      	adds	r2, r0, #1
  407f94:	bf0e      	itee	eq
  407f96:	f423 5380 	biceq.w	r3, r3, #4096	; 0x1000
  407f9a:	f443 5380 	orrne.w	r3, r3, #4096	; 0x1000
  407f9e:	6520      	strne	r0, [r4, #80]	; 0x50
  407fa0:	81a3      	strh	r3, [r4, #12]
  407fa2:	bd10      	pop	{r4, pc}

00407fa4 <__sclose>:
  407fa4:	f9b1 100e 	ldrsh.w	r1, [r1, #14]
  407fa8:	f000 b908 	b.w	4081bc <_close_r>

00407fac <__swbuf_r>:
  407fac:	b5f8      	push	{r3, r4, r5, r6, r7, lr}
  407fae:	460d      	mov	r5, r1
  407fb0:	4614      	mov	r4, r2
  407fb2:	4606      	mov	r6, r0
  407fb4:	b110      	cbz	r0, 407fbc <__swbuf_r+0x10>
  407fb6:	6b83      	ldr	r3, [r0, #56]	; 0x38
  407fb8:	2b00      	cmp	r3, #0
  407fba:	d04b      	beq.n	408054 <__swbuf_r+0xa8>
  407fbc:	f9b4 200c 	ldrsh.w	r2, [r4, #12]
  407fc0:	69a3      	ldr	r3, [r4, #24]
  407fc2:	60a3      	str	r3, [r4, #8]
  407fc4:	b291      	uxth	r1, r2
  407fc6:	0708      	lsls	r0, r1, #28
  407fc8:	d539      	bpl.n	40803e <__swbuf_r+0x92>
  407fca:	6923      	ldr	r3, [r4, #16]
  407fcc:	2b00      	cmp	r3, #0
  407fce:	d036      	beq.n	40803e <__swbuf_r+0x92>
  407fd0:	b2ed      	uxtb	r5, r5
  407fd2:	0489      	lsls	r1, r1, #18
  407fd4:	462f      	mov	r7, r5
  407fd6:	d515      	bpl.n	408004 <__swbuf_r+0x58>
  407fd8:	6822      	ldr	r2, [r4, #0]
  407fda:	6961      	ldr	r1, [r4, #20]
  407fdc:	1ad3      	subs	r3, r2, r3
  407fde:	428b      	cmp	r3, r1
  407fe0:	da1c      	bge.n	40801c <__swbuf_r+0x70>
  407fe2:	3301      	adds	r3, #1
  407fe4:	68a1      	ldr	r1, [r4, #8]
  407fe6:	1c50      	adds	r0, r2, #1
  407fe8:	3901      	subs	r1, #1
  407fea:	60a1      	str	r1, [r4, #8]
  407fec:	6020      	str	r0, [r4, #0]
  407fee:	7015      	strb	r5, [r2, #0]
  407ff0:	6962      	ldr	r2, [r4, #20]
  407ff2:	429a      	cmp	r2, r3
  407ff4:	d01a      	beq.n	40802c <__swbuf_r+0x80>
  407ff6:	89a3      	ldrh	r3, [r4, #12]
  407ff8:	07db      	lsls	r3, r3, #31
  407ffa:	d501      	bpl.n	408000 <__swbuf_r+0x54>
  407ffc:	2d0a      	cmp	r5, #10
  407ffe:	d015      	beq.n	40802c <__swbuf_r+0x80>
  408000:	4638      	mov	r0, r7
  408002:	bdf8      	pop	{r3, r4, r5, r6, r7, pc}
  408004:	6e61      	ldr	r1, [r4, #100]	; 0x64
  408006:	f442 5200 	orr.w	r2, r2, #8192	; 0x2000
  40800a:	f421 5100 	bic.w	r1, r1, #8192	; 0x2000
  40800e:	81a2      	strh	r2, [r4, #12]
  408010:	6822      	ldr	r2, [r4, #0]
  408012:	6661      	str	r1, [r4, #100]	; 0x64
  408014:	6961      	ldr	r1, [r4, #20]
  408016:	1ad3      	subs	r3, r2, r3
  408018:	428b      	cmp	r3, r1
  40801a:	dbe2      	blt.n	407fe2 <__swbuf_r+0x36>
  40801c:	4621      	mov	r1, r4
  40801e:	4630      	mov	r0, r6
  408020:	f7ff f87a 	bl	407118 <_fflush_r>
  408024:	b940      	cbnz	r0, 408038 <__swbuf_r+0x8c>
  408026:	6822      	ldr	r2, [r4, #0]
  408028:	2301      	movs	r3, #1
  40802a:	e7db      	b.n	407fe4 <__swbuf_r+0x38>
  40802c:	4621      	mov	r1, r4
  40802e:	4630      	mov	r0, r6
  408030:	f7ff f872 	bl	407118 <_fflush_r>
  408034:	2800      	cmp	r0, #0
  408036:	d0e3      	beq.n	408000 <__swbuf_r+0x54>
  408038:	f04f 37ff 	mov.w	r7, #4294967295
  40803c:	e7e0      	b.n	408000 <__swbuf_r+0x54>
  40803e:	4621      	mov	r1, r4
  408040:	4630      	mov	r0, r6
  408042:	f7fe ff55 	bl	406ef0 <__swsetup_r>
  408046:	2800      	cmp	r0, #0
  408048:	d1f6      	bne.n	408038 <__swbuf_r+0x8c>
  40804a:	f9b4 200c 	ldrsh.w	r2, [r4, #12]
  40804e:	6923      	ldr	r3, [r4, #16]
  408050:	b291      	uxth	r1, r2
  408052:	e7bd      	b.n	407fd0 <__swbuf_r+0x24>
  408054:	f7ff f8b8 	bl	4071c8 <__sinit>
  408058:	e7b0      	b.n	407fbc <__swbuf_r+0x10>
  40805a:	bf00      	nop

0040805c <_wcrtomb_r>:
  40805c:	b5f0      	push	{r4, r5, r6, r7, lr}
  40805e:	4606      	mov	r6, r0
  408060:	b085      	sub	sp, #20
  408062:	461f      	mov	r7, r3
  408064:	b189      	cbz	r1, 40808a <_wcrtomb_r+0x2e>
  408066:	4c10      	ldr	r4, [pc, #64]	; (4080a8 <_wcrtomb_r+0x4c>)
  408068:	4d10      	ldr	r5, [pc, #64]	; (4080ac <_wcrtomb_r+0x50>)
  40806a:	6824      	ldr	r4, [r4, #0]
  40806c:	6b64      	ldr	r4, [r4, #52]	; 0x34
  40806e:	2c00      	cmp	r4, #0
  408070:	bf08      	it	eq
  408072:	462c      	moveq	r4, r5
  408074:	f8d4 40e0 	ldr.w	r4, [r4, #224]	; 0xe0
  408078:	47a0      	blx	r4
  40807a:	1c43      	adds	r3, r0, #1
  40807c:	d103      	bne.n	408086 <_wcrtomb_r+0x2a>
  40807e:	2200      	movs	r2, #0
  408080:	238a      	movs	r3, #138	; 0x8a
  408082:	603a      	str	r2, [r7, #0]
  408084:	6033      	str	r3, [r6, #0]
  408086:	b005      	add	sp, #20
  408088:	bdf0      	pop	{r4, r5, r6, r7, pc}
  40808a:	460c      	mov	r4, r1
  40808c:	4906      	ldr	r1, [pc, #24]	; (4080a8 <_wcrtomb_r+0x4c>)
  40808e:	4a07      	ldr	r2, [pc, #28]	; (4080ac <_wcrtomb_r+0x50>)
  408090:	6809      	ldr	r1, [r1, #0]
  408092:	6b49      	ldr	r1, [r1, #52]	; 0x34
  408094:	2900      	cmp	r1, #0
  408096:	bf08      	it	eq
  408098:	4611      	moveq	r1, r2
  40809a:	4622      	mov	r2, r4
  40809c:	f8d1 40e0 	ldr.w	r4, [r1, #224]	; 0xe0
  4080a0:	a901      	add	r1, sp, #4
  4080a2:	47a0      	blx	r4
  4080a4:	e7e9      	b.n	40807a <_wcrtomb_r+0x1e>
  4080a6:	bf00      	nop
  4080a8:	20400048 	.word	0x20400048
  4080ac:	2040088c 	.word	0x2040088c

004080b0 <__ascii_wctomb>:
  4080b0:	b121      	cbz	r1, 4080bc <__ascii_wctomb+0xc>
  4080b2:	2aff      	cmp	r2, #255	; 0xff
  4080b4:	d804      	bhi.n	4080c0 <__ascii_wctomb+0x10>
  4080b6:	700a      	strb	r2, [r1, #0]
  4080b8:	2001      	movs	r0, #1
  4080ba:	4770      	bx	lr
  4080bc:	4608      	mov	r0, r1
  4080be:	4770      	bx	lr
  4080c0:	238a      	movs	r3, #138	; 0x8a
  4080c2:	6003      	str	r3, [r0, #0]
  4080c4:	f04f 30ff 	mov.w	r0, #4294967295
  4080c8:	4770      	bx	lr
  4080ca:	bf00      	nop

004080cc <_write_r>:
  4080cc:	b570      	push	{r4, r5, r6, lr}
  4080ce:	460d      	mov	r5, r1
  4080d0:	4c08      	ldr	r4, [pc, #32]	; (4080f4 <_write_r+0x28>)
  4080d2:	4611      	mov	r1, r2
  4080d4:	4606      	mov	r6, r0
  4080d6:	461a      	mov	r2, r3
  4080d8:	4628      	mov	r0, r5
  4080da:	2300      	movs	r3, #0
  4080dc:	6023      	str	r3, [r4, #0]
  4080de:	f7f9 fc6b 	bl	4019b8 <_write>
  4080e2:	1c43      	adds	r3, r0, #1
  4080e4:	d000      	beq.n	4080e8 <_write_r+0x1c>
  4080e6:	bd70      	pop	{r4, r5, r6, pc}
  4080e8:	6823      	ldr	r3, [r4, #0]
  4080ea:	2b00      	cmp	r3, #0
  4080ec:	d0fb      	beq.n	4080e6 <_write_r+0x1a>
  4080ee:	6033      	str	r3, [r6, #0]
  4080f0:	bd70      	pop	{r4, r5, r6, pc}
  4080f2:	bf00      	nop
  4080f4:	2042c094 	.word	0x2042c094

004080f8 <__register_exitproc>:
  4080f8:	e92d 43f8 	stmdb	sp!, {r3, r4, r5, r6, r7, r8, r9, lr}
  4080fc:	4d2c      	ldr	r5, [pc, #176]	; (4081b0 <__register_exitproc+0xb8>)
  4080fe:	4606      	mov	r6, r0
  408100:	6828      	ldr	r0, [r5, #0]
  408102:	4698      	mov	r8, r3
  408104:	460f      	mov	r7, r1
  408106:	4691      	mov	r9, r2
  408108:	f7ff fc1e 	bl	407948 <__retarget_lock_acquire_recursive>
  40810c:	4b29      	ldr	r3, [pc, #164]	; (4081b4 <__register_exitproc+0xbc>)
  40810e:	681c      	ldr	r4, [r3, #0]
  408110:	f8d4 3148 	ldr.w	r3, [r4, #328]	; 0x148
  408114:	2b00      	cmp	r3, #0
  408116:	d03e      	beq.n	408196 <__register_exitproc+0x9e>
  408118:	685a      	ldr	r2, [r3, #4]
  40811a:	2a1f      	cmp	r2, #31
  40811c:	dc1c      	bgt.n	408158 <__register_exitproc+0x60>
  40811e:	f102 0e01 	add.w	lr, r2, #1
  408122:	b176      	cbz	r6, 408142 <__register_exitproc+0x4a>
  408124:	eb03 0182 	add.w	r1, r3, r2, lsl #2
  408128:	2401      	movs	r4, #1
  40812a:	f8c1 9088 	str.w	r9, [r1, #136]	; 0x88
  40812e:	f8d3 0188 	ldr.w	r0, [r3, #392]	; 0x188
  408132:	4094      	lsls	r4, r2
  408134:	4320      	orrs	r0, r4
  408136:	2e02      	cmp	r6, #2
  408138:	f8c3 0188 	str.w	r0, [r3, #392]	; 0x188
  40813c:	f8c1 8108 	str.w	r8, [r1, #264]	; 0x108
  408140:	d023      	beq.n	40818a <__register_exitproc+0x92>
  408142:	3202      	adds	r2, #2
  408144:	f8c3 e004 	str.w	lr, [r3, #4]
  408148:	6828      	ldr	r0, [r5, #0]
  40814a:	f843 7022 	str.w	r7, [r3, r2, lsl #2]
  40814e:	f7ff fbfd 	bl	40794c <__retarget_lock_release_recursive>
  408152:	2000      	movs	r0, #0
  408154:	e8bd 83f8 	ldmia.w	sp!, {r3, r4, r5, r6, r7, r8, r9, pc}
  408158:	4b17      	ldr	r3, [pc, #92]	; (4081b8 <__register_exitproc+0xc0>)
  40815a:	b30b      	cbz	r3, 4081a0 <__register_exitproc+0xa8>
  40815c:	f44f 70c8 	mov.w	r0, #400	; 0x190
  408160:	f7fd fbbc 	bl	4058dc <malloc>
  408164:	4603      	mov	r3, r0
  408166:	b1d8      	cbz	r0, 4081a0 <__register_exitproc+0xa8>
  408168:	f8d4 2148 	ldr.w	r2, [r4, #328]	; 0x148
  40816c:	6002      	str	r2, [r0, #0]
  40816e:	2100      	movs	r1, #0
  408170:	6041      	str	r1, [r0, #4]
  408172:	460a      	mov	r2, r1
  408174:	f8c4 0148 	str.w	r0, [r4, #328]	; 0x148
  408178:	f04f 0e01 	mov.w	lr, #1
  40817c:	f8c0 1188 	str.w	r1, [r0, #392]	; 0x188
  408180:	f8c0 118c 	str.w	r1, [r0, #396]	; 0x18c
  408184:	2e00      	cmp	r6, #0
  408186:	d0dc      	beq.n	408142 <__register_exitproc+0x4a>
  408188:	e7cc      	b.n	408124 <__register_exitproc+0x2c>
  40818a:	f8d3 118c 	ldr.w	r1, [r3, #396]	; 0x18c
  40818e:	430c      	orrs	r4, r1
  408190:	f8c3 418c 	str.w	r4, [r3, #396]	; 0x18c
  408194:	e7d5      	b.n	408142 <__register_exitproc+0x4a>
  408196:	f504 73a6 	add.w	r3, r4, #332	; 0x14c
  40819a:	f8c4 3148 	str.w	r3, [r4, #328]	; 0x148
  40819e:	e7bb      	b.n	408118 <__register_exitproc+0x20>
  4081a0:	6828      	ldr	r0, [r5, #0]
  4081a2:	f7ff fbd3 	bl	40794c <__retarget_lock_release_recursive>
  4081a6:	f04f 30ff 	mov.w	r0, #4294967295
  4081aa:	e8bd 83f8 	ldmia.w	sp!, {r3, r4, r5, r6, r7, r8, r9, pc}
  4081ae:	bf00      	nop
  4081b0:	20400888 	.word	0x20400888
  4081b4:	00409100 	.word	0x00409100
  4081b8:	004058dd 	.word	0x004058dd

004081bc <_close_r>:
  4081bc:	b538      	push	{r3, r4, r5, lr}
  4081be:	4c07      	ldr	r4, [pc, #28]	; (4081dc <_close_r+0x20>)
  4081c0:	2300      	movs	r3, #0
  4081c2:	4605      	mov	r5, r0
  4081c4:	4608      	mov	r0, r1
  4081c6:	6023      	str	r3, [r4, #0]
  4081c8:	f7fb f804 	bl	4031d4 <_close>
  4081cc:	1c43      	adds	r3, r0, #1
  4081ce:	d000      	beq.n	4081d2 <_close_r+0x16>
  4081d0:	bd38      	pop	{r3, r4, r5, pc}
  4081d2:	6823      	ldr	r3, [r4, #0]
  4081d4:	2b00      	cmp	r3, #0
  4081d6:	d0fb      	beq.n	4081d0 <_close_r+0x14>
  4081d8:	602b      	str	r3, [r5, #0]
  4081da:	bd38      	pop	{r3, r4, r5, pc}
  4081dc:	2042c094 	.word	0x2042c094

004081e0 <_fclose_r>:
  4081e0:	b570      	push	{r4, r5, r6, lr}
  4081e2:	b159      	cbz	r1, 4081fc <_fclose_r+0x1c>
  4081e4:	4605      	mov	r5, r0
  4081e6:	460c      	mov	r4, r1
  4081e8:	b110      	cbz	r0, 4081f0 <_fclose_r+0x10>
  4081ea:	6b83      	ldr	r3, [r0, #56]	; 0x38
  4081ec:	2b00      	cmp	r3, #0
  4081ee:	d03c      	beq.n	40826a <_fclose_r+0x8a>
  4081f0:	6e63      	ldr	r3, [r4, #100]	; 0x64
  4081f2:	07d8      	lsls	r0, r3, #31
  4081f4:	d505      	bpl.n	408202 <_fclose_r+0x22>
  4081f6:	f9b4 300c 	ldrsh.w	r3, [r4, #12]
  4081fa:	b92b      	cbnz	r3, 408208 <_fclose_r+0x28>
  4081fc:	2600      	movs	r6, #0
  4081fe:	4630      	mov	r0, r6
  408200:	bd70      	pop	{r4, r5, r6, pc}
  408202:	89a3      	ldrh	r3, [r4, #12]
  408204:	0599      	lsls	r1, r3, #22
  408206:	d53c      	bpl.n	408282 <_fclose_r+0xa2>
  408208:	4621      	mov	r1, r4
  40820a:	4628      	mov	r0, r5
  40820c:	f7fe fee4 	bl	406fd8 <__sflush_r>
  408210:	6ae3      	ldr	r3, [r4, #44]	; 0x2c
  408212:	4606      	mov	r6, r0
  408214:	b133      	cbz	r3, 408224 <_fclose_r+0x44>
  408216:	69e1      	ldr	r1, [r4, #28]
  408218:	4628      	mov	r0, r5
  40821a:	4798      	blx	r3
  40821c:	2800      	cmp	r0, #0
  40821e:	bfb8      	it	lt
  408220:	f04f 36ff 	movlt.w	r6, #4294967295
  408224:	89a3      	ldrh	r3, [r4, #12]
  408226:	061a      	lsls	r2, r3, #24
  408228:	d422      	bmi.n	408270 <_fclose_r+0x90>
  40822a:	6b21      	ldr	r1, [r4, #48]	; 0x30
  40822c:	b141      	cbz	r1, 408240 <_fclose_r+0x60>
  40822e:	f104 0340 	add.w	r3, r4, #64	; 0x40
  408232:	4299      	cmp	r1, r3
  408234:	d002      	beq.n	40823c <_fclose_r+0x5c>
  408236:	4628      	mov	r0, r5
  408238:	f7ff f8ec 	bl	407414 <_free_r>
  40823c:	2300      	movs	r3, #0
  40823e:	6323      	str	r3, [r4, #48]	; 0x30
  408240:	6c61      	ldr	r1, [r4, #68]	; 0x44
  408242:	b121      	cbz	r1, 40824e <_fclose_r+0x6e>
  408244:	4628      	mov	r0, r5
  408246:	f7ff f8e5 	bl	407414 <_free_r>
  40824a:	2300      	movs	r3, #0
  40824c:	6463      	str	r3, [r4, #68]	; 0x44
  40824e:	f7fe ffe7 	bl	407220 <__sfp_lock_acquire>
  408252:	6e63      	ldr	r3, [r4, #100]	; 0x64
  408254:	2200      	movs	r2, #0
  408256:	07db      	lsls	r3, r3, #31
  408258:	81a2      	strh	r2, [r4, #12]
  40825a:	d50e      	bpl.n	40827a <_fclose_r+0x9a>
  40825c:	6da0      	ldr	r0, [r4, #88]	; 0x58
  40825e:	f7ff fb71 	bl	407944 <__retarget_lock_close_recursive>
  408262:	f7fe ffe3 	bl	40722c <__sfp_lock_release>
  408266:	4630      	mov	r0, r6
  408268:	bd70      	pop	{r4, r5, r6, pc}
  40826a:	f7fe ffad 	bl	4071c8 <__sinit>
  40826e:	e7bf      	b.n	4081f0 <_fclose_r+0x10>
  408270:	6921      	ldr	r1, [r4, #16]
  408272:	4628      	mov	r0, r5
  408274:	f7ff f8ce 	bl	407414 <_free_r>
  408278:	e7d7      	b.n	40822a <_fclose_r+0x4a>
  40827a:	6da0      	ldr	r0, [r4, #88]	; 0x58
  40827c:	f7ff fb66 	bl	40794c <__retarget_lock_release_recursive>
  408280:	e7ec      	b.n	40825c <_fclose_r+0x7c>
  408282:	6da0      	ldr	r0, [r4, #88]	; 0x58
  408284:	f7ff fb60 	bl	407948 <__retarget_lock_acquire_recursive>
  408288:	f9b4 300c 	ldrsh.w	r3, [r4, #12]
  40828c:	2b00      	cmp	r3, #0
  40828e:	d1bb      	bne.n	408208 <_fclose_r+0x28>
  408290:	6e66      	ldr	r6, [r4, #100]	; 0x64
  408292:	f016 0601 	ands.w	r6, r6, #1
  408296:	d1b1      	bne.n	4081fc <_fclose_r+0x1c>
  408298:	6da0      	ldr	r0, [r4, #88]	; 0x58
  40829a:	f7ff fb57 	bl	40794c <__retarget_lock_release_recursive>
  40829e:	4630      	mov	r0, r6
  4082a0:	bd70      	pop	{r4, r5, r6, pc}
  4082a2:	bf00      	nop

004082a4 <_fstat_r>:
  4082a4:	b538      	push	{r3, r4, r5, lr}
  4082a6:	460b      	mov	r3, r1
  4082a8:	4c07      	ldr	r4, [pc, #28]	; (4082c8 <_fstat_r+0x24>)
  4082aa:	4605      	mov	r5, r0
  4082ac:	4611      	mov	r1, r2
  4082ae:	4618      	mov	r0, r3
  4082b0:	2300      	movs	r3, #0
  4082b2:	6023      	str	r3, [r4, #0]
  4082b4:	f7fa ff92 	bl	4031dc <_fstat>
  4082b8:	1c43      	adds	r3, r0, #1
  4082ba:	d000      	beq.n	4082be <_fstat_r+0x1a>
  4082bc:	bd38      	pop	{r3, r4, r5, pc}
  4082be:	6823      	ldr	r3, [r4, #0]
  4082c0:	2b00      	cmp	r3, #0
  4082c2:	d0fb      	beq.n	4082bc <_fstat_r+0x18>
  4082c4:	602b      	str	r3, [r5, #0]
  4082c6:	bd38      	pop	{r3, r4, r5, pc}
  4082c8:	2042c094 	.word	0x2042c094

004082cc <_isatty_r>:
  4082cc:	b538      	push	{r3, r4, r5, lr}
  4082ce:	4c07      	ldr	r4, [pc, #28]	; (4082ec <_isatty_r+0x20>)
  4082d0:	2300      	movs	r3, #0
  4082d2:	4605      	mov	r5, r0
  4082d4:	4608      	mov	r0, r1
  4082d6:	6023      	str	r3, [r4, #0]
  4082d8:	f7fa ff86 	bl	4031e8 <_isatty>
  4082dc:	1c43      	adds	r3, r0, #1
  4082de:	d000      	beq.n	4082e2 <_isatty_r+0x16>
  4082e0:	bd38      	pop	{r3, r4, r5, pc}
  4082e2:	6823      	ldr	r3, [r4, #0]
  4082e4:	2b00      	cmp	r3, #0
  4082e6:	d0fb      	beq.n	4082e0 <_isatty_r+0x14>
  4082e8:	602b      	str	r3, [r5, #0]
  4082ea:	bd38      	pop	{r3, r4, r5, pc}
  4082ec:	2042c094 	.word	0x2042c094

004082f0 <_lseek_r>:
  4082f0:	b570      	push	{r4, r5, r6, lr}
  4082f2:	460d      	mov	r5, r1
  4082f4:	4c08      	ldr	r4, [pc, #32]	; (408318 <_lseek_r+0x28>)
  4082f6:	4611      	mov	r1, r2
  4082f8:	4606      	mov	r6, r0
  4082fa:	461a      	mov	r2, r3
  4082fc:	4628      	mov	r0, r5
  4082fe:	2300      	movs	r3, #0
  408300:	6023      	str	r3, [r4, #0]
  408302:	f7fa ff73 	bl	4031ec <_lseek>
  408306:	1c43      	adds	r3, r0, #1
  408308:	d000      	beq.n	40830c <_lseek_r+0x1c>
  40830a:	bd70      	pop	{r4, r5, r6, pc}
  40830c:	6823      	ldr	r3, [r4, #0]
  40830e:	2b00      	cmp	r3, #0
  408310:	d0fb      	beq.n	40830a <_lseek_r+0x1a>
  408312:	6033      	str	r3, [r6, #0]
  408314:	bd70      	pop	{r4, r5, r6, pc}
  408316:	bf00      	nop
  408318:	2042c094 	.word	0x2042c094

0040831c <_read_r>:
  40831c:	b570      	push	{r4, r5, r6, lr}
  40831e:	460d      	mov	r5, r1
  408320:	4c08      	ldr	r4, [pc, #32]	; (408344 <_read_r+0x28>)
  408322:	4611      	mov	r1, r2
  408324:	4606      	mov	r6, r0
  408326:	461a      	mov	r2, r3
  408328:	4628      	mov	r0, r5
  40832a:	2300      	movs	r3, #0
  40832c:	6023      	str	r3, [r4, #0]
  40832e:	f7f9 fb25 	bl	40197c <_read>
  408332:	1c43      	adds	r3, r0, #1
  408334:	d000      	beq.n	408338 <_read_r+0x1c>
  408336:	bd70      	pop	{r4, r5, r6, pc}
  408338:	6823      	ldr	r3, [r4, #0]
  40833a:	2b00      	cmp	r3, #0
  40833c:	d0fb      	beq.n	408336 <_read_r+0x1a>
  40833e:	6033      	str	r3, [r6, #0]
  408340:	bd70      	pop	{r4, r5, r6, pc}
  408342:	bf00      	nop
  408344:	2042c094 	.word	0x2042c094

00408348 <__aeabi_uldivmod>:
  408348:	b953      	cbnz	r3, 408360 <__aeabi_uldivmod+0x18>
  40834a:	b94a      	cbnz	r2, 408360 <__aeabi_uldivmod+0x18>
  40834c:	2900      	cmp	r1, #0
  40834e:	bf08      	it	eq
  408350:	2800      	cmpeq	r0, #0
  408352:	bf1c      	itt	ne
  408354:	f04f 31ff 	movne.w	r1, #4294967295
  408358:	f04f 30ff 	movne.w	r0, #4294967295
  40835c:	f000 b97a 	b.w	408654 <__aeabi_idiv0>
  408360:	f1ad 0c08 	sub.w	ip, sp, #8
  408364:	e96d ce04 	strd	ip, lr, [sp, #-16]!
  408368:	f000 f806 	bl	408378 <__udivmoddi4>
  40836c:	f8dd e004 	ldr.w	lr, [sp, #4]
  408370:	e9dd 2302 	ldrd	r2, r3, [sp, #8]
  408374:	b004      	add	sp, #16
  408376:	4770      	bx	lr

00408378 <__udivmoddi4>:
  408378:	e92d 47f0 	stmdb	sp!, {r4, r5, r6, r7, r8, r9, sl, lr}
  40837c:	468c      	mov	ip, r1
  40837e:	460d      	mov	r5, r1
  408380:	4604      	mov	r4, r0
  408382:	9e08      	ldr	r6, [sp, #32]
  408384:	2b00      	cmp	r3, #0
  408386:	d151      	bne.n	40842c <__udivmoddi4+0xb4>
  408388:	428a      	cmp	r2, r1
  40838a:	4617      	mov	r7, r2
  40838c:	d96d      	bls.n	40846a <__udivmoddi4+0xf2>
  40838e:	fab2 fe82 	clz	lr, r2
  408392:	f1be 0f00 	cmp.w	lr, #0
  408396:	d00b      	beq.n	4083b0 <__udivmoddi4+0x38>
  408398:	f1ce 0c20 	rsb	ip, lr, #32
  40839c:	fa01 f50e 	lsl.w	r5, r1, lr
  4083a0:	fa20 fc0c 	lsr.w	ip, r0, ip
  4083a4:	fa02 f70e 	lsl.w	r7, r2, lr
  4083a8:	ea4c 0c05 	orr.w	ip, ip, r5
  4083ac:	fa00 f40e 	lsl.w	r4, r0, lr
  4083b0:	ea4f 4a17 	mov.w	sl, r7, lsr #16
  4083b4:	0c25      	lsrs	r5, r4, #16
  4083b6:	fbbc f8fa 	udiv	r8, ip, sl
  4083ba:	fa1f f987 	uxth.w	r9, r7
  4083be:	fb0a cc18 	mls	ip, sl, r8, ip
  4083c2:	ea45 450c 	orr.w	r5, r5, ip, lsl #16
  4083c6:	fb08 f309 	mul.w	r3, r8, r9
  4083ca:	42ab      	cmp	r3, r5
  4083cc:	d90a      	bls.n	4083e4 <__udivmoddi4+0x6c>
  4083ce:	19ed      	adds	r5, r5, r7
  4083d0:	f108 32ff 	add.w	r2, r8, #4294967295
  4083d4:	f080 8123 	bcs.w	40861e <__udivmoddi4+0x2a6>
  4083d8:	42ab      	cmp	r3, r5
  4083da:	f240 8120 	bls.w	40861e <__udivmoddi4+0x2a6>
  4083de:	f1a8 0802 	sub.w	r8, r8, #2
  4083e2:	443d      	add	r5, r7
  4083e4:	1aed      	subs	r5, r5, r3
  4083e6:	b2a4      	uxth	r4, r4
  4083e8:	fbb5 f0fa 	udiv	r0, r5, sl
  4083ec:	fb0a 5510 	mls	r5, sl, r0, r5
  4083f0:	ea44 4405 	orr.w	r4, r4, r5, lsl #16
  4083f4:	fb00 f909 	mul.w	r9, r0, r9
  4083f8:	45a1      	cmp	r9, r4
  4083fa:	d909      	bls.n	408410 <__udivmoddi4+0x98>
  4083fc:	19e4      	adds	r4, r4, r7
  4083fe:	f100 33ff 	add.w	r3, r0, #4294967295
  408402:	f080 810a 	bcs.w	40861a <__udivmoddi4+0x2a2>
  408406:	45a1      	cmp	r9, r4
  408408:	f240 8107 	bls.w	40861a <__udivmoddi4+0x2a2>
  40840c:	3802      	subs	r0, #2
  40840e:	443c      	add	r4, r7
  408410:	eba4 0409 	sub.w	r4, r4, r9
  408414:	ea40 4008 	orr.w	r0, r0, r8, lsl #16
  408418:	2100      	movs	r1, #0
  40841a:	2e00      	cmp	r6, #0
  40841c:	d061      	beq.n	4084e2 <__udivmoddi4+0x16a>
  40841e:	fa24 f40e 	lsr.w	r4, r4, lr
  408422:	2300      	movs	r3, #0
  408424:	6034      	str	r4, [r6, #0]
  408426:	6073      	str	r3, [r6, #4]
  408428:	e8bd 87f0 	ldmia.w	sp!, {r4, r5, r6, r7, r8, r9, sl, pc}
  40842c:	428b      	cmp	r3, r1
  40842e:	d907      	bls.n	408440 <__udivmoddi4+0xc8>
  408430:	2e00      	cmp	r6, #0
  408432:	d054      	beq.n	4084de <__udivmoddi4+0x166>
  408434:	2100      	movs	r1, #0
  408436:	e886 0021 	stmia.w	r6, {r0, r5}
  40843a:	4608      	mov	r0, r1
  40843c:	e8bd 87f0 	ldmia.w	sp!, {r4, r5, r6, r7, r8, r9, sl, pc}
  408440:	fab3 f183 	clz	r1, r3
  408444:	2900      	cmp	r1, #0
  408446:	f040 808e 	bne.w	408566 <__udivmoddi4+0x1ee>
  40844a:	42ab      	cmp	r3, r5
  40844c:	d302      	bcc.n	408454 <__udivmoddi4+0xdc>
  40844e:	4282      	cmp	r2, r0
  408450:	f200 80fa 	bhi.w	408648 <__udivmoddi4+0x2d0>
  408454:	1a84      	subs	r4, r0, r2
  408456:	eb65 0503 	sbc.w	r5, r5, r3
  40845a:	2001      	movs	r0, #1
  40845c:	46ac      	mov	ip, r5
  40845e:	2e00      	cmp	r6, #0
  408460:	d03f      	beq.n	4084e2 <__udivmoddi4+0x16a>
  408462:	e886 1010 	stmia.w	r6, {r4, ip}
  408466:	e8bd 87f0 	ldmia.w	sp!, {r4, r5, r6, r7, r8, r9, sl, pc}
  40846a:	b912      	cbnz	r2, 408472 <__udivmoddi4+0xfa>
  40846c:	2701      	movs	r7, #1
  40846e:	fbb7 f7f2 	udiv	r7, r7, r2
  408472:	fab7 fe87 	clz	lr, r7
  408476:	f1be 0f00 	cmp.w	lr, #0
  40847a:	d134      	bne.n	4084e6 <__udivmoddi4+0x16e>
  40847c:	1beb      	subs	r3, r5, r7
  40847e:	0c3a      	lsrs	r2, r7, #16
  408480:	fa1f fc87 	uxth.w	ip, r7
  408484:	2101      	movs	r1, #1
  408486:	fbb3 f8f2 	udiv	r8, r3, r2
  40848a:	0c25      	lsrs	r5, r4, #16
  40848c:	fb02 3318 	mls	r3, r2, r8, r3
  408490:	ea45 4503 	orr.w	r5, r5, r3, lsl #16
  408494:	fb0c f308 	mul.w	r3, ip, r8
  408498:	42ab      	cmp	r3, r5
  40849a:	d907      	bls.n	4084ac <__udivmoddi4+0x134>
  40849c:	19ed      	adds	r5, r5, r7
  40849e:	f108 30ff 	add.w	r0, r8, #4294967295
  4084a2:	d202      	bcs.n	4084aa <__udivmoddi4+0x132>
  4084a4:	42ab      	cmp	r3, r5
  4084a6:	f200 80d1 	bhi.w	40864c <__udivmoddi4+0x2d4>
  4084aa:	4680      	mov	r8, r0
  4084ac:	1aed      	subs	r5, r5, r3
  4084ae:	b2a3      	uxth	r3, r4
  4084b0:	fbb5 f0f2 	udiv	r0, r5, r2
  4084b4:	fb02 5510 	mls	r5, r2, r0, r5
  4084b8:	ea43 4405 	orr.w	r4, r3, r5, lsl #16
  4084bc:	fb0c fc00 	mul.w	ip, ip, r0
  4084c0:	45a4      	cmp	ip, r4
  4084c2:	d907      	bls.n	4084d4 <__udivmoddi4+0x15c>
  4084c4:	19e4      	adds	r4, r4, r7
  4084c6:	f100 33ff 	add.w	r3, r0, #4294967295
  4084ca:	d202      	bcs.n	4084d2 <__udivmoddi4+0x15a>
  4084cc:	45a4      	cmp	ip, r4
  4084ce:	f200 80b8 	bhi.w	408642 <__udivmoddi4+0x2ca>
  4084d2:	4618      	mov	r0, r3
  4084d4:	eba4 040c 	sub.w	r4, r4, ip
  4084d8:	ea40 4008 	orr.w	r0, r0, r8, lsl #16
  4084dc:	e79d      	b.n	40841a <__udivmoddi4+0xa2>
  4084de:	4631      	mov	r1, r6
  4084e0:	4630      	mov	r0, r6
  4084e2:	e8bd 87f0 	ldmia.w	sp!, {r4, r5, r6, r7, r8, r9, sl, pc}
  4084e6:	f1ce 0420 	rsb	r4, lr, #32
  4084ea:	fa05 f30e 	lsl.w	r3, r5, lr
  4084ee:	fa07 f70e 	lsl.w	r7, r7, lr
  4084f2:	fa20 f804 	lsr.w	r8, r0, r4
  4084f6:	0c3a      	lsrs	r2, r7, #16
  4084f8:	fa25 f404 	lsr.w	r4, r5, r4
  4084fc:	ea48 0803 	orr.w	r8, r8, r3
  408500:	fbb4 f1f2 	udiv	r1, r4, r2
  408504:	ea4f 4518 	mov.w	r5, r8, lsr #16
  408508:	fb02 4411 	mls	r4, r2, r1, r4
  40850c:	fa1f fc87 	uxth.w	ip, r7
  408510:	ea45 4504 	orr.w	r5, r5, r4, lsl #16
  408514:	fb01 f30c 	mul.w	r3, r1, ip
  408518:	42ab      	cmp	r3, r5
  40851a:	fa00 f40e 	lsl.w	r4, r0, lr
  40851e:	d909      	bls.n	408534 <__udivmoddi4+0x1bc>
  408520:	19ed      	adds	r5, r5, r7
  408522:	f101 30ff 	add.w	r0, r1, #4294967295
  408526:	f080 808a 	bcs.w	40863e <__udivmoddi4+0x2c6>
  40852a:	42ab      	cmp	r3, r5
  40852c:	f240 8087 	bls.w	40863e <__udivmoddi4+0x2c6>
  408530:	3902      	subs	r1, #2
  408532:	443d      	add	r5, r7
  408534:	1aeb      	subs	r3, r5, r3
  408536:	fa1f f588 	uxth.w	r5, r8
  40853a:	fbb3 f0f2 	udiv	r0, r3, r2
  40853e:	fb02 3310 	mls	r3, r2, r0, r3
  408542:	ea45 4503 	orr.w	r5, r5, r3, lsl #16
  408546:	fb00 f30c 	mul.w	r3, r0, ip
  40854a:	42ab      	cmp	r3, r5
  40854c:	d907      	bls.n	40855e <__udivmoddi4+0x1e6>
  40854e:	19ed      	adds	r5, r5, r7
  408550:	f100 38ff 	add.w	r8, r0, #4294967295
  408554:	d26f      	bcs.n	408636 <__udivmoddi4+0x2be>
  408556:	42ab      	cmp	r3, r5
  408558:	d96d      	bls.n	408636 <__udivmoddi4+0x2be>
  40855a:	3802      	subs	r0, #2
  40855c:	443d      	add	r5, r7
  40855e:	1aeb      	subs	r3, r5, r3
  408560:	ea40 4101 	orr.w	r1, r0, r1, lsl #16
  408564:	e78f      	b.n	408486 <__udivmoddi4+0x10e>
  408566:	f1c1 0720 	rsb	r7, r1, #32
  40856a:	fa22 f807 	lsr.w	r8, r2, r7
  40856e:	408b      	lsls	r3, r1
  408570:	fa05 f401 	lsl.w	r4, r5, r1
  408574:	ea48 0303 	orr.w	r3, r8, r3
  408578:	fa20 fe07 	lsr.w	lr, r0, r7
  40857c:	ea4f 4c13 	mov.w	ip, r3, lsr #16
  408580:	40fd      	lsrs	r5, r7
  408582:	ea4e 0e04 	orr.w	lr, lr, r4
  408586:	fbb5 f9fc 	udiv	r9, r5, ip
  40858a:	ea4f 441e 	mov.w	r4, lr, lsr #16
  40858e:	fb0c 5519 	mls	r5, ip, r9, r5
  408592:	fa1f f883 	uxth.w	r8, r3
  408596:	ea44 4505 	orr.w	r5, r4, r5, lsl #16
  40859a:	fb09 f408 	mul.w	r4, r9, r8
  40859e:	42ac      	cmp	r4, r5
  4085a0:	fa02 f201 	lsl.w	r2, r2, r1
  4085a4:	fa00 fa01 	lsl.w	sl, r0, r1
  4085a8:	d908      	bls.n	4085bc <__udivmoddi4+0x244>
  4085aa:	18ed      	adds	r5, r5, r3
  4085ac:	f109 30ff 	add.w	r0, r9, #4294967295
  4085b0:	d243      	bcs.n	40863a <__udivmoddi4+0x2c2>
  4085b2:	42ac      	cmp	r4, r5
  4085b4:	d941      	bls.n	40863a <__udivmoddi4+0x2c2>
  4085b6:	f1a9 0902 	sub.w	r9, r9, #2
  4085ba:	441d      	add	r5, r3
  4085bc:	1b2d      	subs	r5, r5, r4
  4085be:	fa1f fe8e 	uxth.w	lr, lr
  4085c2:	fbb5 f0fc 	udiv	r0, r5, ip
  4085c6:	fb0c 5510 	mls	r5, ip, r0, r5
  4085ca:	ea4e 4405 	orr.w	r4, lr, r5, lsl #16
  4085ce:	fb00 f808 	mul.w	r8, r0, r8
  4085d2:	45a0      	cmp	r8, r4
  4085d4:	d907      	bls.n	4085e6 <__udivmoddi4+0x26e>
  4085d6:	18e4      	adds	r4, r4, r3
  4085d8:	f100 35ff 	add.w	r5, r0, #4294967295
  4085dc:	d229      	bcs.n	408632 <__udivmoddi4+0x2ba>
  4085de:	45a0      	cmp	r8, r4
  4085e0:	d927      	bls.n	408632 <__udivmoddi4+0x2ba>
  4085e2:	3802      	subs	r0, #2
  4085e4:	441c      	add	r4, r3
  4085e6:	ea40 4009 	orr.w	r0, r0, r9, lsl #16
  4085ea:	eba4 0408 	sub.w	r4, r4, r8
  4085ee:	fba0 8902 	umull	r8, r9, r0, r2
  4085f2:	454c      	cmp	r4, r9
  4085f4:	46c6      	mov	lr, r8
  4085f6:	464d      	mov	r5, r9
  4085f8:	d315      	bcc.n	408626 <__udivmoddi4+0x2ae>
  4085fa:	d012      	beq.n	408622 <__udivmoddi4+0x2aa>
  4085fc:	b156      	cbz	r6, 408614 <__udivmoddi4+0x29c>
  4085fe:	ebba 030e 	subs.w	r3, sl, lr
  408602:	eb64 0405 	sbc.w	r4, r4, r5
  408606:	fa04 f707 	lsl.w	r7, r4, r7
  40860a:	40cb      	lsrs	r3, r1
  40860c:	431f      	orrs	r7, r3
  40860e:	40cc      	lsrs	r4, r1
  408610:	6037      	str	r7, [r6, #0]
  408612:	6074      	str	r4, [r6, #4]
  408614:	2100      	movs	r1, #0
  408616:	e8bd 87f0 	ldmia.w	sp!, {r4, r5, r6, r7, r8, r9, sl, pc}
  40861a:	4618      	mov	r0, r3
  40861c:	e6f8      	b.n	408410 <__udivmoddi4+0x98>
  40861e:	4690      	mov	r8, r2
  408620:	e6e0      	b.n	4083e4 <__udivmoddi4+0x6c>
  408622:	45c2      	cmp	sl, r8
  408624:	d2ea      	bcs.n	4085fc <__udivmoddi4+0x284>
  408626:	ebb8 0e02 	subs.w	lr, r8, r2
  40862a:	eb69 0503 	sbc.w	r5, r9, r3
  40862e:	3801      	subs	r0, #1
  408630:	e7e4      	b.n	4085fc <__udivmoddi4+0x284>
  408632:	4628      	mov	r0, r5
  408634:	e7d7      	b.n	4085e6 <__udivmoddi4+0x26e>
  408636:	4640      	mov	r0, r8
  408638:	e791      	b.n	40855e <__udivmoddi4+0x1e6>
  40863a:	4681      	mov	r9, r0
  40863c:	e7be      	b.n	4085bc <__udivmoddi4+0x244>
  40863e:	4601      	mov	r1, r0
  408640:	e778      	b.n	408534 <__udivmoddi4+0x1bc>
  408642:	3802      	subs	r0, #2
  408644:	443c      	add	r4, r7
  408646:	e745      	b.n	4084d4 <__udivmoddi4+0x15c>
  408648:	4608      	mov	r0, r1
  40864a:	e708      	b.n	40845e <__udivmoddi4+0xe6>
  40864c:	f1a8 0802 	sub.w	r8, r8, #2
  408650:	443d      	add	r5, r7
  408652:	e72b      	b.n	4084ac <__udivmoddi4+0x134>

00408654 <__aeabi_idiv0>:
  408654:	4770      	bx	lr
  408656:	bf00      	nop
  408658:	092d452d 	.word	0x092d452d
  40865c:	39384d57 	.word	0x39384d57
  408660:	69203430 	.word	0x69203430
  408664:	6974696e 	.word	0x6974696e
  408668:	7a696c61 	.word	0x7a696c61
  40866c:	6f697461 	.word	0x6f697461
  408670:	6166206e 	.word	0x6166206e
  408674:	64656c69 	.word	0x64656c69
  408678:	00000d2e 	.word	0x00000d2e
  40867c:	39384d57 	.word	0x39384d57
  408680:	6e203430 	.word	0x6e203430
  408684:	6620746f 	.word	0x6620746f
  408688:	646e756f 	.word	0x646e756f
  40868c:	000d0a21 	.word	0x000d0a21
  408690:	0a05000d 	.word	0x0a05000d
  408694:	0000004b 	.word	0x0000004b
  408698:	00001932 	.word	0x00001932
  40869c:	0e00008b 	.word	0x0e00008b
  4086a0:	32800008 	.word	0x32800008
  4086a4:	030a0205 	.word	0x030a0205
  4086a8:	0f022003 	.word	0x0f022003
  4086ac:	00000a0f 	.word	0x00000a0f
  4086b0:	18180000 	.word	0x18180000
  4086b4:	00002020 	.word	0x00002020
  4086b8:	0a000000 	.word	0x0a000000
  4086bc:	02020000 	.word	0x02020000
  4086c0:	18180000 	.word	0x18180000
  4086c4:	00030000 	.word	0x00030000
  4086c8:	00000000 	.word	0x00000000
  4086cc:	18010002 	.word	0x18010002
  4086d0:	1e1e1e1e 	.word	0x1e1e1e1e
  4086d4:	1e1e1e1e 	.word	0x1e1e1e1e
  4086d8:	1e1e1e1e 	.word	0x1e1e1e1e
  4086dc:	00001e1e 	.word	0x00001e1e
	...

004086f0 <CSWTCH.7>:
  4086f0:	00000100 00000300 00000200              ............

004086fc <midi_note_frequencies>:
  4086fc:	4102d0e5 410a978d 4112d4fe 411b9168     ...A...A...Ah..A
  40870c:	4124d0e5 412e9ba6 4138fdf4 41440000     ..$A...A..8A..DA
  40871c:	414fa5e3 415c0000 41691687 4176f1aa     ..OA..\A..iA..vA
  40872c:	4182d0e5 418a978d 4192d4fe 419b8f5c     ...A...A...A\..A
  40873c:	41a4d0e5 41ae9db2 41b90000 41c40000     ...A...A...A...A
  40874c:	41cfa7f0 41dc0000 41e9147b 41f6f1aa     ...A...A{..A...A
  40875c:	4202cfdf 420a978d 4212d4fe 421b9062     ...B...B...Bb..B
  40876c:	4224cfdf 422e9db2 4238fefa 4243fefa     ..$B...B..8B..CB
  40877c:	424fa6e9 425c0000 4269147b 4276f0a4     ..OB..\B{.iB..vB
  40878c:	4282cfdf 428a978d 4292d4fe 429b9062     ...B...B...Bb..B
  40879c:	42a4d062 42ae9d2f 42b8ff7d 42c3ff7d     b..B/..B}..B}..B
  4087ac:	42cfa6e9 42dc0000 42e914fe 42f6f127     ...B...B...B'..B
  4087bc:	4302d021 430a974c 4312d4fe 431b9021     !..CL..C...C!..C
  4087cc:	4324d062 432e9d2f 4338ff3b 4343ff7d     b.$C/..C;.8C}.CC
  4087dc:	434fa6e9 435c0000 436914fe 4376f127     ..OC..\C..iC'.vC
  4087ec:	4382d021 438a976d 4392d51f 439b9042     !..Cm..C...CB..C
  4087fc:	43a4d062 43ae9d2f 43b8ff3b 43c3ff5c     b..C/..C;..C\..C
  40880c:	43cfa70a 43dc0000 43e914fe 43f6f106     ...C...C...C...C
  40881c:	4402d010 440a975c 4412d51f 441b9042     ...D\..D...DB..D
  40882c:	4424d052 442e9d2f 4438ff4c 4443ff6d     R.$D/..DL.8Dm.CD
  40883c:	444fa6fa 445c0000 446914fe 4476f117     ..OD..\D..iD..vD
  40884c:	4482d010 448a9764 4492d517 449b9042     ...Dd..D...DB..D
  40885c:	44a4d052 44ae9d37 44b8ff4c 44c3ff6d     R..D7..DL..Dm..D
  40886c:	44cfa702 44dc0000 44e914f6 44f6f10e     ...D...D...D...D
  40887c:	4502d014 450a9760 4512d517 451b9042     ...E`..E...EB..E
  40888c:	4524d052 452e9d37 4538ff48 4543ff68     R.$E7..EH.8Eh.CE
  40889c:	454fa702 455c0000 456914f6 4576f10e     ..OE..\E..iE..vE
  4088ac:	4582d012 458a9760 4592d517 459b9042     ...E`..E...EB..E
  4088bc:	45a4d054 45ae9d37 45b8ff4a 45c3ff6a     T..E7..EJ..Ej..E
  4088cc:	45cfa700 45dc0000 45e914f6 45f6f110     ...E...E...E...E
  4088dc:	4602d012 460a9760 4612d518 461b9041     ...F`..F...FA..F
  4088ec:	4624d052 462e9d33 4638ff48 4643ff66     R.$F3..FH.8Ff.CF

004088fc <sinTable_f32>:
  4088fc:	00000000 3c490e92 3cc90ab1 3d16c32b     ......I<...<+..=
  40890c:	3d48fb2e 3d7b2b75 3d96a904 3dafb680     ..H=u+{=...=...=
  40891c:	3dc8bd36 3de1bc2f 3dfab273 3e09cf87     6..=/..=s..=...>
  40892c:	3e164083 3e22abb5 3e2f10a2 3e3b6ecf     .@.>..">../>.n;>
  40893c:	3e47c5c2 3e541501 3e605c13 3e6c9a7f     ..G>..T>.\`>..l>
  40894c:	3e78cfcc 3e827dc0 3e888e93 3e8e9a22     ..x>.}.>...>"..>
  40895c:	3e94a032 3e9aa086 3ea09ae5 3ea68f12     2..>...>...>...>
  40896c:	3eac7cd4 3eb263ef 3eb8442a 3ebe1d49     .|.>.c.>*D.>I..>
  40897c:	3ec3ef15 3ec9b953 3ecf7bca 3ed53641     ...>S..>.{.>A6.>
  40898c:	3edae880 3ee0924f 3ee63375 3eebcbbb     ...>O..>u3.>...>
  40899c:	3ef15aea 3ef6e0cb 3efc5d27 3f00e7e4     .Z.>...>'].>...?
  4089ac:	3f039c3d 3f064b82 3f08f59b 3f0b9a6b     =..?.K.?...?k..?
  4089bc:	3f0e39da 3f10d3cd 3f13682a 3f15f6d9     .9.?...?*h.?...?
  4089cc:	3f187fc0 3f1b02c6 3f1d7fd1 3f1ff6cb     ...?...?...?...?
  4089dc:	3f226799 3f24d225 3f273656 3f299415     .g"?%.$?V6'?..)?
  4089ec:	3f2beb4a 3f2e3bde 3f3085bb 3f32c8c9     J.+?.;.?..0?..2?
  4089fc:	3f3504f3 3f373a23 3f396842 3f3b8f3b     ..5?#:7?Bh9?;.;?
  408a0c:	3f3daef9 3f3fc767 3f41d870 3f43e201     ..=?g.??p.A?..C?
  408a1c:	3f45e403 3f47de65 3f49d112 3f4bbbf8     ..E?e.G?..I?..K?
  408a2c:	3f4d9f02 3f4f7a20 3f514d3d 3f531849     ..M? zO?=MQ?I.S?
  408a3c:	3f54db31 3f5695e5 3f584853 3f59f26a     1.T?..V?SHX?j.Y?
  408a4c:	3f5b941a 3f5d2d53 3f5ebe05 3f604621     ..[?S-]?..^?!F`?
  408a5c:	3f61c597 3f633c5a 3f64aa59 3f660f88     ..a?Z<c?Y.d?..f?
  408a6c:	3f676bd8 3f68bf3c 3f6a09a7 3f6b4b0c     .kg?<.h?..j?.Kk?
  408a7c:	3f6c835e 3f6db293 3f6ed89e 3f6ff573     ^.l?..m?..n?s.o?
  408a8c:	3f710908 3f721352 3f731447 3f740bdd     ..q?R.r?G.s?..t?
  408a9c:	3f74fa0b 3f75dec6 3f76ba07 3f778bc5     ..t?..u?..v?..w?
  408aac:	3f7853f8 3f791298 3f79c79d 3f7a7302     .Sx?..y?..y?.sz?
  408abc:	3f7b14be 3f7baccd 3f7c3b28 3f7cbfc9     ..{?..{?(;|?..|?
  408acc:	3f7d3aac 3f7dabcc 3f7e1323 3f7e70b0     .:}?..}?#.~?.p~?
  408adc:	3f7ec46d 3f7f0e58 3f7f4e6d 3f7f84ab     m.~?X..?mN.?...?
  408aec:	3f7fb10f 3f7fd397 3f7fec43 3f7ffb11     ...?...?C..?...?
  408afc:	3f800000 3f7ffb11 3f7fec43 3f7fd397     ...?...?C..?...?
  408b0c:	3f7fb10f 3f7f84ab 3f7f4e6d 3f7f0e58     ...?...?mN.?X..?
  408b1c:	3f7ec46d 3f7e70b0 3f7e1323 3f7dabcc     m.~?.p~?#.~?..}?
  408b2c:	3f7d3aac 3f7cbfc9 3f7c3b28 3f7baccd     .:}?..|?(;|?..{?
  408b3c:	3f7b14be 3f7a7302 3f79c79d 3f791298     ..{?.sz?..y?..y?
  408b4c:	3f7853f8 3f778bc5 3f76ba07 3f75dec6     .Sx?..w?..v?..u?
  408b5c:	3f74fa0b 3f740bdd 3f731447 3f721352     ..t?..t?G.s?R.r?
  408b6c:	3f710908 3f6ff573 3f6ed89e 3f6db293     ..q?s.o?..n?..m?
  408b7c:	3f6c835e 3f6b4b0c 3f6a09a7 3f68bf3c     ^.l?.Kk?..j?<.h?
  408b8c:	3f676bd8 3f660f88 3f64aa59 3f633c5a     .kg?..f?Y.d?Z<c?
  408b9c:	3f61c597 3f604621 3f5ebe05 3f5d2d53     ..a?!F`?..^?S-]?
  408bac:	3f5b941a 3f59f26a 3f584853 3f5695e5     ..[?j.Y?SHX?..V?
  408bbc:	3f54db31 3f531849 3f514d3d 3f4f7a20     1.T?I.S?=MQ? zO?
  408bcc:	3f4d9f02 3f4bbbf8 3f49d112 3f47de65     ..M?..K?..I?e.G?
  408bdc:	3f45e403 3f43e201 3f41d870 3f3fc767     ..E?..C?p.A?g.??
  408bec:	3f3daef9 3f3b8f3b 3f396842 3f373a23     ..=?;.;?Bh9?#:7?
  408bfc:	3f3504f3 3f32c8c9 3f3085bb 3f2e3bde     ..5?..2?..0?.;.?
  408c0c:	3f2beb4a 3f299415 3f273656 3f24d225     J.+?..)?V6'?%.$?
  408c1c:	3f226799 3f1ff6cb 3f1d7fd1 3f1b02c6     .g"?...?...?...?
  408c2c:	3f187fc0 3f15f6d9 3f13682a 3f10d3cd     ...?...?*h.?...?
  408c3c:	3f0e39da 3f0b9a6b 3f08f59b 3f064b82     .9.?k..?...?.K.?
  408c4c:	3f039c3d 3f00e7e4 3efc5d27 3ef6e0cb     =..?...?'].>...>
  408c5c:	3ef15aea 3eebcbbb 3ee63375 3ee0924f     .Z.>...>u3.>O..>
  408c6c:	3edae880 3ed53641 3ecf7bca 3ec9b953     ...>A6.>.{.>S..>
  408c7c:	3ec3ef15 3ebe1d49 3eb8442a 3eb263ef     ...>I..>*D.>.c.>
  408c8c:	3eac7cd4 3ea68f12 3ea09ae5 3e9aa086     .|.>...>...>...>
  408c9c:	3e94a032 3e8e9a22 3e888e93 3e827dc0     2..>"..>...>.}.>
  408cac:	3e78cfcc 3e6c9a7f 3e605c13 3e541501     ..x>..l>.\`>..T>
  408cbc:	3e47c5c2 3e3b6ecf 3e2f10a2 3e22abb5     ..G>.n;>../>..">
  408ccc:	3e164083 3e09cf87 3dfab273 3de1bc2f     .@.>...>s..=/..=
  408cdc:	3dc8bd36 3dafb680 3d96a904 3d7b2b75     6..=...=...=u+{=
  408cec:	3d48fb2e 3d16c32b 3cc90ab1 3c490e92     ..H=+..=...<..I<
  408cfc:	00000000 bc490e92 bcc90ab1 bd16c32b     ......I.....+...
  408d0c:	bd48fb2e bd7b2b75 bd96a904 bdafb680     ..H.u+{.........
  408d1c:	bdc8bd36 bde1bc2f bdfab273 be09cf87     6.../...s.......
  408d2c:	be164083 be22abb5 be2f10a2 be3b6ecf     .@....".../..n;.
  408d3c:	be47c5c2 be541501 be605c13 be6c9a7f     ..G...T..\`...l.
  408d4c:	be78cfcc be827dc0 be888e93 be8e9a22     ..x..}......"...
  408d5c:	be94a032 be9aa086 bea09ae5 bea68f12     2...............
  408d6c:	beac7cd4 beb263ef beb8442a bebe1d49     .|...c..*D..I...
  408d7c:	bec3ef15 bec9b953 becf7bca bed53641     ....S....{..A6..
  408d8c:	bedae880 bee0924f bee63375 beebcbbb     ....O...u3......
  408d9c:	bef15aea bef6e0cb befc5d27 bf00e7e4     .Z......']......
  408dac:	bf039c3d bf064b82 bf08f59b bf0b9a6b     =....K......k...
  408dbc:	bf0e39da bf10d3cd bf13682a bf15f6d9     .9......*h......
  408dcc:	bf187fc0 bf1b02c6 bf1d7fd1 bf1ff6cb     ................
  408ddc:	bf226799 bf24d225 bf273656 bf299415     .g".%.$.V6'...).
  408dec:	bf2beb4a bf2e3bde bf3085bb bf32c8c9     J.+..;....0...2.
  408dfc:	bf3504f3 bf373a23 bf396842 bf3b8f3b     ..5.#:7.Bh9.;.;.
  408e0c:	bf3daef9 bf3fc767 bf41d870 bf43e201     ..=.g.?.p.A...C.
  408e1c:	bf45e403 bf47de65 bf49d112 bf4bbbf8     ..E.e.G...I...K.
  408e2c:	bf4d9f02 bf4f7a20 bf514d3d bf531849     ..M. zO.=MQ.I.S.
  408e3c:	bf54db31 bf5695e5 bf584853 bf59f26a     1.T...V.SHX.j.Y.
  408e4c:	bf5b941a bf5d2d53 bf5ebe05 bf604621     ..[.S-]...^.!F`.
  408e5c:	bf61c597 bf633c5a bf64aa59 bf660f88     ..a.Z<c.Y.d...f.
  408e6c:	bf676bd8 bf68bf3c bf6a09a7 bf6b4b0c     .kg.<.h...j..Kk.
  408e7c:	bf6c835e bf6db293 bf6ed89e bf6ff573     ^.l...m...n.s.o.
  408e8c:	bf710908 bf721352 bf731447 bf740bdd     ..q.R.r.G.s...t.
  408e9c:	bf74fa0b bf75dec6 bf76ba07 bf778bc5     ..t...u...v...w.
  408eac:	bf7853f8 bf791298 bf79c79d bf7a7302     .Sx...y...y..sz.
  408ebc:	bf7b14be bf7baccd bf7c3b28 bf7cbfc9     ..{...{.(;|...|.
  408ecc:	bf7d3aac bf7dabcc bf7e1323 bf7e70b0     .:}...}.#.~..p~.
  408edc:	bf7ec46d bf7f0e58 bf7f4e6d bf7f84ab     m.~.X...mN......
  408eec:	bf7fb10f bf7fd397 bf7fec43 bf7ffb11     ........C.......
  408efc:	bf800000 bf7ffb11 bf7fec43 bf7fd397     ........C.......
  408f0c:	bf7fb10f bf7f84ab bf7f4e6d bf7f0e58     ........mN..X...
  408f1c:	bf7ec46d bf7e70b0 bf7e1323 bf7dabcc     m.~..p~.#.~...}.
  408f2c:	bf7d3aac bf7cbfc9 bf7c3b28 bf7baccd     .:}...|.(;|...{.
  408f3c:	bf7b14be bf7a7302 bf79c79d bf791298     ..{..sz...y...y.
  408f4c:	bf7853f8 bf778bc5 bf76ba07 bf75dec6     .Sx...w...v...u.
  408f5c:	bf74fa0b bf740bdd bf731447 bf721352     ..t...t.G.s.R.r.
  408f6c:	bf710908 bf6ff573 bf6ed89e bf6db293     ..q.s.o...n...m.
  408f7c:	bf6c835e bf6b4b0c bf6a09a7 bf68bf3c     ^.l..Kk...j.<.h.
  408f8c:	bf676bd8 bf660f88 bf64aa59 bf633c5a     .kg...f.Y.d.Z<c.
  408f9c:	bf61c597 bf604621 bf5ebe05 bf5d2d53     ..a.!F`...^.S-].
  408fac:	bf5b941a bf59f26a bf584853 bf5695e5     ..[.j.Y.SHX...V.
  408fbc:	bf54db31 bf531849 bf514d3d bf4f7a20     1.T.I.S.=MQ. zO.
  408fcc:	bf4d9f02 bf4bbbf8 bf49d112 bf47de65     ..M...K...I.e.G.
  408fdc:	bf45e403 bf43e201 bf41d870 bf3fc767     ..E...C.p.A.g.?.
  408fec:	bf3daef9 bf3b8f3b bf396842 bf373a23     ..=.;.;.Bh9.#:7.
  408ffc:	bf3504f3 bf32c8c9 bf3085bb bf2e3bde     ..5...2...0..;..
  40900c:	bf2beb4a bf299415 bf273656 bf24d225     J.+...).V6'.%.$.
  40901c:	bf226799 bf1ff6cb bf1d7fd1 bf1b02c6     .g".............
  40902c:	bf187fc0 bf15f6d9 bf13682a bf10d3cd     ........*h......
  40903c:	bf0e39da bf0b9a6b bf08f59b bf064b82     .9..k........K..
  40904c:	bf039c3d bf00e7e4 befc5d27 bef6e0cb     =.......']......
  40905c:	bef15aea beebcbbb bee63375 bee0924f     .Z......u3..O...
  40906c:	bedae880 bed53641 becf7bca bec9b953     ....A6...{..S...
  40907c:	bec3ef15 bebe1d49 beb8442a beb263ef     ....I...*D...c..
  40908c:	beac7cd4 bea68f12 bea09ae5 be9aa086     .|..............
  40909c:	be94a032 be8e9a22 be888e93 be827dc0     2..."........}..
  4090ac:	be78cfcc be6c9a7f be605c13 be541501     ..x...l..\`...T.
  4090bc:	be47c5c2 be3b6ecf be2f10a2 be22abb5     ..G..n;.../...".
  4090cc:	be164083 be09cf87 bdfab273 bde1bc2f     .@......s.../...
  4090dc:	bdc8bd36 bdafb680 bd96a904 bd7b2b75     6...........u+{.
  4090ec:	bd48fb2e bd16c32b bcc90ab1 bc490e92     ..H.+.........I.
  4090fc:	80000000                                ....

00409100 <_global_impure_ptr>:
  409100:	20400050 33323130 37363534 42413938     P.@ 0123456789AB
  409110:	46454443 00000000 33323130 37363534     CDEF....01234567
  409120:	62613938 66656463 00000000 6c756e28     89abcdef....(nul
  409130:	0000296c                                l)..

00409134 <blanks.8340>:
  409134:	20202020 20202020 20202020 20202020                     

00409144 <zeroes.8341>:
  409144:	30303030 30303030 30303030 30303030     0000000000000000
  409154:	00000043 49534f50 00000058 0000002e     C...POSIX.......

00409164 <_ctype_>:
  409164:	20202000 20202020 28282020 20282828     .         ((((( 
  409174:	20202020 20202020 20202020 20202020                     
  409184:	10108820 10101010 10101010 10101010      ...............
  409194:	04040410 04040404 10040404 10101010     ................
  4091a4:	41411010 41414141 01010101 01010101     ..AAAAAA........
  4091b4:	01010101 01010101 01010101 10101010     ................
  4091c4:	42421010 42424242 02020202 02020202     ..BBBBBB........
  4091d4:	02020202 02020202 02020202 10101010     ................
  4091e4:	00000020 00000000 00000000 00000000      ...............
	...

00409268 <_init>:
  409268:	b5f8      	push	{r3, r4, r5, r6, r7, lr}
  40926a:	bf00      	nop
  40926c:	bcf8      	pop	{r3, r4, r5, r6, r7}
  40926e:	bc08      	pop	{r3}
  409270:	469e      	mov	lr, r3
  409272:	4770      	bx	lr

00409274 <__init_array_start>:
  409274:	00406fb9 	.word	0x00406fb9

00409278 <__frame_dummy_init_array_entry>:
  409278:	00400165                                e.@.

0040927c <_fini>:
  40927c:	b5f8      	push	{r3, r4, r5, r6, r7, lr}
  40927e:	bf00      	nop
  409280:	bcf8      	pop	{r3, r4, r5, r6, r7}
  409282:	bc08      	pop	{r3}
  409284:	469e      	mov	lr, r3
  409286:	4770      	bx	lr

00409288 <__fini_array_start>:
  409288:	00400141 	.word	0x00400141

Disassembly of section .relocate:

20400000 <portable_delay_cycles>:
RAMFUNC
void portable_delay_cycles(unsigned long n)
{
	UNUSED(n);

	__asm (
20400000:	f3bf 8f5f 	dmb	sy
20400004:	3801      	subs	r0, #1
20400006:	d1fb      	bne.n	20400000 <portable_delay_cycles>
20400008:	4770      	bx	lr
	...

2040000c <inBuffer>:
2040000c:	b800 2042                                   ..B 

20400010 <inPingMode>:
20400010:	0001 0000                                   ....

20400014 <outBuffer>:
20400014:	a000 2042                                   ..B 

20400018 <outPingMode>:
20400018:	0001 0000                                   ....

2040001c <processBuffer>:
2040001c:	9000 2042                                   ..B 

20400020 <pitchtracker>:
20400020:	0000 bf80 ffff ffff                         ........

20400028 <g_interrupt_enabled>:
20400028:	0001 0000                                   ....

2040002c <SystemCoreClock>:
2040002c:	0900 003d                                   ..=.

20400030 <uxCriticalNesting>:
20400030:	aaaa aaaa                                   ....

20400034 <xISRTestStatus>:
20400034:	0001 0000                                   ....

20400038 <uxTick.9777>:
20400038:	ffff ffff                                   ....

2040003c <xTestStatus>:
2040003c:	0001 0000                                   ....

20400040 <harmony_list_fill>:
20400040:	c018 2042                                   ..B 

20400044 <harmony_list_read>:
20400044:	c044 2042                                   D.B 

20400048 <_impure_ptr>:
20400048:	0050 2040 0000 0000                         P.@ ....

20400050 <impure_data>:
20400050:	0000 0000 033c 2040 03a4 2040 040c 2040     ....<.@ ..@ ..@ 
	...
204000f8:	0001 0000 0000 0000 330e abcd 1234 e66d     .........3..4.m.
20400108:	deec 0005 000b 0000 0000 0000 0000 0000     ................
	...

20400478 <__malloc_av_>:
	...
20400480:	0478 2040 0478 2040 0480 2040 0480 2040     x.@ x.@ ..@ ..@ 
20400490:	0488 2040 0488 2040 0490 2040 0490 2040     ..@ ..@ ..@ ..@ 
204004a0:	0498 2040 0498 2040 04a0 2040 04a0 2040     ..@ ..@ ..@ ..@ 
204004b0:	04a8 2040 04a8 2040 04b0 2040 04b0 2040     ..@ ..@ ..@ ..@ 
204004c0:	04b8 2040 04b8 2040 04c0 2040 04c0 2040     ..@ ..@ ..@ ..@ 
204004d0:	04c8 2040 04c8 2040 04d0 2040 04d0 2040     ..@ ..@ ..@ ..@ 
204004e0:	04d8 2040 04d8 2040 04e0 2040 04e0 2040     ..@ ..@ ..@ ..@ 
204004f0:	04e8 2040 04e8 2040 04f0 2040 04f0 2040     ..@ ..@ ..@ ..@ 
20400500:	04f8 2040 04f8 2040 0500 2040 0500 2040     ..@ ..@ ..@ ..@ 
20400510:	0508 2040 0508 2040 0510 2040 0510 2040     ..@ ..@ ..@ ..@ 
20400520:	0518 2040 0518 2040 0520 2040 0520 2040     ..@ ..@  .@  .@ 
20400530:	0528 2040 0528 2040 0530 2040 0530 2040     (.@ (.@ 0.@ 0.@ 
20400540:	0538 2040 0538 2040 0540 2040 0540 2040     8.@ 8.@ @.@ @.@ 
20400550:	0548 2040 0548 2040 0550 2040 0550 2040     H.@ H.@ P.@ P.@ 
20400560:	0558 2040 0558 2040 0560 2040 0560 2040     X.@ X.@ `.@ `.@ 
20400570:	0568 2040 0568 2040 0570 2040 0570 2040     h.@ h.@ p.@ p.@ 
20400580:	0578 2040 0578 2040 0580 2040 0580 2040     x.@ x.@ ..@ ..@ 
20400590:	0588 2040 0588 2040 0590 2040 0590 2040     ..@ ..@ ..@ ..@ 
204005a0:	0598 2040 0598 2040 05a0 2040 05a0 2040     ..@ ..@ ..@ ..@ 
204005b0:	05a8 2040 05a8 2040 05b0 2040 05b0 2040     ..@ ..@ ..@ ..@ 
204005c0:	05b8 2040 05b8 2040 05c0 2040 05c0 2040     ..@ ..@ ..@ ..@ 
204005d0:	05c8 2040 05c8 2040 05d0 2040 05d0 2040     ..@ ..@ ..@ ..@ 
204005e0:	05d8 2040 05d8 2040 05e0 2040 05e0 2040     ..@ ..@ ..@ ..@ 
204005f0:	05e8 2040 05e8 2040 05f0 2040 05f0 2040     ..@ ..@ ..@ ..@ 
20400600:	05f8 2040 05f8 2040 0600 2040 0600 2040     ..@ ..@ ..@ ..@ 
20400610:	0608 2040 0608 2040 0610 2040 0610 2040     ..@ ..@ ..@ ..@ 
20400620:	0618 2040 0618 2040 0620 2040 0620 2040     ..@ ..@  .@  .@ 
20400630:	0628 2040 0628 2040 0630 2040 0630 2040     (.@ (.@ 0.@ 0.@ 
20400640:	0638 2040 0638 2040 0640 2040 0640 2040     8.@ 8.@ @.@ @.@ 
20400650:	0648 2040 0648 2040 0650 2040 0650 2040     H.@ H.@ P.@ P.@ 
20400660:	0658 2040 0658 2040 0660 2040 0660 2040     X.@ X.@ `.@ `.@ 
20400670:	0668 2040 0668 2040 0670 2040 0670 2040     h.@ h.@ p.@ p.@ 
20400680:	0678 2040 0678 2040 0680 2040 0680 2040     x.@ x.@ ..@ ..@ 
20400690:	0688 2040 0688 2040 0690 2040 0690 2040     ..@ ..@ ..@ ..@ 
204006a0:	0698 2040 0698 2040 06a0 2040 06a0 2040     ..@ ..@ ..@ ..@ 
204006b0:	06a8 2040 06a8 2040 06b0 2040 06b0 2040     ..@ ..@ ..@ ..@ 
204006c0:	06b8 2040 06b8 2040 06c0 2040 06c0 2040     ..@ ..@ ..@ ..@ 
204006d0:	06c8 2040 06c8 2040 06d0 2040 06d0 2040     ..@ ..@ ..@ ..@ 
204006e0:	06d8 2040 06d8 2040 06e0 2040 06e0 2040     ..@ ..@ ..@ ..@ 
204006f0:	06e8 2040 06e8 2040 06f0 2040 06f0 2040     ..@ ..@ ..@ ..@ 
20400700:	06f8 2040 06f8 2040 0700 2040 0700 2040     ..@ ..@ ..@ ..@ 
20400710:	0708 2040 0708 2040 0710 2040 0710 2040     ..@ ..@ ..@ ..@ 
20400720:	0718 2040 0718 2040 0720 2040 0720 2040     ..@ ..@  .@  .@ 
20400730:	0728 2040 0728 2040 0730 2040 0730 2040     (.@ (.@ 0.@ 0.@ 
20400740:	0738 2040 0738 2040 0740 2040 0740 2040     8.@ 8.@ @.@ @.@ 
20400750:	0748 2040 0748 2040 0750 2040 0750 2040     H.@ H.@ P.@ P.@ 
20400760:	0758 2040 0758 2040 0760 2040 0760 2040     X.@ X.@ `.@ `.@ 
20400770:	0768 2040 0768 2040 0770 2040 0770 2040     h.@ h.@ p.@ p.@ 
20400780:	0778 2040 0778 2040 0780 2040 0780 2040     x.@ x.@ ..@ ..@ 
20400790:	0788 2040 0788 2040 0790 2040 0790 2040     ..@ ..@ ..@ ..@ 
204007a0:	0798 2040 0798 2040 07a0 2040 07a0 2040     ..@ ..@ ..@ ..@ 
204007b0:	07a8 2040 07a8 2040 07b0 2040 07b0 2040     ..@ ..@ ..@ ..@ 
204007c0:	07b8 2040 07b8 2040 07c0 2040 07c0 2040     ..@ ..@ ..@ ..@ 
204007d0:	07c8 2040 07c8 2040 07d0 2040 07d0 2040     ..@ ..@ ..@ ..@ 
204007e0:	07d8 2040 07d8 2040 07e0 2040 07e0 2040     ..@ ..@ ..@ ..@ 
204007f0:	07e8 2040 07e8 2040 07f0 2040 07f0 2040     ..@ ..@ ..@ ..@ 
20400800:	07f8 2040 07f8 2040 0800 2040 0800 2040     ..@ ..@ ..@ ..@ 
20400810:	0808 2040 0808 2040 0810 2040 0810 2040     ..@ ..@ ..@ ..@ 
20400820:	0818 2040 0818 2040 0820 2040 0820 2040     ..@ ..@  .@  .@ 
20400830:	0828 2040 0828 2040 0830 2040 0830 2040     (.@ (.@ 0.@ 0.@ 
20400840:	0838 2040 0838 2040 0840 2040 0840 2040     8.@ 8.@ @.@ @.@ 
20400850:	0848 2040 0848 2040 0850 2040 0850 2040     H.@ H.@ P.@ P.@ 
20400860:	0858 2040 0858 2040 0860 2040 0860 2040     X.@ X.@ `.@ `.@ 
20400870:	0868 2040 0868 2040 0870 2040 0870 2040     h.@ h.@ p.@ p.@ 

20400880 <__malloc_sbrk_base>:
20400880:	ffff ffff                                   ....

20400884 <__malloc_trim_threshold>:
20400884:	0000 0002                                   ....

20400888 <__atexit_recursive_mutex>:
20400888:	c070 2042                                   p.B 

2040088c <__global_locale>:
2040088c:	0043 0000 0000 0000 0000 0000 0000 0000     C...............
	...
204008ac:	0043 0000 0000 0000 0000 0000 0000 0000     C...............
	...
204008cc:	0043 0000 0000 0000 0000 0000 0000 0000     C...............
	...
204008ec:	0043 0000 0000 0000 0000 0000 0000 0000     C...............
	...
2040090c:	0043 0000 0000 0000 0000 0000 0000 0000     C...............
	...
2040092c:	0043 0000 0000 0000 0000 0000 0000 0000     C...............
	...
2040094c:	0043 0000 0000 0000 0000 0000 0000 0000     C...............
	...
2040096c:	80b1 0040 7a41 0040 0000 0000 9164 0040     ..@.Az@.....d.@.
2040097c:	9160 0040 9114 0040 9114 0040 9114 0040     `.@...@...@...@.
2040098c:	9114 0040 9114 0040 9114 0040 9114 0040     ..@...@...@...@.
2040099c:	9114 0040 9114 0040 ffff ffff ffff ffff     ..@...@.........
204009ac:	ffff ffff ffff 0000 0001 5341 4943 0049     ..........ASCII.
	...
204009d4:	0000 5341 4943 0049 0000 0000 0000 0000     ..ASCII.........
	...
