
Transcriber.elf:     file format elf32-littlearm

Sections:
Idx Name          Size      VMA       LMA       File off  Algn
  0 .text         00014aa4  00400000  00400000  00010000  2**6
                  CONTENTS, ALLOC, LOAD, READONLY, CODE
  1 .ARM.exidx    00000008  00414aa4  00414aa4  00024aa4  2**2
                  CONTENTS, ALLOC, LOAD, READONLY, DATA
  2 .relocate     00000a00  20400000  00414aac  00030000  2**3
                  CONTENTS, ALLOC, LOAD, CODE
  3 .bss          0003ae18  20400a00  004154ac  00030a00  2**2
                  ALLOC
  4 .stack        00002000  2043b818  004502c4  00030a00  2**0
                  ALLOC
  5 .heap         00000200  2043d818  004522c4  00030a00  2**0
                  ALLOC
  6 .ARM.attributes 0000002c  00000000  00000000  00030a00  2**0
                  CONTENTS, READONLY
  7 .comment      00000059  00000000  00000000  00030a2c  2**0
                  CONTENTS, READONLY
  8 .debug_info   0002a3d5  00000000  00000000  00030a85  2**0
                  CONTENTS, READONLY, DEBUGGING
  9 .debug_abbrev 00006202  00000000  00000000  0005ae5a  2**0
                  CONTENTS, READONLY, DEBUGGING
 10 .debug_loc    0000dd03  00000000  00000000  0006105c  2**0
                  CONTENTS, READONLY, DEBUGGING
 11 .debug_aranges 00001068  00000000  00000000  0006ed5f  2**0
                  CONTENTS, READONLY, DEBUGGING
 12 .debug_ranges 00002628  00000000  00000000  0006fdc7  2**0
                  CONTENTS, READONLY, DEBUGGING
 13 .debug_macro  00028400  00000000  00000000  000723ef  2**0
                  CONTENTS, READONLY, DEBUGGING
 14 .debug_line   0001a339  00000000  00000000  0009a7ef  2**0
                  CONTENTS, READONLY, DEBUGGING
 15 .debug_str    0009dd84  00000000  00000000  000b4b28  2**0
                  CONTENTS, READONLY, DEBUGGING
 16 .debug_frame  00003c60  00000000  00000000  001528ac  2**2
                  CONTENTS, READONLY, DEBUGGING

Disassembly of section .text:

00400000 <exception_table>:
  400000:	18 d8 43 20 81 42 40 00 79 42 40 00 7d 42 40 00     ..C .B@.yB@.}B@.
  400010:	79 42 40 00 79 42 40 00 79 42 40 00 00 00 00 00     yB@.yB@.yB@.....
	...
  40002c:	79 42 40 00 79 42 40 00 00 00 00 00 79 42 40 00     yB@.yB@.....yB@.
  40003c:	7d 47 40 00 79 42 40 00 79 42 40 00 79 42 40 00     }G@.yB@.yB@.yB@.
  40004c:	05 0f 40 00 79 42 40 00 79 42 40 00 79 42 40 00     ..@.yB@.yB@.yB@.
  40005c:	79 42 40 00 79 42 40 00 00 00 00 00 dd 3f 40 00     yB@.yB@......?@.
  40006c:	ed 3f 40 00 fd 3f 40 00 79 42 40 00 51 47 40 00     .?@..?@.yB@.QG@.
  40007c:	79 42 40 00 0d 40 40 00 1d 40 40 00 79 42 40 00     yB@..@@..@@.yB@.
  40008c:	79 42 40 00 79 42 40 00 79 42 40 00 79 42 40 00     yB@.yB@.yB@.yB@.
  40009c:	79 42 40 00 79 42 40 00 79 42 40 00 79 42 40 00     yB@.yB@.yB@.yB@.
  4000ac:	79 42 40 00 79 42 40 00 79 42 40 00 79 42 40 00     yB@.yB@.yB@.yB@.
  4000bc:	79 42 40 00 79 42 40 00 79 42 40 00 79 42 40 00     yB@.yB@.yB@.yB@.
  4000cc:	79 42 40 00 00 00 00 00 79 42 40 00 00 00 00 00     yB@.....yB@.....
  4000dc:	79 42 40 00 79 42 40 00 79 42 40 00 79 42 40 00     yB@.yB@.yB@.yB@.
  4000ec:	79 42 40 00 79 42 40 00 79 42 40 00 79 42 40 00     yB@.yB@.yB@.yB@.
  4000fc:	79 42 40 00 79 42 40 00 79 42 40 00 79 42 40 00     yB@.yB@.yB@.yB@.
  40010c:	79 42 40 00 79 42 40 00 79 42 40 00 00 00 00 00     yB@.yB@.yB@.....
  40011c:	00 00 00 00 79 42 40 00 79 42 40 00 ad 01 40 00     ....yB@.yB@...@.
  40012c:	79 42 40 00 79 42 40 00 00 00 00 00 79 42 40 00     yB@.yB@.....yB@.
  40013c:	79 42 40 00                                         yB@.

00400140 <__do_global_dtors_aux>:
  400140:	b510      	push	{r4, lr}
  400142:	4c05      	ldr	r4, [pc, #20]	; (400158 <__do_global_dtors_aux+0x18>)
  400144:	7823      	ldrb	r3, [r4, #0]
  400146:	b933      	cbnz	r3, 400156 <__do_global_dtors_aux+0x16>
  400148:	4b04      	ldr	r3, [pc, #16]	; (40015c <__do_global_dtors_aux+0x1c>)
  40014a:	b113      	cbz	r3, 400152 <__do_global_dtors_aux+0x12>
  40014c:	4804      	ldr	r0, [pc, #16]	; (400160 <__do_global_dtors_aux+0x20>)
  40014e:	f3af 8000 	nop.w
  400152:	2301      	movs	r3, #1
  400154:	7023      	strb	r3, [r4, #0]
  400156:	bd10      	pop	{r4, pc}
  400158:	20400a00 	.word	0x20400a00
  40015c:	00000000 	.word	0x00000000
  400160:	00414aac 	.word	0x00414aac

00400164 <frame_dummy>:
  400164:	4b0c      	ldr	r3, [pc, #48]	; (400198 <frame_dummy+0x34>)
  400166:	b143      	cbz	r3, 40017a <frame_dummy+0x16>
  400168:	480c      	ldr	r0, [pc, #48]	; (40019c <frame_dummy+0x38>)
  40016a:	490d      	ldr	r1, [pc, #52]	; (4001a0 <frame_dummy+0x3c>)
  40016c:	b510      	push	{r4, lr}
  40016e:	f3af 8000 	nop.w
  400172:	480c      	ldr	r0, [pc, #48]	; (4001a4 <frame_dummy+0x40>)
  400174:	6803      	ldr	r3, [r0, #0]
  400176:	b923      	cbnz	r3, 400182 <frame_dummy+0x1e>
  400178:	bd10      	pop	{r4, pc}
  40017a:	480a      	ldr	r0, [pc, #40]	; (4001a4 <frame_dummy+0x40>)
  40017c:	6803      	ldr	r3, [r0, #0]
  40017e:	b933      	cbnz	r3, 40018e <frame_dummy+0x2a>
  400180:	4770      	bx	lr
  400182:	4b09      	ldr	r3, [pc, #36]	; (4001a8 <frame_dummy+0x44>)
  400184:	2b00      	cmp	r3, #0
  400186:	d0f7      	beq.n	400178 <frame_dummy+0x14>
  400188:	e8bd 4010 	ldmia.w	sp!, {r4, lr}
  40018c:	4718      	bx	r3
  40018e:	4b06      	ldr	r3, [pc, #24]	; (4001a8 <frame_dummy+0x44>)
  400190:	2b00      	cmp	r3, #0
  400192:	d0f5      	beq.n	400180 <frame_dummy+0x1c>
  400194:	4718      	bx	r3
  400196:	bf00      	nop
  400198:	00000000 	.word	0x00000000
  40019c:	00414aac 	.word	0x00414aac
  4001a0:	20400a04 	.word	0x20400a04
  4001a4:	00414aac 	.word	0x00414aac
  4001a8:	00000000 	.word	0x00000000

004001ac <XDMAC_Handler>:
 */
static inline uint32_t xdmac_channel_get_interrupt_status(Xdmac *xdmac, uint32_t channel_num)
{
	Assert(xdmac);
	Assert(channel_num < XDMACCHID_NUMBER);
	return xdmac->XDMAC_CHID[channel_num].XDMAC_CIS;
  4001ac:	4b87      	ldr	r3, [pc, #540]	; (4003cc <XDMAC_Handler+0x220>)
  4001ae:	6ddb      	ldr	r3, [r3, #92]	; 0x5c
void XDMAC_Handler(void)
{
    uint32_t dma_status;
    
    dma_status = xdmac_channel_get_interrupt_status(XDMAC, XDMA_CH_SSC_RX);
    if (dma_status & XDMAC_CIS_BIS)
  4001b0:	07d8      	lsls	r0, r3, #31
  4001b2:	d556      	bpl.n	400262 <XDMAC_Handler+0xb6>
    {
		if(inPingMode)
  4001b4:	4a86      	ldr	r2, [pc, #536]	; (4003d0 <XDMAC_Handler+0x224>)
{
  4001b6:	e92d 4ff0 	stmdb	sp!, {r4, r5, r6, r7, r8, r9, sl, fp, lr}
		if(inPingMode)
  4001ba:	7813      	ldrb	r3, [r2, #0]
  4001bc:	2b00      	cmp	r3, #0
  4001be:	d162      	bne.n	400286 <XDMAC_Handler+0xda>
		{
			inBuffer = inPingBuffer; 
		}
		else 
		{
			inBuffer = inPongBuffer; 
  4001c0:	4984      	ldr	r1, [pc, #528]	; (4003d4 <XDMAC_Handler+0x228>)
  4001c2:	4885      	ldr	r0, [pc, #532]	; (4003d8 <XDMAC_Handler+0x22c>)
  4001c4:	460b      	mov	r3, r1
  4001c6:	6001      	str	r1, [r0, #0]
		}
		inPingMode = !inPingMode; 
  4001c8:	7811      	ldrb	r1, [r2, #0]
  4001ca:	f081 0101 	eor.w	r1, r1, #1
  4001ce:	7011      	strb	r1, [r2, #0]
		int processIdx = 0; 
		if (metronome_on)
  4001d0:	4a82      	ldr	r2, [pc, #520]	; (4003dc <XDMAC_Handler+0x230>)
  4001d2:	7811      	ldrb	r1, [r2, #0]
  4001d4:	f001 02ff 	and.w	r2, r1, #255	; 0xff
  4001d8:	2900      	cmp	r1, #0
  4001da:	d15d      	bne.n	400298 <XDMAC_Handler+0xec>
  4001dc:	4c80      	ldr	r4, [pc, #512]	; (4003e0 <XDMAC_Handler+0x234>)
  4001de:	e000      	b.n	4001e2 <XDMAC_Handler+0x36>
  4001e0:	6803      	ldr	r3, [r0, #0]
			}
		}
		else 
		{
			for(int i = 0; i < BUF_SIZE; i++)
				outBuffer[i] = (uint16_t)((int16_t)inBuffer[i] / 2);	
  4001e2:	5a9b      	ldrh	r3, [r3, r2]
  4001e4:	6821      	ldr	r1, [r4, #0]
  4001e6:	b21b      	sxth	r3, r3
  4001e8:	4411      	add	r1, r2
  4001ea:	3202      	adds	r2, #2
  4001ec:	2b00      	cmp	r3, #0
  4001ee:	bfb8      	it	lt
  4001f0:	3301      	addlt	r3, #1
			for(int i = 0; i < BUF_SIZE; i++)
  4001f2:	f5b2 7f80 	cmp.w	r2, #256	; 0x100
				outBuffer[i] = (uint16_t)((int16_t)inBuffer[i] / 2);	
  4001f6:	f3c3 034f 	ubfx	r3, r3, #1, #16
  4001fa:	800b      	strh	r3, [r1, #0]
			for(int i = 0; i < BUF_SIZE; i++)
  4001fc:	d1f0      	bne.n	4001e0 <XDMAC_Handler+0x34>
  4001fe:	2300      	movs	r3, #0
  400200:	4d78      	ldr	r5, [pc, #480]	; (4003e4 <XDMAC_Handler+0x238>)
  400202:	461c      	mov	r4, r3
		
		// Fill process buffer 
		for(int i = 0; i < BUF_SIZE; i++)
		{
			/* Check if divisible by 4 for decimation by 2 */
			if ((i & 0x03) == 0)
  400204:	0799      	lsls	r1, r3, #30
  400206:	d10d      	bne.n	400224 <XDMAC_Handler+0x78>
				fillBuffer[processIdx++] = (float32_t)((int16_t)inBuffer[i]);
  400208:	6802      	ldr	r2, [r0, #0]
  40020a:	6829      	ldr	r1, [r5, #0]
  40020c:	f832 2013 	ldrh.w	r2, [r2, r3, lsl #1]
  400210:	eb01 0184 	add.w	r1, r1, r4, lsl #2
  400214:	3401      	adds	r4, #1
  400216:	b212      	sxth	r2, r2
  400218:	ee07 2a90 	vmov	s15, r2
  40021c:	eef8 7ae7 	vcvt.f32.s32	s15, s15
  400220:	edc1 7a00 	vstr	s15, [r1]
		for(int i = 0; i < BUF_SIZE; i++)
  400224:	3301      	adds	r3, #1
  400226:	2b80      	cmp	r3, #128	; 0x80
  400228:	d1ec      	bne.n	400204 <XDMAC_Handler+0x58>
		}
		
		if (processPingMode)
  40022a:	4b6f      	ldr	r3, [pc, #444]	; (4003e8 <XDMAC_Handler+0x23c>)
  40022c:	781b      	ldrb	r3, [r3, #0]
  40022e:	2b00      	cmp	r3, #0
  400230:	d02d      	beq.n	40028e <XDMAC_Handler+0xe2>
		{
			if (fillBuffer == &processPingBuffer[PROCESS_BUF_SIZE - (BUF_SIZE >> 1)])
  400232:	682b      	ldr	r3, [r5, #0]
  400234:	4a6d      	ldr	r2, [pc, #436]	; (4003ec <XDMAC_Handler+0x240>)
  400236:	4293      	cmp	r3, r2
  400238:	d001      	beq.n	40023e <XDMAC_Handler+0x92>
			{
				// out of time 
			}
			else
			{
				fillBuffer += PROCESS_BUF_SIZE_INCREMENT;
  40023a:	3380      	adds	r3, #128	; 0x80
  40023c:	602b      	str	r3, [r5, #0]
  40023e:	4b63      	ldr	r3, [pc, #396]	; (4003cc <XDMAC_Handler+0x220>)
  400240:	f8d3 309c 	ldr.w	r3, [r3, #156]	; 0x9c
			}
		}
    }
	
	dma_status = xdmac_channel_get_interrupt_status(XDMAC, XDMA_CH_SSC_TX);
	if (dma_status & XDMAC_CIS_BIS)
  400244:	07da      	lsls	r2, r3, #31
  400246:	d50a      	bpl.n	40025e <XDMAC_Handler+0xb2>
	{
		if(outPingMode)
  400248:	4b69      	ldr	r3, [pc, #420]	; (4003f0 <XDMAC_Handler+0x244>)
  40024a:	781a      	ldrb	r2, [r3, #0]
  40024c:	2a00      	cmp	r2, #0
  40024e:	d152      	bne.n	4002f6 <XDMAC_Handler+0x14a>
		{
			outBuffer = outPingBuffer; 
		}
		else
		{
			outBuffer = outPongBuffer; 
  400250:	4a63      	ldr	r2, [pc, #396]	; (4003e0 <XDMAC_Handler+0x234>)
  400252:	4968      	ldr	r1, [pc, #416]	; (4003f4 <XDMAC_Handler+0x248>)
  400254:	6011      	str	r1, [r2, #0]
		}
		outPingMode = !outPingMode; 
  400256:	781a      	ldrb	r2, [r3, #0]
  400258:	f082 0201 	eor.w	r2, r2, #1
  40025c:	701a      	strb	r2, [r3, #0]
  40025e:	e8bd 8ff0 	ldmia.w	sp!, {r4, r5, r6, r7, r8, r9, sl, fp, pc}
  400262:	4b5a      	ldr	r3, [pc, #360]	; (4003cc <XDMAC_Handler+0x220>)
  400264:	f8d3 309c 	ldr.w	r3, [r3, #156]	; 0x9c
	if (dma_status & XDMAC_CIS_BIS)
  400268:	07db      	lsls	r3, r3, #31
  40026a:	d50b      	bpl.n	400284 <XDMAC_Handler+0xd8>
		if(outPingMode)
  40026c:	4b60      	ldr	r3, [pc, #384]	; (4003f0 <XDMAC_Handler+0x244>)
  40026e:	781a      	ldrb	r2, [r3, #0]
  400270:	2a00      	cmp	r2, #0
  400272:	d144      	bne.n	4002fe <XDMAC_Handler+0x152>
			outBuffer = outPongBuffer; 
  400274:	4a5a      	ldr	r2, [pc, #360]	; (4003e0 <XDMAC_Handler+0x234>)
  400276:	495f      	ldr	r1, [pc, #380]	; (4003f4 <XDMAC_Handler+0x248>)
  400278:	6011      	str	r1, [r2, #0]
		outPingMode = !outPingMode; 
  40027a:	781a      	ldrb	r2, [r3, #0]
  40027c:	f082 0201 	eor.w	r2, r2, #1
  400280:	701a      	strb	r2, [r3, #0]
  400282:	4770      	bx	lr
  400284:	4770      	bx	lr
			inBuffer = inPingBuffer; 
  400286:	4854      	ldr	r0, [pc, #336]	; (4003d8 <XDMAC_Handler+0x22c>)
  400288:	4b5b      	ldr	r3, [pc, #364]	; (4003f8 <XDMAC_Handler+0x24c>)
  40028a:	6003      	str	r3, [r0, #0]
  40028c:	e79c      	b.n	4001c8 <XDMAC_Handler+0x1c>
			if (fillBuffer == &processPongBuffer[PROCESS_BUF_SIZE - (BUF_SIZE >> 1)])
  40028e:	682b      	ldr	r3, [r5, #0]
  400290:	4a5a      	ldr	r2, [pc, #360]	; (4003fc <XDMAC_Handler+0x250>)
  400292:	4293      	cmp	r3, r2
  400294:	d1d1      	bne.n	40023a <XDMAC_Handler+0x8e>
  400296:	e7d2      	b.n	40023e <XDMAC_Handler+0x92>
			if (one_beat)
  400298:	4a59      	ldr	r2, [pc, #356]	; (400400 <XDMAC_Handler+0x254>)
  40029a:	7812      	ldrb	r2, [r2, #0]
  40029c:	f002 01ff 	and.w	r1, r2, #255	; 0xff
  4002a0:	2a00      	cmp	r2, #0
  4002a2:	d134      	bne.n	40030e <XDMAC_Handler+0x162>
			else if (up_beat)
  4002a4:	4a57      	ldr	r2, [pc, #348]	; (400404 <XDMAC_Handler+0x258>)
  4002a6:	7812      	ldrb	r2, [r2, #0]
  4002a8:	f002 04ff 	and.w	r4, r2, #255	; 0xff
  4002ac:	2a00      	cmp	r2, #0
  4002ae:	d162      	bne.n	400376 <XDMAC_Handler+0x1ca>
  4002b0:	4621      	mov	r1, r4
  4002b2:	4a55      	ldr	r2, [pc, #340]	; (400408 <XDMAC_Handler+0x25c>)
  4002b4:	4c4a      	ldr	r4, [pc, #296]	; (4003e0 <XDMAC_Handler+0x234>)
					if(clickIdx == CLICK_LENGTH)
  4002b6:	f242 2e74 	movw	lr, #8820	; 0x2274
						clickIdx = 0;
  4002ba:	4688      	mov	r8, r1
  4002bc:	4e53      	ldr	r6, [pc, #332]	; (40040c <XDMAC_Handler+0x260>)
  4002be:	e003      	b.n	4002c8 <XDMAC_Handler+0x11c>
				for(int i = 0; i < BUF_SIZE; i++)
  4002c0:	f5b1 7f80 	cmp.w	r1, #256	; 0x100
  4002c4:	d048      	beq.n	400358 <XDMAC_Handler+0x1ac>
  4002c6:	6803      	ldr	r3, [r0, #0]
					outBuffer[i] = (uint16_t) ( ( (int32_t)((int16_t)inBuffer[i]) + (int32_t)(click_low[clickIdx++]) ) / 2 );
  4002c8:	5a5b      	ldrh	r3, [r3, r1]
  4002ca:	6817      	ldr	r7, [r2, #0]
  4002cc:	6825      	ldr	r5, [r4, #0]
  4002ce:	f936 9017 	ldrsh.w	r9, [r6, r7, lsl #1]
  4002d2:	3701      	adds	r7, #1
  4002d4:	440d      	add	r5, r1
  4002d6:	3102      	adds	r1, #2
  4002d8:	fa09 f383 	sxtah	r3, r9, r3
  4002dc:	6017      	str	r7, [r2, #0]
  4002de:	2b00      	cmp	r3, #0
  4002e0:	bfb8      	it	lt
  4002e2:	3301      	addlt	r3, #1
  4002e4:	f3c3 034f 	ubfx	r3, r3, #1, #16
  4002e8:	802b      	strh	r3, [r5, #0]
					if(clickIdx == CLICK_LENGTH)
  4002ea:	6813      	ldr	r3, [r2, #0]
  4002ec:	4573      	cmp	r3, lr
  4002ee:	d1e7      	bne.n	4002c0 <XDMAC_Handler+0x114>
						clickIdx = 0;
  4002f0:	f8c2 8000 	str.w	r8, [r2]
  4002f4:	e7e4      	b.n	4002c0 <XDMAC_Handler+0x114>
			outBuffer = outPingBuffer; 
  4002f6:	4a3a      	ldr	r2, [pc, #232]	; (4003e0 <XDMAC_Handler+0x234>)
  4002f8:	4945      	ldr	r1, [pc, #276]	; (400410 <XDMAC_Handler+0x264>)
  4002fa:	6011      	str	r1, [r2, #0]
  4002fc:	e7ab      	b.n	400256 <XDMAC_Handler+0xaa>
  4002fe:	4a38      	ldr	r2, [pc, #224]	; (4003e0 <XDMAC_Handler+0x234>)
  400300:	4943      	ldr	r1, [pc, #268]	; (400410 <XDMAC_Handler+0x264>)
  400302:	6011      	str	r1, [r2, #0]
		outPingMode = !outPingMode; 
  400304:	781a      	ldrb	r2, [r3, #0]
  400306:	f082 0201 	eor.w	r2, r2, #1
  40030a:	701a      	strb	r2, [r3, #0]
  40030c:	4770      	bx	lr
  40030e:	2100      	movs	r1, #0
  400310:	4c33      	ldr	r4, [pc, #204]	; (4003e0 <XDMAC_Handler+0x234>)
  400312:	4a3d      	ldr	r2, [pc, #244]	; (400408 <XDMAC_Handler+0x25c>)
					if(clickIdx == CLICK_LENGTH) 
  400314:	f242 2e74 	movw	lr, #8820	; 0x2274
						clickIdx = 0;
  400318:	4688      	mov	r8, r1
  40031a:	4f3e      	ldr	r7, [pc, #248]	; (400414 <XDMAC_Handler+0x268>)
  40031c:	e003      	b.n	400326 <XDMAC_Handler+0x17a>
				for(int i = 0; i < BUF_SIZE; i++)
  40031e:	f5b1 7f80 	cmp.w	r1, #256	; 0x100
  400322:	d019      	beq.n	400358 <XDMAC_Handler+0x1ac>
  400324:	6803      	ldr	r3, [r0, #0]
					outBuffer[i] = (uint16_t) ( ( (int32_t)((int16_t)inBuffer[i]) + (int32_t)(click_high[clickIdx++]) ) / 2 );
  400326:	5a5b      	ldrh	r3, [r3, r1]
  400328:	6815      	ldr	r5, [r2, #0]
  40032a:	6826      	ldr	r6, [r4, #0]
  40032c:	f937 9015 	ldrsh.w	r9, [r7, r5, lsl #1]
  400330:	3501      	adds	r5, #1
  400332:	440e      	add	r6, r1
  400334:	3102      	adds	r1, #2
  400336:	fa09 f383 	sxtah	r3, r9, r3
  40033a:	6015      	str	r5, [r2, #0]
  40033c:	2b00      	cmp	r3, #0
  40033e:	bfb8      	it	lt
  400340:	3301      	addlt	r3, #1
  400342:	f3c3 034f 	ubfx	r3, r3, #1, #16
  400346:	8033      	strh	r3, [r6, #0]
					if(clickIdx == CLICK_LENGTH) 
  400348:	6813      	ldr	r3, [r2, #0]
  40034a:	4573      	cmp	r3, lr
  40034c:	d1e7      	bne.n	40031e <XDMAC_Handler+0x172>
				for(int i = 0; i < BUF_SIZE; i++)
  40034e:	f5b1 7f80 	cmp.w	r1, #256	; 0x100
						clickIdx = 0;
  400352:	f8c2 8000 	str.w	r8, [r2]
				for(int i = 0; i < BUF_SIZE; i++)
  400356:	d1e5      	bne.n	400324 <XDMAC_Handler+0x178>
			metronome_time_elapsed += BUF_SIZE_PER_CHANNEL; 
  400358:	4b2f      	ldr	r3, [pc, #188]	; (400418 <XDMAC_Handler+0x26c>)
  40035a:	6819      	ldr	r1, [r3, #0]
  40035c:	3140      	adds	r1, #64	; 0x40
  40035e:	6019      	str	r1, [r3, #0]
			if (metronome_time_elapsed >= CLICK_DURATION)
  400360:	6819      	ldr	r1, [r3, #0]
  400362:	f5b1 6f7a 	cmp.w	r1, #4000	; 0xfa0
  400366:	f4ff af4a 	bcc.w	4001fe <XDMAC_Handler+0x52>
				metronome_on = false; 
  40036a:	2100      	movs	r1, #0
  40036c:	4c1b      	ldr	r4, [pc, #108]	; (4003dc <XDMAC_Handler+0x230>)
  40036e:	7021      	strb	r1, [r4, #0]
				metronome_time_elapsed = 0; 
  400370:	6019      	str	r1, [r3, #0]
				clickIdx = 0; 
  400372:	6011      	str	r1, [r2, #0]
  400374:	e743      	b.n	4001fe <XDMAC_Handler+0x52>
  400376:	4c1a      	ldr	r4, [pc, #104]	; (4003e0 <XDMAC_Handler+0x234>)
					if(clickIdx == CLICK_LENGTH)
  400378:	f242 2e74 	movw	lr, #8820	; 0x2274
  40037c:	4a22      	ldr	r2, [pc, #136]	; (400408 <XDMAC_Handler+0x25c>)
						clickIdx = 0;
  40037e:	4688      	mov	r8, r1
  400380:	4e22      	ldr	r6, [pc, #136]	; (40040c <XDMAC_Handler+0x260>)
					outBuffer[i] = (uint16_t) ( ( (int32_t)((int16_t)inBuffer[i]) + (int32_t)(click_low[clickIdx++]/6) ) / 2 );
  400382:	4f26      	ldr	r7, [pc, #152]	; (40041c <XDMAC_Handler+0x270>)
  400384:	e003      	b.n	40038e <XDMAC_Handler+0x1e2>
				for(int i = 0; i < BUF_SIZE; i++)
  400386:	f5b1 7f80 	cmp.w	r1, #256	; 0x100
  40038a:	d0e5      	beq.n	400358 <XDMAC_Handler+0x1ac>
  40038c:	6803      	ldr	r3, [r0, #0]
					outBuffer[i] = (uint16_t) ( ( (int32_t)((int16_t)inBuffer[i]) + (int32_t)(click_low[clickIdx++]/6) ) / 2 );
  40038e:	f833 9001 	ldrh.w	r9, [r3, r1]
  400392:	6813      	ldr	r3, [r2, #0]
  400394:	fa0f f989 	sxth.w	r9, r9
  400398:	6825      	ldr	r5, [r4, #0]
  40039a:	f936 a013 	ldrsh.w	sl, [r6, r3, lsl #1]
  40039e:	3301      	adds	r3, #1
  4003a0:	440d      	add	r5, r1
  4003a2:	3102      	adds	r1, #2
  4003a4:	fb87 cb0a 	smull	ip, fp, r7, sl
  4003a8:	6013      	str	r3, [r2, #0]
  4003aa:	ebab 73ea 	sub.w	r3, fp, sl, asr #31
  4003ae:	fa09 f383 	sxtah	r3, r9, r3
  4003b2:	2b00      	cmp	r3, #0
  4003b4:	bfb8      	it	lt
  4003b6:	3301      	addlt	r3, #1
  4003b8:	f3c3 034f 	ubfx	r3, r3, #1, #16
  4003bc:	802b      	strh	r3, [r5, #0]
					if(clickIdx == CLICK_LENGTH)
  4003be:	6813      	ldr	r3, [r2, #0]
  4003c0:	4573      	cmp	r3, lr
  4003c2:	d1e0      	bne.n	400386 <XDMAC_Handler+0x1da>
						clickIdx = 0;
  4003c4:	f8c2 8000 	str.w	r8, [r2]
  4003c8:	e7dd      	b.n	400386 <XDMAC_Handler+0x1da>
  4003ca:	bf00      	nop
  4003cc:	40078000 	.word	0x40078000
  4003d0:	20400014 	.word	0x20400014
  4003d4:	20412d2c 	.word	0x20412d2c
  4003d8:	20400010 	.word	0x20400010
  4003dc:	20402a6d 	.word	0x20402a6d
  4003e0:	20400018 	.word	0x20400018
  4003e4:	2040000c 	.word	0x2040000c
  4003e8:	20400024 	.word	0x20400024
  4003ec:	20412c2c 	.word	0x20412c2c
  4003f0:	2040001c 	.word	0x2040001c
  4003f4:	20412f2c 	.word	0x20412f2c
  4003f8:	2042302c 	.word	0x2042302c
  4003fc:	20422f2c 	.word	0x20422f2c
  400400:	20402c71 	.word	0x20402c71
  400404:	20402c74 	.word	0x20402c74
  400408:	20400a1c 	.word	0x20400a1c
  40040c:	0040ddb0 	.word	0x0040ddb0
  400410:	20412e2c 	.word	0x20412e2c
  400414:	004098c8 	.word	0x004098c8
  400418:	20400a60 	.word	0x20400a60
  40041c:	2aaaaaab 	.word	0x2aaaaaab

00400420 <configure_xdma>:
}
/******************************* XDMAC Interrupt Handler End *******************************/

/********************************** Public Functions Start **********************************/
void configure_xdma(void)
{
  400420:	e92d 41f0 	stmdb	sp!, {r4, r5, r6, r7, r8, lr}
    uint16_t *src;
    
    xdmac_channel_config_t xdmac_channel_cfg = {0};
  400424:	2620      	movs	r6, #32
{
  400426:	b088      	sub	sp, #32
    xdmac_channel_config_t xdmac_channel_cfg = {0};
  400428:	2100      	movs	r1, #0
  40042a:	4b30      	ldr	r3, [pc, #192]	; (4004ec <configure_xdma+0xcc>)
  40042c:	4632      	mov	r2, r6
  40042e:	4668      	mov	r0, sp
  400430:	4798      	blx	r3
    
    /* Initialize and enable DMA controller */
    pmc_enable_periph_clk(ID_XDMAC);
  400432:	4b2f      	ldr	r3, [pc, #188]	; (4004f0 <configure_xdma+0xd0>)
  400434:	203a      	movs	r0, #58	; 0x3a
    | XDMAC_CC_DIF_AHB_IF0
    | XDMAC_CC_SAM_FIXED_AM
    | XDMAC_CC_DAM_INCREMENTED_AM
    | XDMAC_CC_PERID(33);
	
    xdmac_configure_transfer(XDMAC, XDMA_CH_SSC_RX, &xdmac_channel_cfg);
  400436:	4c2f      	ldr	r4, [pc, #188]	; (4004f4 <configure_xdma+0xd4>)
    pmc_enable_periph_clk(ID_XDMAC);
  400438:	4798      	blx	r3

    \param [in]      IRQn  External interrupt number. Value cannot be negative.
 */
__STATIC_INLINE void NVIC_ClearPendingIRQ(IRQn_Type IRQn)
{
  NVIC->ICPR[((uint32_t)(IRQn) >> 5)] = (1 << ((uint32_t)(IRQn) & 0x1F)); /* Clear pending interrupt */
  40043a:	f04f 6580 	mov.w	r5, #67108864	; 0x4000000
  40043e:	4b2e      	ldr	r3, [pc, #184]	; (4004f8 <configure_xdma+0xd8>)
    xdmac_configure_transfer(XDMAC, XDMA_CH_SSC_RX, &xdmac_channel_cfg);
  400440:	466a      	mov	r2, sp
    xdmac_channel_cfg.mbr_cfg = XDMAC_CC_TYPE_PER_TRAN
  400442:	f8df e0c8 	ldr.w	lr, [pc, #200]	; 40050c <configure_xdma+0xec>
    xdmac_configure_transfer(XDMAC, XDMA_CH_SSC_RX, &xdmac_channel_cfg);
  400446:	4620      	mov	r0, r4
  400448:	f8c3 5184 	str.w	r5, [r3, #388]	; 0x184
  40044c:	2100      	movs	r1, #0
__STATIC_INLINE void NVIC_SetPriority(IRQn_Type IRQn, uint32_t priority)
{
  if(IRQn < 0) {
    SCB->SHPR[((uint32_t)(IRQn) & 0xF)-4] = ((priority << (8 - __NVIC_PRIO_BITS)) & 0xff); } /* set Priority for Cortex-M  System Interrupts */
  else {
    NVIC->IP[(uint32_t)(IRQn)]            = ((priority << (8 - __NVIC_PRIO_BITS)) & 0xff); } /* set Priority for device specific Interrupts  */
  40044e:	f883 633a 	strb.w	r6, [r3, #826]	; 0x33a
 */
static inline void xdmac_channel_set_descriptor_control(Xdmac *xdmac, uint32_t channel_num, uint32_t config)
{
	Assert(xdmac);
	Assert(channel_num < XDMACCHID_NUMBER);
	xdmac->XDMAC_CHID[channel_num].XDMAC_CNDC = config;
  400452:	270f      	movs	r7, #15
  NVIC->ISER[(uint32_t)((int32_t)IRQn) >> 5] = (uint32_t)(1 << ((uint32_t)((int32_t)IRQn) & (uint32_t)0x1F)); /* enable interrupt */
  400454:	605d      	str	r5, [r3, #4]
	xdmac->XDMAC_GIE = ( XDMAC_GIE_IE0 << channel_num) ;
  400456:	2501      	movs	r5, #1
  400458:	f8df 80b4 	ldr.w	r8, [pc, #180]	; 400510 <configure_xdma+0xf0>
    xdmac_channel_cfg.mbr_cfg = XDMAC_CC_TYPE_PER_TRAN
  40045c:	f8cd e00c 	str.w	lr, [sp, #12]
    xdmac_configure_transfer(XDMAC, XDMA_CH_SSC_RX, &xdmac_channel_cfg);
  400460:	47c0      	blx	r8
    
    /* Initialize linked list descriptor */
    src = (uint16_t *)&inPingBuffer[0];
    linklist_read[0].mbr_ubc = XDMAC_UBC_NVIEW_NDV1
  400462:	4b26      	ldr	r3, [pc, #152]	; (4004fc <configure_xdma+0xdc>)
    | XDMAC_CC_DIF_AHB_IF1
    | XDMAC_CC_SAM_INCREMENTED_AM
    | XDMAC_CC_DAM_FIXED_AM
    | XDMAC_CC_PERID(32);
	
    xdmac_configure_transfer(XDMAC, XDMA_CH_SSC_TX, &xdmac_channel_cfg);
  400464:	466a      	mov	r2, sp
    linklist_read[0].mbr_da = (uint32_t)(src);
  400466:	f8df e0ac 	ldr.w	lr, [pc, #172]	; 400514 <configure_xdma+0xf4>
    xdmac_configure_transfer(XDMAC, XDMA_CH_SSC_TX, &xdmac_channel_cfg);
  40046a:	4629      	mov	r1, r5
    linklist_read[0].mbr_nda = (uint32_t)&linklist_read[1];
  40046c:	f103 0010 	add.w	r0, r3, #16
	xdmac->XDMAC_CHID[channel_num].XDMAC_CNDA = (desc_addr & 0xFFFFFFFC) | ndaif;
  400470:	f023 0603 	bic.w	r6, r3, #3
	linklist_read[1].mbr_da = (uint32_t)(src);
  400474:	f8df c0a0 	ldr.w	ip, [pc, #160]	; 400518 <configure_xdma+0xf8>
    linklist_read[0].mbr_nda = (uint32_t)&linklist_read[1];
  400478:	6018      	str	r0, [r3, #0]
    xdmac_configure_transfer(XDMAC, XDMA_CH_SSC_TX, &xdmac_channel_cfg);
  40047a:	4620      	mov	r0, r4
	xdmac->XDMAC_CHID[channel_num].XDMAC_CNDC = config;
  40047c:	66e7      	str	r7, [r4, #108]	; 0x6c
	xdmac->XDMAC_CHID[channel_num].XDMAC_CNDA = (desc_addr & 0xFFFFFFFC) | ndaif;
  40047e:	66a6      	str	r6, [r4, #104]	; 0x68
	xdmac->XDMAC_GIE = ( XDMAC_GIE_IE0 << channel_num) ;
  400480:	60e5      	str	r5, [r4, #12]
    linklist_read[0].mbr_ubc = XDMAC_UBC_NVIEW_NDV1
  400482:	4e1f      	ldr	r6, [pc, #124]	; (400500 <configure_xdma+0xe0>)
	xdmac->XDMAC_CHID[channel_num].XDMAC_CIE = mask;
  400484:	6525      	str	r5, [r4, #80]	; 0x50
    linklist_read[0].mbr_da = (uint32_t)(src);
  400486:	f8c3 e00c 	str.w	lr, [r3, #12]
    linklist_read[0].mbr_sa  = (uint32_t)&(SSC->SSC_RHR);
  40048a:	f8df e090 	ldr.w	lr, [pc, #144]	; 40051c <configure_xdma+0xfc>
	linklist_read[1].mbr_da = (uint32_t)(src);
  40048e:	f8c3 c01c 	str.w	ip, [r3, #28]
    xdmac_channel_cfg.mbr_cfg = XDMAC_CC_TYPE_PER_TRAN
  400492:	f8df c08c 	ldr.w	ip, [pc, #140]	; 400520 <configure_xdma+0x100>
    linklist_read[0].mbr_ubc = XDMAC_UBC_NVIEW_NDV1
  400496:	605e      	str	r6, [r3, #4]
	linklist_read[1].mbr_ubc = XDMAC_UBC_NVIEW_NDV1
  400498:	615e      	str	r6, [r3, #20]
    linklist_read[0].mbr_sa  = (uint32_t)&(SSC->SSC_RHR);
  40049a:	f8c3 e008 	str.w	lr, [r3, #8]
	linklist_read[1].mbr_sa  = (uint32_t)&(SSC->SSC_RHR);
  40049e:	f8c3 e018 	str.w	lr, [r3, #24]
	linklist_read[1].mbr_nda = (uint32_t)&linklist_read[0];
  4004a2:	611b      	str	r3, [r3, #16]
    xdmac_channel_cfg.mbr_cfg = XDMAC_CC_TYPE_PER_TRAN
  4004a4:	f8cd c00c 	str.w	ip, [sp, #12]
    xdmac_configure_transfer(XDMAC, XDMA_CH_SSC_TX, &xdmac_channel_cfg);
  4004a8:	47c0      	blx	r8
    
    src = (uint16_t *)&outPingBuffer[0];
    linklist_write[0].mbr_ubc = XDMAC_UBC_NVIEW_NDV1
  4004aa:	4b16      	ldr	r3, [pc, #88]	; (400504 <configure_xdma+0xe4>)
	xdmac->XDMAC_GIE = ( XDMAC_GIE_IE0 << channel_num) ;
  4004ac:	2102      	movs	r1, #2
		 | XDMAC_UBC_NDE_FETCH_EN
		 | XDMAC_UBC_NSEN_UPDATED
			| XDMAC_CUBC_UBLEN(BUF_SIZE);
    linklist_write[0].mbr_sa = (uint32_t)(src);
    linklist_write[0].mbr_da = (uint32_t)&(SSC->SSC_THR);
  4004ae:	4a16      	ldr	r2, [pc, #88]	; (400508 <configure_xdma+0xe8>)
    linklist_write[0].mbr_sa = (uint32_t)(src);
  4004b0:	f8df c070 	ldr.w	ip, [pc, #112]	; 400524 <configure_xdma+0x104>
    linklist_write[0].mbr_nda = (uint32_t)&linklist_write[1];
  4004b4:	f103 0810 	add.w	r8, r3, #16
	xdmac->XDMAC_CHID[channel_num].XDMAC_CNDA = (desc_addr & 0xFFFFFFFC) | ndaif;
  4004b8:	f023 0003 	bic.w	r0, r3, #3
	src = (uint16_t *)&outPongBuffer[0];
	linklist_write[1].mbr_ubc = XDMAC_UBC_NVIEW_NDV1
	    | XDMAC_UBC_NDE_FETCH_EN
	    | XDMAC_UBC_NSEN_UPDATED
	    | XDMAC_CUBC_UBLEN(BUF_SIZE);
	linklist_write[1].mbr_sa = (uint32_t)(src);
  4004bc:	f8df e068 	ldr.w	lr, [pc, #104]	; 400528 <configure_xdma+0x108>
    linklist_write[0].mbr_ubc = XDMAC_UBC_NVIEW_NDV1
  4004c0:	605e      	str	r6, [r3, #4]
	linklist_write[1].mbr_ubc = XDMAC_UBC_NVIEW_NDV1
  4004c2:	615e      	str	r6, [r3, #20]
	linklist_write[1].mbr_da = (uint32_t)&(SSC->SSC_THR);
	linklist_write[1].mbr_nda = (uint32_t)&linklist_write[0];
  4004c4:	611b      	str	r3, [r3, #16]
    linklist_write[0].mbr_nda = (uint32_t)&linklist_write[1];
  4004c6:	f8c3 8000 	str.w	r8, [r3]
    linklist_write[0].mbr_sa = (uint32_t)(src);
  4004ca:	f8c3 c008 	str.w	ip, [r3, #8]
	xdmac->XDMAC_CHID[channel_num].XDMAC_CNDC = config;
  4004ce:	f8c4 70ac 	str.w	r7, [r4, #172]	; 0xac
	linklist_write[1].mbr_sa = (uint32_t)(src);
  4004d2:	f8c3 e018 	str.w	lr, [r3, #24]
	xdmac->XDMAC_CHID[channel_num].XDMAC_CNDA = (desc_addr & 0xFFFFFFFC) | ndaif;
  4004d6:	f8c4 00a8 	str.w	r0, [r4, #168]	; 0xa8
    linklist_write[0].mbr_da = (uint32_t)&(SSC->SSC_THR);
  4004da:	60da      	str	r2, [r3, #12]
	xdmac->XDMAC_GIE = ( XDMAC_GIE_IE0 << channel_num) ;
  4004dc:	60e1      	str	r1, [r4, #12]
	linklist_write[1].mbr_da = (uint32_t)&(SSC->SSC_THR);
  4004de:	61da      	str	r2, [r3, #28]
	xdmac->XDMAC_CHID[channel_num].XDMAC_CIE = mask;
  4004e0:	f8c4 5090 	str.w	r5, [r4, #144]	; 0x90
    xdmac_channel_set_descriptor_addr(XDMAC, XDMA_CH_SSC_TX, (uint32_t)(&linklist_write[0]), 0);
    
    xdmac_enable_interrupt(XDMAC, XDMA_CH_SSC_TX);
    xdmac_channel_enable_interrupt(XDMAC, XDMA_CH_SSC_TX, XDMAC_CIE_BIE);
    
}
  4004e4:	b008      	add	sp, #32
  4004e6:	e8bd 81f0 	ldmia.w	sp!, {r4, r5, r6, r7, r8, pc}
  4004ea:	bf00      	nop
  4004ec:	00406f39 	.word	0x00406f39
  4004f0:	004041b5 	.word	0x004041b5
  4004f4:	40078000 	.word	0x40078000
  4004f8:	e000e100 	.word	0xe000e100
  4004fc:	20400a20 	.word	0x20400a20
  400500:	0b000080 	.word	0x0b000080
  400504:	20400a40 	.word	0x20400a40
  400508:	40004024 	.word	0x40004024
  40050c:	21042801 	.word	0x21042801
  400510:	004039b1 	.word	0x004039b1
  400514:	2042302c 	.word	0x2042302c
  400518:	20412d2c 	.word	0x20412d2c
  40051c:	40004020 	.word	0x40004020
  400520:	20014811 	.word	0x20014811
  400524:	20412e2c 	.word	0x20412e2c
  400528:	20412f2c 	.word	0x20412f2c

0040052c <audio_init>:

#include "DMA_Audio.h"
#include "WM8904_Driver.h"

void audio_init(void)
{
  40052c:	b510      	push	{r4, lr}
	/* Initialize WM8904 TWI interface*/
	if (wm8904_twi_init() != TWIHS_SUCCESS) {
  40052e:	4b13      	ldr	r3, [pc, #76]	; (40057c <audio_init+0x50>)
  400530:	4798      	blx	r3
  400532:	b118      	cbz	r0, 40053c <audio_init+0x10>
		printf("-E-\tWM8904 initialization failed.\r");
  400534:	4812      	ldr	r0, [pc, #72]	; (400580 <audio_init+0x54>)
  400536:	4b13      	ldr	r3, [pc, #76]	; (400584 <audio_init+0x58>)
  400538:	4798      	blx	r3
  40053a:	e7fe      	b.n	40053a <audio_init+0xe>
			/* Capture error */
		}
	}
		
	/* Configure CODEC */
	configure_codec();
  40053c:	4b12      	ldr	r3, [pc, #72]	; (400588 <audio_init+0x5c>)
  40053e:	4604      	mov	r4, r0
  400540:	4798      	blx	r3
		
	/* Configure SSC */
	configure_ssc();
  400542:	4b12      	ldr	r3, [pc, #72]	; (40058c <audio_init+0x60>)
  400544:	4798      	blx	r3
		
	/* Configure XDMA */
	configure_xdma();
  400546:	4b12      	ldr	r3, [pc, #72]	; (400590 <audio_init+0x64>)
  400548:	4798      	blx	r3
		
	/* Enable the DAC master clock */
	pmc_pck_set_prescaler(PMC_PCK_2, PMC_MCKR_PRES_CLK_1);
  40054a:	4621      	mov	r1, r4
  40054c:	2002      	movs	r0, #2
  40054e:	4b11      	ldr	r3, [pc, #68]	; (400594 <audio_init+0x68>)
  400550:	4798      	blx	r3
	pmc_pck_set_source(PMC_PCK_2, PMC_MCKR_CSS_SLOW_CLK);
  400552:	4621      	mov	r1, r4
  400554:	2002      	movs	r0, #2
  400556:	4b10      	ldr	r3, [pc, #64]	; (400598 <audio_init+0x6c>)
  400558:	4798      	blx	r3
	pmc_enable_pck(PMC_PCK_2);
  40055a:	2002      	movs	r0, #2
  40055c:	4b0f      	ldr	r3, [pc, #60]	; (40059c <audio_init+0x70>)
  40055e:	4798      	blx	r3
		
	/* Start playing */
	ssc_enable_rx(SSC);
  400560:	f04f 2040 	mov.w	r0, #1073758208	; 0x40004000
  400564:	4b0e      	ldr	r3, [pc, #56]	; (4005a0 <audio_init+0x74>)
  400566:	4798      	blx	r3
	xdmac->XDMAC_GE = (XDMAC_GE_EN0 << channel_num);
  400568:	4c0e      	ldr	r4, [pc, #56]	; (4005a4 <audio_init+0x78>)
  40056a:	2201      	movs	r2, #1
	xdmac_channel_enable(XDMAC, XDMA_CH_SSC_RX);
	// might want to enable in the first xdma interrupt (if you care)
	ssc_enable_tx(SSC);
  40056c:	4b0e      	ldr	r3, [pc, #56]	; (4005a8 <audio_init+0x7c>)
  40056e:	f04f 2040 	mov.w	r0, #1073758208	; 0x40004000
  400572:	61e2      	str	r2, [r4, #28]
  400574:	4798      	blx	r3
  400576:	2302      	movs	r3, #2
  400578:	61e3      	str	r3, [r4, #28]
  40057a:	bd10      	pop	{r4, pc}
  40057c:	0040344d 	.word	0x0040344d
  400580:	00412298 	.word	0x00412298
  400584:	00406991 	.word	0x00406991
  400588:	00400671 	.word	0x00400671
  40058c:	004005ad 	.word	0x004005ad
  400590:	00400421 	.word	0x00400421
  400594:	004041fd 	.word	0x004041fd
  400598:	00404231 	.word	0x00404231
  40059c:	00404265 	.word	0x00404265
  4005a0:	0040355d 	.word	0x0040355d
  4005a4:	40078000 	.word	0x40078000
  4005a8:	0040356d 	.word	0x0040356d

004005ac <configure_ssc>:
#include "WM8904_Driver.h"


/********************************** Public Functions Start **********************************/
void configure_ssc(void)
{
  4005ac:	e92d 41f0 	stmdb	sp!, {r4, r5, r6, r7, r8, lr}
	clock_opt_t tx_clk_option, rx_clk_option;
	data_frame_opt_t tx_data_frame_option, rx_data_frame_option;

	/* Initialize clock */
	pmc_enable_periph_clk(ID_SSC);
  4005b0:	4b28      	ldr	r3, [pc, #160]	; (400654 <configure_ssc+0xa8>)
{
  4005b2:	b09c      	sub	sp, #112	; 0x70
	pmc_enable_periph_clk(ID_SSC);
  4005b4:	2016      	movs	r0, #22
	/* Reset SSC */
	ssc_reset(SSC);

	/* Transmitter clock mode configuration. */
	tx_clk_option.ul_cks = SSC_TCMR_CKS_TK;
	tx_clk_option.ul_cko = SSC_TCMR_CKO_NONE;
  4005b6:	2400      	movs	r4, #0
	pmc_enable_periph_clk(ID_SSC);
  4005b8:	4798      	blx	r3
	ssc_reset(SSC);
  4005ba:	f04f 2040 	mov.w	r0, #1073758208	; 0x40004000
  4005be:	4b26      	ldr	r3, [pc, #152]	; (400658 <configure_ssc+0xac>)
	tx_clk_option.ul_cki = 0;
	tx_clk_option.ul_ckg = SSC_TCMR_CKG_CONTINUOUS;
	tx_clk_option.ul_start_sel = SSC_TCMR_START_TF_EDGE;
	tx_clk_option.ul_sttdly = 1;
	tx_clk_option.ul_period = BITS_BY_SLOT - 1;
  4005c0:	250f      	movs	r5, #15
	ssc_reset(SSC);
  4005c2:	4798      	blx	r3
	tx_clk_option.ul_sttdly = 1;
  4005c4:	2601      	movs	r6, #1
	tx_clk_option.ul_start_sel = SSC_TCMR_START_TF_EDGE;
  4005c6:	f44f 68e0 	mov.w	r8, #1792	; 0x700
	tx_clk_option.ul_cks = SSC_TCMR_CKS_TK;
  4005ca:	f04f 0e02 	mov.w	lr, #2
	/* Transmitter frame mode configuration. */
	tx_data_frame_option.ul_datlen = BITS_BY_SLOT - 1;
	tx_data_frame_option.ul_msbf = SSC_TFMR_MSBF;
  4005ce:	2780      	movs	r7, #128	; 0x80
	tx_data_frame_option.ul_fslen = BITS_BY_SLOT - 1;
	tx_data_frame_option.ul_fslen_ext = 0;
	tx_data_frame_option.ul_fsos = SSC_TFMR_FSOS_NONE;
	tx_data_frame_option.ul_fsedge = SSC_TFMR_FSEDGE_POSITIVE;
	/* Configure the SSC transmitter to I2S mode. */
	ssc_set_transmitter(SSC, &tx_clk_option, &tx_data_frame_option);
  4005d0:	aa0e      	add	r2, sp, #56	; 0x38
  4005d2:	4669      	mov	r1, sp
  4005d4:	f04f 2040 	mov.w	r0, #1073758208	; 0x40004000
  4005d8:	4b20      	ldr	r3, [pc, #128]	; (40065c <configure_ssc+0xb0>)
	tx_clk_option.ul_cks = SSC_TCMR_CKS_TK;
  4005da:	f8cd e000 	str.w	lr, [sp]
	tx_clk_option.ul_cko = SSC_TCMR_CKO_NONE;
  4005de:	9401      	str	r4, [sp, #4]
	tx_clk_option.ul_cki = 0;
  4005e0:	9402      	str	r4, [sp, #8]
	tx_clk_option.ul_ckg = SSC_TCMR_CKG_CONTINUOUS;
  4005e2:	9403      	str	r4, [sp, #12]
	tx_data_frame_option.ul_datnb = 0;
  4005e4:	9410      	str	r4, [sp, #64]	; 0x40
	tx_data_frame_option.ul_fslen_ext = 0;
  4005e6:	9412      	str	r4, [sp, #72]	; 0x48
	tx_data_frame_option.ul_fsos = SSC_TFMR_FSOS_NONE;
  4005e8:	9413      	str	r4, [sp, #76]	; 0x4c
	tx_data_frame_option.ul_fsedge = SSC_TFMR_FSEDGE_POSITIVE;
  4005ea:	9414      	str	r4, [sp, #80]	; 0x50
	tx_clk_option.ul_start_sel = SSC_TCMR_START_TF_EDGE;
  4005ec:	f8cd 8018 	str.w	r8, [sp, #24]
	tx_clk_option.ul_sttdly = 1;
  4005f0:	9605      	str	r6, [sp, #20]
	tx_clk_option.ul_period = BITS_BY_SLOT - 1;
  4005f2:	9504      	str	r5, [sp, #16]
	tx_data_frame_option.ul_datlen = BITS_BY_SLOT - 1;
  4005f4:	950e      	str	r5, [sp, #56]	; 0x38
	tx_data_frame_option.ul_fslen = BITS_BY_SLOT - 1;
  4005f6:	9511      	str	r5, [sp, #68]	; 0x44
	tx_data_frame_option.ul_msbf = SSC_TFMR_MSBF;
  4005f8:	970f      	str	r7, [sp, #60]	; 0x3c
	ssc_set_transmitter(SSC, &tx_clk_option, &tx_data_frame_option);
  4005fa:	4798      	blx	r3

	/* Receiver clock mode configuration. */
	rx_clk_option.ul_cks = SSC_RCMR_CKS_TK;
	rx_clk_option.ul_cko = SSC_RCMR_CKO_NONE;
	rx_clk_option.ul_cki = SSC_RCMR_CKI;
  4005fc:	f04f 0c20 	mov.w	ip, #32
	rx_clk_option.ul_ckg = SSC_RCMR_CKG_CONTINUOUS;
	rx_clk_option.ul_start_sel = SSC_RCMR_START_RF_EDGE;
	rx_clk_option.ul_sttdly = 1;	
	rx_clk_option.ul_period = BITS_BY_SLOT;	
  400600:	f04f 0e10 	mov.w	lr, #16
	rx_data_frame_option.ul_fslen = BITS_BY_SLOT - 1;	
	rx_data_frame_option.ul_fslen_ext = 0;
	rx_data_frame_option.ul_fsos = SSC_TFMR_FSOS_NONE;
	rx_data_frame_option.ul_fsedge = SSC_TFMR_FSEDGE_POSITIVE;
	/* Configure the SSC transmitter to I2S mode. */
	ssc_set_receiver(SSC, &rx_clk_option, &rx_data_frame_option);
  400604:	aa15      	add	r2, sp, #84	; 0x54
  400606:	a907      	add	r1, sp, #28
  400608:	f04f 2040 	mov.w	r0, #1073758208	; 0x40004000
  40060c:	4b14      	ldr	r3, [pc, #80]	; (400660 <configure_ssc+0xb4>)
	rx_clk_option.ul_cki = SSC_RCMR_CKI;
  40060e:	f8cd c024 	str.w	ip, [sp, #36]	; 0x24
	rx_clk_option.ul_period = BITS_BY_SLOT;	
  400612:	f8cd e02c 	str.w	lr, [sp, #44]	; 0x2c
	rx_clk_option.ul_start_sel = SSC_RCMR_START_RF_EDGE;
  400616:	f8cd 8034 	str.w	r8, [sp, #52]	; 0x34
	rx_clk_option.ul_cks = SSC_RCMR_CKS_TK;
  40061a:	9607      	str	r6, [sp, #28]
	rx_clk_option.ul_cko = SSC_RCMR_CKO_NONE;
  40061c:	9408      	str	r4, [sp, #32]
	rx_clk_option.ul_ckg = SSC_RCMR_CKG_CONTINUOUS;
  40061e:	940a      	str	r4, [sp, #40]	; 0x28
	rx_clk_option.ul_sttdly = 1;	
  400620:	960c      	str	r6, [sp, #48]	; 0x30
	rx_data_frame_option.ul_datlen = BITS_BY_SLOT - 1;
  400622:	9515      	str	r5, [sp, #84]	; 0x54
	rx_data_frame_option.ul_msbf = SSC_RFMR_MSBF;
  400624:	9716      	str	r7, [sp, #88]	; 0x58
	rx_data_frame_option.ul_datnb = 0;
  400626:	9417      	str	r4, [sp, #92]	; 0x5c
	rx_data_frame_option.ul_fslen = BITS_BY_SLOT - 1;	
  400628:	9518      	str	r5, [sp, #96]	; 0x60
	rx_data_frame_option.ul_fslen_ext = 0;
  40062a:	9419      	str	r4, [sp, #100]	; 0x64
	rx_data_frame_option.ul_fsos = SSC_TFMR_FSOS_NONE;
  40062c:	941a      	str	r4, [sp, #104]	; 0x68
	rx_data_frame_option.ul_fsedge = SSC_TFMR_FSEDGE_POSITIVE;
  40062e:	941b      	str	r4, [sp, #108]	; 0x6c
	ssc_set_receiver(SSC, &rx_clk_option, &rx_data_frame_option);
  400630:	4798      	blx	r3

	/* Disable transmitter first */
	ssc_disable_tx(SSC);
  400632:	f04f 2040 	mov.w	r0, #1073758208	; 0x40004000
  400636:	4b0b      	ldr	r3, [pc, #44]	; (400664 <configure_ssc+0xb8>)
  400638:	4798      	blx	r3
	ssc_disable_rx(SSC);
  40063a:	f04f 2040 	mov.w	r0, #1073758208	; 0x40004000
  40063e:	4b0a      	ldr	r3, [pc, #40]	; (400668 <configure_ssc+0xbc>)
  400640:	4798      	blx	r3

	/* Disable All Interrupt */
	ssc_disable_interrupt(SSC, 0xFFFFFFFF);
  400642:	f04f 31ff 	mov.w	r1, #4294967295
  400646:	f04f 2040 	mov.w	r0, #1073758208	; 0x40004000
  40064a:	4b08      	ldr	r3, [pc, #32]	; (40066c <configure_ssc+0xc0>)
  40064c:	4798      	blx	r3
}
  40064e:	b01c      	add	sp, #112	; 0x70
  400650:	e8bd 81f0 	ldmia.w	sp!, {r4, r5, r6, r7, r8, pc}
  400654:	004041b5 	.word	0x004041b5
  400658:	00403549 	.word	0x00403549
  40065c:	004035f1 	.word	0x004035f1
  400660:	0040357d 	.word	0x0040357d
  400664:	00403575 	.word	0x00403575
  400668:	00403565 	.word	0x00403565
  40066c:	00403665 	.word	0x00403665

00400670 <configure_codec>:


void configure_codec(void)
{
  400670:	b570      	push	{r4, r5, r6, lr}
	uint16_t data = 0;
	/* check that WM8904 is present */
	wm8904_write_register(WM8904_SW_RESET_AND_ID, 0xFFFF);
  400672:	f64f 71ff 	movw	r1, #65535	; 0xffff
  400676:	2000      	movs	r0, #0
  400678:	4c40      	ldr	r4, [pc, #256]	; (40077c <configure_codec+0x10c>)
  40067a:	47a0      	blx	r4
	data = wm8904_read_register(WM8904_SW_RESET_AND_ID);
  40067c:	4b40      	ldr	r3, [pc, #256]	; (400780 <configure_codec+0x110>)
  40067e:	2000      	movs	r0, #0
  400680:	4798      	blx	r3
	if(data != 0x8904) {
  400682:	f648 1304 	movw	r3, #35076	; 0x8904
  400686:	4298      	cmp	r0, r3
  400688:	d003      	beq.n	400692 <configure_codec+0x22>
		printf("WM8904 not found!\n\r");
  40068a:	483e      	ldr	r0, [pc, #248]	; (400784 <configure_codec+0x114>)
  40068c:	4b3e      	ldr	r3, [pc, #248]	; (400788 <configure_codec+0x118>)
  40068e:	4798      	blx	r3
  400690:	e7fe      	b.n	400690 <configure_codec+0x20>
		while(1);
	}

	wm8904_write_register(WM8904_BIAS_CONTROL_0, WM8904_ISEL_HP_BIAS);	
  400692:	2108      	movs	r1, #8
  400694:	2004      	movs	r0, #4
  400696:	47a0      	blx	r4
	wm8904_write_register(WM8904_VMID_CONTROL_0, WM8904_VMID_BUF_ENA |	
  400698:	2147      	movs	r1, #71	; 0x47
  40069a:	2005      	movs	r0, #5
	WM8904_VMID_RES_FAST | WM8904_VMID_ENA);
	delay_ms(5);
  40069c:	4d3b      	ldr	r5, [pc, #236]	; (40078c <configure_codec+0x11c>)
	wm8904_write_register(WM8904_VMID_CONTROL_0, WM8904_VMID_BUF_ENA |	
  40069e:	47a0      	blx	r4
	delay_ms(5);
  4006a0:	483b      	ldr	r0, [pc, #236]	; (400790 <configure_codec+0x120>)
  4006a2:	47a8      	blx	r5
	wm8904_write_register(WM8904_VMID_CONTROL_0, WM8904_VMID_BUF_ENA |
  4006a4:	2143      	movs	r1, #67	; 0x43
  4006a6:	2005      	movs	r0, #5
  4006a8:	47a0      	blx	r4
	WM8904_VMID_RES_NORMAL | WM8904_VMID_ENA);
	wm8904_write_register(WM8904_BIAS_CONTROL_0, WM8904_ISEL_HP_BIAS | WM8904_BIAS_ENA);
  4006aa:	2109      	movs	r1, #9
  4006ac:	2004      	movs	r0, #4
  4006ae:	47a0      	blx	r4
	wm8904_write_register(WM8904_POWER_MANAGEMENT_0, WM8904_INL_ENA | WM8904_INR_ENA);
  4006b0:	2103      	movs	r1, #3
  4006b2:	200c      	movs	r0, #12
  4006b4:	47a0      	blx	r4
	wm8904_write_register(WM8904_POWER_MANAGEMENT_2, WM8904_HPL_PGA_ENA | WM8904_HPR_PGA_ENA);
  4006b6:	2103      	movs	r1, #3
  4006b8:	200e      	movs	r0, #14
  4006ba:	47a0      	blx	r4
	wm8904_write_register(WM8904_DAC_DIGITAL_1, WM8904_DEEMPH(0));
  4006bc:	2100      	movs	r1, #0
  4006be:	2021      	movs	r0, #33	; 0x21
  4006c0:	47a0      	blx	r4
	wm8904_write_register(WM8904_ANALOGUE_OUT12_ZC, 0x0000);
  4006c2:	2100      	movs	r1, #0
  4006c4:	203d      	movs	r0, #61	; 0x3d
  4006c6:	47a0      	blx	r4
	wm8904_write_register(WM8904_CHARGE_PUMP_0, WM8904_CP_ENA);
  4006c8:	2101      	movs	r1, #1
  4006ca:	2062      	movs	r0, #98	; 0x62
  4006cc:	47a0      	blx	r4
	wm8904_write_register(WM8904_CLASS_W_0, WM8904_CP_DYN_PWR);
  4006ce:	2101      	movs	r1, #1
  4006d0:	2068      	movs	r0, #104	; 0x68
  4006d2:	47a0      	blx	r4
	wm8904_write_register(WM8904_FLL_CONTROL_1, 0x0000);
  4006d4:	2100      	movs	r1, #0
  4006d6:	2074      	movs	r0, #116	; 0x74
  4006d8:	47a0      	blx	r4
	wm8904_write_register(WM8904_FLL_CONTROL_2, WM8904_FLL_OUTDIV(7)| WM8904_FLL_FRATIO(4));
  4006da:	f240 7104 	movw	r1, #1796	; 0x704
  4006de:	2075      	movs	r0, #117	; 0x75
  4006e0:	47a0      	blx	r4
	wm8904_write_register(WM8904_FLL_CONTROL_3, WM8904_FLL_K(0x8000));
  4006e2:	f44f 4100 	mov.w	r1, #32768	; 0x8000
  4006e6:	2076      	movs	r0, #118	; 0x76
  4006e8:	47a0      	blx	r4
	wm8904_write_register(WM8904_FLL_CONTROL_4, WM8904_FLL_N(0xBB));
  4006ea:	f44f 51bb 	mov.w	r1, #5984	; 0x1760
  4006ee:	2077      	movs	r0, #119	; 0x77
  4006f0:	47a0      	blx	r4
	wm8904_write_register(WM8904_FLL_CONTROL_1, WM8904_FLL_FRACN_ENA | WM8904_FLL_ENA);
  4006f2:	2105      	movs	r1, #5
  4006f4:	2074      	movs	r0, #116	; 0x74
  4006f6:	47a0      	blx	r4
	delay_ms(5);
  4006f8:	4825      	ldr	r0, [pc, #148]	; (400790 <configure_codec+0x120>)
  4006fa:	47a8      	blx	r5
	wm8904_write_register(WM8904_CLOCK_RATES_1, WM8904_CLK_SYS_RATE(3) | WM8904_SAMPLE_RATE(SAMPLE_RATE));
  4006fc:	f640 4105 	movw	r1, #3077	; 0xc05
  400700:	2015      	movs	r0, #21
  400702:	47a0      	blx	r4
	wm8904_write_register(WM8904_CLOCK_RATES_0, 0x0000);
  400704:	2100      	movs	r1, #0
  400706:	2014      	movs	r0, #20
  400708:	47a0      	blx	r4
	wm8904_write_register(WM8904_CLOCK_RATES_2,
  40070a:	f244 0106 	movw	r1, #16390	; 0x4006
  40070e:	2016      	movs	r0, #22
  400710:	47a0      	blx	r4
	WM8904_SYSCLK_SRC | WM8904_CLK_SYS_ENA | WM8904_CLK_DSP_ENA);
	wm8904_write_register(WM8904_AUDIO_INTERFACE_1, WM8904_BCLK_DIR | WM8904_AIF_FMT_I2S); 
  400712:	2142      	movs	r1, #66	; 0x42
  400714:	2019      	movs	r0, #25
  400716:	47a0      	blx	r4
	wm8904_write_register(WM8904_AUDIO_INTERFACE_2, WM8904_BCLK_DIV(8));
  400718:	2108      	movs	r1, #8
  40071a:	201a      	movs	r0, #26
  40071c:	47a0      	blx	r4
	wm8904_write_register(WM8904_AUDIO_INTERFACE_3, WM8904_LRCLK_DIR | WM8904_LRCLK_RATE(0x20));
  40071e:	f44f 6102 	mov.w	r1, #2080	; 0x820
  400722:	201b      	movs	r0, #27
  400724:	47a0      	blx	r4
	wm8904_write_register(WM8904_POWER_MANAGEMENT_6,
  400726:	210f      	movs	r1, #15
  400728:	2012      	movs	r0, #18
  40072a:	47a0      	blx	r4
	WM8904_DACL_ENA | WM8904_DACR_ENA |
	WM8904_ADCL_ENA | WM8904_ADCR_ENA);
	delay_ms(5);
  40072c:	4818      	ldr	r0, [pc, #96]	; (400790 <configure_codec+0x120>)
  40072e:	47a8      	blx	r5
	wm8904_write_register(WM8904_ANALOGUE_LEFT_INPUT_0, WM8904_LIN_VOL(0x10));
  400730:	2110      	movs	r1, #16
  400732:	202c      	movs	r0, #44	; 0x2c
  400734:	47a0      	blx	r4
	wm8904_write_register(WM8904_ANALOGUE_RIGHT_INPUT_0, WM8904_RIN_VOL(0x10));
  400736:	2110      	movs	r1, #16
  400738:	202d      	movs	r0, #45	; 0x2d
  40073a:	47a0      	blx	r4
	wm8904_write_register(WM8904_ANALOGUE_HP_0,
  40073c:	2111      	movs	r1, #17
  40073e:	205a      	movs	r0, #90	; 0x5a
  400740:	47a0      	blx	r4
	WM8904_HPL_ENA | WM8904_HPR_ENA);
	wm8904_write_register(WM8904_ANALOGUE_HP_0,
  400742:	2133      	movs	r1, #51	; 0x33
  400744:	205a      	movs	r0, #90	; 0x5a
  400746:	47a0      	blx	r4
	WM8904_HPL_ENA_DLY | WM8904_HPL_ENA |
	WM8904_HPR_ENA_DLY | WM8904_HPR_ENA);
	wm8904_write_register(WM8904_DC_SERVO_0,
  400748:	210f      	movs	r1, #15
  40074a:	2043      	movs	r0, #67	; 0x43
  40074c:	47a0      	blx	r4
	WM8904_DCS_ENA_CHAN_3 | WM8904_DCS_ENA_CHAN_2 |
	WM8904_DCS_ENA_CHAN_1 | WM8904_DCS_ENA_CHAN_0);
	wm8904_write_register(WM8904_DC_SERVO_1,
  40074e:	21f0      	movs	r1, #240	; 0xf0
  400750:	2044      	movs	r0, #68	; 0x44
  400752:	47a0      	blx	r4
	WM8904_DCS_TRIG_STARTUP_3 | WM8904_DCS_TRIG_STARTUP_2 |
	WM8904_DCS_TRIG_STARTUP_1 | WM8904_DCS_TRIG_STARTUP_0);
	delay_ms(100);
  400754:	480f      	ldr	r0, [pc, #60]	; (400794 <configure_codec+0x124>)
  400756:	47a8      	blx	r5
	wm8904_write_register(WM8904_ANALOGUE_HP_0,
  400758:	2177      	movs	r1, #119	; 0x77
  40075a:	205a      	movs	r0, #90	; 0x5a
  40075c:	47a0      	blx	r4
	WM8904_HPL_ENA_OUTP | WM8904_HPL_ENA_DLY | WM8904_HPL_ENA |
	WM8904_HPR_ENA_OUTP | WM8904_HPR_ENA_DLY | WM8904_HPR_ENA);
	wm8904_write_register(WM8904_ANALOGUE_HP_0,
  40075e:	21ff      	movs	r1, #255	; 0xff
  400760:	205a      	movs	r0, #90	; 0x5a
  400762:	47a0      	blx	r4
	WM8904_HPL_RMV_SHORT | WM8904_HPL_ENA_OUTP | WM8904_HPL_ENA_DLY | WM8904_HPL_ENA |
	WM8904_HPR_RMV_SHORT | WM8904_HPR_ENA_OUTP | WM8904_HPR_ENA_DLY | WM8904_HPR_ENA);
	wm8904_write_register(WM8904_ANALOGUE_OUT1_LEFT, WM8904_HPOUT_VU | WM8904_HPOUTL_VOL(0x39));
  400764:	21b9      	movs	r1, #185	; 0xb9
  400766:	2039      	movs	r0, #57	; 0x39
  400768:	47a0      	blx	r4
	wm8904_write_register(WM8904_ANALOGUE_OUT1_RIGHT, WM8904_HPOUT_VU | WM8904_HPOUTR_VOL(0x39));
  40076a:	203a      	movs	r0, #58	; 0x3a
  40076c:	21b9      	movs	r1, #185	; 0xb9
  40076e:	47a0      	blx	r4
	delay_ms(100);
  400770:	462b      	mov	r3, r5
  400772:	4808      	ldr	r0, [pc, #32]	; (400794 <configure_codec+0x124>)
}
  400774:	e8bd 4070 	ldmia.w	sp!, {r4, r5, r6, lr}
	delay_ms(100);
  400778:	4718      	bx	r3
  40077a:	bf00      	nop
  40077c:	004033d5 	.word	0x004033d5
  400780:	00403411 	.word	0x00403411
  400784:	004122bc 	.word	0x004122bc
  400788:	00406991 	.word	0x00406991
  40078c:	20400001 	.word	0x20400001
  400790:	0003dbc2 	.word	0x0003dbc2
  400794:	004d2b25 	.word	0x004d2b25

00400798 <get_midi_note>:
static const float32_t lp_filter[] = {0.0027, 0.0103, 0.0258, 0.0499, 0.0801, 0.1105, 0.1332, 0.1416, 0.1332, 0.1105, 0.0801, 0.0499, 0.0258, 0.0103, 0.0027};
static uint32_t lp_filter_length = 15;
static float32_t y[YIN_BUF_SIZE]; // buffer for processed input
/**************************** Public Functions Start *********************************/
void get_midi_note(float32_t *buffer, midi_note_t *note, aubio_pitchyinfast_t *yin)
{		
  400798:	e92d 47f0 	stmdb	sp!, {r4, r5, r6, r7, r8, r9, sl, lr}
	
	// LP-filtering
	uint32_t j,i;
	
	fvec_t processed_input;
	processed_input.data = (smpl_t *)y;
  40079c:	4e84      	ldr	r6, [pc, #528]	; (4009b0 <get_midi_note+0x218>)
{		
  40079e:	460c      	mov	r4, r1
	processed_input.length = YIN_BUF_SIZE;
  4007a0:	f44f 6100 	mov.w	r1, #2048	; 0x800
{		
  4007a4:	4615      	mov	r5, r2
  4007a6:	f100 073c 	add.w	r7, r0, #60	; 0x3c
	processed_input.length = YIN_BUF_SIZE;
  4007aa:	4603      	mov	r3, r0
  4007ac:	4632      	mov	r2, r6
{		
  4007ae:	ed2d 8b02 	vpush	{d8}
  4007b2:	b082      	sub	sp, #8
	processed_input.length = YIN_BUF_SIZE;
  4007b4:	e88d 0042 	stmia.w	sp, {r1, r6}
  4007b8:	e000      	b.n	4007bc <get_midi_note+0x24>
  4007ba:	9a01      	ldr	r2, [sp, #4]
	for (j = 0; j < lp_filter_length; j++)
	processed_input.data[j] = input.data[j];
  4007bc:	1a1e      	subs	r6, r3, r0
  4007be:	f853 1b04 	ldr.w	r1, [r3], #4
  4007c2:	4432      	add	r2, r6
	for (j = 0; j < lp_filter_length; j++)
  4007c4:	429f      	cmp	r7, r3
	processed_input.data[j] = input.data[j];
  4007c6:	6011      	str	r1, [r2, #0]
	for (j = 0; j < lp_filter_length; j++)
  4007c8:	d1f7      	bne.n	4007ba <get_midi_note+0x22>
  4007ca:	263c      	movs	r6, #60	; 0x3c
  4007cc:	4f79      	ldr	r7, [pc, #484]	; (4009b4 <get_midi_note+0x21c>)
	for(j = lp_filter_length; j < input.length; j++)
	{
		processed_input.data[j] = 0;
  4007ce:	f04f 0c00 	mov.w	ip, #0
  4007d2:	ed9f 6a79 	vldr	s12, [pc, #484]	; 4009b8 <get_midi_note+0x220>
  4007d6:	9b01      	ldr	r3, [sp, #4]
  4007d8:	f106 0e04 	add.w	lr, r6, #4
  4007dc:	4a77      	ldr	r2, [pc, #476]	; (4009bc <get_midi_note+0x224>)
  4007de:	eeb0 7a46 	vmov.f32	s14, s12
  4007e2:	4433      	add	r3, r6
  4007e4:	eb00 010e 	add.w	r1, r0, lr
  4007e8:	f8c3 c000 	str.w	ip, [r3]
  4007ec:	e001      	b.n	4007f2 <get_midi_note+0x5a>
  4007ee:	ecb2 7a01 	vldmia	r2!, {s14}
		for(i = 0; i < lp_filter_length; i++)
		{
			processed_input.data[j] += input.data[j-i]*lp_filter[i];
  4007f2:	9b01      	ldr	r3, [sp, #4]
		for(i = 0; i < lp_filter_length; i++)
  4007f4:	4297      	cmp	r7, r2
			processed_input.data[j] += input.data[j-i]*lp_filter[i];
  4007f6:	ed71 6a01 	vldmdb	r1!, {s13}
  4007fa:	4433      	add	r3, r6
  4007fc:	edd3 7a00 	vldr	s15, [r3]
  400800:	eee6 7a87 	vfma.f32	s15, s13, s14
  400804:	edc3 7a00 	vstr	s15, [r3]
		for(i = 0; i < lp_filter_length; i++)
  400808:	d1f1      	bne.n	4007ee <get_midi_note+0x56>
	for(j = lp_filter_length; j < input.length; j++)
  40080a:	f5be 5f00 	cmp.w	lr, #8192	; 0x2000
  40080e:	4676      	mov	r6, lr
  400810:	d1e1      	bne.n	4007d6 <get_midi_note+0x3e>
		}
	}
	
	// apply hanning window
	for (i = 0; i < processed_input.length; i++)
  400812:	9b00      	ldr	r3, [sp, #0]
  400814:	b19b      	cbz	r3, 40083e <get_midi_note+0xa6>
  400816:	496a      	ldr	r1, [pc, #424]	; (4009c0 <get_midi_note+0x228>)
  400818:	2200      	movs	r2, #0
  40081a:	ed9f 7a6a 	vldr	s14, [pc, #424]	; 4009c4 <get_midi_note+0x22c>
  40081e:	e001      	b.n	400824 <get_midi_note+0x8c>
  400820:	ecb1 7a01 	vldmia	r1!, {s14}
	processed_input.data[i] *= hanning[i];
  400824:	9b01      	ldr	r3, [sp, #4]
  400826:	eb03 0382 	add.w	r3, r3, r2, lsl #2
	for (i = 0; i < processed_input.length; i++)
  40082a:	3201      	adds	r2, #1
	processed_input.data[i] *= hanning[i];
  40082c:	edd3 7a00 	vldr	s15, [r3]
  400830:	ee67 7a87 	vmul.f32	s15, s15, s14
  400834:	edc3 7a00 	vstr	s15, [r3]
	for (i = 0; i < processed_input.length; i++)
  400838:	9b00      	ldr	r3, [sp, #0]
  40083a:	4293      	cmp	r3, r2
  40083c:	d8f0      	bhi.n	400820 <get_midi_note+0x88>
	
	uint32_t power = get_average_power(processed_input.data);
  40083e:	9a01      	ldr	r2, [sp, #4]
	uint32_t power = 0;
  400840:	2100      	movs	r1, #0
  400842:	f502 5000 	add.w	r0, r2, #8192	; 0x2000
		power += (abs(buffer[i]))^2;
  400846:	ecf2 7a01 	vldmia	r2!, {s15}
  40084a:	eefd 7ae7 	vcvt.s32.f32	s15, s15
  40084e:	ee17 3a90 	vmov	r3, s15
  400852:	2b00      	cmp	r3, #0
  400854:	bfb8      	it	lt
  400856:	425b      	neglt	r3, r3
	for ( i = 0; i < (WIN_SIZE); i++)
  400858:	4290      	cmp	r0, r2
		power += (abs(buffer[i]))^2;
  40085a:	f083 0302 	eor.w	r3, r3, #2
  40085e:	4419      	add	r1, r3
	for ( i = 0; i < (WIN_SIZE); i++)
  400860:	d1f1      	bne.n	400846 <get_midi_note+0xae>
	if (power > max_power)
  400862:	4b59      	ldr	r3, [pc, #356]	; (4009c8 <get_midi_note+0x230>)
	return (power/(WIN_SIZE));
  400864:	0ace      	lsrs	r6, r1, #11
	if (power > max_power)
  400866:	681f      	ldr	r7, [r3, #0]
  400868:	42b7      	cmp	r7, r6
  40086a:	d201      	bcs.n	400870 <get_midi_note+0xd8>
	{
		max_power = power;
  40086c:	4637      	mov	r7, r6
  40086e:	601e      	str	r6, [r3, #0]
	}
	
	if (power < 0.1*max_power)
  400870:	f8df a17c 	ldr.w	sl, [pc, #380]	; 4009f0 <get_midi_note+0x258>
  400874:	4630      	mov	r0, r6
  400876:	47d0      	blx	sl
  400878:	4680      	mov	r8, r0
  40087a:	4689      	mov	r9, r1
  40087c:	4638      	mov	r0, r7
  40087e:	47d0      	blx	sl
  400880:	f8df a170 	ldr.w	sl, [pc, #368]	; 4009f4 <get_midi_note+0x25c>
  400884:	4f51      	ldr	r7, [pc, #324]	; (4009cc <get_midi_note+0x234>)
  400886:	a346      	add	r3, pc, #280	; (adr r3, 4009a0 <get_midi_note+0x208>)
  400888:	e9d3 2300 	ldrd	r2, r3, [r3]
  40088c:	47d0      	blx	sl
  40088e:	4602      	mov	r2, r0
  400890:	460b      	mov	r3, r1
  400892:	4640      	mov	r0, r8
  400894:	4649      	mov	r1, r9
  400896:	47b8      	blx	r7
  400898:	b140      	cbz	r0, 4008ac <get_midi_note+0x114>
	{
		note->note_number = NO_NOTE;
  40089a:	f64f 73ff 	movw	r3, #65535	; 0xffff
  40089e:	8023      	strh	r3, [r4, #0]
		note->velocity = NO_NOTE;
  4008a0:	8063      	strh	r3, [r4, #2]
		note->velocity = NO_NOTE;
		return;
	}
	note->note_number = get_midi_number(freq);
	note->velocity = power;
}
  4008a2:	b002      	add	sp, #8
  4008a4:	ecbd 8b02 	vpop	{d8}
  4008a8:	e8bd 87f0 	ldmia.w	sp!, {r4, r5, r6, r7, r8, r9, sl, pc}
	float32_t freq = aubio_pitchyinfast_do(yin, &processed_input); 
  4008ac:	4669      	mov	r1, sp
  4008ae:	4628      	mov	r0, r5
  4008b0:	4b47      	ldr	r3, [pc, #284]	; (4009d0 <get_midi_note+0x238>)
  4008b2:	4798      	blx	r3
	if (freq < 32.0 || freq > 4000.0|| aubio_pitchyinfast_get_confidence(yin) < 0.8)
  4008b4:	eddf 7a47 	vldr	s15, [pc, #284]	; 4009d4 <get_midi_note+0x23c>
	float32_t freq = aubio_pitchyinfast_do(yin, &processed_input); 
  4008b8:	ee08 0a10 	vmov	s16, r0
	if (freq < 32.0 || freq > 4000.0|| aubio_pitchyinfast_get_confidence(yin) < 0.8)
  4008bc:	eeb4 8ae7 	vcmpe.f32	s16, s15
  4008c0:	eef1 fa10 	vmrs	APSR_nzcv, fpscr
  4008c4:	d4e9      	bmi.n	40089a <get_midi_note+0x102>
  4008c6:	eddf 7a44 	vldr	s15, [pc, #272]	; 4009d8 <get_midi_note+0x240>
  4008ca:	eeb4 8a67 	vcmp.f32	s16, s15
  4008ce:	eef1 fa10 	vmrs	APSR_nzcv, fpscr
  4008d2:	dce2      	bgt.n	40089a <get_midi_note+0x102>
  4008d4:	4b41      	ldr	r3, [pc, #260]	; (4009dc <get_midi_note+0x244>)
  4008d6:	4628      	mov	r0, r5
  4008d8:	4798      	blx	r3
  4008da:	4b41      	ldr	r3, [pc, #260]	; (4009e0 <get_midi_note+0x248>)
  4008dc:	4798      	blx	r3
  4008de:	a332      	add	r3, pc, #200	; (adr r3, 4009a8 <get_midi_note+0x210>)
  4008e0:	e9d3 2300 	ldrd	r2, r3, [r3]
  4008e4:	47b8      	blx	r7
  4008e6:	2800      	cmp	r0, #0
  4008e8:	d1d7      	bne.n	40089a <get_midi_note+0x102>
  4008ea:	ed9f 7a3e 	vldr	s14, [pc, #248]	; 4009e4 <get_midi_note+0x24c>
  4008ee:	257f      	movs	r5, #127	; 0x7f
  4008f0:	eddf 7a3d 	vldr	s15, [pc, #244]	; 4009e8 <get_midi_note+0x250>
  4008f4:	f04f 0e0c 	mov.w	lr, #12
		d1 = abs(midi_note_frequencies[mid] - frequency); 
  4008f8:	4f3c      	ldr	r7, [pc, #240]	; (4009ec <get_midi_note+0x254>)
		d2 = abs(midi_note_frequencies[mid+1] - frequency);
  4008fa:	ee37 7a48 	vsub.f32	s14, s14, s16
		mid = (hi + lo) >> 1; 
  4008fe:	eb05 030e 	add.w	r3, r5, lr
		d1 = abs(midi_note_frequencies[mid] - frequency); 
  400902:	ee77 7ac8 	vsub.f32	s15, s15, s16
		mid = (hi + lo) >> 1; 
  400906:	085b      	lsrs	r3, r3, #1
		d2 = abs(midi_note_frequencies[mid+1] - frequency);
  400908:	eebd 7ac7 	vcvt.s32.f32	s14, s14
		d1 = abs(midi_note_frequencies[mid] - frequency); 
  40090c:	eefd 7ae7 	vcvt.s32.f32	s15, s15
		d2 = abs(midi_note_frequencies[mid+1] - frequency);
  400910:	1c58      	adds	r0, r3, #1
  400912:	ee17 1a10 	vmov	r1, s14
		d1 = abs(midi_note_frequencies[mid] - frequency); 
  400916:	ee17 2a90 	vmov	r2, s15
		d2 = abs(midi_note_frequencies[mid+1] - frequency);
  40091a:	2900      	cmp	r1, #0
  40091c:	bfb8      	it	lt
  40091e:	4249      	neglt	r1, r1
		d1 = abs(midi_note_frequencies[mid] - frequency); 
  400920:	2a00      	cmp	r2, #0
  400922:	bfb8      	it	lt
  400924:	4252      	neglt	r2, r2
        if (d2 <= d1)
  400926:	4291      	cmp	r1, r2
  400928:	d91f      	bls.n	40096a <get_midi_note+0x1d2>
  40092a:	e026      	b.n	40097a <get_midi_note+0x1e2>
		d1 = abs(midi_note_frequencies[mid] - frequency); 
  40092c:	eb07 0283 	add.w	r2, r7, r3, lsl #2
		d2 = abs(midi_note_frequencies[mid+1] - frequency);
  400930:	f103 0e01 	add.w	lr, r3, #1
		d1 = abs(midi_note_frequencies[mid] - frequency); 
  400934:	ed92 7a00 	vldr	s14, [r2]
		d2 = abs(midi_note_frequencies[mid+1] - frequency);
  400938:	eb07 018e 	add.w	r1, r7, lr, lsl #2
		d1 = abs(midi_note_frequencies[mid] - frequency); 
  40093c:	ee37 7a48 	vsub.f32	s14, s14, s16
		d2 = abs(midi_note_frequencies[mid+1] - frequency);
  400940:	edd1 7a00 	vldr	s15, [r1]
  400944:	ee77 7ac8 	vsub.f32	s15, s15, s16
		d1 = abs(midi_note_frequencies[mid] - frequency); 
  400948:	eebd 7ac7 	vcvt.s32.f32	s14, s14
		d2 = abs(midi_note_frequencies[mid+1] - frequency);
  40094c:	eefd 7ae7 	vcvt.s32.f32	s15, s15
		d1 = abs(midi_note_frequencies[mid] - frequency); 
  400950:	ee17 1a10 	vmov	r1, s14
		d2 = abs(midi_note_frequencies[mid+1] - frequency);
  400954:	ee17 2a90 	vmov	r2, s15
		d1 = abs(midi_note_frequencies[mid] - frequency); 
  400958:	2900      	cmp	r1, #0
  40095a:	bfb8      	it	lt
  40095c:	4249      	neglt	r1, r1
		d2 = abs(midi_note_frequencies[mid+1] - frequency);
  40095e:	2a00      	cmp	r2, #0
  400960:	bfb8      	it	lt
  400962:	4252      	neglt	r2, r2
        if (d2 <= d1)
  400964:	4291      	cmp	r1, r2
  400966:	d309      	bcc.n	40097c <get_midi_note+0x1e4>
		d2 = abs(midi_note_frequencies[mid+1] - frequency);
  400968:	4670      	mov	r0, lr
		mid = (hi + lo) >> 1; 
  40096a:	182b      	adds	r3, r5, r0
	while (lo < hi)
  40096c:	4285      	cmp	r5, r0
		mid = (hi + lo) >> 1; 
  40096e:	ea4f 0353 	mov.w	r3, r3, lsr #1
	while (lo < hi)
  400972:	d8db      	bhi.n	40092c <get_midi_note+0x194>
	note->note_number = get_midi_number(freq);
  400974:	8025      	strh	r5, [r4, #0]
	note->velocity = power;
  400976:	8066      	strh	r6, [r4, #2]
  400978:	e793      	b.n	4008a2 <get_midi_note+0x10a>
        if (d2 <= d1)
  40097a:	4670      	mov	r0, lr
	while (lo < hi)
  40097c:	4298      	cmp	r0, r3
  40097e:	d20a      	bcs.n	400996 <get_midi_note+0x1fe>
  400980:	18c2      	adds	r2, r0, r3
  400982:	461d      	mov	r5, r3
  400984:	4686      	mov	lr, r0
  400986:	0853      	lsrs	r3, r2, #1
  400988:	eb07 0283 	add.w	r2, r7, r3, lsl #2
  40098c:	edd2 7a00 	vldr	s15, [r2]
  400990:	ed92 7a01 	vldr	s14, [r2, #4]
  400994:	e7b1      	b.n	4008fa <get_midi_note+0x162>
  400996:	461d      	mov	r5, r3
  400998:	e7ec      	b.n	400974 <get_midi_note+0x1dc>
  40099a:	bf00      	nop
  40099c:	f3af 8000 	nop.w
  4009a0:	9999999a 	.word	0x9999999a
  4009a4:	3fb99999 	.word	0x3fb99999
  4009a8:	9999999a 	.word	0x9999999a
  4009ac:	3fe99999 	.word	0x3fe99999
  4009b0:	20400a68 	.word	0x20400a68
  4009b4:	0041430c 	.word	0x0041430c
  4009b8:	3b30f27c 	.word	0x3b30f27c
  4009bc:	004142d4 	.word	0x004142d4
  4009c0:	004122d4 	.word	0x004122d4
  4009c4:	361dc26b 	.word	0x361dc26b
  4009c8:	20400a64 	.word	0x20400a64
  4009cc:	0040619d 	.word	0x0040619d
  4009d0:	00402f49 	.word	0x00402f49
  4009d4:	42000000 	.word	0x42000000
  4009d8:	457a0000 	.word	0x457a0000
  4009dc:	00403329 	.word	0x00403329
  4009e0:	00405c11 	.word	0x00405c11
  4009e4:	43e914fe 	.word	0x43e914fe
  4009e8:	43dc0000 	.word	0x43dc0000
  4009ec:	0041430c 	.word	0x0041430c
  4009f0:	00405bcd 	.word	0x00405bcd
  4009f4:	00405cb9 	.word	0x00405cb9

004009f8 <write_midi_file>:
    }
    write_out(bytes[3]);
}

void write_midi_file(uint32_t bpm, midi_instrument_t playback_instrument, time_signature_t *time_signature , key_signature_t *key_signature, char *title, midi_event_t *events, uint32_t number_of_events)
{
  4009f8:	e92d 4ff0 	stmdb	sp!, {r4, r5, r6, r7, r8, r9, sl, fp, lr}
  4009fc:	b09d      	sub	sp, #116	; 0x74
    out[outIdx++] = val;
  4009fe:	4f9c      	ldr	r7, [pc, #624]	; (400c70 <write_midi_file+0x278>)
    char ch;
    uint32_t i;
    uint32_t longdata;
    char endoftrack[4] = {0, 0xff, 0x2f, 0x00};
  400a00:	2400      	movs	r4, #0
    out[outIdx++] = val;
  400a02:	f04f 0864 	mov.w	r8, #100	; 0x64
{
  400a06:	9115      	str	r1, [sp, #84]	; 0x54
    out[outIdx++] = val;
  400a08:	2102      	movs	r1, #2
  400a0a:	f04f 0c06 	mov.w	ip, #6
  400a0e:	2501      	movs	r5, #1
  400a10:	72f9      	strb	r1, [r7, #11]
  400a12:	2154      	movs	r1, #84	; 0x54
{
  400a14:	f8dd e098 	ldr.w	lr, [sp, #152]	; 0x98
    out[outIdx++] = val;
  400a18:	f04f 0968 	mov.w	r9, #104	; 0x68
{
  400a1c:	9316      	str	r3, [sp, #88]	; 0x58
    ch = 'T'; write_out(ch);
    ch = 'r'; write_out(ch);
    ch = 'k'; write_out(ch);
    
    // size of track
    uint32_t size_of_title = 0;
  400a1e:	4623      	mov	r3, r4
    char endoftrack[4] = {0, 0xff, 0x2f, 0x00};
  400a20:	f88d 4060 	strb.w	r4, [sp, #96]	; 0x60
  400a24:	f10e 36ff 	add.w	r6, lr, #4294967295
  400a28:	f88d 4063 	strb.w	r4, [sp, #99]	; 0x63
    out[outIdx++] = val;
  400a2c:	713c      	strb	r4, [r7, #4]
  400a2e:	717c      	strb	r4, [r7, #5]
  400a30:	71bc      	strb	r4, [r7, #6]
  400a32:	723c      	strb	r4, [r7, #8]
  400a34:	72bc      	strb	r4, [r7, #10]
  400a36:	733c      	strb	r4, [r7, #12]
  400a38:	2478      	movs	r4, #120	; 0x78
  400a3a:	f887 8003 	strb.w	r8, [r7, #3]
  400a3e:	f04f 0872 	mov.w	r8, #114	; 0x72
  400a42:	7079      	strb	r1, [r7, #1]
  400a44:	73f9      	strb	r1, [r7, #15]
{
  400a46:	9927      	ldr	r1, [sp, #156]	; 0x9c
    out[outIdx++] = val;
  400a48:	f887 c007 	strb.w	ip, [r7, #7]
  400a4c:	f04f 0c6b 	mov.w	ip, #107	; 0x6b
  400a50:	727d      	strb	r5, [r7, #9]
  400a52:	254d      	movs	r5, #77	; 0x4d
  400a54:	737c      	strb	r4, [r7, #13]
    char endoftrack[4] = {0, 0xff, 0x2f, 0x00};
  400a56:	24ff      	movs	r4, #255	; 0xff
    out[outIdx++] = val;
  400a58:	f887 8010 	strb.w	r8, [r7, #16]
    char endoftrack[4] = {0, 0xff, 0x2f, 0x00};
  400a5c:	f04f 082f 	mov.w	r8, #47	; 0x2f
{
  400a60:	9117      	str	r1, [sp, #92]	; 0x5c
  400a62:	9928      	ldr	r1, [sp, #160]	; 0xa0
  400a64:	9201      	str	r2, [sp, #4]
    while(title[size_of_title++]); // size of title
  400a66:	4632      	mov	r2, r6
    out[outIdx++] = val;
  400a68:	f887 9002 	strb.w	r9, [r7, #2]
  400a6c:	f887 c011 	strb.w	ip, [r7, #17]
  400a70:	703d      	strb	r5, [r7, #0]
  400a72:	73bd      	strb	r5, [r7, #14]
    char endoftrack[4] = {0, 0xff, 0x2f, 0x00};
  400a74:	f88d 4061 	strb.w	r4, [sp, #97]	; 0x61
  400a78:	f88d 8062 	strb.w	r8, [sp, #98]	; 0x62
{
  400a7c:	9102      	str	r1, [sp, #8]
    while(title[size_of_title++]); // size of title
  400a7e:	e000      	b.n	400a82 <write_midi_file+0x8a>
  400a80:	460b      	mov	r3, r1
  400a82:	f812 5f01 	ldrb.w	r5, [r2, #1]!
  400a86:	1c59      	adds	r1, r3, #1
  400a88:	2d00      	cmp	r5, #0
  400a8a:	d1f9      	bne.n	400a80 <write_midi_file+0x88>
    longdata = 29 + size_of_title - 1;
  400a8c:	f103 091d 	add.w	r9, r3, #29
    out[outIdx++] = val;
  400a90:	24ff      	movs	r4, #255	; 0xff
  400a92:	2103      	movs	r1, #3
  400a94:	9503      	str	r5, [sp, #12]
    write_out(data.bytes[3]);
  400a96:	f3c9 6c07 	ubfx	ip, r9, #24, #8
    write_out(data.bytes[2]);
  400a9a:	f3c9 4207 	ubfx	r2, r9, #16, #8
    out[outIdx++] = val;
  400a9e:	75fc      	strb	r4, [r7, #23]
  400aa0:	f887 c012 	strb.w	ip, [r7, #18]
    write_out(data.bytes[1]);
  400aa4:	f3c9 2c07 	ubfx	ip, r9, #8, #8
    out[outIdx++] = val;
  400aa8:	74fa      	strb	r2, [r7, #19]
  400aaa:	221a      	movs	r2, #26
  400aac:	4c71      	ldr	r4, [pc, #452]	; (400c74 <write_midi_file+0x27c>)
  400aae:	75bd      	strb	r5, [r7, #22]
  400ab0:	767b      	strb	r3, [r7, #25]
  400ab2:	f887 9015 	strb.w	r9, [r7, #21]
  400ab6:	f887 c014 	strb.w	ip, [r7, #20]
  400aba:	7639      	strb	r1, [r7, #24]
  400abc:	6022      	str	r2, [r4, #0]
    // track name (title)
    write_out(0x00); // tick
    write_out(0xFF);
    write_out(0x03);
    write_out((uint8_t)size_of_title-1);
    for (i = 0; i < size_of_title-1; i++)
  400abe:	2b00      	cmp	r3, #0
  400ac0:	f000 81ed 	beq.w	400e9e <write_midi_file+0x4a6>
  400ac4:	1e59      	subs	r1, r3, #1
  400ac6:	4a6c      	ldr	r2, [pc, #432]	; (400c78 <write_midi_file+0x280>)
  400ac8:	448e      	add	lr, r1
        write_out(title[i]);
  400aca:	f816 1f01 	ldrb.w	r1, [r6, #1]!
    for (i = 0; i < size_of_title-1; i++)
  400ace:	4576      	cmp	r6, lr
    out[outIdx++] = val;
  400ad0:	f802 1f01 	strb.w	r1, [r2, #1]!
    for (i = 0; i < size_of_title-1; i++)
  400ad4:	d1f9      	bne.n	400aca <write_midi_file+0xd2>
  400ad6:	f103 0221 	add.w	r2, r3, #33	; 0x21
  400ada:	f103 0a1a 	add.w	sl, r3, #26
  400ade:	f103 061c 	add.w	r6, r3, #28
  400ae2:	f103 081b 	add.w	r8, r3, #27
  400ae6:	9204      	str	r2, [sp, #16]
  400ae8:	f103 0220 	add.w	r2, r3, #32
  400aec:	f103 0b2f 	add.w	fp, r3, #47	; 0x2f
  400af0:	9503      	str	r5, [sp, #12]
  400af2:	9205      	str	r2, [sp, #20]
  400af4:	f103 021f 	add.w	r2, r3, #31
  400af8:	9206      	str	r2, [sp, #24]
  400afa:	f103 021e 	add.w	r2, r3, #30
  400afe:	9207      	str	r2, [sp, #28]
  400b00:	f103 022e 	add.w	r2, r3, #46	; 0x2e
  400b04:	9208      	str	r2, [sp, #32]
  400b06:	f103 022d 	add.w	r2, r3, #45	; 0x2d
  400b0a:	9209      	str	r2, [sp, #36]	; 0x24
  400b0c:	f103 022c 	add.w	r2, r3, #44	; 0x2c
  400b10:	920a      	str	r2, [sp, #40]	; 0x28
  400b12:	f103 022b 	add.w	r2, r3, #43	; 0x2b
  400b16:	920b      	str	r2, [sp, #44]	; 0x2c
  400b18:	f103 022a 	add.w	r2, r3, #42	; 0x2a
  400b1c:	920c      	str	r2, [sp, #48]	; 0x30
  400b1e:	f103 0229 	add.w	r2, r3, #41	; 0x29
  400b22:	920d      	str	r2, [sp, #52]	; 0x34
  400b24:	f103 0228 	add.w	r2, r3, #40	; 0x28
  400b28:	920e      	str	r2, [sp, #56]	; 0x38
  400b2a:	f103 0227 	add.w	r2, r3, #39	; 0x27
  400b2e:	920f      	str	r2, [sp, #60]	; 0x3c
  400b30:	f103 0226 	add.w	r2, r3, #38	; 0x26
  400b34:	9210      	str	r2, [sp, #64]	; 0x40
  400b36:	f103 0225 	add.w	r2, r3, #37	; 0x25
  400b3a:	9211      	str	r2, [sp, #68]	; 0x44
  400b3c:	f103 0224 	add.w	r2, r3, #36	; 0x24
  400b40:	9212      	str	r2, [sp, #72]	; 0x48
  400b42:	f103 0223 	add.w	r2, r3, #35	; 0x23
  400b46:	3322      	adds	r3, #34	; 0x22
  400b48:	9213      	str	r2, [sp, #76]	; 0x4c
  400b4a:	9314      	str	r3, [sp, #80]	; 0x50
    
    // tempo
    int microseconds = (int)(60.0 / bpm * 1000000.0);
  400b4c:	4b4b      	ldr	r3, [pc, #300]	; (400c7c <write_midi_file+0x284>)
  400b4e:	4798      	blx	r3
  400b50:	4d4b      	ldr	r5, [pc, #300]	; (400c80 <write_midi_file+0x288>)
  400b52:	4602      	mov	r2, r0
  400b54:	460b      	mov	r3, r1
  400b56:	a144      	add	r1, pc, #272	; (adr r1, 400c68 <write_midi_file+0x270>)
  400b58:	e9d1 0100 	ldrd	r0, r1, [r1]
  400b5c:	47a8      	blx	r5
  400b5e:	4b49      	ldr	r3, [pc, #292]	; (400c84 <write_midi_file+0x28c>)
  400b60:	4798      	blx	r3
    out[outIdx++] = val;
  400b62:	2100      	movs	r1, #0
  400b64:	22ff      	movs	r2, #255	; 0xff
    write_out(0x00); // tick
    write_out(0xFF);
    write_out(0x51);
    write_out(0x03);
    write_out((microseconds >> 16) & 0xff);
  400b66:	ea4f 4e20 	mov.w	lr, r0, asr #16
  400b6a:	9d07      	ldr	r5, [sp, #28]
    out[outIdx++] = val;
  400b6c:	f04f 0c51 	mov.w	ip, #81	; 0x51
  400b70:	2303      	movs	r3, #3
  400b72:	f807 100a 	strb.w	r1, [r7, sl]
  400b76:	f807 2008 	strb.w	r2, [r7, r8]
    write_out((microseconds >> 8) & 0xff);
  400b7a:	ea4f 2a20 	mov.w	sl, r0, asr #8
    out[outIdx++] = val;
  400b7e:	f807 c006 	strb.w	ip, [r7, r6]
  400b82:	f04f 0c58 	mov.w	ip, #88	; 0x58
  400b86:	f807 3009 	strb.w	r3, [r7, r9]
  400b8a:	2304      	movs	r3, #4
    write_out((microseconds >> 16) & 0xff);
  400b8c:	f807 e005 	strb.w	lr, [r7, r5]
  400b90:	f10d 0661 	add.w	r6, sp, #97	; 0x61
    write_out((microseconds >> 8) & 0xff);
  400b94:	9d06      	ldr	r5, [sp, #24]
    out[outIdx++] = val;
  400b96:	f04f 0e18 	mov.w	lr, #24
    write_out((microseconds >> 8) & 0xff);
  400b9a:	f807 a005 	strb.w	sl, [r7, r5]
    out[outIdx++] = val;
  400b9e:	f04f 0a59 	mov.w	sl, #89	; 0x59
    write_out((microseconds >> 0) & 0xff);
  400ba2:	9d05      	ldr	r5, [sp, #20]
  400ba4:	5578      	strb	r0, [r7, r5]
    out[outIdx++] = val;
  400ba6:	9d04      	ldr	r5, [sp, #16]

    // time signature - base2 should be determined with log2(bottom) 
	uint8_t base2; 
	if (time_signature->bottom == 4)
  400ba8:	9801      	ldr	r0, [sp, #4]
  400baa:	9604      	str	r6, [sp, #16]
  400bac:	f890 8001 	ldrb.w	r8, [r0, #1]
    out[outIdx++] = val;
  400bb0:	2002      	movs	r0, #2
  400bb2:	5579      	strb	r1, [r7, r5]
  400bb4:	9d14      	ldr	r5, [sp, #80]	; 0x50
		base2 = 2; 
  400bb6:	4598      	cmp	r8, r3
    out[outIdx++] = val;
  400bb8:	557a      	strb	r2, [r7, r5]
		base2 = 2; 
  400bba:	bf08      	it	eq
  400bbc:	4680      	moveq	r8, r0
    out[outIdx++] = val;
  400bbe:	9d13      	ldr	r5, [sp, #76]	; 0x4c
		base2 = 2; 
  400bc0:	bf18      	it	ne
  400bc2:	f04f 0803 	movne.w	r8, #3
    out[outIdx++] = val;
  400bc6:	f807 c005 	strb.w	ip, [r7, r5]
  400bca:	f10d 0c64 	add.w	ip, sp, #100	; 0x64
  400bce:	9d12      	ldr	r5, [sp, #72]	; 0x48
  400bd0:	557b      	strb	r3, [r7, r5]
	
    write_out(0x00); // tick
    write_out(0xFF);
    write_out(0x58);
    write_out(0x04);
    write_out(0xff & time_signature->top);
  400bd2:	9b01      	ldr	r3, [sp, #4]
    out[outIdx++] = val;
  400bd4:	9d11      	ldr	r5, [sp, #68]	; 0x44
    write_out(0xff & time_signature->top);
  400bd6:	f893 9000 	ldrb.w	r9, [r3]
  400bda:	eb07 030b 	add.w	r3, r7, fp
    out[outIdx++] = val;
  400bde:	f807 9005 	strb.w	r9, [r7, r5]
  400be2:	9d10      	ldr	r5, [sp, #64]	; 0x40
  400be4:	f807 8005 	strb.w	r8, [r7, r5]
  400be8:	9d0f      	ldr	r5, [sp, #60]	; 0x3c
  400bea:	f807 e005 	strb.w	lr, [r7, r5]
  400bee:	f04f 0e08 	mov.w	lr, #8
  400bf2:	9d0e      	ldr	r5, [sp, #56]	; 0x38
  400bf4:	f807 e005 	strb.w	lr, [r7, r5]
  400bf8:	9d0d      	ldr	r5, [sp, #52]	; 0x34
  400bfa:	5579      	strb	r1, [r7, r5]
  400bfc:	990c      	ldr	r1, [sp, #48]	; 0x30
  400bfe:	9d03      	ldr	r5, [sp, #12]
  400c00:	547a      	strb	r2, [r7, r1]
  400c02:	9a0b      	ldr	r2, [sp, #44]	; 0x2c
  400c04:	9916      	ldr	r1, [sp, #88]	; 0x58
  400c06:	f807 a002 	strb.w	sl, [r7, r2]
  400c0a:	9a0a      	ldr	r2, [sp, #40]	; 0x28
  400c0c:	54b8      	strb	r0, [r7, r2]
  400c0e:	9809      	ldr	r0, [sp, #36]	; 0x24
  400c10:	780a      	ldrb	r2, [r1, #0]
  400c12:	543a      	strb	r2, [r7, r0]
    write_out(0x00); // tick
    write_out(0xff);
    write_out(0x59);
    write_out(0x02);
    write_out(0xff & key_signature->key);
    write_out(0xff & key_signature->mode);
  400c14:	784a      	ldrb	r2, [r1, #1]
    out[outIdx++] = val;
  400c16:	9908      	ldr	r1, [sp, #32]
  400c18:	547a      	strb	r2, [r7, r1]
  400c1a:	4632      	mov	r2, r6
  400c1c:	f803 5b01 	strb.w	r5, [r3], #1
    
    // end of header track
    for (i = 0; i < 4; i++)
  400c20:	4562      	cmp	r2, ip
  400c22:	d005      	beq.n	400c30 <write_midi_file+0x238>
  400c24:	f812 5b01 	ldrb.w	r5, [r2], #1
  400c28:	4562      	cmp	r2, ip
    out[outIdx++] = val;
  400c2a:	f803 5b01 	strb.w	r5, [r3], #1
    for (i = 0; i < 4; i++)
  400c2e:	d1f9      	bne.n	400c24 <write_midi_file+0x22c>
    ch = 'T'; write_out(ch);
    ch = 'r'; write_out(ch);
    ch = 'k'; write_out(ch);
    
    // size of track name
    char track_name[] = "Melody";
  400c30:	4915      	ldr	r1, [pc, #84]	; (400c88 <write_midi_file+0x290>)
    out[outIdx++] = val;
  400c32:	eb07 030b 	add.w	r3, r7, fp
  400c36:	9201      	str	r2, [sp, #4]
  400c38:	224d      	movs	r2, #77	; 0x4d
  400c3a:	2654      	movs	r6, #84	; 0x54
  400c3c:	f10d 0567 	add.w	r5, sp, #103	; 0x67
  400c40:	711a      	strb	r2, [r3, #4]
  400c42:	2272      	movs	r2, #114	; 0x72
  400c44:	715e      	strb	r6, [r3, #5]
  400c46:	f10b 0a08 	add.w	sl, fp, #8
  400c4a:	719a      	strb	r2, [r3, #6]
  400c4c:	462a      	mov	r2, r5
    char track_name[] = "Melody";
  400c4e:	c903      	ldmia	r1, {r0, r1}
  400c50:	901a      	str	r0, [sp, #104]	; 0x68
  400c52:	0c08      	lsrs	r0, r1, #16
  400c54:	f8ad 106c 	strh.w	r1, [sp, #108]	; 0x6c
    out[outIdx++] = val;
  400c58:	216b      	movs	r1, #107	; 0x6b
    char track_name[] = "Melody";
  400c5a:	f88d 006e 	strb.w	r0, [sp, #110]	; 0x6e
    out[outIdx++] = val;
  400c5e:	71d9      	strb	r1, [r3, #7]
    uint32_t size_of_track_name = 0;
  400c60:	2300      	movs	r3, #0
    while(track_name[size_of_track_name++]); // size of track name
  400c62:	e016      	b.n	400c92 <write_midi_file+0x29a>
  400c64:	f3af 8000 	nop.w
  400c68:	00000000 	.word	0x00000000
  400c6c:	418c9c38 	.word	0x418c9c38
  400c70:	2042312c 	.word	0x2042312c
  400c74:	20402a68 	.word	0x20402a68
  400c78:	20423145 	.word	0x20423145
  400c7c:	00405bcd 	.word	0x00405bcd
  400c80:	00405f0d 	.word	0x00405f0d
  400c84:	004061ed 	.word	0x004061ed
  400c88:	00414518 	.word	0x00414518
  400c8c:	42f00000 	.word	0x42f00000
  400c90:	460b      	mov	r3, r1
  400c92:	f812 0f01 	ldrb.w	r0, [r2, #1]!
  400c96:	1c59      	adds	r1, r3, #1
  400c98:	2800      	cmp	r0, #0
  400c9a:	d1f9      	bne.n	400c90 <write_midi_file+0x298>
    
    // size of melody
    // number_events * 2 for on/off, * 4 for 4 chars each
    longdata = 11 + number_of_events*8 + size_of_track_name - 1;
  400c9c:	9a02      	ldr	r2, [sp, #8]
  400c9e:	4680      	mov	r8, r0
    out[outIdx++] = val;
  400ca0:	f10b 0010 	add.w	r0, fp, #16
  400ca4:	f04f 0eff 	mov.w	lr, #255	; 0xff
    longdata = 11 + number_of_events*8 + size_of_track_name - 1;
  400ca8:	ea4f 09c2 	mov.w	r9, r2, lsl #3
    out[outIdx++] = val;
  400cac:	eb07 020b 	add.w	r2, r7, fp
    longdata = 11 + number_of_events*8 + size_of_track_name - 1;
  400cb0:	f109 060a 	add.w	r6, r9, #10
  400cb4:	4431      	add	r1, r6
    write_out(data.bytes[3]);
  400cb6:	f3c1 6b07 	ubfx	fp, r1, #24, #8
    write_out(data.bytes[2]);
  400cba:	f3c1 4607 	ubfx	r6, r1, #16, #8
    out[outIdx++] = val;
  400cbe:	f807 b00a 	strb.w	fp, [r7, sl]
    write_out(data.bytes[1]);
  400cc2:	f3c1 2a07 	ubfx	sl, r1, #8, #8
    out[outIdx++] = val;
  400cc6:	72d1      	strb	r1, [r2, #11]
  400cc8:	f04f 0103 	mov.w	r1, #3
  400ccc:	7256      	strb	r6, [r2, #9]
  400cce:	f882 a00a 	strb.w	sl, [r2, #10]
  400cd2:	f882 800c 	strb.w	r8, [r2, #12]
  400cd6:	73d3      	strb	r3, [r2, #15]
  400cd8:	f882 e00d 	strb.w	lr, [r2, #13]
  400cdc:	7391      	strb	r1, [r2, #14]
    // track name
    write_out(0x00); // tick
    write_out(0xFF);
    write_out(0x03);
    write_out((uint8_t)size_of_track_name-1);
    for (i = 0; i < size_of_track_name-1; i++)
  400cde:	b153      	cbz	r3, 400cf6 <write_midi_file+0x2fe>
  400ce0:	aa1a      	add	r2, sp, #104	; 0x68
  400ce2:	1839      	adds	r1, r7, r0
  400ce4:	eb02 0e03 	add.w	lr, r2, r3
        write_out(track_name[i]);
  400ce8:	f812 6b01 	ldrb.w	r6, [r2], #1
    for (i = 0; i < size_of_track_name-1; i++)
  400cec:	4572      	cmp	r2, lr
    out[outIdx++] = val;
  400cee:	f801 6b01 	strb.w	r6, [r1], #1
    for (i = 0; i < size_of_track_name-1; i++)
  400cf2:	d1f9      	bne.n	400ce8 <write_midi_file+0x2f0>
  400cf4:	4418      	add	r0, r3
    
    // patch name
    uint8_t channel = 0;
    write_out(0x00); // tick
    write_out(0xc0 | (0x0f & channel));
    write_out(0x7f & playback_instrument);
  400cf6:	9b15      	ldr	r3, [sp, #84]	; 0x54
    out[outIdx++] = val;
  400cf8:	2100      	movs	r1, #0
  400cfa:	1cc6      	adds	r6, r0, #3
  400cfc:	5439      	strb	r1, [r7, r0]
    write_out(0x7f & playback_instrument);
  400cfe:	f003 027f 	and.w	r2, r3, #127	; 0x7f
    out[outIdx++] = val;
  400d02:	183b      	adds	r3, r7, r0
  400d04:	20c0      	movs	r0, #192	; 0xc0
  400d06:	6026      	str	r6, [r4, #0]
  400d08:	709a      	strb	r2, [r3, #2]
  400d0a:	7058      	strb	r0, [r3, #1]
    
    // write out track data
    uint32_t actiontick = 0;
    for (i = 0; i < number_of_events; i++)
  400d0c:	9b02      	ldr	r3, [sp, #8]
  400d0e:	2b00      	cmp	r3, #0
  400d10:	f000 8092 	beq.w	400e38 <write_midi_file+0x440>
  400d14:	9a17      	ldr	r2, [sp, #92]	; 0x5c
            actiontick = 0;
        }
        else
        {
            // length of rest
            actiontick += TICKS_PER_QUARTER_NOTE * events[i].rhythm;
  400d16:	ed1f 7a23 	vldr	s14, [pc, #-140]	; 400c8c <write_midi_file+0x294>
  400d1a:	4491      	add	r9, r2
        if (events[i].note_number >= 0)
  400d1c:	f9b2 3000 	ldrsh.w	r3, [r2]
  400d20:	2b00      	cmp	r3, #0
  400d22:	f2c0 80af 	blt.w	400e84 <write_midi_file+0x48c>
    bytes[1] = (unsigned char)((value >> 14) & 0x7f);
  400d26:	f3c1 3086 	ubfx	r0, r1, #14, #7
    bytes[0] = (unsigned char)((value >> 21) & 0x7f);
  400d2a:	f3c1 5346 	ubfx	r3, r1, #21, #7
    bytes[2] = (unsigned char)((value >> 7)  & 0x7f);
  400d2e:	f3c1 1ec6 	ubfx	lr, r1, #7, #7
    bytes[3] = (unsigned char)(value & 0x7f);
  400d32:	f001 017f 	and.w	r1, r1, #127	; 0x7f
    bytes[1] = (unsigned char)((value >> 14) & 0x7f);
  400d36:	f88d 0065 	strb.w	r0, [sp, #101]	; 0x65
    int start = 0;
  400d3a:	2000      	movs	r0, #0
    bytes[0] = (unsigned char)((value >> 21) & 0x7f);
  400d3c:	f88d 3064 	strb.w	r3, [sp, #100]	; 0x64
    bytes[2] = (unsigned char)((value >> 7)  & 0x7f);
  400d40:	f88d e066 	strb.w	lr, [sp, #102]	; 0x66
    bytes[3] = (unsigned char)(value & 0x7f);
  400d44:	f88d 1067 	strb.w	r1, [sp, #103]	; 0x67
    while ((start<4) && (bytes[start] == 0))  start++;
  400d48:	b933      	cbnz	r3, 400d58 <write_midi_file+0x360>
  400d4a:	3001      	adds	r0, #1
  400d4c:	2804      	cmp	r0, #4
  400d4e:	d017      	beq.n	400d80 <write_midi_file+0x388>
  400d50:	f81c 3000 	ldrb.w	r3, [ip, r0]
  400d54:	2b00      	cmp	r3, #0
  400d56:	d0f8      	beq.n	400d4a <write_midi_file+0x352>
    for (i=start; i<3; i++) {
  400d58:	2803      	cmp	r0, #3
  400d5a:	d011      	beq.n	400d80 <write_midi_file+0x388>
  400d5c:	eb0c 0100 	add.w	r1, ip, r0
  400d60:	eb07 0e06 	add.w	lr, r7, r6
  400d64:	e000      	b.n	400d68 <write_midi_file+0x370>
  400d66:	780b      	ldrb	r3, [r1, #0]
        bytes[i] = bytes[i] | 0x80;
  400d68:	f043 0380 	orr.w	r3, r3, #128	; 0x80
  400d6c:	f801 3b01 	strb.w	r3, [r1], #1
    for (i=start; i<3; i++) {
  400d70:	42a9      	cmp	r1, r5
    out[outIdx++] = val;
  400d72:	f80e 3b01 	strb.w	r3, [lr], #1
    for (i=start; i<3; i++) {
  400d76:	d1f6      	bne.n	400d66 <write_midi_file+0x36e>
  400d78:	3603      	adds	r6, #3
  400d7a:	f89d 1067 	ldrb.w	r1, [sp, #103]	; 0x67
  400d7e:	1a36      	subs	r6, r6, r0
    out[outIdx++] = val;
  400d80:	55b9      	strb	r1, [r7, r6]
  400d82:	19bb      	adds	r3, r7, r6
  400d84:	f06f 016f 	mvn.w	r1, #111	; 0x6f
  400d88:	1d30      	adds	r0, r6, #4
    int start = 0;
  400d8a:	f04f 0e00 	mov.w	lr, #0
    out[outIdx++] = val;
  400d8e:	7059      	strb	r1, [r3, #1]
            write_out(events[i].note_number & 0x7f);
  400d90:	7811      	ldrb	r1, [r2, #0]
    out[outIdx++] = val;
  400d92:	6020      	str	r0, [r4, #0]
            write_out(events[i].note_number & 0x7f);
  400d94:	f001 017f 	and.w	r1, r1, #127	; 0x7f
    out[outIdx++] = val;
  400d98:	7099      	strb	r1, [r3, #2]
            write_out(events[i].velocity & 0x7f);
  400d9a:	7891      	ldrb	r1, [r2, #2]
  400d9c:	f001 017f 	and.w	r1, r1, #127	; 0x7f
    out[outIdx++] = val;
  400da0:	70d9      	strb	r1, [r3, #3]
            actiontick = TICKS_PER_QUARTER_NOTE * events[i].rhythm;
  400da2:	edd2 7a01 	vldr	s15, [r2, #4]
  400da6:	ee67 7a87 	vmul.f32	s15, s15, s14
  400daa:	eefc 7ae7 	vcvt.u32.f32	s15, s15
  400dae:	ee17 1a90 	vmov	r1, s15
    bytes[0] = (unsigned char)((value >> 21) & 0x7f);
  400db2:	f3c1 5346 	ubfx	r3, r1, #21, #7
    bytes[1] = (unsigned char)((value >> 14) & 0x7f);
  400db6:	f3c1 3b86 	ubfx	fp, r1, #14, #7
    bytes[2] = (unsigned char)((value >> 7)  & 0x7f);
  400dba:	f3c1 1ac6 	ubfx	sl, r1, #7, #7
    bytes[3] = (unsigned char)(value & 0x7f);
  400dbe:	f001 017f 	and.w	r1, r1, #127	; 0x7f
    bytes[0] = (unsigned char)((value >> 21) & 0x7f);
  400dc2:	f88d 3064 	strb.w	r3, [sp, #100]	; 0x64
    bytes[1] = (unsigned char)((value >> 14) & 0x7f);
  400dc6:	f88d b065 	strb.w	fp, [sp, #101]	; 0x65
    bytes[2] = (unsigned char)((value >> 7)  & 0x7f);
  400dca:	f88d a066 	strb.w	sl, [sp, #102]	; 0x66
    bytes[3] = (unsigned char)(value & 0x7f);
  400dce:	f88d 1067 	strb.w	r1, [sp, #103]	; 0x67
    while ((start<4) && (bytes[start] == 0))  start++;
  400dd2:	b943      	cbnz	r3, 400de6 <write_midi_file+0x3ee>
  400dd4:	f10e 0e01 	add.w	lr, lr, #1
  400dd8:	f1be 0f04 	cmp.w	lr, #4
  400ddc:	d018      	beq.n	400e10 <write_midi_file+0x418>
  400dde:	f81c 300e 	ldrb.w	r3, [ip, lr]
  400de2:	2b00      	cmp	r3, #0
  400de4:	d0f6      	beq.n	400dd4 <write_midi_file+0x3dc>
    for (i=start; i<3; i++) {
  400de6:	f1be 0f03 	cmp.w	lr, #3
  400dea:	d011      	beq.n	400e10 <write_midi_file+0x418>
  400dec:	4438      	add	r0, r7
  400dee:	eb0c 010e 	add.w	r1, ip, lr
  400df2:	e000      	b.n	400df6 <write_midi_file+0x3fe>
  400df4:	780b      	ldrb	r3, [r1, #0]
        bytes[i] = bytes[i] | 0x80;
  400df6:	f043 0380 	orr.w	r3, r3, #128	; 0x80
  400dfa:	f801 3b01 	strb.w	r3, [r1], #1
    for (i=start; i<3; i++) {
  400dfe:	42a9      	cmp	r1, r5
    out[outIdx++] = val;
  400e00:	f800 3b01 	strb.w	r3, [r0], #1
    for (i=start; i<3; i++) {
  400e04:	d1f6      	bne.n	400df4 <write_midi_file+0x3fc>
  400e06:	1df0      	adds	r0, r6, #7
  400e08:	f89d 1067 	ldrb.w	r1, [sp, #103]	; 0x67
  400e0c:	eba0 000e 	sub.w	r0, r0, lr
    out[outIdx++] = val;
  400e10:	5439      	strb	r1, [r7, r0]
  400e12:	183b      	adds	r3, r7, r0
  400e14:	1d06      	adds	r6, r0, #4
  400e16:	f06f 007f 	mvn.w	r0, #127	; 0x7f
            actiontick = 0;
  400e1a:	2100      	movs	r1, #0
    out[outIdx++] = val;
  400e1c:	7058      	strb	r0, [r3, #1]
            write_out(events[i].note_number & 0x7f);
  400e1e:	7810      	ldrb	r0, [r2, #0]
    out[outIdx++] = val;
  400e20:	6026      	str	r6, [r4, #0]
            write_out(events[i].note_number & 0x7f);
  400e22:	f000 007f 	and.w	r0, r0, #127	; 0x7f
    out[outIdx++] = val;
  400e26:	7098      	strb	r0, [r3, #2]
            write_out(events[i].velocity & 0x7f);
  400e28:	7890      	ldrb	r0, [r2, #2]
  400e2a:	f000 007f 	and.w	r0, r0, #127	; 0x7f
    out[outIdx++] = val;
  400e2e:	70d8      	strb	r0, [r3, #3]
  400e30:	3208      	adds	r2, #8
    for (i = 0; i < number_of_events; i++)
  400e32:	454a      	cmp	r2, r9
  400e34:	f47f af72 	bne.w	400d1c <write_midi_file+0x324>
  400e38:	9b04      	ldr	r3, [sp, #16]
  400e3a:	4437      	add	r7, r6
  400e3c:	9a01      	ldr	r2, [sp, #4]
    out[outIdx++] = val;
  400e3e:	f807 8b01 	strb.w	r8, [r7], #1
        }
    }
    
    // end of header track
    for (i = 0; i < 4; i++) 
  400e42:	4293      	cmp	r3, r2
  400e44:	d005      	beq.n	400e52 <write_midi_file+0x45a>
  400e46:	f813 8b01 	ldrb.w	r8, [r3], #1
  400e4a:	4293      	cmp	r3, r2
    out[outIdx++] = val;
  400e4c:	f807 8b01 	strb.w	r8, [r7], #1
    for (i = 0; i < 4; i++) 
  400e50:	d1f9      	bne.n	400e46 <write_midi_file+0x44e>
  400e52:	3604      	adds	r6, #4
	{
        write_out(endoftrack[i]);
	}

	printf("-"); // flag for beginning of midi file
  400e54:	4827      	ldr	r0, [pc, #156]	; (400ef4 <write_midi_file+0x4fc>)
  400e56:	4f28      	ldr	r7, [pc, #160]	; (400ef8 <write_midi_file+0x500>)
  400e58:	6026      	str	r6, [r4, #0]
  400e5a:	47b8      	blx	r7
	for (i = 0; i < outIdx; i++)
  400e5c:	6823      	ldr	r3, [r4, #0]
  400e5e:	b15b      	cbz	r3, 400e78 <write_midi_file+0x480>
  400e60:	4e26      	ldr	r6, [pc, #152]	; (400efc <write_midi_file+0x504>)
  400e62:	2500      	movs	r5, #0
	{
		printf("%02x", out[i]);
  400e64:	f8df 8098 	ldr.w	r8, [pc, #152]	; 400f00 <write_midi_file+0x508>
  400e68:	f816 1f01 	ldrb.w	r1, [r6, #1]!
  400e6c:	4640      	mov	r0, r8
  400e6e:	47b8      	blx	r7
	for (i = 0; i < outIdx; i++)
  400e70:	3501      	adds	r5, #1
  400e72:	6823      	ldr	r3, [r4, #0]
  400e74:	42ab      	cmp	r3, r5
  400e76:	d8f7      	bhi.n	400e68 <write_midi_file+0x470>
	}
	printf("-"); // flag for end
  400e78:	481e      	ldr	r0, [pc, #120]	; (400ef4 <write_midi_file+0x4fc>)
  400e7a:	463b      	mov	r3, r7
}
  400e7c:	b01d      	add	sp, #116	; 0x74
  400e7e:	e8bd 4ff0 	ldmia.w	sp!, {r4, r5, r6, r7, r8, r9, sl, fp, lr}
	printf("-"); // flag for end
  400e82:	4718      	bx	r3
            actiontick += TICKS_PER_QUARTER_NOTE * events[i].rhythm;
  400e84:	ee07 1a90 	vmov	s15, r1
  400e88:	edd2 6a01 	vldr	s13, [r2, #4]
  400e8c:	eef8 7a67 	vcvt.f32.u32	s15, s15
  400e90:	eee6 7a87 	vfma.f32	s15, s13, s14
  400e94:	eefc 7ae7 	vcvt.u32.f32	s15, s15
  400e98:	ee17 1a90 	vmov	r1, s15
  400e9c:	e7c8      	b.n	400e30 <write_midi_file+0x438>
    for (i = 0; i < size_of_title-1; i++)
  400e9e:	2322      	movs	r3, #34	; 0x22
  400ea0:	4692      	mov	sl, r2
  400ea2:	f04f 0b2f 	mov.w	fp, #47	; 0x2f
  400ea6:	f04f 081b 	mov.w	r8, #27
  400eaa:	9314      	str	r3, [sp, #80]	; 0x50
  400eac:	2323      	movs	r3, #35	; 0x23
  400eae:	261c      	movs	r6, #28
  400eb0:	f04f 091d 	mov.w	r9, #29
  400eb4:	9313      	str	r3, [sp, #76]	; 0x4c
  400eb6:	2324      	movs	r3, #36	; 0x24
  400eb8:	9312      	str	r3, [sp, #72]	; 0x48
  400eba:	2325      	movs	r3, #37	; 0x25
  400ebc:	9311      	str	r3, [sp, #68]	; 0x44
  400ebe:	2326      	movs	r3, #38	; 0x26
  400ec0:	9310      	str	r3, [sp, #64]	; 0x40
  400ec2:	2327      	movs	r3, #39	; 0x27
  400ec4:	930f      	str	r3, [sp, #60]	; 0x3c
  400ec6:	2328      	movs	r3, #40	; 0x28
  400ec8:	930e      	str	r3, [sp, #56]	; 0x38
  400eca:	2329      	movs	r3, #41	; 0x29
  400ecc:	930d      	str	r3, [sp, #52]	; 0x34
  400ece:	232a      	movs	r3, #42	; 0x2a
  400ed0:	930c      	str	r3, [sp, #48]	; 0x30
  400ed2:	232b      	movs	r3, #43	; 0x2b
  400ed4:	930b      	str	r3, [sp, #44]	; 0x2c
  400ed6:	232c      	movs	r3, #44	; 0x2c
  400ed8:	930a      	str	r3, [sp, #40]	; 0x28
  400eda:	232d      	movs	r3, #45	; 0x2d
  400edc:	9309      	str	r3, [sp, #36]	; 0x24
  400ede:	232e      	movs	r3, #46	; 0x2e
  400ee0:	9308      	str	r3, [sp, #32]
  400ee2:	231e      	movs	r3, #30
  400ee4:	9307      	str	r3, [sp, #28]
  400ee6:	231f      	movs	r3, #31
  400ee8:	9306      	str	r3, [sp, #24]
  400eea:	2320      	movs	r3, #32
  400eec:	9305      	str	r3, [sp, #20]
  400eee:	2321      	movs	r3, #33	; 0x21
  400ef0:	9304      	str	r3, [sp, #16]
  400ef2:	e62b      	b.n	400b4c <write_midi_file+0x154>
  400ef4:	0041450c 	.word	0x0041450c
  400ef8:	00406991 	.word	0x00406991
  400efc:	2042312b 	.word	0x2042312b
  400f00:	00414510 	.word	0x00414510

00400f04 <RTT_Handler>:
 * \brief Interrupt handler for the RTT.
 *
 * Display the current time on the terminal.
 */
void RTT_Handler(void)
{
  400f04:	b538      	push	{r3, r4, r5, lr}
	uint32_t ul_status;

	/* Get RTT status */
	ul_status = rtt_get_status(RTT);
  400f06:	4823      	ldr	r0, [pc, #140]	; (400f94 <RTT_Handler+0x90>)
  400f08:	4b23      	ldr	r3, [pc, #140]	; (400f98 <RTT_Handler+0x94>)
  400f0a:	4798      	blx	r3

	/* Timer overflow */
	if ((ul_status & RTT_SR_RTTINC) == RTT_SR_RTTINC) 
  400f0c:	0783      	lsls	r3, r0, #30
  400f0e:	d51f      	bpl.n	400f50 <RTT_Handler+0x4c>
	{	
		if (processPingMode)
  400f10:	4b22      	ldr	r3, [pc, #136]	; (400f9c <RTT_Handler+0x98>)
  400f12:	781a      	ldrb	r2, [r3, #0]
  400f14:	b9ea      	cbnz	r2, 400f52 <RTT_Handler+0x4e>
		}
		else
		{
			processBuffer = processPongBuffer;
			fillBuffer = processPingBuffer;
			processPingMode = !processPingMode;
  400f16:	781a      	ldrb	r2, [r3, #0]
			processBuffer = processPongBuffer;
  400f18:	4c21      	ldr	r4, [pc, #132]	; (400fa0 <RTT_Handler+0x9c>)
			processPingMode = !processPingMode;
  400f1a:	f082 0201 	eor.w	r2, r2, #1
			processBuffer = processPongBuffer;
  400f1e:	4d21      	ldr	r5, [pc, #132]	; (400fa4 <RTT_Handler+0xa0>)
			fillBuffer = processPingBuffer;
  400f20:	4921      	ldr	r1, [pc, #132]	; (400fa8 <RTT_Handler+0xa4>)
  400f22:	4822      	ldr	r0, [pc, #136]	; (400fac <RTT_Handler+0xa8>)
			processPingMode = !processPingMode;
  400f24:	701a      	strb	r2, [r3, #0]
			processBuffer = processPongBuffer;
  400f26:	6025      	str	r5, [r4, #0]
			fillBuffer = processPingBuffer;
  400f28:	6008      	str	r0, [r1, #0]
		}
		
		note_16_received = true; 
		one_beat = false; 
  400f2a:	2100      	movs	r1, #0
		note_16_received = true; 
  400f2c:	4d20      	ldr	r5, [pc, #128]	; (400fb0 <RTT_Handler+0xac>)
  400f2e:	2201      	movs	r2, #1
		one_beat = false; 
  400f30:	4c20      	ldr	r4, [pc, #128]	; (400fb4 <RTT_Handler+0xb0>)
		up_beat = false; 
  400f32:	4821      	ldr	r0, [pc, #132]	; (400fb8 <RTT_Handler+0xb4>)
		
		// One beat, or quarter note has passed 
		if (sixteenth_note_cnt == 4)
  400f34:	4b21      	ldr	r3, [pc, #132]	; (400fbc <RTT_Handler+0xb8>)
		note_16_received = true; 
  400f36:	702a      	strb	r2, [r5, #0]
		one_beat = false; 
  400f38:	7021      	strb	r1, [r4, #0]
		up_beat = false; 
  400f3a:	7001      	strb	r1, [r0, #0]
		if (sixteenth_note_cnt == 4)
  400f3c:	7819      	ldrb	r1, [r3, #0]
  400f3e:	2904      	cmp	r1, #4
  400f40:	d012      	beq.n	400f68 <RTT_Handler+0x64>
			}
		}
		else
		{
			// Check for every other 16th note -> eigth note 
			if (sixteenth_note_cnt == 2)
  400f42:	7819      	ldrb	r1, [r3, #0]
  400f44:	2902      	cmp	r1, #2
  400f46:	d01d      	beq.n	400f84 <RTT_Handler+0x80>
			{
				metronome_on = true;
				up_beat = true;
			}
			sixteenth_note_cnt++;
  400f48:	781a      	ldrb	r2, [r3, #0]
  400f4a:	3201      	adds	r2, #1
  400f4c:	b2d2      	uxtb	r2, r2
  400f4e:	701a      	strb	r2, [r3, #0]
  400f50:	bd38      	pop	{r3, r4, r5, pc}
			processPingMode = !processPingMode;
  400f52:	781a      	ldrb	r2, [r3, #0]
			processBuffer = processPingBuffer;
  400f54:	4c12      	ldr	r4, [pc, #72]	; (400fa0 <RTT_Handler+0x9c>)
			processPingMode = !processPingMode;
  400f56:	f082 0201 	eor.w	r2, r2, #1
			processBuffer = processPingBuffer;
  400f5a:	4d14      	ldr	r5, [pc, #80]	; (400fac <RTT_Handler+0xa8>)
			fillBuffer = processPongBuffer;
  400f5c:	4912      	ldr	r1, [pc, #72]	; (400fa8 <RTT_Handler+0xa4>)
  400f5e:	4811      	ldr	r0, [pc, #68]	; (400fa4 <RTT_Handler+0xa0>)
			processPingMode = !processPingMode;
  400f60:	701a      	strb	r2, [r3, #0]
			processBuffer = processPingBuffer;
  400f62:	6025      	str	r5, [r4, #0]
			fillBuffer = processPongBuffer;
  400f64:	6008      	str	r0, [r1, #0]
  400f66:	e7e0      	b.n	400f2a <RTT_Handler+0x26>
			metronome_on = true;
  400f68:	4d15      	ldr	r5, [pc, #84]	; (400fc0 <RTT_Handler+0xbc>)
			if (beat_cnt == number_of_beats_in_a_measure)
  400f6a:	4916      	ldr	r1, [pc, #88]	; (400fc4 <RTT_Handler+0xc0>)
  400f6c:	4816      	ldr	r0, [pc, #88]	; (400fc8 <RTT_Handler+0xc4>)
			metronome_on = true;
  400f6e:	702a      	strb	r2, [r5, #0]
			if (beat_cnt == number_of_beats_in_a_measure)
  400f70:	7800      	ldrb	r0, [r0, #0]
			sixteenth_note_cnt = 1;
  400f72:	701a      	strb	r2, [r3, #0]
			if (beat_cnt == number_of_beats_in_a_measure)
  400f74:	780b      	ldrb	r3, [r1, #0]
  400f76:	4298      	cmp	r0, r3
  400f78:	d008      	beq.n	400f8c <RTT_Handler+0x88>
				beat_cnt++;
  400f7a:	780b      	ldrb	r3, [r1, #0]
  400f7c:	3301      	adds	r3, #1
  400f7e:	b2db      	uxtb	r3, r3
  400f80:	700b      	strb	r3, [r1, #0]
  400f82:	bd38      	pop	{r3, r4, r5, pc}
				metronome_on = true;
  400f84:	490e      	ldr	r1, [pc, #56]	; (400fc0 <RTT_Handler+0xbc>)
  400f86:	700a      	strb	r2, [r1, #0]
				up_beat = true;
  400f88:	7002      	strb	r2, [r0, #0]
  400f8a:	e7dd      	b.n	400f48 <RTT_Handler+0x44>
				one_beat = true;
  400f8c:	7022      	strb	r2, [r4, #0]
				beat_cnt = 1;
  400f8e:	700a      	strb	r2, [r1, #0]
  400f90:	bd38      	pop	{r3, r4, r5, pc}
  400f92:	bf00      	nop
  400f94:	400e1830 	.word	0x400e1830
  400f98:	00403545 	.word	0x00403545
  400f9c:	20400024 	.word	0x20400024
  400fa0:	20400020 	.word	0x20400020
  400fa4:	2041302c 	.word	0x2041302c
  400fa8:	2040000c 	.word	0x2040000c
  400fac:	20402d2c 	.word	0x20402d2c
  400fb0:	20402a6e 	.word	0x20402a6e
  400fb4:	20402c71 	.word	0x20402c71
  400fb8:	20402c74 	.word	0x20402c74
  400fbc:	20402c73 	.word	0x20402c73
  400fc0:	20402a6d 	.word	0x20402a6d
  400fc4:	20402a6c 	.word	0x20402a6c
  400fc8:	20402c70 	.word	0x20402c70

00400fcc <start_recording>:
#define NOTE_MASK (NOTE_BUF_SIZE-1)
static midi_note_t notes[NOTE_BUF_SIZE]; 
extern volatile int clickIdx; 
extern volatile bool start; 
void start_recording(midi_event_t *events, uint32_t *number_of_events, uint32_t bpm, midi_instrument_t playback_instrument, time_signature_t time_signature , key_signature_t key_signature, char *title)
{		
  400fcc:	e92d 4ff0 	stmdb	sp!, {r4, r5, r6, r7, r8, r9, sl, fp, lr}
  400fd0:	ed2d 8b02 	vpush	{d8}
  400fd4:	b085      	sub	sp, #20
	aubio_pitchyinfast_t *yin = new_aubio_pitchyinfast(WIN_SIZE); 
  400fd6:	4b7d      	ldr	r3, [pc, #500]	; (4011cc <start_recording+0x200>)
{		
  400fd8:	4681      	mov	r9, r0
	aubio_pitchyinfast_t *yin = new_aubio_pitchyinfast(WIN_SIZE); 
  400fda:	f44f 6000 	mov.w	r0, #2048	; 0x800
{		
  400fde:	460d      	mov	r5, r1
  400fe0:	4617      	mov	r7, r2
	aubio_pitchyinfast_t *yin = new_aubio_pitchyinfast(WIN_SIZE); 
  400fe2:	4798      	blx	r3
	/******** midi event variables *********/ 
	*number_of_events = 0; 
  400fe4:	2200      	movs	r2, #0
	float current_rhythm = 0.25;  // 16th note
	int note_cnt = 0; 
	
	time_sig = time_signature.sig;
  400fe6:	f89d 3042 	ldrb.w	r3, [sp, #66]	; 0x42
	aubio_pitchyinfast_t *yin = new_aubio_pitchyinfast(WIN_SIZE); 
  400fea:	9001      	str	r0, [sp, #4]
	*number_of_events = 0; 
  400fec:	602a      	str	r2, [r5, #0]
	if (time_sig == FOUR_FOUR)
  400fee:	2b00      	cmp	r3, #0
  400ff0:	f040 808a 	bne.w	401108 <start_recording+0x13c>
		number_of_beats_in_a_measure = 4;
  400ff4:	f8df a220 	ldr.w	sl, [pc, #544]	; 401218 <start_recording+0x24c>
  400ff8:	2204      	movs	r2, #4
  400ffa:	f88a 2000 	strb.w	r2, [sl]
	else if (time_sig == TWO_FOUR)
		number_of_beats_in_a_measure = 2;
	else // 6/8
		number_of_beats_in_a_measure = 6; 
	
	sixteenth_note_cnt = 4; 
  400ffe:	f04f 0e04 	mov.w	lr, #4
  401002:	4973      	ldr	r1, [pc, #460]	; (4011d0 <start_recording+0x204>)
	beat_cnt = number_of_beats_in_a_measure; 
  401004:	4e73      	ldr	r6, [pc, #460]	; (4011d4 <start_recording+0x208>)
	one_beat = false; 
  401006:	2300      	movs	r3, #0
	sixteenth_note_cnt = 4; 
  401008:	f881 e000 	strb.w	lr, [r1]
	up_beat = false; 
	metronome_on = false;
	recording = true;
  40100c:	2001      	movs	r0, #1
	beat_cnt = number_of_beats_in_a_measure; 
  40100e:	7032      	strb	r2, [r6, #0]
	rtt_sel_source(RTT, false);
  401010:	4619      	mov	r1, r3
	one_beat = false; 
  401012:	4c71      	ldr	r4, [pc, #452]	; (4011d8 <start_recording+0x20c>)
	up_beat = false; 
  401014:	4a71      	ldr	r2, [pc, #452]	; (4011dc <start_recording+0x210>)
	one_beat = false; 
  401016:	7023      	strb	r3, [r4, #0]
	metronome_on = false;
  401018:	f8df b200 	ldr.w	fp, [pc, #512]	; 40121c <start_recording+0x250>
	up_beat = false; 
  40101c:	7013      	strb	r3, [r2, #0]
	recording = true;
  40101e:	4e70      	ldr	r6, [pc, #448]	; (4011e0 <start_recording+0x214>)
	clickIdx = 0; 
  401020:	4a70      	ldr	r2, [pc, #448]	; (4011e4 <start_recording+0x218>)
	metronome_on = false;
  401022:	f88b 3000 	strb.w	r3, [fp]
	recording = true;
  401026:	7030      	strb	r0, [r6, #0]
	clickIdx = 0; 
  401028:	6013      	str	r3, [r2, #0]
	rtt_sel_source(RTT, false);
  40102a:	486f      	ldr	r0, [pc, #444]	; (4011e8 <start_recording+0x21c>)
  40102c:	4b6f      	ldr	r3, [pc, #444]	; (4011ec <start_recording+0x220>)
  40102e:	4798      	blx	r3
	
	configure_rtt(32768 * 15 / bpm);
  401030:	f44f 21f0 	mov.w	r1, #491520	; 0x78000
	rtt_init(RTT, count_8_note);
  401034:	486c      	ldr	r0, [pc, #432]	; (4011e8 <start_recording+0x21c>)
  401036:	4b6e      	ldr	r3, [pc, #440]	; (4011f0 <start_recording+0x224>)
	while (ul_previous_time == rtt_read_timer_value(RTT));
  401038:	4680      	mov	r8, r0
	ul_previous_time = rtt_read_timer_value(RTT);
  40103a:	4c6e      	ldr	r4, [pc, #440]	; (4011f4 <start_recording+0x228>)
	configure_rtt(32768 * 15 / bpm);
  40103c:	fbb1 f1f7 	udiv	r1, r1, r7
	rtt_init(RTT, count_8_note);
  401040:	b289      	uxth	r1, r1
  401042:	4798      	blx	r3
	ul_previous_time = rtt_read_timer_value(RTT);
  401044:	4640      	mov	r0, r8
  401046:	47a0      	blx	r4
  401048:	4607      	mov	r7, r0
	while (ul_previous_time == rtt_read_timer_value(RTT));
  40104a:	4640      	mov	r0, r8
  40104c:	47a0      	blx	r4
  40104e:	4287      	cmp	r7, r0
  401050:	d0fb      	beq.n	40104a <start_recording+0x7e>
  NVIC->ICER[((uint32_t)(IRQn) >> 5)] = (1 << ((uint32_t)(IRQn) & 0x1F)); /* disable interrupt */
  401052:	4b69      	ldr	r3, [pc, #420]	; (4011f8 <start_recording+0x22c>)
  401054:	2208      	movs	r2, #8
    NVIC->IP[(uint32_t)(IRQn)]            = ((priority << (8 - __NVIC_PRIO_BITS)) & 0xff); } /* set Priority for device specific Interrupts  */
  401056:	2400      	movs	r4, #0
	rtt_enable_interrupt(RTT, RTT_MR_RTTINCIEN);
  401058:	f44f 3100 	mov.w	r1, #131072	; 0x20000
  NVIC->ICER[((uint32_t)(IRQn) >> 5)] = (1 << ((uint32_t)(IRQn) & 0x1F)); /* disable interrupt */
  40105c:	f8c3 2080 	str.w	r2, [r3, #128]	; 0x80
  401060:	4861      	ldr	r0, [pc, #388]	; (4011e8 <start_recording+0x21c>)
  NVIC->ICPR[((uint32_t)(IRQn) >> 5)] = (1 << ((uint32_t)(IRQn) & 0x1F)); /* Clear pending interrupt */
  401062:	f8c3 2180 	str.w	r2, [r3, #384]	; 0x180
    NVIC->IP[(uint32_t)(IRQn)]            = ((priority << (8 - __NVIC_PRIO_BITS)) & 0xff); } /* set Priority for device specific Interrupts  */
  401066:	f883 4303 	strb.w	r4, [r3, #771]	; 0x303
  NVIC->ISER[(uint32_t)((int32_t)IRQn) >> 5] = (uint32_t)(1 << ((uint32_t)((int32_t)IRQn) & (uint32_t)0x1F)); /* enable interrupt */
  40106a:	601a      	str	r2, [r3, #0]
  40106c:	4b63      	ldr	r3, [pc, #396]	; (4011fc <start_recording+0x230>)
  40106e:	4798      	blx	r3
  401070:	f89a 3000 	ldrb.w	r3, [sl]
  401074:	2101      	movs	r1, #1
	
	// Wait a measure 
	int i; 
	for (i = 0; i < 4*number_of_beats_in_a_measure + 1;i++)
  401076:	4622      	mov	r2, r4
	{
		while(!note_16_received); 
		note_16_received = 0; 
  401078:	4620      	mov	r0, r4
  40107a:	4c61      	ldr	r4, [pc, #388]	; (401200 <start_recording+0x234>)
  40107c:	eb01 0183 	add.w	r1, r1, r3, lsl #2
		while(!note_16_received); 
  401080:	7823      	ldrb	r3, [r4, #0]
  401082:	2b00      	cmp	r3, #0
  401084:	d0fc      	beq.n	401080 <start_recording+0xb4>
	for (i = 0; i < 4*number_of_beats_in_a_measure + 1;i++)
  401086:	3201      	adds	r2, #1
		note_16_received = 0; 
  401088:	7020      	strb	r0, [r4, #0]
	for (i = 0; i < 4*number_of_beats_in_a_measure + 1;i++)
  40108a:	428a      	cmp	r2, r1
  40108c:	d1f8      	bne.n	401080 <start_recording+0xb4>
  40108e:	eeb5 8a00 	vmov.f32	s16, #80	; 0x3e800000  0.250
  401092:	f04f 0800 	mov.w	r8, #0
	}

	uint32_t record_cnt = 0; 
	while(recording && *number_of_events < MAX_NUM_EVENTS-1 && start == true)
  401096:	4f5b      	ldr	r7, [pc, #364]	; (401204 <start_recording+0x238>)
	{
		if (note_16_received)
		{
			record_cnt++;
			get_midi_note((float32_t *)&processBuffer[0], &notes[note_cnt & NOTE_MASK], yin);
  401098:	f8df a184 	ldr.w	sl, [pc, #388]	; 401220 <start_recording+0x254>
	while(recording && *number_of_events < MAX_NUM_EVENTS-1 && start == true)
  40109c:	f242 720e 	movw	r2, #9998	; 0x270e
  4010a0:	e007      	b.n	4010b2 <start_recording+0xe6>
  4010a2:	682b      	ldr	r3, [r5, #0]
  4010a4:	4293      	cmp	r3, r2
  4010a6:	d807      	bhi.n	4010b8 <start_recording+0xec>
  4010a8:	783b      	ldrb	r3, [r7, #0]
  4010aa:	b12b      	cbz	r3, 4010b8 <start_recording+0xec>
		if (note_16_received)
  4010ac:	7823      	ldrb	r3, [r4, #0]
  4010ae:	2b00      	cmp	r3, #0
  4010b0:	d135      	bne.n	40111e <start_recording+0x152>
	while(recording && *number_of_events < MAX_NUM_EVENTS-1 && start == true)
  4010b2:	7833      	ldrb	r3, [r6, #0]
  4010b4:	2b00      	cmp	r3, #0
  4010b6:	d1f4      	bne.n	4010a2 <start_recording+0xd6>
			}
			note_cnt++; 
			note_16_received = false;
		}
	}
	recording = false; 
  4010b8:	2300      	movs	r3, #0
	metronome_on = false;
	rtt_disable_interrupt(RTT, RTT_MR_RTTINCIEN);
  4010ba:	f44f 3100 	mov.w	r1, #131072	; 0x20000
  4010be:	484a      	ldr	r0, [pc, #296]	; (4011e8 <start_recording+0x21c>)
	recording = false; 
  4010c0:	7033      	strb	r3, [r6, #0]
	metronome_on = false;
  4010c2:	f88b 3000 	strb.w	r3, [fp]
	rtt_disable_interrupt(RTT, RTT_MR_RTTINCIEN);
  4010c6:	4b50      	ldr	r3, [pc, #320]	; (401208 <start_recording+0x23c>)
  4010c8:	4798      	blx	r3
	del_aubio_pitchyinfast(yin); 
  4010ca:	9801      	ldr	r0, [sp, #4]
  4010cc:	4b4f      	ldr	r3, [pc, #316]	; (40120c <start_recording+0x240>)
  4010ce:	4798      	blx	r3
	
	// add last note 
	events[*number_of_events].note_number = notes[(note_cnt-1) & NOTE_MASK].note_number;
  4010d0:	f108 33ff 	add.w	r3, r8, #4294967295
  4010d4:	484e      	ldr	r0, [pc, #312]	; (401210 <start_recording+0x244>)
	events[*number_of_events].velocity = 64;
  4010d6:	2240      	movs	r2, #64	; 0x40
	events[*number_of_events].note_number = notes[(note_cnt-1) & NOTE_MASK].note_number;
  4010d8:	f003 037f 	and.w	r3, r3, #127	; 0x7f
  4010dc:	6829      	ldr	r1, [r5, #0]
  4010de:	f930 3023 	ldrsh.w	r3, [r0, r3, lsl #2]
  4010e2:	f829 3031 	strh.w	r3, [r9, r1, lsl #3]
	events[*number_of_events].velocity = 64;
  4010e6:	682b      	ldr	r3, [r5, #0]
  4010e8:	eb09 03c3 	add.w	r3, r9, r3, lsl #3
  4010ec:	805a      	strh	r2, [r3, #2]
	events[*number_of_events].rhythm = current_rhythm;
  4010ee:	682b      	ldr	r3, [r5, #0]
  4010f0:	eb09 09c3 	add.w	r9, r9, r3, lsl #3
  4010f4:	ed89 8a01 	vstr	s16, [r9, #4]
	(*number_of_events)++;
  4010f8:	682b      	ldr	r3, [r5, #0]
  4010fa:	3301      	adds	r3, #1
  4010fc:	602b      	str	r3, [r5, #0]
}
  4010fe:	b005      	add	sp, #20
  401100:	ecbd 8b02 	vpop	{d8}
  401104:	e8bd 8ff0 	ldmia.w	sp!, {r4, r5, r6, r7, r8, r9, sl, fp, pc}
	else if (time_sig == THREE_FOUR)
  401108:	2b01      	cmp	r3, #1
  40110a:	d03b      	beq.n	401184 <start_recording+0x1b8>
	else if (time_sig == TWO_FOUR)
  40110c:	2b02      	cmp	r3, #2
		number_of_beats_in_a_measure = 6; 
  40110e:	f8df a108 	ldr.w	sl, [pc, #264]	; 401218 <start_recording+0x24c>
  401112:	bf18      	it	ne
  401114:	2306      	movne	r3, #6
  401116:	461a      	mov	r2, r3
  401118:	f88a 3000 	strb.w	r3, [sl]
  40111c:	e76f      	b.n	400ffe <start_recording+0x32>
			get_midi_note((float32_t *)&processBuffer[0], &notes[note_cnt & NOTE_MASK], yin);
  40111e:	f008 037f 	and.w	r3, r8, #127	; 0x7f
  401122:	493b      	ldr	r1, [pc, #236]	; (401210 <start_recording+0x244>)
  401124:	9a01      	ldr	r2, [sp, #4]
  401126:	eb01 0183 	add.w	r1, r1, r3, lsl #2
  40112a:	9302      	str	r3, [sp, #8]
  40112c:	f8da 0000 	ldr.w	r0, [sl]
  401130:	4b38      	ldr	r3, [pc, #224]	; (401214 <start_recording+0x248>)
  401132:	9103      	str	r1, [sp, #12]
  401134:	4798      	blx	r3
			if (note_cnt > 0)
  401136:	f1b8 0f00 	cmp.w	r8, #0
  40113a:	d01e      	beq.n	40117a <start_recording+0x1ae>
				if (notes[note_cnt & NOTE_MASK].note_number != notes[(note_cnt-1) & NOTE_MASK].note_number 
  40113c:	9a02      	ldr	r2, [sp, #8]
  40113e:	f108 33ff 	add.w	r3, r8, #4294967295
  401142:	4933      	ldr	r1, [pc, #204]	; (401210 <start_recording+0x244>)
  401144:	f003 037f 	and.w	r3, r3, #127	; 0x7f
  401148:	f931 1022 	ldrsh.w	r1, [r1, r2, lsl #2]
  40114c:	4a30      	ldr	r2, [pc, #192]	; (401210 <start_recording+0x244>)
  40114e:	f932 2023 	ldrsh.w	r2, [r2, r3, lsl #2]
  401152:	4291      	cmp	r1, r2
  401154:	d01c      	beq.n	401190 <start_recording+0x1c4>
					events[*number_of_events].note_number = notes[(note_cnt-1) & NOTE_MASK].note_number;
  401156:	682b      	ldr	r3, [r5, #0]
					events[*number_of_events].velocity = 64;
  401158:	2140      	movs	r1, #64	; 0x40
					events[*number_of_events].note_number = notes[(note_cnt-1) & NOTE_MASK].note_number;
  40115a:	f829 2033 	strh.w	r2, [r9, r3, lsl #3]
					events[*number_of_events].velocity = 64;
  40115e:	682b      	ldr	r3, [r5, #0]
  401160:	eb09 03c3 	add.w	r3, r9, r3, lsl #3
  401164:	8059      	strh	r1, [r3, #2]
					events[*number_of_events].rhythm = current_rhythm;
  401166:	682b      	ldr	r3, [r5, #0]
  401168:	eb09 03c3 	add.w	r3, r9, r3, lsl #3
  40116c:	ed83 8a01 	vstr	s16, [r3, #4]
					current_rhythm = 0.25f;
  401170:	eeb5 8a00 	vmov.f32	s16, #80	; 0x3e800000  0.250
					(*number_of_events)++;
  401174:	682b      	ldr	r3, [r5, #0]
  401176:	3301      	adds	r3, #1
  401178:	602b      	str	r3, [r5, #0]
			note_16_received = false;
  40117a:	2300      	movs	r3, #0
			note_cnt++; 
  40117c:	f108 0801 	add.w	r8, r8, #1
			note_16_received = false;
  401180:	7023      	strb	r3, [r4, #0]
  401182:	e78b      	b.n	40109c <start_recording+0xd0>
		number_of_beats_in_a_measure = 3;
  401184:	f8df a090 	ldr.w	sl, [pc, #144]	; 401218 <start_recording+0x24c>
  401188:	2203      	movs	r2, #3
  40118a:	f88a 2000 	strb.w	r2, [sl]
  40118e:	e736      	b.n	400ffe <start_recording+0x32>
					|| notes[note_cnt & NOTE_MASK].velocity > 1.5f*notes[(note_cnt-1) & NOTE_MASK].velocity)
  401190:	491f      	ldr	r1, [pc, #124]	; (401210 <start_recording+0x244>)
  401192:	eeb7 7a08 	vmov.f32	s14, #120	; 0x3fc00000  1.5
  401196:	eb01 0383 	add.w	r3, r1, r3, lsl #2
  40119a:	9903      	ldr	r1, [sp, #12]
  40119c:	f9b3 3002 	ldrsh.w	r3, [r3, #2]
  4011a0:	f9b1 1002 	ldrsh.w	r1, [r1, #2]
  4011a4:	ee07 3a90 	vmov	s15, r3
  4011a8:	ee06 1a90 	vmov	s13, r1
  4011ac:	eef8 7ae7 	vcvt.f32.s32	s15, s15
  4011b0:	eef8 6ae6 	vcvt.f32.s32	s13, s13
  4011b4:	ee67 7a87 	vmul.f32	s15, s15, s14
  4011b8:	eef4 6ae7 	vcmpe.f32	s13, s15
  4011bc:	eef1 fa10 	vmrs	APSR_nzcv, fpscr
  4011c0:	dcc9      	bgt.n	401156 <start_recording+0x18a>
					current_rhythm += 0.25f;
  4011c2:	eef5 7a00 	vmov.f32	s15, #80	; 0x3e800000  0.250
  4011c6:	ee38 8a27 	vadd.f32	s16, s16, s15
  4011ca:	e7d6      	b.n	40117a <start_recording+0x1ae>
  4011cc:	00402eb1 	.word	0x00402eb1
  4011d0:	20402c73 	.word	0x20402c73
  4011d4:	20402a6c 	.word	0x20402a6c
  4011d8:	20402c71 	.word	0x20402c71
  4011dc:	20402c74 	.word	0x20402c74
  4011e0:	20402c72 	.word	0x20402c72
  4011e4:	20400a1c 	.word	0x20400a1c
  4011e8:	400e1830 	.word	0x400e1830
  4011ec:	004034dd 	.word	0x004034dd
  4011f0:	004034c5 	.word	0x004034c5
  4011f4:	00403531 	.word	0x00403531
  4011f8:	e000e100 	.word	0xe000e100
  4011fc:	00403509 	.word	0x00403509
  401200:	20402a6e 	.word	0x20402a6e
  401204:	2043b7e8 	.word	0x2043b7e8
  401208:	0040351d 	.word	0x0040351d
  40120c:	00402f0d 	.word	0x00402f0d
  401210:	20402a70 	.word	0x20402a70
  401214:	00400799 	.word	0x00400799
  401218:	20402c70 	.word	0x20402c70
  40121c:	20402a6d 	.word	0x20402a6d
  401220:	20400020 	.word	0x20400020

00401224 <new_aubio_fft>:
#endif /* using OOURA */

  fvec_t * compspec;
};

aubio_fft_t * new_aubio_fft (uint_t winsize) {
  401224:	e92d 41f0 	stmdb	sp!, {r4, r5, r6, r7, r8, lr}
  401228:	4605      	mov	r5, r0
  aubio_fft_t * s = AUBIO_NEW(aubio_fft_t);
  40122a:	2101      	movs	r1, #1
  40122c:	201c      	movs	r0, #28
  40122e:	4e1b      	ldr	r6, [pc, #108]	; (40129c <new_aubio_fft+0x78>)
  401230:	47b0      	blx	r6
  if ((sint_t)winsize < 2) {
  401232:	2d01      	cmp	r5, #1
  aubio_fft_t * s = AUBIO_NEW(aubio_fft_t);
  401234:	4604      	mov	r4, r0
  if ((sint_t)winsize < 2) {
  401236:	dd29      	ble.n	40128c <new_aubio_fft+0x68>
    AUBIO_ERR("fft: failed to initialize. IPP error: %d\n", status);
    goto beach;
  }

#else                         // using OOURA
  if (aubio_is_power_of_two(winsize) != 1) {
  401238:	4628      	mov	r0, r5
  40123a:	4b19      	ldr	r3, [pc, #100]	; (4012a0 <new_aubio_fft+0x7c>)
  40123c:	4798      	blx	r3
  40123e:	2801      	cmp	r0, #1
  401240:	4607      	mov	r7, r0
  401242:	d123      	bne.n	40128c <new_aubio_fft+0x68>
    //AUBIO_ERR("fft: can only create with sizes power of two, requested %d,"
       // " try recompiling aubio with --enable-fftw3\n", winsize);
    goto beach;
  }
  s->winsize = winsize;
  s->fft_size = winsize / 2 + 1;
  401244:	086b      	lsrs	r3, r5, #1
  s->compspec = new_fvec(winsize);
  401246:	4a17      	ldr	r2, [pc, #92]	; (4012a4 <new_aubio_fft+0x80>)
  s->winsize = winsize;
  401248:	6025      	str	r5, [r4, #0]
  s->compspec = new_fvec(winsize);
  40124a:	4628      	mov	r0, r5
  s->fft_size = winsize / 2 + 1;
  40124c:	3301      	adds	r3, #1
  40124e:	6063      	str	r3, [r4, #4]
  s->compspec = new_fvec(winsize);
  401250:	4790      	blx	r2
  s->in    = AUBIO_ARRAY(smpl_t, s->winsize);
  401252:	6825      	ldr	r5, [r4, #0]
  s->compspec = new_fvec(winsize);
  401254:	61a0      	str	r0, [r4, #24]
  s->in    = AUBIO_ARRAY(smpl_t, s->winsize);
  401256:	4639      	mov	r1, r7
  401258:	00ad      	lsls	r5, r5, #2
  40125a:	4628      	mov	r0, r5
  40125c:	47b0      	blx	r6
  s->out   = AUBIO_ARRAY(smpl_t, s->winsize);
  40125e:	4639      	mov	r1, r7
  s->in    = AUBIO_ARRAY(smpl_t, s->winsize);
  401260:	60a0      	str	r0, [r4, #8]
  s->out   = AUBIO_ARRAY(smpl_t, s->winsize);
  401262:	4628      	mov	r0, r5
  401264:	47b0      	blx	r6
  s->ip    = AUBIO_ARRAY(int   , s->fft_size);
  401266:	6865      	ldr	r5, [r4, #4]
  s->out   = AUBIO_ARRAY(smpl_t, s->winsize);
  401268:	60e0      	str	r0, [r4, #12]
  s->ip    = AUBIO_ARRAY(int   , s->fft_size);
  40126a:	4639      	mov	r1, r7
  40126c:	00ad      	lsls	r5, r5, #2
  40126e:	4628      	mov	r0, r5
  401270:	47b0      	blx	r6
  401272:	4680      	mov	r8, r0
  s->w     = AUBIO_ARRAY(smpl_t, s->fft_size);
  401274:	4639      	mov	r1, r7
  401276:	4628      	mov	r0, r5
  s->ip    = AUBIO_ARRAY(int   , s->fft_size);
  401278:	f8c4 8014 	str.w	r8, [r4, #20]
  s->w     = AUBIO_ARRAY(smpl_t, s->fft_size);
  40127c:	47b0      	blx	r6
  s->ip[0] = 0;
  40127e:	2300      	movs	r3, #0
  s->w     = AUBIO_ARRAY(smpl_t, s->fft_size);
  401280:	6120      	str	r0, [r4, #16]
  return s;

beach:
  AUBIO_FREE(s);
  return NULL;
}
  401282:	4620      	mov	r0, r4
  s->ip[0] = 0;
  401284:	f8c8 3000 	str.w	r3, [r8]
}
  401288:	e8bd 81f0 	ldmia.w	sp!, {r4, r5, r6, r7, r8, pc}
  AUBIO_FREE(s);
  40128c:	4620      	mov	r0, r4
  return NULL;
  40128e:	2400      	movs	r4, #0
  AUBIO_FREE(s);
  401290:	4b05      	ldr	r3, [pc, #20]	; (4012a8 <new_aubio_fft+0x84>)
  401292:	4798      	blx	r3
}
  401294:	4620      	mov	r0, r4
  401296:	e8bd 81f0 	ldmia.w	sp!, {r4, r5, r6, r7, r8, pc}
  40129a:	bf00      	nop
  40129c:	004068d1 	.word	0x004068d1
  4012a0:	0040166d 	.word	0x0040166d
  4012a4:	00401445 	.word	0x00401445
  4012a8:	004069c9 	.word	0x004069c9

004012ac <del_aubio_fft>:

void del_aubio_fft(aubio_fft_t * s) {
  4012ac:	b570      	push	{r4, r5, r6, lr}
  4012ae:	4604      	mov	r4, r0
  ippFree(s->memInit);
  ippFree(s->memBuffer);
  ippFree(s->complexOut);

#else                         // using OOURA
  AUBIO_FREE(s->w);
  4012b0:	4d08      	ldr	r5, [pc, #32]	; (4012d4 <del_aubio_fft+0x28>)
  4012b2:	6900      	ldr	r0, [r0, #16]
  4012b4:	47a8      	blx	r5
  AUBIO_FREE(s->ip);
  4012b6:	6960      	ldr	r0, [r4, #20]
  4012b8:	47a8      	blx	r5
#endif

  del_fvec(s->compspec);
  4012ba:	4b07      	ldr	r3, [pc, #28]	; (4012d8 <del_aubio_fft+0x2c>)
  4012bc:	69a0      	ldr	r0, [r4, #24]
  4012be:	4798      	blx	r3
  AUBIO_FREE(s->in);
  4012c0:	68a0      	ldr	r0, [r4, #8]
  4012c2:	47a8      	blx	r5
  AUBIO_FREE(s->out);
  4012c4:	68e0      	ldr	r0, [r4, #12]
  4012c6:	47a8      	blx	r5
  AUBIO_FREE(s);
  4012c8:	4620      	mov	r0, r4
  4012ca:	462b      	mov	r3, r5
}
  4012cc:	e8bd 4070 	ldmia.w	sp!, {r4, r5, r6, lr}
  AUBIO_FREE(s);
  4012d0:	4718      	bx	r3
  4012d2:	bf00      	nop
  4012d4:	004069c9 	.word	0x004069c9
  4012d8:	0040146d 	.word	0x0040146d

004012dc <aubio_fft_do_complex>:
void aubio_fft_rdo(aubio_fft_t * s, const cvec_t * spectrum, fvec_t * output) {
  aubio_fft_get_realimag(spectrum, s->compspec);
  aubio_fft_rdo_complex(s, s->compspec, output);
}

void aubio_fft_do_complex(aubio_fft_t * s, const fvec_t * input, fvec_t * compspec) {
  4012dc:	b5f0      	push	{r4, r5, r6, r7, lr}
  4012de:	4604      	mov	r4, r0
  uint_t i;
#ifndef HAVE_MEMCPY_HACKS
  for (i=0; i < s->winsize; i++) {
  4012e0:	6800      	ldr	r0, [r0, #0]
void aubio_fft_do_complex(aubio_fft_t * s, const fvec_t * input, fvec_t * compspec) {
  4012e2:	b083      	sub	sp, #12
  4012e4:	4615      	mov	r5, r2
  for (i=0; i < s->winsize; i++) {
  4012e6:	b158      	cbz	r0, 401300 <aubio_fft_do_complex+0x24>
  4012e8:	2300      	movs	r3, #0
  4012ea:	009e      	lsls	r6, r3, #2
    s->in[i] = input->data[i];
  4012ec:	6848      	ldr	r0, [r1, #4]
  4012ee:	68a2      	ldr	r2, [r4, #8]
  for (i=0; i < s->winsize; i++) {
  4012f0:	3301      	adds	r3, #1
    s->in[i] = input->data[i];
  4012f2:	4430      	add	r0, r6
  4012f4:	4432      	add	r2, r6
  4012f6:	6800      	ldr	r0, [r0, #0]
  4012f8:	6010      	str	r0, [r2, #0]
  for (i=0; i < s->winsize; i++) {
  4012fa:	6820      	ldr	r0, [r4, #0]
  4012fc:	4298      	cmp	r0, r3
  4012fe:	d8f4      	bhi.n	4012ea <aubio_fft_do_complex+0xe>
    compspec->data[i] = s->complexOut[i].re;
    compspec->data[s->fft_size - i] = s->complexOut[i].im;
  }

#else                         // using OOURA
  aubio_ooura_rdft(s->winsize, 1, s->in, s->ip, s->w);
  401300:	6927      	ldr	r7, [r4, #16]
  401302:	2101      	movs	r1, #1
  401304:	6963      	ldr	r3, [r4, #20]
  401306:	68a2      	ldr	r2, [r4, #8]
  401308:	4e18      	ldr	r6, [pc, #96]	; (40136c <aubio_fft_do_complex+0x90>)
  40130a:	9700      	str	r7, [sp, #0]
  40130c:	47b0      	blx	r6
  compspec->data[0] = s->in[0];
  40130e:	68a2      	ldr	r2, [r4, #8]
  401310:	686b      	ldr	r3, [r5, #4]
  401312:	6812      	ldr	r2, [r2, #0]
  401314:	601a      	str	r2, [r3, #0]
  compspec->data[s->winsize / 2] = s->in[1];
  401316:	6822      	ldr	r2, [r4, #0]
  401318:	686b      	ldr	r3, [r5, #4]
  40131a:	0852      	lsrs	r2, r2, #1
  40131c:	68a1      	ldr	r1, [r4, #8]
  40131e:	eb03 0382 	add.w	r3, r3, r2, lsl #2
  401322:	684a      	ldr	r2, [r1, #4]
  401324:	601a      	str	r2, [r3, #0]
  for (i = 1; i < s->fft_size - 1; i++) {
  401326:	6863      	ldr	r3, [r4, #4]
  401328:	3b01      	subs	r3, #1
  40132a:	2b01      	cmp	r3, #1
  40132c:	d91c      	bls.n	401368 <aubio_fft_do_complex+0x8c>
  40132e:	260c      	movs	r6, #12
  401330:	2301      	movs	r3, #1
    compspec->data[i] = s->in[2 * i];
  401332:	68a1      	ldr	r1, [r4, #8]
  401334:	686a      	ldr	r2, [r5, #4]
  401336:	eb01 01c3 	add.w	r1, r1, r3, lsl #3
  40133a:	eb02 0283 	add.w	r2, r2, r3, lsl #2
  40133e:	6809      	ldr	r1, [r1, #0]
  401340:	6011      	str	r1, [r2, #0]
    compspec->data[s->winsize - i] = - s->in[2 * i + 1];
  401342:	68a2      	ldr	r2, [r4, #8]
  401344:	6821      	ldr	r1, [r4, #0]
  401346:	1990      	adds	r0, r2, r6
  401348:	686a      	ldr	r2, [r5, #4]
  40134a:	1ac9      	subs	r1, r1, r3
  for (i = 1; i < s->fft_size - 1; i++) {
  40134c:	3301      	adds	r3, #1
    compspec->data[s->winsize - i] = - s->in[2 * i + 1];
  40134e:	edd0 7a00 	vldr	s15, [r0]
  401352:	3608      	adds	r6, #8
  401354:	eb02 0281 	add.w	r2, r2, r1, lsl #2
  401358:	eef1 7a67 	vneg.f32	s15, s15
  40135c:	edc2 7a00 	vstr	s15, [r2]
  for (i = 1; i < s->fft_size - 1; i++) {
  401360:	6862      	ldr	r2, [r4, #4]
  401362:	3a01      	subs	r2, #1
  401364:	429a      	cmp	r2, r3
  401366:	d8e4      	bhi.n	401332 <aubio_fft_do_complex+0x56>
  }
#endif /* using OOURA */
}
  401368:	b003      	add	sp, #12
  40136a:	bdf0      	pop	{r4, r5, r6, r7, pc}
  40136c:	00402749 	.word	0x00402749

00401370 <aubio_fft_rdo_complex>:

void aubio_fft_rdo_complex(aubio_fft_t * s, const fvec_t * compspec, fvec_t * output) {
  401370:	b5f0      	push	{r4, r5, r6, r7, lr}
  aubio_ippsFFTInv_CCSToR((const aubio_IppFloat *)s->complexOut, output->data, s->fftSpec, s->memBuffer);
  // apply scaling
  aubio_ippsMulC(output->data, 1.0 / s->winsize, output->data, s->fft_size);

#else                         // using OOURA
  smpl_t scale = 2.0 / s->winsize;
  401372:	4b30      	ldr	r3, [pc, #192]	; (401434 <aubio_fft_rdo_complex+0xc4>)
void aubio_fft_rdo_complex(aubio_fft_t * s, const fvec_t * compspec, fvec_t * output) {
  401374:	4604      	mov	r4, r0
  401376:	460e      	mov	r6, r1
  401378:	4615      	mov	r5, r2
  smpl_t scale = 2.0 / s->winsize;
  40137a:	4f2f      	ldr	r7, [pc, #188]	; (401438 <aubio_fft_rdo_complex+0xc8>)
void aubio_fft_rdo_complex(aubio_fft_t * s, const fvec_t * compspec, fvec_t * output) {
  40137c:	ed2d 8b02 	vpush	{d8}
  401380:	b083      	sub	sp, #12
  smpl_t scale = 2.0 / s->winsize;
  401382:	6800      	ldr	r0, [r0, #0]
  401384:	4798      	blx	r3
  401386:	4602      	mov	r2, r0
  401388:	460b      	mov	r3, r1
  40138a:	2000      	movs	r0, #0
  40138c:	f04f 4180 	mov.w	r1, #1073741824	; 0x40000000
  401390:	47b8      	blx	r7
  401392:	4b2a      	ldr	r3, [pc, #168]	; (40143c <aubio_fft_rdo_complex+0xcc>)
  401394:	4798      	blx	r3
  s->out[0] = compspec->data[0];
  401396:	6872      	ldr	r2, [r6, #4]
  401398:	68e3      	ldr	r3, [r4, #12]
  smpl_t scale = 2.0 / s->winsize;
  40139a:	ee08 0a10 	vmov	s16, r0
  s->out[0] = compspec->data[0];
  40139e:	6812      	ldr	r2, [r2, #0]
  4013a0:	601a      	str	r2, [r3, #0]
  s->out[1] = compspec->data[s->winsize / 2];
  4013a2:	6822      	ldr	r2, [r4, #0]
  4013a4:	6873      	ldr	r3, [r6, #4]
  4013a6:	0852      	lsrs	r2, r2, #1
  4013a8:	68e1      	ldr	r1, [r4, #12]
  4013aa:	eb03 0382 	add.w	r3, r3, r2, lsl #2
  4013ae:	681b      	ldr	r3, [r3, #0]
  4013b0:	604b      	str	r3, [r1, #4]
  for (i = 1; i < s->fft_size - 1; i++) {
  4013b2:	6863      	ldr	r3, [r4, #4]
  4013b4:	3b01      	subs	r3, #1
  4013b6:	2b01      	cmp	r3, #1
  4013b8:	d91c      	bls.n	4013f4 <aubio_fft_rdo_complex+0x84>
  4013ba:	270c      	movs	r7, #12
  4013bc:	2301      	movs	r3, #1
    s->out[2 * i] = compspec->data[i];
  4013be:	6871      	ldr	r1, [r6, #4]
  4013c0:	68e2      	ldr	r2, [r4, #12]
  4013c2:	eb01 0183 	add.w	r1, r1, r3, lsl #2
  4013c6:	eb02 02c3 	add.w	r2, r2, r3, lsl #3
  4013ca:	6809      	ldr	r1, [r1, #0]
  4013cc:	6011      	str	r1, [r2, #0]
    s->out[2 * i + 1] = - compspec->data[s->winsize - i];
  4013ce:	6822      	ldr	r2, [r4, #0]
  4013d0:	6871      	ldr	r1, [r6, #4]
  4013d2:	1ad0      	subs	r0, r2, r3
  4013d4:	68e2      	ldr	r2, [r4, #12]
  for (i = 1; i < s->fft_size - 1; i++) {
  4013d6:	3301      	adds	r3, #1
    s->out[2 * i + 1] = - compspec->data[s->winsize - i];
  4013d8:	eb01 0180 	add.w	r1, r1, r0, lsl #2
  4013dc:	443a      	add	r2, r7
  4013de:	3708      	adds	r7, #8
  4013e0:	edd1 7a00 	vldr	s15, [r1]
  4013e4:	eef1 7a67 	vneg.f32	s15, s15
  4013e8:	edc2 7a00 	vstr	s15, [r2]
  for (i = 1; i < s->fft_size - 1; i++) {
  4013ec:	6862      	ldr	r2, [r4, #4]
  4013ee:	3a01      	subs	r2, #1
  4013f0:	429a      	cmp	r2, r3
  4013f2:	d8e4      	bhi.n	4013be <aubio_fft_rdo_complex+0x4e>
  }
  aubio_ooura_rdft(s->winsize, -1, s->out, s->ip, s->w);
  4013f4:	6927      	ldr	r7, [r4, #16]
  4013f6:	f04f 31ff 	mov.w	r1, #4294967295
  4013fa:	6963      	ldr	r3, [r4, #20]
  4013fc:	68e2      	ldr	r2, [r4, #12]
  4013fe:	6820      	ldr	r0, [r4, #0]
  401400:	4e0f      	ldr	r6, [pc, #60]	; (401440 <aubio_fft_rdo_complex+0xd0>)
  401402:	9700      	str	r7, [sp, #0]
  401404:	47b0      	blx	r6
  for (i=0; i < s->winsize; i++) {
  401406:	6823      	ldr	r3, [r4, #0]
  401408:	b17b      	cbz	r3, 40142a <aubio_fft_rdo_complex+0xba>
  40140a:	2300      	movs	r3, #0
  40140c:	0098      	lsls	r0, r3, #2
    output->data[i] = s->out[i] * scale;
  40140e:	68e1      	ldr	r1, [r4, #12]
  401410:	686a      	ldr	r2, [r5, #4]
  for (i=0; i < s->winsize; i++) {
  401412:	3301      	adds	r3, #1
    output->data[i] = s->out[i] * scale;
  401414:	4401      	add	r1, r0
  401416:	4402      	add	r2, r0
  401418:	edd1 7a00 	vldr	s15, [r1]
  40141c:	ee67 7a88 	vmul.f32	s15, s15, s16
  401420:	edc2 7a00 	vstr	s15, [r2]
  for (i=0; i < s->winsize; i++) {
  401424:	6822      	ldr	r2, [r4, #0]
  401426:	429a      	cmp	r2, r3
  401428:	d8f0      	bhi.n	40140c <aubio_fft_rdo_complex+0x9c>
  }
#endif
}
  40142a:	b003      	add	sp, #12
  40142c:	ecbd 8b02 	vpop	{d8}
  401430:	bdf0      	pop	{r4, r5, r6, r7, pc}
  401432:	bf00      	nop
  401434:	00405bcd 	.word	0x00405bcd
  401438:	00405f0d 	.word	0x00405f0d
  40143c:	0040623d 	.word	0x0040623d
  401440:	00402749 	.word	0x00402749

00401444 <new_fvec>:
*/

#include "aubio_priv.h"
#include "fvec.h"

fvec_t * new_fvec(uint_t length) {
  401444:	b570      	push	{r4, r5, r6, lr}
  fvec_t * s;
  if ((sint_t)length <= 0) {
  401446:	1e04      	subs	r4, r0, #0
  401448:	dd0b      	ble.n	401462 <new_fvec+0x1e>
    return NULL;
  }
  s = AUBIO_NEW(fvec_t);
  40144a:	2101      	movs	r1, #1
  40144c:	4e06      	ldr	r6, [pc, #24]	; (401468 <new_fvec+0x24>)
  40144e:	2008      	movs	r0, #8
  401450:	47b0      	blx	r6
  401452:	4605      	mov	r5, r0
  s->length = length;
  s->data = AUBIO_ARRAY(smpl_t, s->length);
  401454:	2101      	movs	r1, #1
  401456:	00a0      	lsls	r0, r4, #2
  s->length = length;
  401458:	602c      	str	r4, [r5, #0]
  s->data = AUBIO_ARRAY(smpl_t, s->length);
  40145a:	47b0      	blx	r6
  40145c:	6068      	str	r0, [r5, #4]
  return s;
}
  40145e:	4628      	mov	r0, r5
  401460:	bd70      	pop	{r4, r5, r6, pc}
    return NULL;
  401462:	2500      	movs	r5, #0
  401464:	e7fb      	b.n	40145e <new_fvec+0x1a>
  401466:	bf00      	nop
  401468:	004068d1 	.word	0x004068d1

0040146c <del_fvec>:

void del_fvec(fvec_t *s) {
  40146c:	b570      	push	{r4, r5, r6, lr}
  40146e:	4605      	mov	r5, r0
  AUBIO_FREE(s->data);
  401470:	4c03      	ldr	r4, [pc, #12]	; (401480 <del_fvec+0x14>)
  401472:	6840      	ldr	r0, [r0, #4]
  401474:	47a0      	blx	r4
  AUBIO_FREE(s);
  401476:	4628      	mov	r0, r5
  401478:	4623      	mov	r3, r4
}
  40147a:	e8bd 4070 	ldmia.w	sp!, {r4, r5, r6, lr}
  AUBIO_FREE(s);
  40147e:	4718      	bx	r3
  401480:	004069c9 	.word	0x004069c9

00401484 <fvec_rev>:

void fvec_ones(fvec_t *s) {
  fvec_set_all (s, 1.);
}

void fvec_rev(fvec_t *s) {
  401484:	b430      	push	{r4, r5}
  uint_t j;
  for (j=0; j< FLOOR((smpl_t)s->length/2); j++) {
  401486:	2300      	movs	r3, #0
  401488:	eef6 6a00 	vmov.f32	s13, #96	; 0x3f000000  0.5
    ELEM_SWAP(s->data[j], s->data[s->length-1-j]);
  40148c:	f06f 4440 	mvn.w	r4, #3221225472	; 0xc0000000
  for (j=0; j< FLOOR((smpl_t)s->length/2); j++) {
  401490:	e00f      	b.n	4014b2 <fvec_rev+0x2e>
    ELEM_SWAP(s->data[j], s->data[s->length-1-j]);
  401492:	6841      	ldr	r1, [r0, #4]
  401494:	eb01 0282 	add.w	r2, r1, r2, lsl #2
  401498:	eb01 0183 	add.w	r1, r1, r3, lsl #2
  40149c:	6812      	ldr	r2, [r2, #0]
  40149e:	680d      	ldr	r5, [r1, #0]
  4014a0:	600a      	str	r2, [r1, #0]
  4014a2:	6802      	ldr	r2, [r0, #0]
  4014a4:	6841      	ldr	r1, [r0, #4]
  4014a6:	4422      	add	r2, r4
  4014a8:	1ad2      	subs	r2, r2, r3
  4014aa:	3301      	adds	r3, #1
  4014ac:	eb01 0282 	add.w	r2, r1, r2, lsl #2
  4014b0:	6015      	str	r5, [r2, #0]
  for (j=0; j< FLOOR((smpl_t)s->length/2); j++) {
  4014b2:	edd0 7a00 	vldr	s15, [r0]
  4014b6:	ee07 3a10 	vmov	s14, r3
    ELEM_SWAP(s->data[j], s->data[s->length-1-j]);
  4014ba:	6802      	ldr	r2, [r0, #0]
  for (j=0; j< FLOOR((smpl_t)s->length/2); j++) {
  4014bc:	eef8 7a67 	vcvt.f32.u32	s15, s15
  4014c0:	eeb8 7a47 	vcvt.f32.u32	s14, s14
    ELEM_SWAP(s->data[j], s->data[s->length-1-j]);
  4014c4:	4422      	add	r2, r4
  for (j=0; j< FLOOR((smpl_t)s->length/2); j++) {
  4014c6:	ee67 7aa6 	vmul.f32	s15, s15, s13
    ELEM_SWAP(s->data[j], s->data[s->length-1-j]);
  4014ca:	1ad2      	subs	r2, r2, r3
  for (j=0; j< FLOOR((smpl_t)s->length/2); j++) {
  4014cc:	fefb 7a67 	vrintm.f32	s15, s15
  4014d0:	eeb4 7ae7 	vcmpe.f32	s14, s15
  4014d4:	eef1 fa10 	vmrs	APSR_nzcv, fpscr
  4014d8:	d4db      	bmi.n	401492 <fvec_rev+0xe>
  }
}
  4014da:	bc30      	pop	{r4, r5}
  4014dc:	4770      	bx	lr
  4014de:	bf00      	nop

004014e0 <fvec_weighted_copy>:
  }
#endif /* HAVE_ACCELERATE */
}

void fvec_weighted_copy(const fvec_t *in, const fvec_t *weight, fvec_t *out) {
  uint_t length = MIN(in->length, MIN(out->length, weight->length));
  4014e0:	6813      	ldr	r3, [r2, #0]
void fvec_weighted_copy(const fvec_t *in, const fvec_t *weight, fvec_t *out) {
  4014e2:	b5f0      	push	{r4, r5, r6, r7, lr}
  uint_t length = MIN(in->length, MIN(out->length, weight->length));
  4014e4:	6805      	ldr	r5, [r0, #0]
  4014e6:	680c      	ldr	r4, [r1, #0]
  4014e8:	42ab      	cmp	r3, r5
  4014ea:	bf28      	it	cs
  4014ec:	462b      	movcs	r3, r5
  4014ee:	42a3      	cmp	r3, r4
  4014f0:	bf28      	it	cs
  4014f2:	4623      	movcs	r3, r4
  aubio_ippsMul(in->data, weight->data, out->data, (int)length);
#elif defined(HAVE_ACCELERATE)
  aubio_vDSP_vmul(in->data, 1, weight->data, 1, out->data, 1, length);
#else
  uint_t j;
  for (j = 0; j < length; j++) {
  4014f4:	b19b      	cbz	r3, 40151e <fvec_weighted_copy+0x3e>
  4014f6:	469e      	mov	lr, r3
  4014f8:	2300      	movs	r3, #0
  4014fa:	009e      	lsls	r6, r3, #2
    out->data[j] = in->data[j] * weight->data[j];
  4014fc:	6844      	ldr	r4, [r0, #4]
  4014fe:	684d      	ldr	r5, [r1, #4]
  for (j = 0; j < length; j++) {
  401500:	3301      	adds	r3, #1
    out->data[j] = in->data[j] * weight->data[j];
  401502:	19a7      	adds	r7, r4, r6
  401504:	6854      	ldr	r4, [r2, #4]
  401506:	4435      	add	r5, r6
  for (j = 0; j < length; j++) {
  401508:	459e      	cmp	lr, r3
    out->data[j] = in->data[j] * weight->data[j];
  40150a:	edd7 7a00 	vldr	s15, [r7]
  40150e:	4434      	add	r4, r6
  401510:	ed95 7a00 	vldr	s14, [r5]
  401514:	ee67 7a87 	vmul.f32	s15, s15, s14
  401518:	edc4 7a00 	vstr	s15, [r4]
  for (j = 0; j < length; j++) {
  40151c:	d1ed      	bne.n	4014fa <fvec_weighted_copy+0x1a>
  40151e:	bdf0      	pop	{r4, r5, r6, r7, pc}

00401520 <fvec_copy>:
  }
#endif
}

void fvec_copy(const fvec_t *s, fvec_t *t) {
  if (s->length != t->length) {
  401520:	6803      	ldr	r3, [r0, #0]
  401522:	680a      	ldr	r2, [r1, #0]
  401524:	4293      	cmp	r3, r2
  401526:	d000      	beq.n	40152a <fvec_copy+0xa>
  uint_t j;
  for (j = 0; j < t->length; j++) {
    t->data[j] = s->data[j];
  }
#endif
}
  401528:	4770      	bx	lr
  for (j = 0; j < t->length; j++) {
  40152a:	2b00      	cmp	r3, #0
  40152c:	d0fc      	beq.n	401528 <fvec_copy+0x8>
  40152e:	2300      	movs	r3, #0
void fvec_copy(const fvec_t *s, fvec_t *t) {
  401530:	b430      	push	{r4, r5}
  401532:	009d      	lsls	r5, r3, #2
    t->data[j] = s->data[j];
  401534:	6844      	ldr	r4, [r0, #4]
  401536:	684a      	ldr	r2, [r1, #4]
  for (j = 0; j < t->length; j++) {
  401538:	3301      	adds	r3, #1
    t->data[j] = s->data[j];
  40153a:	442c      	add	r4, r5
  40153c:	442a      	add	r2, r5
  40153e:	6824      	ldr	r4, [r4, #0]
  401540:	6014      	str	r4, [r2, #0]
  for (j = 0; j < t->length; j++) {
  401542:	680a      	ldr	r2, [r1, #0]
  401544:	429a      	cmp	r2, r3
  401546:	d8f4      	bhi.n	401532 <fvec_copy+0x12>
}
  401548:	bc30      	pop	{r4, r5}
  40154a:	4770      	bx	lr

0040154c <fvec_sum>:
  aubio_ippsSum(s->data, (int)s->length, &tmp);
#elif defined(HAVE_ACCELERATE)
  aubio_vDSP_sve(s->data, 1, &tmp, s->length);
#else
  uint_t j;
  for (j = 0; j < s->length; j++) {
  40154c:	6802      	ldr	r2, [r0, #0]
  40154e:	b16a      	cbz	r2, 40156c <fvec_sum+0x20>
  401550:	6843      	ldr	r3, [r0, #4]
  401552:	eddf 7a08 	vldr	s15, [pc, #32]	; 401574 <fvec_sum+0x28>
  401556:	eb03 0282 	add.w	r2, r3, r2, lsl #2
    tmp += s->data[j];
  40155a:	ecb3 7a01 	vldmia	r3!, {s14}
  for (j = 0; j < s->length; j++) {
  40155e:	4293      	cmp	r3, r2
    tmp += s->data[j];
  401560:	ee77 7a87 	vadd.f32	s15, s15, s14
  for (j = 0; j < s->length; j++) {
  401564:	d1f9      	bne.n	40155a <fvec_sum+0xe>
  }
#endif
  return tmp;
}
  401566:	ee17 0a90 	vmov	r0, s15
  40156a:	4770      	bx	lr
  smpl_t tmp = 0.0;
  40156c:	eddf 7a01 	vldr	s15, [pc, #4]	; 401574 <fvec_sum+0x28>
  return tmp;
  401570:	e7f9      	b.n	401566 <fvec_sum+0x1a>
  401572:	bf00      	nop
  401574:	00000000 	.word	0x00000000

00401578 <fvec_min_elem>:
fvec_min_elem (fvec_t * s)
{
#ifndef HAVE_ACCELERATE
  uint_t j, pos = 0.;
  smpl_t tmp = s->data[0];
  for (j = 0; j < s->length; j++) {
  401578:	e890 0006 	ldmia.w	r0, {r1, r2}
  smpl_t tmp = s->data[0];
  40157c:	edd2 7a00 	vldr	s15, [r2]
  for (j = 0; j < s->length; j++) {
  401580:	b179      	cbz	r1, 4015a2 <fvec_min_elem+0x2a>
  401582:	2000      	movs	r0, #0
  401584:	4603      	mov	r3, r0
    pos = (tmp < s->data[j]) ? pos : j;
  401586:	ecb2 7a01 	vldmia	r2!, {s14}
  40158a:	eeb4 7ae7 	vcmpe.f32	s14, s15
    tmp = (tmp < s->data[j]) ? tmp : s->data[j];
  40158e:	fec7 7ac7 	vminnm.f32	s15, s15, s14
    pos = (tmp < s->data[j]) ? pos : j;
  401592:	eef1 fa10 	vmrs	APSR_nzcv, fpscr
  401596:	bfd8      	it	le
  401598:	4618      	movle	r0, r3
  for (j = 0; j < s->length; j++) {
  40159a:	3301      	adds	r3, #1
  40159c:	428b      	cmp	r3, r1
  40159e:	d1f2      	bne.n	401586 <fvec_min_elem+0xe>
  4015a0:	4770      	bx	lr
  uint_t j, pos = 0.;
  4015a2:	4608      	mov	r0, r1
  smpl_t tmp = 0.;
  vDSP_Length pos = 0;
  aubio_vDSP_minvi(s->data, 1, &tmp, &pos, s->length);
#endif
  return (uint_t)pos;
}
  4015a4:	4770      	bx	lr
  4015a6:	bf00      	nop

004015a8 <fvec_add>:

void
fvec_add (fvec_t * o, smpl_t val)
{
  uint_t j;
  for (j = 0; j < o->length; j++) {
  4015a8:	6803      	ldr	r3, [r0, #0]
{
  4015aa:	ee07 1a10 	vmov	s14, r1
  for (j = 0; j < o->length; j++) {
  4015ae:	b16b      	cbz	r3, 4015cc <fvec_add+0x24>
  4015b0:	2200      	movs	r2, #0
    o->data[j] += val;
  4015b2:	6843      	ldr	r3, [r0, #4]
  4015b4:	eb03 0382 	add.w	r3, r3, r2, lsl #2
  for (j = 0; j < o->length; j++) {
  4015b8:	3201      	adds	r2, #1
    o->data[j] += val;
  4015ba:	edd3 7a00 	vldr	s15, [r3]
  4015be:	ee77 7a87 	vadd.f32	s15, s15, s14
  4015c2:	edc3 7a00 	vstr	s15, [r3]
  for (j = 0; j < o->length; j++) {
  4015c6:	6803      	ldr	r3, [r0, #0]
  4015c8:	4293      	cmp	r3, r2
  4015ca:	d8f2      	bhi.n	4015b2 <fvec_add+0xa>
  4015cc:	4770      	bx	lr
  4015ce:	bf00      	nop

004015d0 <fvec_quadratic_peak_pos>:
}

smpl_t fvec_quadratic_peak_pos (const fvec_t * x, uint_t pos) {
  smpl_t s0, s1, s2; uint_t x0, x2;
  smpl_t half = .5, two = 2.;
  if (pos == 0 || pos == x->length - 1) return (float)pos;
  4015d0:	b359      	cbz	r1, 40162a <fvec_quadratic_peak_pos+0x5a>
  4015d2:	6802      	ldr	r2, [r0, #0]
  4015d4:	1e53      	subs	r3, r2, #1
  4015d6:	4299      	cmp	r1, r3
  4015d8:	d027      	beq.n	40162a <fvec_quadratic_peak_pos+0x5a>
  x0 = (pos < 1) ? pos : pos - 1;
  x2 = (pos + 1 < x->length) ? pos + 1 : pos;
  4015da:	1c4b      	adds	r3, r1, #1
  if (x0 == pos) return (x->data[pos] <= x->data[x2]) ? (float)pos : (float)x2;
  if (x2 == pos) return (x->data[pos] <= x->data[x0]) ? (float)pos : (float)x0;
  4015dc:	429a      	cmp	r2, r3
smpl_t fvec_quadratic_peak_pos (const fvec_t * x, uint_t pos) {
  4015de:	b410      	push	{r4}
  x0 = (pos < 1) ? pos : pos - 1;
  4015e0:	f101 34ff 	add.w	r4, r1, #4294967295
  if (x2 == pos) return (x->data[pos] <= x->data[x0]) ? (float)pos : (float)x0;
  4015e4:	6843      	ldr	r3, [r0, #4]
  4015e6:	d927      	bls.n	401638 <fvec_quadratic_peak_pos+0x68>
  s0 = x->data[x0];
  4015e8:	eb03 0384 	add.w	r3, r3, r4, lsl #2
  s1 = x->data[pos];
  s2 = x->data[x2];
  return (float)(pos + half * (s0 - s2 ) / (s0 - two * s1 + s2));
  4015ec:	eeb0 5a00 	vmov.f32	s10, #0	; 0x40000000  2.0
  4015f0:	eef6 5a00 	vmov.f32	s11, #96	; 0x3f000000  0.5
  4015f4:	ee07 1a90 	vmov	s15, r1
  s2 = x->data[x2];
  4015f8:	ed93 6a02 	vldr	s12, [r3, #8]
  s0 = x->data[x0];
  4015fc:	ed93 7a00 	vldr	s14, [r3]
  return (float)(pos + half * (s0 - s2 ) / (s0 - two * s1 + s2));
  401600:	eef8 7a67 	vcvt.f32.u32	s15, s15
  401604:	edd3 4a01 	vldr	s9, [r3, #4]
  401608:	ee77 6a06 	vadd.f32	s13, s14, s12
  40160c:	ee37 7a46 	vsub.f32	s14, s14, s12
  401610:	eee4 6ac5 	vfms.f32	s13, s9, s10
  401614:	ee27 7a25 	vmul.f32	s14, s14, s11
  401618:	ee87 6a26 	vdiv.f32	s12, s14, s13
  40161c:	ee76 7a27 	vadd.f32	s15, s12, s15
}
  401620:	ee17 0a90 	vmov	r0, s15
  401624:	f85d 4b04 	ldr.w	r4, [sp], #4
  401628:	4770      	bx	lr
  if (pos == 0 || pos == x->length - 1) return (float)pos;
  40162a:	ee07 1a90 	vmov	s15, r1
  40162e:	eef8 7a67 	vcvt.f32.u32	s15, s15
}
  401632:	ee17 0a90 	vmov	r0, s15
  401636:	4770      	bx	lr
  if (x2 == pos) return (x->data[pos] <= x->data[x0]) ? (float)pos : (float)x0;
  401638:	eb03 0381 	add.w	r3, r3, r1, lsl #2
  40163c:	ed93 7a00 	vldr	s14, [r3]
  401640:	ed53 7a01 	vldr	s15, [r3, #-4]
  401644:	eeb4 7ae7 	vcmpe.f32	s14, s15
  401648:	eef1 fa10 	vmrs	APSR_nzcv, fpscr
  40164c:	d808      	bhi.n	401660 <fvec_quadratic_peak_pos+0x90>
  if (pos == 0 || pos == x->length - 1) return (float)pos;
  40164e:	ee07 1a90 	vmov	s15, r1
}
  401652:	f85d 4b04 	ldr.w	r4, [sp], #4
  if (pos == 0 || pos == x->length - 1) return (float)pos;
  401656:	eef8 7a67 	vcvt.f32.u32	s15, s15
}
  40165a:	ee17 0a90 	vmov	r0, s15
  40165e:	4770      	bx	lr
  if (x2 == pos) return (x->data[pos] <= x->data[x0]) ? (float)pos : (float)x0;
  401660:	ee07 4a90 	vmov	s15, r4
  401664:	eef8 7a67 	vcvt.f32.u32	s15, s15
  401668:	e7da      	b.n	401620 <fvec_quadratic_peak_pos+0x50>
  40166a:	bf00      	nop

0040166c <aubio_is_power_of_two>:
}

uint_t
aubio_is_power_of_two (uint_t a)
{
  if ((a & (a - 1)) == 0) {
  40166c:	1e43      	subs	r3, r0, #1
  40166e:	4203      	tst	r3, r0
    return 1;
  } else {
    return 0;
  }
}
  401670:	bf0c      	ite	eq
  401672:	2001      	moveq	r0, #1
  401674:	2000      	movne	r0, #0
  401676:	4770      	bx	lr

00401678 <bitrv2>:
void bitrv2(int n, int *ip, smpl_t *a)
{
    int j, j1, k, k1, l, m, m2;
    smpl_t xr, xi, yr, yi;
    
    ip[0] = 0;
  401678:	2300      	movs	r3, #0
    l = n;
    m = 1;
    while ((m << 3) < l) {
  40167a:	2808      	cmp	r0, #8
{
  40167c:	e92d 4ff0 	stmdb	sp!, {r4, r5, r6, r7, r8, r9, sl, fp, lr}
    ip[0] = 0;
  401680:	600b      	str	r3, [r1, #0]
{
  401682:	b089      	sub	sp, #36	; 0x24
    while ((m << 3) < l) {
  401684:	dd60      	ble.n	401748 <bitrv2+0xd0>
  401686:	1f0b      	subs	r3, r1, #4
  401688:	2701      	movs	r7, #1
  40168a:	469e      	mov	lr, r3
  40168c:	9305      	str	r3, [sp, #20]
  40168e:	ea4f 0987 	mov.w	r9, r7, lsl #2
        l >>= 1;
  401692:	4675      	mov	r5, lr
  401694:	1040      	asrs	r0, r0, #1
  401696:	eb01 0409 	add.w	r4, r1, r9
  40169a:	eb04 0609 	add.w	r6, r4, r9
        for (j = 0; j < m; j++) {
            ip[m + j] = ip[j] + l;
  40169e:	f855 3f04 	ldr.w	r3, [r5, #4]!
  4016a2:	4403      	add	r3, r0
  4016a4:	f844 3b04 	str.w	r3, [r4], #4
        for (j = 0; j < m; j++) {
  4016a8:	42a6      	cmp	r6, r4
  4016aa:	d1f8      	bne.n	40169e <bitrv2+0x26>
    while ((m << 3) < l) {
  4016ac:	013b      	lsls	r3, r7, #4
        }
        m <<= 1;
  4016ae:	007f      	lsls	r7, r7, #1
    while ((m << 3) < l) {
  4016b0:	4283      	cmp	r3, r0
  4016b2:	dbec      	blt.n	40168e <bitrv2+0x16>
  4016b4:	9707      	str	r7, [sp, #28]
    }
    m2 = 2 * m;
  4016b6:	46ca      	mov	sl, r9
    if ((m << 3) == l) {
  4016b8:	d04d      	beq.n	401756 <bitrv2+0xde>
  4016ba:	f04f 0a02 	mov.w	sl, #2
  4016be:	f8dd b014 	ldr.w	fp, [sp, #20]
  4016c2:	f04f 0800 	mov.w	r8, #0
            a[k1 + 1] = xi;
        }
    } else {
        for (k = 1; k < m; k++) {
            for (j = 0; j < k; j++) {
                j1 = 2 * j + ip[k];
  4016c6:	f851 001a 	ldr.w	r0, [r1, sl, lsl #1]
                k1 = 2 * k + ip[j];
  4016ca:	f85b 3f04 	ldr.w	r3, [fp, #4]!
                j1 = 2 * j + ip[k];
  4016ce:	4440      	add	r0, r8
  4016d0:	f108 0802 	add.w	r8, r8, #2
                k1 = 2 * k + ip[j];
  4016d4:	4453      	add	r3, sl
                xr = a[j1];
  4016d6:	0085      	lsls	r5, r0, #2
                yi = a[k1 + 1];
                a[j1] = yr;
                a[j1 + 1] = yi;
                a[k1] = xr;
                a[k1 + 1] = xi;
                j1 += m2;
  4016d8:	4448      	add	r0, r9
                yr = a[k1];
  4016da:	009c      	lsls	r4, r3, #2
                k1 += m2;
  4016dc:	444b      	add	r3, r9
                xi = a[j1 + 1];
  4016de:	f105 0c04 	add.w	ip, r5, #4
                xr = a[j1];
  4016e2:	0080      	lsls	r0, r0, #2
                yi = a[k1 + 1];
  4016e4:	f104 0e04 	add.w	lr, r4, #4
                xi = a[j1 + 1];
                yr = a[k1];
  4016e8:	009b      	lsls	r3, r3, #2
                xi = a[j1 + 1];
  4016ea:	4494      	add	ip, r2
                xr = a[j1];
  4016ec:	4415      	add	r5, r2
                yi = a[k1 + 1];
  4016ee:	4496      	add	lr, r2
                yr = a[k1];
  4016f0:	4414      	add	r4, r2
                xi = a[j1 + 1];
  4016f2:	1d07      	adds	r7, r0, #4
                yi = a[k1 + 1];
  4016f4:	1d1e      	adds	r6, r3, #4
                xi = a[j1 + 1];
  4016f6:	eddc 7a00 	vldr	s15, [ip]
                xr = a[j1];
  4016fa:	4410      	add	r0, r2
                yi = a[k1 + 1];
  4016fc:	edde 6a00 	vldr	s13, [lr]
                xi = a[j1 + 1];
  401700:	4417      	add	r7, r2
                xr = a[j1];
  401702:	ed95 7a00 	vldr	s14, [r5]
                yr = a[k1];
  401706:	4413      	add	r3, r2
                yr = a[k1];
  401708:	ed94 6a00 	vldr	s12, [r4]
                yi = a[k1 + 1];
  40170c:	4416      	add	r6, r2
            for (j = 0; j < k; j++) {
  40170e:	45c2      	cmp	sl, r8
                a[j1] = yr;
  401710:	ed85 6a00 	vstr	s12, [r5]
                a[j1 + 1] = yi;
  401714:	edcc 6a00 	vstr	s13, [ip]
                a[k1] = xr;
  401718:	ed84 7a00 	vstr	s14, [r4]
                a[k1 + 1] = xi;
  40171c:	edce 7a00 	vstr	s15, [lr]
                xi = a[j1 + 1];
  401720:	683c      	ldr	r4, [r7, #0]
                xr = a[j1];
  401722:	6805      	ldr	r5, [r0, #0]
                yr = a[k1];
  401724:	f8d3 c000 	ldr.w	ip, [r3]
                yi = a[k1 + 1];
  401728:	f8d6 e000 	ldr.w	lr, [r6]
                a[j1] = yr;
  40172c:	f8c0 c000 	str.w	ip, [r0]
                a[j1 + 1] = yi;
  401730:	f8c7 e000 	str.w	lr, [r7]
                a[k1] = xr;
  401734:	601d      	str	r5, [r3, #0]
                a[k1 + 1] = xi;
  401736:	6034      	str	r4, [r6, #0]
            for (j = 0; j < k; j++) {
  401738:	d1c5      	bne.n	4016c6 <bitrv2+0x4e>
  40173a:	f10a 0a02 	add.w	sl, sl, #2
        for (k = 1; k < m; k++) {
  40173e:	45d1      	cmp	r9, sl
  401740:	d1bd      	bne.n	4016be <bitrv2+0x46>
            }
        }
    }
}
  401742:	b009      	add	sp, #36	; 0x24
  401744:	e8bd 8ff0 	ldmia.w	sp!, {r4, r5, r6, r7, r8, r9, sl, fp, pc}
    if ((m << 3) == l) {
  401748:	d1fb      	bne.n	401742 <bitrv2+0xca>
  40174a:	1f0b      	subs	r3, r1, #4
    m2 = 2 * m;
  40174c:	f04f 0a02 	mov.w	sl, #2
  401750:	9305      	str	r3, [sp, #20]
    m = 1;
  401752:	2301      	movs	r3, #1
  401754:	9307      	str	r3, [sp, #28]
  401756:	ea4f 034a 	mov.w	r3, sl, lsl #1
        for (k = 0; k < m; k++) {
  40175a:	f8dd b014 	ldr.w	fp, [sp, #20]
  40175e:	f8cd a018 	str.w	sl, [sp, #24]
  401762:	9301      	str	r3, [sp, #4]
  401764:	2300      	movs	r3, #0
  401766:	9304      	str	r3, [sp, #16]
            j1 = 2 * k + m2 + ip[k];
  401768:	f85b 3f04 	ldr.w	r3, [fp, #4]!
        for (k = 0; k < m; k++) {
  40176c:	9904      	ldr	r1, [sp, #16]
            j1 = 2 * k + m2 + ip[k];
  40176e:	9806      	ldr	r0, [sp, #24]
        for (k = 0; k < m; k++) {
  401770:	3101      	adds	r1, #1
            j1 = 2 * k + m2 + ip[k];
  401772:	4403      	add	r3, r0
        for (k = 0; k < m; k++) {
  401774:	9104      	str	r1, [sp, #16]
            k1 = j1 + m2;
  401776:	eb03 010a 	add.w	r1, r3, sl
            xr = a[j1];
  40177a:	009b      	lsls	r3, r3, #2
            yr = a[k1];
  40177c:	0089      	lsls	r1, r1, #2
            xi = a[j1 + 1];
  40177e:	1d1c      	adds	r4, r3, #4
            xr = a[j1];
  401780:	4413      	add	r3, r2
            yi = a[k1 + 1];
  401782:	1d08      	adds	r0, r1, #4
            yr = a[k1];
  401784:	4411      	add	r1, r2
            xr = a[j1];
  401786:	681e      	ldr	r6, [r3, #0]
            xi = a[j1 + 1];
  401788:	4414      	add	r4, r2
            yi = a[k1 + 1];
  40178a:	4410      	add	r0, r2
            yr = a[k1];
  40178c:	f8d1 e000 	ldr.w	lr, [r1]
            xi = a[j1 + 1];
  401790:	6825      	ldr	r5, [r4, #0]
            yi = a[k1 + 1];
  401792:	6807      	ldr	r7, [r0, #0]
            a[j1] = yr;
  401794:	f8c3 e000 	str.w	lr, [r3]
            a[j1 + 1] = yi;
  401798:	6027      	str	r7, [r4, #0]
        for (k = 0; k < m; k++) {
  40179a:	9b07      	ldr	r3, [sp, #28]
            a[k1] = xr;
  40179c:	600e      	str	r6, [r1, #0]
        for (k = 0; k < m; k++) {
  40179e:	9904      	ldr	r1, [sp, #16]
            a[k1 + 1] = xi;
  4017a0:	6005      	str	r5, [r0, #0]
        for (k = 0; k < m; k++) {
  4017a2:	4299      	cmp	r1, r3
  4017a4:	d0cd      	beq.n	401742 <bitrv2+0xca>
  4017a6:	9b04      	ldr	r3, [sp, #16]
  4017a8:	f8dd 9014 	ldr.w	r9, [sp, #20]
  4017ac:	005b      	lsls	r3, r3, #1
  4017ae:	9303      	str	r3, [sp, #12]
  4017b0:	2300      	movs	r3, #0
  4017b2:	9300      	str	r3, [sp, #0]
                k1 = 2 * k + ip[j];
  4017b4:	f859 3f04 	ldr.w	r3, [r9, #4]!
  4017b8:	9803      	ldr	r0, [sp, #12]
                j1 = 2 * j + ip[k];
  4017ba:	f8db 1004 	ldr.w	r1, [fp, #4]
            for (j = 0; j < k; j++) {
  4017be:	45cb      	cmp	fp, r9
                j1 = 2 * j + ip[k];
  4017c0:	9c00      	ldr	r4, [sp, #0]
                k1 = 2 * k + ip[j];
  4017c2:	4403      	add	r3, r0
                j1 = 2 * j + ip[k];
  4017c4:	4421      	add	r1, r4
                yr = a[k1];
  4017c6:	ea4f 0783 	mov.w	r7, r3, lsl #2
                xr = a[j1];
  4017ca:	f104 0402 	add.w	r4, r4, #2
  4017ce:	ea4f 0081 	mov.w	r0, r1, lsl #2
                yi = a[k1 + 1];
  4017d2:	f107 0804 	add.w	r8, r7, #4
                xr = a[j1];
  4017d6:	9400      	str	r4, [sp, #0]
                yr = a[k1];
  4017d8:	4417      	add	r7, r2
                k1 += 2 * m2;
  4017da:	9c01      	ldr	r4, [sp, #4]
                yi = a[k1 + 1];
  4017dc:	4490      	add	r8, r2
                j1 += m2;
  4017de:	4451      	add	r1, sl
                yr = a[k1];
  4017e0:	ed97 6a00 	vldr	s12, [r7]
                k1 += 2 * m2;
  4017e4:	4423      	add	r3, r4
                xi = a[j1 + 1];
  4017e6:	f100 0404 	add.w	r4, r0, #4
                yi = a[k1 + 1];
  4017ea:	edd8 6a00 	vldr	s13, [r8]
                xr = a[j1];
  4017ee:	ea4f 0681 	mov.w	r6, r1, lsl #2
                xi = a[j1 + 1];
  4017f2:	4414      	add	r4, r2
                xr = a[j1];
  4017f4:	4410      	add	r0, r2
                j1 += m2;
  4017f6:	4451      	add	r1, sl
                yr = a[k1];
  4017f8:	ea4f 0583 	mov.w	r5, r3, lsl #2
                xi = a[j1 + 1];
  4017fc:	edd4 7a00 	vldr	s15, [r4]
                k1 -= m2;
  401800:	eba3 030a 	sub.w	r3, r3, sl
                xr = a[j1];
  401804:	ed90 7a00 	vldr	s14, [r0]
                xi = a[j1 + 1];
  401808:	f106 0c04 	add.w	ip, r6, #4
                a[j1] = yr;
  40180c:	ed80 6a00 	vstr	s12, [r0]
                yi = a[k1 + 1];
  401810:	f105 0e04 	add.w	lr, r5, #4
                a[j1 + 1] = yi;
  401814:	edc4 6a00 	vstr	s13, [r4]
                xr = a[j1];
  401818:	ea4f 0481 	mov.w	r4, r1, lsl #2
                j1 += m2;
  40181c:	4451      	add	r1, sl
                yr = a[k1];
  40181e:	4415      	add	r5, r2
                a[k1] = xr;
  401820:	ed87 7a00 	vstr	s14, [r7]
                xr = a[j1];
  401824:	4416      	add	r6, r2
                j1 += m2;
  401826:	9102      	str	r1, [sp, #8]
                xi = a[j1 + 1];
  401828:	4494      	add	ip, r2
                k1 += 2 * m2;
  40182a:	9901      	ldr	r1, [sp, #4]
                yi = a[k1 + 1];
  40182c:	4496      	add	lr, r2
                a[k1 + 1] = xi;
  40182e:	edc8 7a00 	vstr	s15, [r8]
                yr = a[k1];
  401832:	ea4f 0083 	mov.w	r0, r3, lsl #2
                yr = a[k1];
  401836:	edd5 6a00 	vldr	s13, [r5]
                k1 += 2 * m2;
  40183a:	440b      	add	r3, r1
                xr = a[j1];
  40183c:	9902      	ldr	r1, [sp, #8]
                xi = a[j1 + 1];
  40183e:	f104 0704 	add.w	r7, r4, #4
                xr = a[j1];
  401842:	edd6 7a00 	vldr	s15, [r6]
                yr = a[k1];
  401846:	ea4f 0383 	mov.w	r3, r3, lsl #2
                xi = a[j1 + 1];
  40184a:	f8dc 8000 	ldr.w	r8, [ip]
                xr = a[j1];
  40184e:	ea4f 0181 	mov.w	r1, r1, lsl #2
                yi = a[k1 + 1];
  401852:	ed9e 7a00 	vldr	s14, [lr]
                xr = a[j1];
  401856:	4414      	add	r4, r2
                a[j1] = yr;
  401858:	edc6 6a00 	vstr	s13, [r6]
                yi = a[k1 + 1];
  40185c:	f100 0604 	add.w	r6, r0, #4
                a[j1 + 1] = yi;
  401860:	ed8c 7a00 	vstr	s14, [ip]
                xi = a[j1 + 1];
  401864:	4417      	add	r7, r2
                a[k1] = xr;
  401866:	edc5 7a00 	vstr	s15, [r5]
                yr = a[k1];
  40186a:	4410      	add	r0, r2
                yi = a[k1 + 1];
  40186c:	4416      	add	r6, r2
                xi = a[j1 + 1];
  40186e:	f101 0c04 	add.w	ip, r1, #4
                yi = a[k1 + 1];
  401872:	f103 0504 	add.w	r5, r3, #4
                a[k1 + 1] = xi;
  401876:	f8ce 8000 	str.w	r8, [lr]
                xi = a[j1 + 1];
  40187a:	f8d7 e000 	ldr.w	lr, [r7]
                xr = a[j1];
  40187e:	4411      	add	r1, r2
                xr = a[j1];
  401880:	f8d4 8000 	ldr.w	r8, [r4]
                xi = a[j1 + 1];
  401884:	4494      	add	ip, r2
                yr = a[k1];
  401886:	ed90 7a00 	vldr	s14, [r0]
                yr = a[k1];
  40188a:	4413      	add	r3, r2
                yi = a[k1 + 1];
  40188c:	edd6 7a00 	vldr	s15, [r6]
                yi = a[k1 + 1];
  401890:	4415      	add	r5, r2
                a[j1] = yr;
  401892:	ed84 7a00 	vstr	s14, [r4]
                a[j1 + 1] = yi;
  401896:	edc7 7a00 	vstr	s15, [r7]
                a[k1] = xr;
  40189a:	f8c0 8000 	str.w	r8, [r0]
                a[k1 + 1] = xi;
  40189e:	f8c6 e000 	str.w	lr, [r6]
                xr = a[j1];
  4018a2:	680c      	ldr	r4, [r1, #0]
                xi = a[j1 + 1];
  4018a4:	f8dc 0000 	ldr.w	r0, [ip]
                yr = a[k1];
  4018a8:	681f      	ldr	r7, [r3, #0]
                yi = a[k1 + 1];
  4018aa:	682e      	ldr	r6, [r5, #0]
                a[j1] = yr;
  4018ac:	600f      	str	r7, [r1, #0]
                a[j1 + 1] = yi;
  4018ae:	f8cc 6000 	str.w	r6, [ip]
                a[k1] = xr;
  4018b2:	601c      	str	r4, [r3, #0]
                a[k1 + 1] = xi;
  4018b4:	6028      	str	r0, [r5, #0]
            for (j = 0; j < k; j++) {
  4018b6:	f47f af7d 	bne.w	4017b4 <bitrv2+0x13c>
  4018ba:	9b06      	ldr	r3, [sp, #24]
  4018bc:	3302      	adds	r3, #2
  4018be:	9306      	str	r3, [sp, #24]
  4018c0:	e752      	b.n	401768 <bitrv2+0xf0>
  4018c2:	bf00      	nop

004018c4 <cft1st>:
    y2i = x0i - x2i;
    y1r = x1r - x3i;
    y1i = x1i + x3r;
    y3r = x1r + x3i;
    y3i = x1i - x3r;
    x0r = a[8] + a[10];
  4018c4:	edd1 7a0a 	vldr	s15, [r1, #40]	; 0x28
    a[9] = y0i - y4i;
    a[4] = y2r - y6i;
    a[5] = y2i + y6r;
    a[12] = y2r + y6i;
    a[13] = y2i - y6r;
    if (n > 16) {
  4018c8:	2810      	cmp	r0, #16
    x0r = a[8] + a[10];
  4018ca:	edd1 5a08 	vldr	s11, [r1, #32]
    x2i = a[13] + a[15];
  4018ce:	ed91 7a0f 	vldr	s14, [r1, #60]	; 0x3c
  4018d2:	edd1 6a0d 	vldr	s13, [r1, #52]	; 0x34
    x1r = a[8] - a[10];
  4018d6:	ee35 4ae7 	vsub.f32	s8, s11, s15
    x2r = a[12] + a[14];
  4018da:	edd1 1a0c 	vldr	s3, [r1, #48]	; 0x30
    x0r = a[8] + a[10];
  4018de:	ee75 5aa7 	vadd.f32	s11, s11, s15
    x2r = a[12] + a[14];
  4018e2:	edd1 7a0e 	vldr	s15, [r1, #56]	; 0x38
    x3i = a[13] - a[15];
  4018e6:	ee36 6ac7 	vsub.f32	s12, s13, s14
    x2i = a[5] + a[7];
  4018ea:	ed91 3a07 	vldr	s6, [r1, #28]
    x2i = a[13] + a[15];
  4018ee:	ee76 2a87 	vadd.f32	s5, s13, s14
    x0i = a[9] + a[11];
  4018f2:	ed91 5a0b 	vldr	s10, [r1, #44]	; 0x2c
    x3r = a[12] - a[14];
  4018f6:	ee71 6ae7 	vsub.f32	s13, s3, s15
    x0r = a[0] + a[2];
  4018fa:	ed91 7a00 	vldr	s14, [r1]
    x2r = a[12] + a[14];
  4018fe:	ee71 1aa7 	vadd.f32	s3, s3, s15
    x2i = a[5] + a[7];
  401902:	ed91 2a05 	vldr	s4, [r1, #20]
    wn4r = w[2];
  401906:	edd2 7a02 	vldr	s15, [r2, #8]
    x0i = a[1] + a[3];
  40190a:	ed91 0a03 	vldr	s0, [r1, #12]
    x2r = a[4] + a[6];
  40190e:	edd1 3a06 	vldr	s7, [r1, #24]
  401912:	edd1 4a04 	vldr	s9, [r1, #16]
{
  401916:	ed2d 8b10 	vpush	{d8-d15}
    x0i = a[9] + a[11];
  40191a:	ed91 8a09 	vldr	s16, [r1, #36]	; 0x24
    wn4r = w[2];
  40191e:	eeb0 ba67 	vmov.f32	s22, s15
    x0r = a[0] + a[2];
  401922:	edd1 9a02 	vldr	s19, [r1, #8]
    x0r = x1r - x3i;
  401926:	ee34 aa46 	vsub.f32	s20, s8, s12
    x1i = a[9] - a[11];
  40192a:	ee78 0a45 	vsub.f32	s1, s16, s10
    x0i = a[1] + a[3];
  40192e:	edd1 8a01 	vldr	s17, [r1, #4]
    x3i = a[5] - a[7];
  401932:	ee32 9a43 	vsub.f32	s18, s4, s6
{
  401936:	b086      	sub	sp, #24
    x2r = x1r + x3i;
  401938:	ee34 4a06 	vadd.f32	s8, s8, s12
    x1r = a[0] - a[2];
  40193c:	ee37 6a69 	vsub.f32	s12, s14, s19
    wn4r = w[2];
  401940:	edcd 7a04 	vstr	s15, [sp, #16]
    x0i = x1i + x3r;
  401944:	ee30 1aa6 	vadd.f32	s2, s1, s13
    x0i = a[1] + a[3];
  401948:	ee78 7a80 	vadd.f32	s15, s17, s0
    x2i = x1i - x3r;
  40194c:	ee70 0ae6 	vsub.f32	s1, s1, s13
    x2i = a[5] + a[7];
  401950:	ee32 2a03 	vadd.f32	s4, s4, s6
    x1i = a[1] - a[3];
  401954:	ee78 6ac0 	vsub.f32	s13, s17, s0
    y1r = x1r - x3i;
  401958:	ee36 3a49 	vsub.f32	s6, s12, s18
    x3r = a[4] - a[6];
  40195c:	ee34 0ae3 	vsub.f32	s0, s9, s7
    x2r = a[4] + a[6];
  401960:	ee74 4aa3 	vadd.f32	s9, s9, s7
    a[10] = y1r - y5r;
  401964:	eef1 3a4b 	vneg.f32	s7, s22
    x0i = a[9] + a[11];
  401968:	ee38 5a05 	vadd.f32	s10, s16, s10
    y3r = x1r + x3i;
  40196c:	ee36 6a09 	vadd.f32	s12, s12, s18
    y5r = wn4r * (x0r - x0i);
  401970:	ee3a 8a41 	vsub.f32	s16, s20, s2
    a[10] = y1r - y5r;
  401974:	edcd 3a05 	vstr	s7, [sp, #20]
  401978:	eeb0 9a63 	vmov.f32	s18, s7
    y5i = wn4r * (x0r + x0i);
  40197c:	ee3a 1a01 	vadd.f32	s2, s20, s2
    y1i = x1i + x3r;
  401980:	ee76 3a80 	vadd.f32	s7, s13, s0
    a[2] = y1r + y5r;
  401984:	eef0 8a43 	vmov.f32	s17, s6
    y3i = x1i - x3r;
  401988:	ee76 6ac0 	vsub.f32	s13, s13, s0
    a[10] = y1r - y5r;
  40198c:	eea9 3a08 	vfma.f32	s6, s18, s16
    y7i = wn4r * (x2r + x2i);
  401990:	ee34 0a20 	vadd.f32	s0, s8, s1
    a[2] = y1r + y5r;
  401994:	eeeb 8a08 	vfma.f32	s17, s22, s16
    y7r = wn4r * (x2r - x2i);
  401998:	ee34 4a60 	vsub.f32	s8, s8, s1
    a[3] = y1i + y5i;
  40199c:	eeb0 8a63 	vmov.f32	s16, s7
    a[11] = y1i - y5i;
  4019a0:	eee9 3a01 	vfma.f32	s7, s18, s2
    x0r = a[0] + a[2];
  4019a4:	ee37 7a29 	vadd.f32	s14, s14, s19
    a[10] = y1r - y5r;
  4019a8:	ed81 3a0a 	vstr	s6, [r1, #40]	; 0x28
    a[3] = y1i + y5i;
  4019ac:	eeab 8a01 	vfma.f32	s16, s22, s2
    a[6] = y3r - y7i;
  4019b0:	eef0 0a46 	vmov.f32	s1, s12
    a[2] = y1r + y5r;
  4019b4:	edc1 8a02 	vstr	s17, [r1, #8]
    a[14] = y3r + y7i;
  4019b8:	eeab 6a00 	vfma.f32	s12, s22, s0
    a[7] = y3i + y7r;
  4019bc:	eeb0 1a66 	vmov.f32	s2, s13
    a[15] = y3i - y7r;
  4019c0:	eee9 6a04 	vfma.f32	s13, s18, s8
    a[11] = y1i - y5i;
  4019c4:	edc1 3a0b 	vstr	s7, [r1, #44]	; 0x2c
    y4r = x0r + x2r;
  4019c8:	ee75 3aa1 	vadd.f32	s7, s11, s3
    a[7] = y3i + y7r;
  4019cc:	eeab 1a04 	vfma.f32	s2, s22, s8
    a[3] = y1i + y5i;
  4019d0:	ed81 8a03 	vstr	s16, [r1, #12]
    y0r = x0r + x2r;
  4019d4:	ee37 4a24 	vadd.f32	s8, s14, s9
    y6r = x0r - x2r;
  4019d8:	ee75 5ae1 	vsub.f32	s11, s11, s3
    a[14] = y3r + y7i;
  4019dc:	ed81 6a0e 	vstr	s12, [r1, #56]	; 0x38
    y2r = x0r - x2r;
  4019e0:	ee37 7a64 	vsub.f32	s14, s14, s9
    y0i = x0i + x2i;
  4019e4:	ee37 6a82 	vadd.f32	s12, s15, s4
    a[15] = y3i - y7r;
  4019e8:	edc1 6a0f 	vstr	s13, [r1, #60]	; 0x3c
    y4i = x0i + x2i;
  4019ec:	ee75 4a22 	vadd.f32	s9, s10, s5
    y6i = x0i - x2i;
  4019f0:	ee75 6a62 	vsub.f32	s13, s10, s5
    a[7] = y3i + y7r;
  4019f4:	ed81 1a07 	vstr	s2, [r1, #28]
    a[0] = y0r + y4r;
  4019f8:	ee34 5a23 	vadd.f32	s10, s8, s7
    y2i = x0i - x2i;
  4019fc:	ee77 7ac2 	vsub.f32	s15, s15, s4
    a[6] = y3r - y7i;
  401a00:	eee9 0a00 	vfma.f32	s1, s18, s0
    a[8] = y0r - y4r;
  401a04:	ee34 4a63 	vsub.f32	s8, s8, s7
    a[0] = y0r + y4r;
  401a08:	ed81 5a00 	vstr	s10, [r1]
    a[1] = y0i + y4i;
  401a0c:	ee76 3a24 	vadd.f32	s7, s12, s9
    a[4] = y2r - y6i;
  401a10:	ee37 5a66 	vsub.f32	s10, s14, s13
    a[9] = y0i - y4i;
  401a14:	ee36 6a64 	vsub.f32	s12, s12, s9
    a[8] = y0r - y4r;
  401a18:	ed81 4a08 	vstr	s8, [r1, #32]
    a[12] = y2r + y6i;
  401a1c:	ee37 7a26 	vadd.f32	s14, s14, s13
    a[1] = y0i + y4i;
  401a20:	edc1 3a01 	vstr	s7, [r1, #4]
    a[5] = y2i + y6r;
  401a24:	ee77 6aa5 	vadd.f32	s13, s15, s11
    a[6] = y3r - y7i;
  401a28:	edc1 0a06 	vstr	s1, [r1, #24]
    a[13] = y2i - y6r;
  401a2c:	ee77 7ae5 	vsub.f32	s15, s15, s11
    a[9] = y0i - y4i;
  401a30:	ed81 6a09 	vstr	s12, [r1, #36]	; 0x24
    a[4] = y2r - y6i;
  401a34:	ed81 5a04 	vstr	s10, [r1, #16]
    a[12] = y2r + y6i;
  401a38:	ed81 7a0c 	vstr	s14, [r1, #48]	; 0x30
    a[5] = y2i + y6r;
  401a3c:	edc1 6a05 	vstr	s13, [r1, #20]
    a[13] = y2i - y6r;
  401a40:	edc1 7a0d 	vstr	s15, [r1, #52]	; 0x34
    if (n > 16) {
  401a44:	f340 821a 	ble.w	401e7c <cft1st+0x5b8>
        wk1r = w[4];
        wk1i = w[5];
        x0r = a[16] + a[18];
  401a48:	ed91 7a12 	vldr	s14, [r1, #72]	; 0x48
        x0r = y6r - y2i;
        x0i = y2r + y6i;
        a[28] = wn4r * (x0r - x0i);
        a[29] = wn4r * (x0i + x0r);
        k1 = 4;
        for (j = 32; j < n; j += 16) {
  401a4c:	2820      	cmp	r0, #32
        x2i = a[21] + a[23];
  401a4e:	edd1 7a17 	vldr	s15, [r1, #92]	; 0x5c
        x0r = a[16] + a[18];
  401a52:	edd1 4a10 	vldr	s9, [r1, #64]	; 0x40
        x2i = a[21] + a[23];
  401a56:	ed91 8a15 	vldr	s16, [r1, #84]	; 0x54
        x1r = a[16] - a[18];
  401a5a:	ee74 5ac7 	vsub.f32	s11, s9, s14
        x0i = a[17] + a[19];
  401a5e:	ed91 3a13 	vldr	s6, [r1, #76]	; 0x4c
  401a62:	edd1 2a11 	vldr	s5, [r1, #68]	; 0x44
        x0r = a[16] + a[18];
  401a66:	ee74 4a87 	vadd.f32	s9, s9, s14
        x3i = a[21] - a[23];
  401a6a:	ee78 6a67 	vsub.f32	s13, s16, s15
        x2r = a[20] + a[22];
  401a6e:	ed91 7a16 	vldr	s14, [r1, #88]	; 0x58
  401a72:	ed91 5a14 	vldr	s10, [r1, #80]	; 0x50
        x1i = a[17] - a[19];
  401a76:	ee32 4ac3 	vsub.f32	s8, s5, s6
        x0i = a[25] + a[27];
  401a7a:	ed91 9a19 	vldr	s18, [r1, #100]	; 0x64
        x2i = a[21] + a[23];
  401a7e:	ee38 8a27 	vadd.f32	s16, s16, s15
        x3r = a[20] - a[22];
  401a82:	ee35 6a47 	vsub.f32	s12, s10, s14
        x0r = a[24] + a[26];
  401a86:	edd1 7a1a 	vldr	s15, [r1, #104]	; 0x68
        y1r = x1r - x3i;
  401a8a:	ee75 9ae6 	vsub.f32	s19, s11, s13
        x2r = a[28] + a[30];
  401a8e:	edd1 8a1e 	vldr	s17, [r1, #120]	; 0x78
        x0r = a[24] + a[26];
  401a92:	ed91 0a18 	vldr	s0, [r1, #96]	; 0x60
        y3r = x1r + x3i;
  401a96:	ee75 6aa6 	vadd.f32	s13, s11, s13
        x2i = a[29] + a[31];
  401a9a:	edd1 1a1d 	vldr	s3, [r1, #116]	; 0x74
        x0i = a[17] + a[19];
  401a9e:	ee72 2a83 	vadd.f32	s5, s5, s6
        x2i = a[29] + a[31];
  401aa2:	edd1 5a1f 	vldr	s11, [r1, #124]	; 0x7c
        y1i = x1i + x3r;
  401aa6:	ee74 aa06 	vadd.f32	s21, s8, s12
        x0i = a[25] + a[27];
  401aaa:	ed91 3a1b 	vldr	s6, [r1, #108]	; 0x6c
        x1r = a[24] - a[26];
  401aae:	ee70 3a67 	vsub.f32	s7, s0, s15
        x2r = a[28] + a[30];
  401ab2:	ed91 2a1c 	vldr	s4, [r1, #112]	; 0x70
        x3i = a[29] - a[31];
  401ab6:	ee71 0ae5 	vsub.f32	s1, s3, s11
        x1i = a[25] - a[27];
  401aba:	ee39 1a43 	vsub.f32	s2, s18, s6
        x2i = a[29] + a[31];
  401abe:	ee71 1aa5 	vadd.f32	s3, s3, s11
        x3r = a[28] - a[30];
  401ac2:	ee72 5a68 	vsub.f32	s11, s4, s17
        y3i = x1i - x3r;
  401ac6:	ee34 4a46 	vsub.f32	s8, s8, s12
        wk1i = w[5];
  401aca:	ed92 6a05 	vldr	s12, [r2, #20]
        x0r = x1r - x3i;
  401ace:	ee33 aae0 	vsub.f32	s20, s7, s1
        x2r = a[20] + a[22];
  401ad2:	ee35 5a07 	vadd.f32	s10, s10, s14
        x2r = x1r + x3i;
  401ad6:	ee73 3aa0 	vadd.f32	s7, s7, s1
        x0i = x1i + x3r;
  401ada:	ee31 7a25 	vadd.f32	s14, s2, s11
        x2r = a[28] + a[30];
  401ade:	ee32 2a28 	vadd.f32	s4, s4, s17
        x2i = x3r - x1i;
  401ae2:	ee75 5ac1 	vsub.f32	s11, s11, s2
        x0i = wk1r * y1i + wk1i * y1r;
  401ae6:	ee66 8a29 	vmul.f32	s17, s12, s19
        x0r = wk1r * y1r - wk1i * y1i;
  401aea:	ee6a 0ac6 	vnmul.f32	s1, s21, s12
        x0r = a[24] + a[26];
  401aee:	ee30 0a27 	vadd.f32	s0, s0, s15
        wk1r = w[4];
  401af2:	edd2 7a04 	vldr	s15, [r2, #16]
        x0i = a[25] + a[27];
  401af6:	ee39 3a03 	vadd.f32	s6, s18, s6
        x0i = wk1r * y1i + wk1i * y1r;
  401afa:	eee7 8aaa 	vfma.f32	s17, s15, s21
        x0r = wk1r * y1r - wk1i * y1i;
  401afe:	eee7 0aa9 	vfma.f32	s1, s15, s19
        y7i = wk1r * x2i - wk1i * x2r;
  401b02:	ee63 aac6 	vnmul.f32	s21, s7, s12
        y7r = wk1r * x2r + wk1i * x2i;
  401b06:	ee66 9a25 	vmul.f32	s19, s12, s11
        y5r = wk1i * x0r - wk1r * x0i;
  401b0a:	ee27 9a67 	vnmul.f32	s18, s14, s15
        y5i = wk1i * x0i + wk1r * x0r;
  401b0e:	ee27 1a8a 	vmul.f32	s2, s15, s20
        y7r = wk1r * x2r + wk1i * x2i;
  401b12:	eee7 9aa3 	vfma.f32	s19, s15, s7
        y7i = wk1r * x2i - wk1i * x2r;
  401b16:	eef0 3a6a 	vmov.f32	s7, s21
        y5r = wk1i * x0r - wk1r * x0i;
  401b1a:	eea6 9a0a 	vfma.f32	s18, s12, s20
        x0r = wk1i * y3r - wk1r * y3i;
  401b1e:	ee24 aa67 	vnmul.f32	s20, s8, s15
        y7i = wk1r * x2i - wk1i * x2r;
  401b22:	eee7 3aa5 	vfma.f32	s7, s15, s11
        x0i = wk1i * y3i + wk1r * y3r;
  401b26:	ee67 7aa6 	vmul.f32	s15, s15, s13
        y5i = wk1i * x0i + wk1r * x0r;
  401b2a:	eea6 1a07 	vfma.f32	s2, s12, s14
        y2r = x0r - x2r;
  401b2e:	ee74 5ac5 	vsub.f32	s11, s9, s10
        x0r = wk1i * y3r - wk1r * y3i;
  401b32:	eea6 aa26 	vfma.f32	s20, s12, s13
        x0i = wk1i * y3i + wk1r * y3r;
  401b36:	eee6 7a04 	vfma.f32	s15, s12, s8
        y6i = x0i - x2i;
  401b3a:	ee73 aa61 	vsub.f32	s21, s6, s3
        y2i = x0i - x2i;
  401b3e:	ee32 4ac8 	vsub.f32	s8, s5, s16
        y6r = x0r - x2r;
  401b42:	ee70 6a42 	vsub.f32	s13, s0, s4
        y0r = x0r + x2r;
  401b46:	ee34 7a85 	vadd.f32	s14, s9, s10
        x0r = y2r - y6i;
  401b4a:	ee35 6aea 	vsub.f32	s12, s11, s21
        x0i = y2i + y6r;
  401b4e:	ee74 4a26 	vadd.f32	s9, s8, s13
        x0i = y2r + y6i;
  401b52:	ee75 5aaa 	vadd.f32	s11, s11, s21
        x0r = y6r - y2i;
  401b56:	ee76 6ac4 	vsub.f32	s13, s13, s8
        a[20] = wn4r * (x0r - x0i);
  401b5a:	ee36 4a64 	vsub.f32	s8, s12, s9
        a[21] = wn4r * (x0i + x0r);
  401b5e:	ee36 6a24 	vadd.f32	s12, s12, s9
        a[28] = wn4r * (x0r - x0i);
  401b62:	ee76 4ae5 	vsub.f32	s9, s13, s11
        a[29] = wn4r * (x0i + x0r);
  401b66:	ee76 6aa5 	vadd.f32	s13, s13, s11
        a[19] = x0i + y5i;
  401b6a:	ee71 5a28 	vadd.f32	s11, s2, s17
        y4i = x0i + x2i;
  401b6e:	ee33 5a21 	vadd.f32	s10, s6, s3
        y0i = x0i + x2i;
  401b72:	ee72 2a88 	vadd.f32	s5, s5, s16
        a[18] = x0r + y5r;
  401b76:	ee39 3a20 	vadd.f32	s6, s18, s1
        a[19] = x0i + y5i;
  401b7a:	edc1 5a13 	vstr	s11, [r1, #76]	; 0x4c
        y4r = x0r + x2r;
  401b7e:	ee30 2a02 	vadd.f32	s4, s0, s4
        a[23] = x0i + y7i;
  401b82:	ee73 5aa7 	vadd.f32	s11, s7, s15
        a[30] = y7i - x0i;
  401b86:	ee73 7ae7 	vsub.f32	s15, s7, s15
        a[18] = x0r + y5r;
  401b8a:	ed81 3a12 	vstr	s6, [r1, #72]	; 0x48
        a[27] = x0r - y5r;
  401b8e:	ee70 0ac9 	vsub.f32	s1, s1, s18
        a[22] = x0r - y7r;
  401b92:	ee3a 3a69 	vsub.f32	s6, s20, s19
        a[23] = x0i + y7i;
  401b96:	edc1 5a17 	vstr	s11, [r1, #92]	; 0x5c
        a[30] = y7i - x0i;
  401b9a:	edc1 7a1e 	vstr	s15, [r1, #120]	; 0x78
        a[28] = wn4r * (x0r - x0i);
  401b9e:	ee64 5a8b 	vmul.f32	s11, s9, s22
        a[17] = y0i + y4i;
  401ba2:	ee72 7a85 	vadd.f32	s15, s5, s10
        a[27] = x0r - y5r;
  401ba6:	edc1 0a1b 	vstr	s1, [r1, #108]	; 0x6c
        a[16] = y0r + y4r;
  401baa:	ee77 4a02 	vadd.f32	s9, s14, s4
        a[22] = x0r - y7r;
  401bae:	ed81 3a16 	vstr	s6, [r1, #88]	; 0x58
        a[26] = y5i - x0i;
  401bb2:	ee31 1a68 	vsub.f32	s2, s2, s17
        a[31] = x0r + y7r;
  401bb6:	ee79 9a8a 	vadd.f32	s19, s19, s20
        a[17] = y0i + y4i;
  401bba:	edc1 7a11 	vstr	s15, [r1, #68]	; 0x44
        a[20] = wn4r * (x0r - x0i);
  401bbe:	ee24 4a0b 	vmul.f32	s8, s8, s22
        a[16] = y0r + y4r;
  401bc2:	edc1 4a10 	vstr	s9, [r1, #64]	; 0x40
        a[21] = wn4r * (x0i + x0r);
  401bc6:	ee26 6a0b 	vmul.f32	s12, s12, s22
        a[26] = y5i - x0i;
  401bca:	ed81 1a1a 	vstr	s2, [r1, #104]	; 0x68
        a[29] = wn4r * (x0i + x0r);
  401bce:	ee66 6a8b 	vmul.f32	s13, s13, s22
        a[31] = x0r + y7r;
  401bd2:	edc1 9a1f 	vstr	s19, [r1, #124]	; 0x7c
        a[25] = y0r - y4r;
  401bd6:	ee37 7a42 	vsub.f32	s14, s14, s4
        a[20] = wn4r * (x0r - x0i);
  401bda:	ed81 4a14 	vstr	s8, [r1, #80]	; 0x50
        a[24] = y4i - y0i;
  401bde:	ee35 5a62 	vsub.f32	s10, s10, s5
        a[21] = wn4r * (x0i + x0r);
  401be2:	ed81 6a15 	vstr	s12, [r1, #84]	; 0x54
        a[25] = y0r - y4r;
  401be6:	ed81 7a19 	vstr	s14, [r1, #100]	; 0x64
        a[24] = y4i - y0i;
  401bea:	ed81 5a18 	vstr	s10, [r1, #96]	; 0x60
        a[28] = wn4r * (x0r - x0i);
  401bee:	edc1 5a1c 	vstr	s11, [r1, #112]	; 0x70
        a[29] = wn4r * (x0i + x0r);
  401bf2:	edc1 6a1d 	vstr	s13, [r1, #116]	; 0x74
        for (j = 32; j < n; j += 16) {
  401bf6:	f340 8141 	ble.w	401e7c <cft1st+0x5b8>
  401bfa:	f1a0 0321 	sub.w	r3, r0, #33	; 0x21
  401bfe:	f023 030f 	bic.w	r3, r3, #15
  401c02:	3310      	adds	r3, #16
  401c04:	4413      	add	r3, r2
            y1r = x1r - x3i;
            y1i = x1i + x3r;
            y3r = x1r + x3i;
            y3i = x1i - x3r;
            x0r = a[j + 8] + a[j + 10];
            x0i = a[j + 9] + a[j + 11];
  401c06:	edd1 5a2b 	vldr	s11, [r1, #172]	; 0xac
  401c0a:	3210      	adds	r2, #16
            x0r = a[j + 8] + a[j + 10];
  401c0c:	edd1 fa28 	vldr	s31, [r1, #160]	; 0xa0
  401c10:	3140      	adds	r1, #64	; 0x40
  401c12:	edd1 da1a 	vldr	s27, [r1, #104]	; 0x68
            x1r = a[j + 8] - a[j + 10];
            x1i = a[j + 9] - a[j + 11];
            x2r = a[j + 12] + a[j + 14];
            x2i = a[j + 13] + a[j + 15];
  401c16:	ed91 ea1d 	vldr	s28, [r1, #116]	; 0x74
            x2r = a[j + 12] + a[j + 14];
  401c1a:	ed91 8a1c 	vldr	s16, [r1, #112]	; 0x70
            x1r = a[j + 8] - a[j + 10];
  401c1e:	ee7f eaed 	vsub.f32	s29, s31, s27
            x2i = a[j + 13] + a[j + 15];
  401c22:	ed91 3a1f 	vldr	s6, [r1, #124]	; 0x7c
            x0r = a[j + 8] + a[j + 10];
  401c26:	ee7f daad 	vadd.f32	s27, s31, s27
            x0i = a[j + 9] + a[j + 11];
  401c2a:	edd1 4a19 	vldr	s9, [r1, #100]	; 0x64
            x2r = a[j + 12] + a[j + 14];
  401c2e:	ed91 0a1e 	vldr	s0, [r1, #120]	; 0x78
            x3r = a[j + 12] - a[j + 14];
            x3i = a[j + 13] - a[j + 15];
  401c32:	ee7e 7a43 	vsub.f32	s15, s28, s6
            x1i = a[j + 9] - a[j + 11];
  401c36:	ee74 0ae5 	vsub.f32	s1, s9, s11
            x0i = a[j + 1] + a[j + 3];
  401c3a:	ed91 5a13 	vldr	s10, [r1, #76]	; 0x4c
            x3r = a[j + 12] - a[j + 14];
  401c3e:	ee78 1a40 	vsub.f32	s3, s16, s0
            x2r = a[j + 4] + a[j + 6];
  401c42:	ed91 aa16 	vldr	s20, [r1, #88]	; 0x58
            x0i = a[j + 1] + a[j + 3];
  401c46:	edd1 ca11 	vldr	s25, [r1, #68]	; 0x44
            y4r = x0r + x2r;
            y4i = x0i + x2i;
            y6r = x0r - x2r;
            y6i = x0i - x2i;
            x0r = x1r - x3i;
  401c4a:	ee3e dae7 	vsub.f32	s26, s29, s15
            x2r = a[j + 4] + a[j + 6];
  401c4e:	ed91 6a14 	vldr	s12, [r1, #80]	; 0x50
            x0i = a[j + 9] + a[j + 11];
  401c52:	ee74 4aa5 	vadd.f32	s9, s9, s11
            x0i = x1i + x3r;
  401c56:	ee70 2aa1 	vadd.f32	s5, s1, s3
            x0r = a[j] + a[j + 2];
  401c5a:	ed91 fa10 	vldr	s30, [r1, #64]	; 0x40
            x2r = x1r + x3i;
            x2i = x1i - x3r;
  401c5e:	ee70 1ae1 	vsub.f32	s3, s1, s3
            x2i = a[j + 5] + a[j + 7];
  401c62:	edd1 9a17 	vldr	s19, [r1, #92]	; 0x5c
            x1i = a[j + 1] - a[j + 3];
  401c66:	ee7c 0ac5 	vsub.f32	s1, s25, s10
            wk1r = w[k1];
  401c6a:	ed92 2a04 	vldr	s4, [r2, #16]
            x3r = a[j + 4] - a[j + 6];
  401c6e:	ee76 5a4a 	vsub.f32	s11, s12, s20
            wk2i = w[k1 + 3];
  401c72:	ed92 7a07 	vldr	s14, [r2, #28]
            x2r = x1r + x3i;
  401c76:	ee7e eaa7 	vadd.f32	s29, s29, s15
            x0r = a[j] + a[j + 2];
  401c7a:	edd1 7a12 	vldr	s15, [r1, #72]	; 0x48
            x0i = a[j + 1] + a[j + 3];
  401c7e:	ee7c ca85 	vadd.f32	s25, s25, s10
            x3i = a[j + 5] - a[j + 7];
  401c82:	ed91 5a15 	vldr	s10, [r1, #84]	; 0x54
            x2i = a[j + 13] + a[j + 15];
  401c86:	ee3e 3a03 	vadd.f32	s6, s28, s6
            wk1i = w[k1 + 1];
  401c8a:	edd2 3a05 	vldr	s7, [r2, #20]
            y5r = wn4r * (x0r - x0i);
            y5i = wn4r * (x0r + x0i);
  401c8e:	ee3d ea22 	vadd.f32	s28, s26, s5
            wk2r = w[k1 + 2];
  401c92:	ed92 1a06 	vldr	s2, [r2, #24]
            x2r = a[j + 12] + a[j + 14];
  401c96:	ee38 0a00 	vadd.f32	s0, s16, s0
            y7r = wn4r * (x2r - x2i);
            y7i = wn4r * (x2r + x2i);
            x0r = y1r + y5r;
            x0i = y1i + y5i;
  401c9a:	eddd fa04 	vldr	s31, [sp, #16]
            x1r = a[j] - a[j + 2];
  401c9e:	ee3f 8a67 	vsub.f32	s16, s30, s15
        for (j = 32; j < n; j += 16) {
  401ca2:	4293      	cmp	r3, r2
            y5r = wn4r * (x0r - x0i);
  401ca4:	ee7d 2a62 	vsub.f32	s5, s26, s5
            x3i = a[j + 5] - a[j + 7];
  401ca8:	ee35 5a69 	vsub.f32	s10, s10, s19
            y1i = x1i + x3r;
  401cac:	ee30 daa5 	vadd.f32	s26, s1, s11
            x2r = a[j + 4] + a[j + 6];
  401cb0:	ee36 6a0a 	vadd.f32	s12, s12, s20
            x0r = a[j] + a[j + 2];
  401cb4:	ee3f aa27 	vadd.f32	s20, s30, s15
            x2i = a[j + 5] + a[j + 7];
  401cb8:	edd1 7a15 	vldr	s15, [r1, #84]	; 0x54
            wk3r = wk1r - wtmp * wk1i;
  401cbc:	eef1 ba63 	vneg.f32	s23, s7
            wtmp = 2 * wk2i;
  401cc0:	ee37 ba07 	vadd.f32	s22, s14, s14
            y3i = x1i - x3r;
  401cc4:	ee70 5ae5 	vsub.f32	s11, s1, s11
            a[j + 2] = wk1r * x0r - wk1i * x0i;
            a[j + 3] = wk1r * x0i + wk1i * x0r;
            x0r = y1r - y5r;
            x0i = y1i - y5i;
  401cc8:	eeb0 fa4d 	vmov.f32	s30, s26
            y1r = x1r - x3i;
  401ccc:	ee78 0a45 	vsub.f32	s1, s16, s10
            wk3r = wk1r - wtmp * wk1i;
  401cd0:	eef0 8a42 	vmov.f32	s17, s4
            x2i = a[j + 5] + a[j + 7];
  401cd4:	ee77 9aa9 	vadd.f32	s19, s15, s19
            y3r = x1r + x3i;
  401cd8:	ee38 5a05 	vadd.f32	s10, s16, s10
            y7i = wn4r * (x2r + x2i);
  401cdc:	ee7e 7aa1 	vadd.f32	s15, s29, s3
            y7r = wn4r * (x2r - x2i);
  401ce0:	ee3e 8ae1 	vsub.f32	s16, s29, s3
            x0i = y1i - y5i;
  401ce4:	eddd ea05 	vldr	s29, [sp, #20]
            wk3r = wk1r - wtmp * wk1i;
  401ce8:	eeeb 8a8b 	vfma.f32	s17, s23, s22
            x0i = y1i - y5i;
  401cec:	eeae fa8e 	vfma.f32	s30, s29, s28
            wk4i = wtmp * wk2r;
  401cf0:	ee61 6a0b 	vmul.f32	s13, s2, s22
            x0i = y1i + y5i;
  401cf4:	eeaf da8e 	vfma.f32	s26, s31, s28
            x0r = y1r - y5r;
  401cf8:	eeb0 ea60 	vmov.f32	s28, s1
            wtmp = 2 * wk4i;
  401cfc:	ee36 9aa6 	vadd.f32	s18, s13, s13
            x0r = y1r + y5r;
  401d00:	eeef 0aa2 	vfma.f32	s1, s31, s5
            x0r = y1r - y5r;
  401d04:	eeae eaa2 	vfma.f32	s28, s29, s5
            wk7i = wtmp * wk3r - wk1i;
  401d08:	eef0 2a6b 	vmov.f32	s5, s23
            wk3i = wtmp * wk1r - wk1i;
  401d0c:	eeb0 4a6b 	vmov.f32	s8, s23
            wk4r = 1 - wtmp * wk2i;
  401d10:	eef1 aa47 	vneg.f32	s21, s14
            wk7i = wtmp * wk3r - wk1i;
  401d14:	eee8 2a89 	vfma.f32	s5, s17, s18
            wk3i = wtmp * wk1r - wk1i;
  401d18:	eea2 4a0b 	vfma.f32	s8, s4, s22
            wk7i = wtmp * wk3r - wk1i;
  401d1c:	edcd 2a01 	vstr	s5, [sp, #4]
            x0r = y3r - y7i;
            x0i = y3i + y7r;
            a[j + 6] = wk3r * x0r - wk3i * x0i;
            a[j + 7] = wk3r * x0i + wk3i * x0r;
            x0r = y3r + y7i;
            x0i = y3i - y7r;
  401d20:	eef0 2a65 	vmov.f32	s5, s11
            x0i = y3i + y7r;
  401d24:	eeef 5a88 	vfma.f32	s11, s31, s16
            wk5i = wtmp * wk1r - wk3i;
  401d28:	eeb1 ca44 	vneg.f32	s24, s8
            x0i = y3i - y7r;
  401d2c:	eeee 2a88 	vfma.f32	s5, s29, s16
            x0r = y3r + y7i;
  401d30:	eeb0 8a45 	vmov.f32	s16, s10
            wk5i = wtmp * wk1r - wk3i;
  401d34:	eef0 1a4c 	vmov.f32	s3, s24
            x0r = y3r - y7i;
  401d38:	eeae 5aa7 	vfma.f32	s10, s29, s15
            x0r = y3r + y7i;
  401d3c:	eeaf 8aa7 	vfma.f32	s16, s31, s15
            y6r = x0r - x2r;
  401d40:	ee7d fac0 	vsub.f32	s31, s27, s0
            wk5i = wtmp * wk1r - wk3i;
  401d44:	eee2 1a09 	vfma.f32	s3, s4, s18
            wk5r = wk3r - wtmp * wk1i;
  401d48:	eef0 ea68 	vmov.f32	s29, s17
            y2i = x0i - x2i;
  401d4c:	ee7c 7ae9 	vsub.f32	s15, s25, s19
            x0r = y3r + y7i;
  401d50:	ed8d 8a02 	vstr	s16, [sp, #8]
            y0r = x0r + x2r;
  401d54:	ee3a 8a06 	vadd.f32	s16, s20, s12
            y2r = x0r - x2r;
  401d58:	ee3a 6a46 	vsub.f32	s12, s20, s12
            y4r = x0r + x2r;
  401d5c:	ee3d aa80 	vadd.f32	s20, s27, s0
            wk7r = wk1r - wtmp * wk3i;
  401d60:	eef0 da42 	vmov.f32	s27, s4
            wk5r = wk3r - wtmp * wk1i;
  401d64:	eeeb ea89 	vfma.f32	s29, s23, s18
            y0i = x0i + x2i;
  401d68:	ee3c 0aa9 	vadd.f32	s0, s25, s19
            wk7r = wk1r - wtmp * wk3i;
  401d6c:	eeec da09 	vfma.f32	s27, s24, s18
            wk4r = 1 - wtmp * wk2i;
  401d70:	eeb7 ca00 	vmov.f32	s24, #112	; 0x3f800000  1.0
            y4i = x0i + x2i;
  401d74:	ee74 9a83 	vadd.f32	s19, s9, s6
            y6i = x0i - x2i;
  401d78:	ee74 4ac3 	vsub.f32	s9, s9, s6
            wk4r = 1 - wtmp * wk2i;
  401d7c:	eeaa ca8b 	vfma.f32	s24, s21, s22
            wk6i = wtmp * wk2r - wk2i;
  401d80:	eeb0 3a6a 	vmov.f32	s6, s21
            wk6r = wk2r - wtmp * wk2i;
  401d84:	eeb0 ba41 	vmov.f32	s22, s2
            a[j + 14] = wk7r * x0r - wk7i * x0i;
            a[j + 15] = wk7r * x0i + wk7i * x0r;
            a[j] = y0r + y4r;
            a[j + 1] = y0i + y4i;
            x0r = y0r - y4r;
  401d88:	ee78 ca4a 	vsub.f32	s25, s16, s20
            wk6i = wtmp * wk2r - wk2i;
  401d8c:	eea1 3a09 	vfma.f32	s6, s2, s18
            wk6r = wk2r - wtmp * wk2i;
  401d90:	eeaa ba89 	vfma.f32	s22, s21, s18
            a[j + 10] = wk5r * x0r - wk5i * x0i;
  401d94:	ee2f 9a61 	vnmul.f32	s18, s30, s3
            a[j + 11] = wk5r * x0i + wk5i * x0r;
  401d98:	ee61 1a8e 	vmul.f32	s3, s3, s28
            x0i = y0i - y4i;
  401d9c:	ee70 ba69 	vsub.f32	s23, s0, s19
            a[j + 10] = wk5r * x0r - wk5i * x0i;
  401da0:	eeae 9a8e 	vfma.f32	s18, s29, s28
            a[j + 11] = wk5r * x0i + wk5i * x0r;
  401da4:	eeee 1a8f 	vfma.f32	s3, s29, s30
            a[j + 15] = wk7r * x0i + wk7i * x0r;
  401da8:	ed9d fa02 	vldr	s30, [sp, #8]
            a[j + 2] = wk1r * x0r - wk1i * x0i;
  401dac:	ee2d ea63 	vnmul.f32	s28, s26, s7
            wk6r = wk2r - wtmp * wk2i;
  401db0:	eef0 aa4b 	vmov.f32	s21, s22
            x0r = y2r - y6i;
            x0i = y2i + y6r;
            a[j + 4] = wk2r * x0r - wk2i * x0i;
            a[j + 5] = wk2r * x0i + wk2i * x0r;
            x0r = y2r + y6i;
            x0i = y2i - y6r;
  401db4:	ee37 baef 	vsub.f32	s22, s15, s31
            a[j + 2] = wk1r * x0r - wk1i * x0i;
  401db8:	eea2 ea20 	vfma.f32	s28, s4, s1
            x0i = y2i + y6r;
  401dbc:	ee77 7aaf 	vadd.f32	s15, s15, s31
            a[j + 10] = wk5r * x0r - wk5i * x0i;
  401dc0:	ed81 9a1a 	vstr	s18, [r1, #104]	; 0x68
            a[j + 11] = wk5r * x0i + wk5i * x0r;
  401dc4:	edcd 1a03 	vstr	s3, [sp, #12]
            x0r = y2r + y6i;
  401dc8:	ee76 fa24 	vadd.f32	s31, s12, s9
            a[j + 14] = wk7r * x0r - wk7i * x0i;
  401dcc:	eddd 1a01 	vldr	s3, [sp, #4]
            x0r = y2r - y6i;
  401dd0:	ee36 6a64 	vsub.f32	s12, s12, s9
            a[j + 14] = wk7r * x0r - wk7i * x0i;
  401dd4:	eef0 ea62 	vmov.f32	s29, s5
  401dd8:	ee62 4ae1 	vnmul.f32	s9, s5, s3
            a[j + 15] = wk7r * x0i + wk7i * x0r;
  401ddc:	ee61 2a8f 	vmul.f32	s5, s3, s30
            a[j + 11] = wk5r * x0i + wk5i * x0r;
  401de0:	eddd 1a03 	vldr	s3, [sp, #12]
            a[j + 2] = wk1r * x0r - wk1i * x0i;
  401de4:	ed81 ea12 	vstr	s28, [r1, #72]	; 0x48
            a[j + 3] = wk1r * x0i + wk1i * x0r;
  401de8:	ee63 3aa0 	vmul.f32	s7, s7, s1
            a[j + 11] = wk5r * x0i + wk5i * x0r;
  401dec:	edc1 1a1b 	vstr	s3, [r1, #108]	; 0x6c
            a[j + 6] = wk3r * x0r - wk3i * x0i;
  401df0:	ee65 0ac4 	vnmul.f32	s1, s11, s8
            a[j + 9] = wk4r * x0i + wk4i * x0r;
  401df4:	ee26 9aac 	vmul.f32	s18, s13, s25
            a[j + 12] = wk6r * x0r - wk6i * x0i;
  401df8:	ee6b 1a43 	vnmul.f32	s3, s22, s6
            a[j + 4] = wk2r * x0r - wk2i * x0i;
  401dfc:	ee27 eac7 	vnmul.f32	s28, s15, s14
            a[j + 7] = wk3r * x0i + wk3i * x0r;
  401e00:	ee24 4a05 	vmul.f32	s8, s8, s10
            a[j + 8] = wk4r * x0r - wk4i * x0i;
  401e04:	ee6b 6ae6 	vnmul.f32	s13, s23, s13
            a[j + 13] = wk6r * x0i + wk6i * x0r;
  401e08:	ee23 3a2f 	vmul.f32	s6, s6, s31
            a[j + 5] = wk2r * x0i + wk2i * x0r;
  401e0c:	ee27 7a06 	vmul.f32	s14, s14, s12
            a[j + 3] = wk1r * x0i + wk1i * x0r;
  401e10:	eee2 3a0d 	vfma.f32	s7, s4, s26
            a[j + 15] = wk7r * x0i + wk7i * x0r;
  401e14:	eeed 2aae 	vfma.f32	s5, s27, s29
            a[j + 14] = wk7r * x0r - wk7i * x0i;
  401e18:	eeed 4a8f 	vfma.f32	s9, s27, s30
            a[j + 6] = wk3r * x0r - wk3i * x0i;
  401e1c:	eee8 0a85 	vfma.f32	s1, s17, s10
            a[j + 7] = wk3r * x0i + wk3i * x0r;
  401e20:	eea8 4aa5 	vfma.f32	s8, s17, s11
            a[j + 8] = wk4r * x0r - wk4i * x0i;
  401e24:	eeec 6a2c 	vfma.f32	s13, s24, s25
            a[j + 9] = wk4r * x0i + wk4i * x0r;
  401e28:	eeac 9a2b 	vfma.f32	s18, s24, s23
            a[j + 3] = wk1r * x0i + wk1i * x0r;
  401e2c:	edc1 3a13 	vstr	s7, [r1, #76]	; 0x4c
            a[j + 13] = wk6r * x0i + wk6i * x0r;
  401e30:	eeaa 3a8b 	vfma.f32	s6, s21, s22
            a[j + 15] = wk7r * x0i + wk7i * x0r;
  401e34:	edc1 2a1f 	vstr	s5, [r1, #124]	; 0x7c
            a[j + 12] = wk6r * x0r - wk6i * x0i;
  401e38:	eeea 1aaf 	vfma.f32	s3, s21, s31
            a[j + 14] = wk7r * x0r - wk7i * x0i;
  401e3c:	edc1 4a1e 	vstr	s9, [r1, #120]	; 0x78
            a[j + 4] = wk2r * x0r - wk2i * x0i;
  401e40:	eea1 ea06 	vfma.f32	s28, s2, s12
            a[j + 6] = wk3r * x0r - wk3i * x0i;
  401e44:	edc1 0a16 	vstr	s1, [r1, #88]	; 0x58
            a[j + 5] = wk2r * x0i + wk2i * x0r;
  401e48:	eea1 7a27 	vfma.f32	s14, s2, s15
            a[j + 7] = wk3r * x0i + wk3i * x0r;
  401e4c:	ed81 4a17 	vstr	s8, [r1, #92]	; 0x5c
            a[j] = y0r + y4r;
  401e50:	ee38 8a0a 	vadd.f32	s16, s16, s20
            a[j + 8] = wk4r * x0r - wk4i * x0i;
  401e54:	edc1 6a18 	vstr	s13, [r1, #96]	; 0x60
            a[j + 1] = y0i + y4i;
  401e58:	ee30 0a29 	vadd.f32	s0, s0, s19
            a[j + 9] = wk4r * x0i + wk4i * x0r;
  401e5c:	ed81 9a19 	vstr	s18, [r1, #100]	; 0x64
            a[j + 13] = wk6r * x0i + wk6i * x0r;
  401e60:	ed81 3a1d 	vstr	s6, [r1, #116]	; 0x74
            a[j] = y0r + y4r;
  401e64:	ed81 8a10 	vstr	s16, [r1, #64]	; 0x40
            a[j + 1] = y0i + y4i;
  401e68:	ed81 0a11 	vstr	s0, [r1, #68]	; 0x44
            a[j + 4] = wk2r * x0r - wk2i * x0i;
  401e6c:	ed81 ea14 	vstr	s28, [r1, #80]	; 0x50
            a[j + 12] = wk6r * x0r - wk6i * x0i;
  401e70:	edc1 1a1c 	vstr	s3, [r1, #112]	; 0x70
            a[j + 5] = wk2r * x0i + wk2i * x0r;
  401e74:	ed81 7a15 	vstr	s14, [r1, #84]	; 0x54
        for (j = 32; j < n; j += 16) {
  401e78:	f47f aec5 	bne.w	401c06 <cft1st+0x342>
        }
    }
}
  401e7c:	b006      	add	sp, #24
  401e7e:	ecbd 8b10 	vpop	{d8-d15}
  401e82:	4770      	bx	lr

00401e84 <cftmdl>:


void cftmdl(int n, int l, smpl_t *a, smpl_t *w)
{
  401e84:	e92d 4ff0 	stmdb	sp!, {r4, r5, r6, r7, r8, r9, sl, fp, lr}
        y0r, y0i, y1r, y1i, y2r, y2i, y3r, y3i, 
        y4r, y4i, y5r, y5i, y6r, y6i, y7r, y7i;
    
    m = l << 3;
    wn4r = w[2];
    for (j = 0; j < l; j += 2) {
  401e88:	2900      	cmp	r1, #0
{
  401e8a:	469b      	mov	fp, r3
    m = l << 3;
  401e8c:	ea4f 09c1 	mov.w	r9, r1, lsl #3
{
  401e90:	ed2d 8b10 	vpush	{d8-d15}
  401e94:	b08d      	sub	sp, #52	; 0x34
    wn4r = w[2];
  401e96:	ed93 fa02 	vldr	s30, [r3, #8]
{
  401e9a:	9009      	str	r0, [sp, #36]	; 0x24
  401e9c:	9207      	str	r2, [sp, #28]
    for (j = 0; j < l; j += 2) {
  401e9e:	f340 80e7 	ble.w	402070 <cftmdl+0x1ec>
  401ea2:	eb01 0241 	add.w	r2, r1, r1, lsl #1
  401ea6:	f101 3aff 	add.w	sl, r1, #4294967295
  401eaa:	9e07      	ldr	r6, [sp, #28]
  401eac:	008b      	lsls	r3, r1, #2
  401eae:	188d      	adds	r5, r1, r2
  401eb0:	ea4f 0a5a 	mov.w	sl, sl, lsr #1
  401eb4:	4637      	mov	r7, r6
  401eb6:	eb06 0c03 	add.w	ip, r6, r3
  401eba:	194c      	adds	r4, r1, r5
  401ebc:	f103 0e04 	add.w	lr, r3, #4
  401ec0:	eb06 0aca 	add.w	sl, r6, sl, lsl #3
  401ec4:	eeb1 8a4f 	vneg.f32	s16, s30
  401ec8:	1908      	adds	r0, r1, r4
  401eca:	eb06 0282 	add.w	r2, r6, r2, lsl #2
  401ece:	eb06 0585 	add.w	r5, r6, r5, lsl #2
  401ed2:	44be      	add	lr, r7
  401ed4:	eb06 0484 	add.w	r4, r6, r4, lsl #2
  401ed8:	180e      	adds	r6, r1, r0
  401eda:	46b8      	mov	r8, r7
  401edc:	eb07 0080 	add.w	r0, r7, r0, lsl #2
  401ee0:	eb07 0686 	add.w	r6, r7, r6, lsl #2
  401ee4:	4463      	add	r3, ip
  401ee6:	f10a 0a0c 	add.w	sl, sl, #12
  401eea:	3704      	adds	r7, #4
        y2i = x0i - x2i;
        y1r = x1r - x3i;
        y1i = x1i + x3r;
        y3r = x1r + x3i;
        y3i = x1i - x3r;
        x0r = a[j4] + a[j5];
  401eec:	edd4 7a00 	vldr	s15, [r4]
  401ef0:	3708      	adds	r7, #8
        x0i = a[j4 + 1] + a[j5 + 1];
        x1r = a[j4] - a[j5];
        x1i = a[j4 + 1] - a[j5 + 1];
        x2r = a[j6] + a[j7];
        x2i = a[j6 + 1] + a[j7 + 1];
  401ef2:	edd0 6a01 	vldr	s13, [r0, #4]
  401ef6:	f10e 0e08 	add.w	lr, lr, #8
  401efa:	ed96 7a01 	vldr	s14, [r6, #4]
  401efe:	f10c 0c08 	add.w	ip, ip, #8
        x2r = a[j6] + a[j7];
  401f02:	edd6 3a00 	vldr	s7, [r6]
  401f06:	3408      	adds	r4, #8
        x0r = a[j4] + a[j5];
  401f08:	ed95 6a00 	vldr	s12, [r5]
        x2i = a[j6 + 1] + a[j7 + 1];
  401f0c:	ee76 1a87 	vadd.f32	s3, s13, s14
        x0i = a[j4 + 1] + a[j5 + 1];
  401f10:	ed95 ba01 	vldr	s22, [r5, #4]
  401f14:	3208      	adds	r2, #8
  401f16:	ed54 5a01 	vldr	s11, [r4, #-4]
        x1r = a[j4] - a[j5];
  401f1a:	ee36 5a67 	vsub.f32	s10, s12, s15
        x2r = a[j6] + a[j7];
  401f1e:	ed90 0a00 	vldr	s0, [r0]
        x0r = a[j4] + a[j5];
  401f22:	ee36 6a27 	vadd.f32	s12, s12, s15
        x1i = a[j4 + 1] - a[j5 + 1];
  401f26:	ee3b 9a65 	vsub.f32	s18, s22, s11
        x0i = a[j + 1] + a[j1 + 1];
  401f2a:	ed1c aa01 	vldr	s20, [ip, #-4]
        x3r = a[j6] - a[j7];
        x3i = a[j6 + 1] - a[j7 + 1];
  401f2e:	ee76 7ac7 	vsub.f32	s15, s13, s14
        x2r = a[j2] + a[j3];
  401f32:	ed93 1a00 	vldr	s2, [r3]
        x3r = a[j6] - a[j7];
  401f36:	ee70 4a63 	vsub.f32	s9, s0, s7
        x0r = a[j] + a[j1];
  401f3a:	ed57 6a03 	vldr	s13, [r7, #-12]
        x2r = a[j6] + a[j7];
  401f3e:	ee30 0a23 	vadd.f32	s0, s0, s7
        x0r = a[j] + a[j1];
  401f42:	ed1e 7a03 	vldr	s14, [lr, #-12]
        y4r = x0r + x2r;
        y4i = x0i + x2i;
        y6r = x0r - x2r;
        y6i = x0i - x2i;
        x0r = x1r - x3i;
  401f46:	ee75 8a67 	vsub.f32	s17, s10, s15
        x2i = a[j2 + 1] + a[j3 + 1];
  401f4a:	edd3 aa01 	vldr	s21, [r3, #4]
        x0i = x1i + x3r;
  401f4e:	ee39 3a24 	vadd.f32	s6, s18, s9
        x2i = a[j2 + 1] + a[j3 + 1];
  401f52:	ed12 2a01 	vldr	s4, [r2, #-4]
        x2r = x1r + x3i;
        x2i = x1i - x3r;
  401f56:	ee39 9a64 	vsub.f32	s18, s18, s9
        x2r = a[j2] + a[j3];
  401f5a:	ed52 4a02 	vldr	s9, [r2, #-8]
        x2r = x1r + x3i;
  401f5e:	ee35 5a27 	vadd.f32	s10, s10, s15
        x0i = a[j + 1] + a[j1 + 1];
  401f62:	edd8 7a01 	vldr	s15, [r8, #4]
        x3r = a[j2] - a[j3];
  401f66:	ee71 3a64 	vsub.f32	s7, s2, s9
  401f6a:	3608      	adds	r6, #8
        x1i = a[j + 1] - a[j1 + 1];
  401f6c:	ee77 2aca 	vsub.f32	s5, s15, s20
  401f70:	f108 0808 	add.w	r8, r8, #8
        x1r = a[j] - a[j1];
  401f74:	ee76 0ac7 	vsub.f32	s1, s13, s14
  401f78:	3508      	adds	r5, #8
        x3i = a[j2 + 1] - a[j3 + 1];
  401f7a:	ee3a 4ac2 	vsub.f32	s8, s21, s4
  401f7e:	3308      	adds	r3, #8
        x2r = a[j2] + a[j3];
  401f80:	ee31 1a24 	vadd.f32	s2, s2, s9
  401f84:	3008      	adds	r0, #8
        y1i = x1i + x3r;
  401f86:	ee72 4aa3 	vadd.f32	s9, s5, s7
        y5r = wn4r * (x0r - x0i);
  401f8a:	ee78 9ac3 	vsub.f32	s19, s17, s6
        x0r = a[j] + a[j1];
  401f8e:	ee36 7a87 	vadd.f32	s14, s13, s14
        y5i = wn4r * (x0r + x0i);
  401f92:	ee78 8a83 	vadd.f32	s17, s17, s6
        y3i = x1i - x3r;
  401f96:	ee72 6ae3 	vsub.f32	s13, s5, s7
        y1r = x1r - x3i;
  401f9a:	ee30 3ac4 	vsub.f32	s6, s1, s8
        y7r = wn4r * (x2r - x2i);
  401f9e:	ee75 2a49 	vsub.f32	s5, s10, s18
        y3r = x1r + x3i;
  401fa2:	ee30 4a84 	vadd.f32	s8, s1, s8
        y7i = wn4r * (x2r + x2i);
  401fa6:	ee35 5a09 	vadd.f32	s10, s10, s18
        a[j1] = y1r + y5r;
        a[j1 + 1] = y1i + y5i;
  401faa:	eeb0 9a64 	vmov.f32	s18, s9
        x0i = a[j + 1] + a[j1 + 1];
  401fae:	ee77 7a8a 	vadd.f32	s15, s15, s20
        a[j5] = y1r - y5r;
        a[j5 + 1] = y1i - y5i;
  401fb2:	eee8 4a28 	vfma.f32	s9, s16, s17
        a[j1] = y1r + y5r;
  401fb6:	eeb0 aa43 	vmov.f32	s20, s6
        a[j1 + 1] = y1i + y5i;
  401fba:	eeaf 9a28 	vfma.f32	s18, s30, s17
        a[j3] = y3r - y7i;
        a[j3 + 1] = y3i + y7r;
  401fbe:	eef0 0a66 	vmov.f32	s1, s13
        a[j3] = y3r - y7i;
  401fc2:	eef0 8a44 	vmov.f32	s17, s8
        a[j7] = y3r + y7i;
        a[j7 + 1] = y3i - y7r;
  401fc6:	eee8 6a22 	vfma.f32	s13, s16, s5
        a[j7] = y3r + y7i;
  401fca:	eeaf 4a05 	vfma.f32	s8, s30, s10
        a[j3] = y3r - y7i;
  401fce:	eee8 8a05 	vfma.f32	s17, s16, s10
        a[j3 + 1] = y3i + y7r;
  401fd2:	eeef 0a22 	vfma.f32	s1, s30, s5
        a[j1] = y1r + y5r;
  401fd6:	eeaf aa29 	vfma.f32	s20, s30, s19
        a[j5] = y1r - y5r;
  401fda:	eea8 3a29 	vfma.f32	s6, s16, s19
        x0i = a[j4 + 1] + a[j5 + 1];
  401fde:	ee7b 5a25 	vadd.f32	s11, s22, s11
        a[j5 + 1] = y1i - y5i;
  401fe2:	eef0 3a64 	vmov.f32	s7, s9
        y4r = x0r + x2r;
  401fe6:	ee76 2a00 	vadd.f32	s5, s12, s0
        y0r = x0r + x2r;
  401fea:	ee77 4a01 	vadd.f32	s9, s14, s2
        x2i = a[j2 + 1] + a[j3 + 1];
  401fee:	ee3a 2a82 	vadd.f32	s4, s21, s4
        a[j1] = y1r + y5r;
  401ff2:	ed0e aa03 	vstr	s20, [lr, #-12]
        a[j1 + 1] = y1i + y5i;
  401ff6:	ed0c 9a01 	vstr	s18, [ip, #-4]
        y2r = x0r - x2r;
  401ffa:	ee37 7a41 	vsub.f32	s14, s14, s2
        a[j5 + 1] = y1i - y5i;
  401ffe:	ed44 3a01 	vstr	s7, [r4, #-4]
        y6r = x0r - x2r;
  402002:	ee36 6a40 	vsub.f32	s12, s12, s0
        a[j5] = y1r - y5r;
  402006:	ed04 3a02 	vstr	s6, [r4, #-8]
        y0i = x0i + x2i;
  40200a:	ee37 5a82 	vadd.f32	s10, s15, s4
        a[j3] = y3r - y7i;
  40200e:	ed42 8a02 	vstr	s17, [r2, #-8]
        y2i = x0i - x2i;
  402012:	ee77 7ac2 	vsub.f32	s15, s15, s4
        a[j3 + 1] = y3i + y7r;
  402016:	ed42 0a01 	vstr	s1, [r2, #-4]
        a[j7] = y3r + y7i;
  40201a:	ed06 4a02 	vstr	s8, [r6, #-8]
        y4i = x0i + x2i;
  40201e:	ee35 4aa1 	vadd.f32	s8, s11, s3
        a[j7 + 1] = y3i - y7r;
  402022:	ed46 6a01 	vstr	s13, [r6, #-4]
        y6i = x0i - x2i;
  402026:	ee75 6ae1 	vsub.f32	s13, s11, s3
        a[j] = y0r + y4r;
  40202a:	ee74 5aa2 	vadd.f32	s11, s9, s5
        a[j + 1] = y0i + y4i;
  40202e:	ee75 3a04 	vadd.f32	s7, s10, s8
        a[j4] = y0r - y4r;
  402032:	ee74 4ae2 	vsub.f32	s9, s9, s5
        a[j] = y0r + y4r;
  402036:	ed47 5a03 	vstr	s11, [r7, #-12]
        a[j4 + 1] = y0i - y4i;
  40203a:	ee35 5a44 	vsub.f32	s10, s10, s8
        a[j2] = y2r - y6i;
  40203e:	ee77 5a66 	vsub.f32	s11, s14, s13
    for (j = 0; j < l; j += 2) {
  402042:	45ba      	cmp	sl, r7
        a[j2 + 1] = y2i + y6r;
        a[j6] = y2r + y6i;
  402044:	ee37 7a26 	vadd.f32	s14, s14, s13
        a[j + 1] = y0i + y4i;
  402048:	ed48 3a01 	vstr	s7, [r8, #-4]
        a[j2 + 1] = y2i + y6r;
  40204c:	ee77 6a86 	vadd.f32	s13, s15, s12
        a[j4] = y0r - y4r;
  402050:	ed45 4a02 	vstr	s9, [r5, #-8]
        a[j6 + 1] = y2i - y6r;
  402054:	ee77 7ac6 	vsub.f32	s15, s15, s12
        a[j4 + 1] = y0i - y4i;
  402058:	ed05 5a01 	vstr	s10, [r5, #-4]
        a[j2] = y2r - y6i;
  40205c:	ed43 5a02 	vstr	s11, [r3, #-8]
        a[j2 + 1] = y2i + y6r;
  402060:	ed43 6a01 	vstr	s13, [r3, #-4]
        a[j6] = y2r + y6i;
  402064:	ed00 7a02 	vstr	s14, [r0, #-8]
        a[j6 + 1] = y2i - y6r;
  402068:	ed40 7a01 	vstr	s15, [r0, #-4]
    for (j = 0; j < l; j += 2) {
  40206c:	f47f af3e 	bne.w	401eec <cftmdl+0x68>
    }
    if (m < n) {
  402070:	9b09      	ldr	r3, [sp, #36]	; 0x24
  402072:	4599      	cmp	r9, r3
  402074:	f280 829f 	bge.w	4025b6 <cftmdl+0x732>
        wk1r = w[4];
        wk1i = w[5];
        for (j = m; j < l + m; j += 2) {
  402078:	eb01 0c09 	add.w	ip, r1, r9
        wk1r = w[4];
  40207c:	ed9b 0a04 	vldr	s0, [fp, #16]
        wk1i = w[5];
  402080:	ed9b 8a05 	vldr	s16, [fp, #20]
        for (j = m; j < l + m; j += 2) {
  402084:	45e1      	cmp	r9, ip
  402086:	f280 8108 	bge.w	40229a <cftmdl+0x416>
  40208a:	eb01 030c 	add.w	r3, r1, ip
  40208e:	ebac 0209 	sub.w	r2, ip, r9
  402092:	9e07      	ldr	r6, [sp, #28]
  402094:	f109 0a02 	add.w	sl, r9, #2
  402098:	18cd      	adds	r5, r1, r3
  40209a:	3a01      	subs	r2, #1
  40209c:	eb06 0383 	add.w	r3, r6, r3, lsl #2
  4020a0:	194c      	adds	r4, r1, r5
  4020a2:	f022 0201 	bic.w	r2, r2, #1
  4020a6:	ea4f 0e89 	mov.w	lr, r9, lsl #2
  4020aa:	9300      	str	r3, [sp, #0]
  4020ac:	1908      	adds	r0, r1, r4
  4020ae:	4492      	add	sl, r2
  4020b0:	f10e 0804 	add.w	r8, lr, #4
  4020b4:	eb06 0585 	add.w	r5, r6, r5, lsl #2
  4020b8:	180a      	adds	r2, r1, r0
  4020ba:	eb06 0484 	add.w	r4, r6, r4, lsl #2
  4020be:	44b0      	add	r8, r6
  4020c0:	44b6      	add	lr, r6
  4020c2:	188b      	adds	r3, r1, r2
  4020c4:	eb06 0080 	add.w	r0, r6, r0, lsl #2
  4020c8:	eb06 0a8a 	add.w	sl, r6, sl, lsl #2
  4020cc:	eb06 0282 	add.w	r2, r6, r2, lsl #2
  4020d0:	eb06 078c 	add.w	r7, r6, ip, lsl #2
  4020d4:	eb06 0683 	add.w	r6, r6, r3, lsl #2
  4020d8:	9b00      	ldr	r3, [sp, #0]
            j4 = j3 + l;
            j5 = j4 + l;
            j6 = j5 + l;
            j7 = j6 + l;
            x0r = a[j] + a[j1];
            x0i = a[j + 1] + a[j1 + 1];
  4020da:	ed9e 9a01 	vldr	s18, [lr, #4]
  4020de:	f10e 0e08 	add.w	lr, lr, #8
            x0r = a[j] + a[j1];
  4020e2:	ed18 2a01 	vldr	s4, [r8, #-4]
  4020e6:	3708      	adds	r7, #8
  4020e8:	ed17 7a02 	vldr	s14, [r7, #-8]
  4020ec:	3008      	adds	r0, #8
            x1r = a[j] - a[j1];
            x1i = a[j + 1] - a[j1 + 1];
            x2r = a[j2] + a[j3];
            x2i = a[j2 + 1] + a[j3 + 1];
  4020ee:	edd3 1a01 	vldr	s3, [r3, #4]
  4020f2:	3508      	adds	r5, #8
  4020f4:	ed55 7a01 	vldr	s15, [r5, #-4]
            x1r = a[j] - a[j1];
  4020f8:	ee32 3a47 	vsub.f32	s6, s4, s14
            x2r = a[j2] + a[j3];
  4020fc:	ed55 4a02 	vldr	s9, [r5, #-8]
            x0r = a[j] + a[j1];
  402100:	ee32 2a07 	vadd.f32	s4, s4, s14
            x0i = a[j + 1] + a[j1 + 1];
  402104:	ed57 0a01 	vldr	s1, [r7, #-4]
            x3r = a[j2] - a[j3];
            x3i = a[j2 + 1] - a[j3 + 1];
  402108:	ee31 7ae7 	vsub.f32	s14, s3, s15
            x2r = a[j2] + a[j3];
  40210c:	edd3 2a00 	vldr	s5, [r3]
            x2i = a[j2 + 1] + a[j3 + 1];
  402110:	ee71 aaa7 	vadd.f32	s21, s3, s15
            x1i = a[j + 1] - a[j1 + 1];
  402114:	ee79 3a60 	vsub.f32	s7, s18, s1
            y1r = x1r - x3i;
            y1i = x1i + x3r;
            y3r = x1r + x3i;
            y3i = x1i - x3r;
            x0r = a[j4] + a[j5];
            x0i = a[j4 + 1] + a[j5 + 1];
  402118:	edd4 6a01 	vldr	s13, [r4, #4]
            x3r = a[j2] - a[j3];
  40211c:	ee72 7ae4 	vsub.f32	s15, s5, s9
            x1r = a[j4] - a[j5];
            x1i = a[j4 + 1] - a[j5 + 1];
            x2r = a[j6] + a[j7];
  402120:	ed92 6a00 	vldr	s12, [r2]
            y1r = x1r - x3i;
  402124:	ee73 da47 	vsub.f32	s27, s6, s14
            x0r = a[j4] + a[j5];
  402128:	ed10 5a02 	vldr	s10, [r0, #-8]
            y3r = x1r + x3i;
  40212c:	ee33 3a07 	vadd.f32	s6, s6, s14
            x0i = a[j4 + 1] + a[j5 + 1];
  402130:	ed10 7a01 	vldr	s14, [r0, #-4]
            y1i = x1i + x3r;
  402134:	ee33 eaa7 	vadd.f32	s28, s7, s15
            x2i = a[j6 + 1] + a[j7 + 1];
  402138:	edd6 5a01 	vldr	s11, [r6, #4]
            y3i = x1i - x3r;
  40213c:	ee73 3ae7 	vsub.f32	s7, s7, s15
            x2r = a[j6] + a[j7];
  402140:	edd6 7a00 	vldr	s15, [r6]
            x1i = a[j4 + 1] - a[j5 + 1];
  402144:	ee36 4ac7 	vsub.f32	s8, s13, s14
            x0r = a[j4] + a[j5];
  402148:	ed94 ba00 	vldr	s22, [r4]
            x3r = a[j6] - a[j7];
  40214c:	ee76 8a67 	vsub.f32	s17, s12, s15
            x2i = a[j6 + 1] + a[j7 + 1];
  402150:	ed92 aa01 	vldr	s20, [r2, #4]
            x1r = a[j4] - a[j5];
  402154:	ee3b 1a45 	vsub.f32	s2, s22, s10
  402158:	3608      	adds	r6, #8
            x3i = a[j6 + 1] - a[j7 + 1];
  40215a:	ee7a 1a65 	vsub.f32	s3, s20, s11
  40215e:	f108 0808 	add.w	r8, r8, #8
            y4r = x0r + x2r;
            y4i = x0i + x2i;
            y6r = x0r - x2r;
            y6i = x0i - x2i;
            x0r = x1r - x3i;
            x0i = x1i + x3r;
  402162:	ee74 ca28 	vadd.f32	s25, s8, s17
  402166:	3408      	adds	r4, #8
            x0i = a[j + 1] + a[j1 + 1];
  402168:	ee79 0a20 	vadd.f32	s1, s18, s1
  40216c:	3308      	adds	r3, #8
            x0r = x1r - x3i;
  40216e:	ee31 da61 	vsub.f32	s26, s2, s3
  402172:	3208      	adds	r2, #8
            x2r = x1r + x3i;
  402174:	ee31 1a21 	vadd.f32	s2, s2, s3
            x2r = a[j2] + a[j3];
  402178:	ee72 2aa4 	vadd.f32	s5, s5, s9
            x2i = x3r - x1i;
  40217c:	ee78 1ac4 	vsub.f32	s3, s17, s8
            x0r = a[j4] + a[j5];
  402180:	ee3b ba05 	vadd.f32	s22, s22, s10
            x2i = a[j6 + 1] + a[j7 + 1];
  402184:	ee3a aa25 	vadd.f32	s20, s20, s11
            x0i = a[j4 + 1] + a[j5 + 1];
  402188:	ee76 6a87 	vadd.f32	s13, s13, s14
            x2r = a[j6] + a[j7];
  40218c:	ee36 6a27 	vadd.f32	s12, s12, s15
            y5r = wk1i * x0r - wk1r * x0i;
            y5i = wk1i * x0i + wk1r * x0r;
            y7r = wk1r * x2r + wk1i * x2i;
            y7i = wk1r * x2i - wk1i * x2r;
            x0r = wk1r * y1r - wk1i * y1i;
  402190:	ee2e 9a48 	vnmul.f32	s18, s28, s16
            y5r = wk1i * x0r - wk1r * x0i;
  402194:	ee2c 4ac0 	vnmul.f32	s8, s25, s0
            y2r = x0r - x2r;
  402198:	ee72 7a62 	vsub.f32	s15, s4, s5
            y6r = x0r - x2r;
  40219c:	ee3b 7a46 	vsub.f32	s14, s22, s12
            y2i = x0i - x2i;
  4021a0:	ee70 baea 	vsub.f32	s23, s1, s21
            y6i = x0i - x2i;
  4021a4:	ee36 caca 	vsub.f32	s24, s13, s20
            y7r = wk1r * x2r + wk1i * x2i;
  4021a8:	ee68 8a21 	vmul.f32	s17, s16, s3
            x0i = wk1r * y1i + wk1i * y1r;
            a[j1] = x0r + y5r;
            a[j1 + 1] = x0i + y5i;
            a[j5] = y5i - x0i;
            a[j5 + 1] = x0r - y5r;
            x0r = wk1i * y3r - wk1r * y3i;
  4021ac:	ee23 5ac0 	vnmul.f32	s10, s7, s0
            x0i = wk1i * y3i + wk1r * y3r;
  4021b0:	ee60 5a03 	vmul.f32	s11, s0, s6
            x0r = wk1r * y1r - wk1i * y1i;
  4021b4:	eea0 9a2d 	vfma.f32	s18, s0, s27
            y5r = wk1i * x0r - wk1r * x0i;
  4021b8:	eea8 4a0d 	vfma.f32	s8, s16, s26
            x0i = wk1r * y1i + wk1i * y1r;
  4021bc:	ee68 9a2d 	vmul.f32	s19, s16, s27
            y5i = wk1i * x0i + wk1r * x0r;
  4021c0:	ee60 4a0d 	vmul.f32	s9, s0, s26
            y7i = wk1r * x2i - wk1i * x2r;
  4021c4:	ee61 ea48 	vnmul.f32	s29, s2, s16
            y7r = wk1r * x2r + wk1i * x2i;
  4021c8:	eee0 8a01 	vfma.f32	s17, s0, s2
            x0r = wk1i * y3r - wk1r * y3i;
  4021cc:	eea8 5a03 	vfma.f32	s10, s16, s6
            x0i = wk1i * y3i + wk1r * y3r;
  4021d0:	eee8 5a23 	vfma.f32	s11, s16, s7
            a[j7 + 1] = x0r + y7r;
            a[j] = y0r + y4r;
            a[j + 1] = y0i + y4i;
            a[j4] = y4i - y0i;
            a[j4 + 1] = y0r - y4r;
            x0r = y2r - y6i;
  4021d4:	ee37 3acc 	vsub.f32	s6, s15, s24
            x0i = y2i + y6r;
  4021d8:	ee7b 3a87 	vadd.f32	s7, s23, s14
            x0i = wk1r * y1i + wk1i * y1r;
  4021dc:	eee0 9a0e 	vfma.f32	s19, s0, s28
            a[j2] = wn4r * (x0r - x0i);
            a[j2 + 1] = wn4r * (x0i + x0r);
            x0r = y6r - y2i;
  4021e0:	ee37 7a6b 	vsub.f32	s14, s14, s23
            y5i = wk1i * x0i + wk1r * x0r;
  4021e4:	eee8 4a2c 	vfma.f32	s9, s16, s25
            x0i = y2r + y6i;
  4021e8:	ee77 7a8c 	vadd.f32	s15, s15, s24
            y7i = wk1r * x2i - wk1i * x2r;
  4021ec:	eeb0 1a6e 	vmov.f32	s2, s29
            y0r = x0r + x2r;
  4021f0:	ee72 2a22 	vadd.f32	s5, s4, s5
            a[j2] = wn4r * (x0r - x0i);
  4021f4:	ee33 2a63 	vsub.f32	s4, s6, s7
            y7i = wk1r * x2i - wk1i * x2r;
  4021f8:	eea0 1a21 	vfma.f32	s2, s0, s3
            a[j2 + 1] = wn4r * (x0i + x0r);
  4021fc:	ee73 3a23 	vadd.f32	s7, s6, s7
            a[j6] = wn4r * (x0r - x0i);
  402200:	ee37 3a67 	vsub.f32	s6, s14, s15
            a[j6 + 1] = wn4r * (x0i + x0r);
  402204:	ee77 7a27 	vadd.f32	s15, s14, s15
            a[j1] = x0r + y5r;
  402208:	ee34 7a09 	vadd.f32	s14, s8, s18
            y0i = x0i + x2i;
  40220c:	ee70 1aaa 	vadd.f32	s3, s1, s21
            y4r = x0r + x2r;
  402210:	ee3b 6a06 	vadd.f32	s12, s22, s12
            a[j1] = x0r + y5r;
  402214:	ed07 7a02 	vstr	s14, [r7, #-8]
            a[j1 + 1] = x0i + y5i;
  402218:	ee74 0aa9 	vadd.f32	s1, s9, s19
            a[j3] = x0r - y7r;
  40221c:	ee35 7a68 	vsub.f32	s14, s10, s17
            y4i = x0i + x2i;
  402220:	ee76 6a8a 	vadd.f32	s13, s13, s20
            a[j5] = y5i - x0i;
  402224:	ee74 4ae9 	vsub.f32	s9, s9, s19
            a[j1 + 1] = x0i + y5i;
  402228:	ed47 0a01 	vstr	s1, [r7, #-4]
            a[j5 + 1] = x0r - y5r;
  40222c:	ee39 4a44 	vsub.f32	s8, s18, s8
            a[j7 + 1] = x0r + y7r;
  402230:	ee38 5a85 	vadd.f32	s10, s17, s10
            a[j5] = y5i - x0i;
  402234:	ed40 4a02 	vstr	s9, [r0, #-8]
            a[j3 + 1] = x0i + y7i;
  402238:	ee71 0a25 	vadd.f32	s1, s2, s11
            a[j5 + 1] = x0r - y5r;
  40223c:	ed00 4a01 	vstr	s8, [r0, #-4]
            a[j7] = y7i - x0i;
  402240:	ee71 5a65 	vsub.f32	s11, s2, s11
            a[j3] = x0r - y7r;
  402244:	ed05 7a02 	vstr	s14, [r5, #-8]
            a[j] = y0r + y4r;
  402248:	ee72 4a86 	vadd.f32	s9, s5, s12
            a[j + 1] = y0i + y4i;
  40224c:	ee31 7aa6 	vadd.f32	s14, s3, s13
            a[j3 + 1] = x0i + y7i;
  402250:	ed45 0a01 	vstr	s1, [r5, #-4]
            a[j7 + 1] = x0r + y7r;
  402254:	ed06 5a01 	vstr	s10, [r6, #-4]
            a[j4 + 1] = y0r - y4r;
  402258:	ee32 6ac6 	vsub.f32	s12, s5, s12
            a[j7] = y7i - x0i;
  40225c:	ed46 5a02 	vstr	s11, [r6, #-8]
            a[j4] = y4i - y0i;
  402260:	ee76 6ae1 	vsub.f32	s13, s13, s3
            a[j] = y0r + y4r;
  402264:	ed48 4a03 	vstr	s9, [r8, #-12]
            a[j2] = wn4r * (x0r - x0i);
  402268:	ee22 5a0f 	vmul.f32	s10, s4, s30
            a[j + 1] = y0i + y4i;
  40226c:	ed0e 7a01 	vstr	s14, [lr, #-4]
            a[j2 + 1] = wn4r * (x0i + x0r);
  402270:	ee63 5a8f 	vmul.f32	s11, s7, s30
            a[j6] = wn4r * (x0r - x0i);
  402274:	ee23 7a0f 	vmul.f32	s14, s6, s30
        for (j = m; j < l + m; j += 2) {
  402278:	45f2      	cmp	sl, lr
            a[j6 + 1] = wn4r * (x0i + x0r);
  40227a:	ee67 7a8f 	vmul.f32	s15, s15, s30
            a[j4 + 1] = y0r - y4r;
  40227e:	ed04 6a01 	vstr	s12, [r4, #-4]
            a[j4] = y4i - y0i;
  402282:	ed44 6a02 	vstr	s13, [r4, #-8]
            a[j2] = wn4r * (x0r - x0i);
  402286:	ed03 5a02 	vstr	s10, [r3, #-8]
            a[j2 + 1] = wn4r * (x0i + x0r);
  40228a:	ed43 5a01 	vstr	s11, [r3, #-4]
            a[j6] = wn4r * (x0r - x0i);
  40228e:	ed02 7a02 	vstr	s14, [r2, #-8]
            a[j6 + 1] = wn4r * (x0i + x0r);
  402292:	ed42 7a01 	vstr	s15, [r2, #-4]
        for (j = m; j < l + m; j += 2) {
  402296:	f47f af20 	bne.w	4020da <cftmdl+0x256>
        }
        k1 = 4;
        for (k = 2 * m; k < n; k += m) {
  40229a:	ea4f 0a49 	mov.w	sl, r9, lsl #1
  40229e:	9b09      	ldr	r3, [sp, #36]	; 0x24
  4022a0:	4553      	cmp	r3, sl
  4022a2:	f340 8188 	ble.w	4025b6 <cftmdl+0x732>
  4022a6:	eb01 020a 	add.w	r2, r1, sl
  4022aa:	9c07      	ldr	r4, [sp, #28]
  4022ac:	eba9 0101 	sub.w	r1, r9, r1
  4022b0:	eef1 da4f 	vneg.f32	s27, s30
  4022b4:	eb04 0282 	add.w	r2, r4, r2, lsl #2
  4022b8:	465b      	mov	r3, fp
  4022ba:	eb09 000c 	add.w	r0, r9, ip
  4022be:	eb04 0bc9 	add.w	fp, r4, r9, lsl #3
  4022c2:	9206      	str	r2, [sp, #24]
  4022c4:	008a      	lsls	r2, r1, #2
  4022c6:	9005      	str	r0, [sp, #20]
  4022c8:	920b      	str	r2, [sp, #44]	; 0x2c
  4022ca:	ea4f 0289 	mov.w	r2, r9, lsl #2
  4022ce:	920a      	str	r2, [sp, #40]	; 0x28
            k1 += 4;
            wk1r = w[k1];
            wk1i = w[k1 + 1];
            wk2r = w[k1 + 2];
            wk2i = w[k1 + 3];
  4022d0:	edd3 ba0b 	vldr	s23, [r3, #44]	; 0x2c
            wtmp = 2 * wk2i;
            wk3r = wk1r - wtmp * wk1i;
            wk3i = wtmp * wk1r - wk1i;
            wk4r = 1 - wtmp * wk2i;
  4022d4:	eef7 6a00 	vmov.f32	s13, #112	; 0x3f800000  1.0
            wk1i = w[k1 + 1];
  4022d8:	ed93 da09 	vldr	s26, [r3, #36]	; 0x24
            wtmp = 2 * wk2i;
  4022dc:	ee7b 7aab 	vadd.f32	s15, s23, s23
            wk1r = w[k1];
  4022e0:	edd3 aa08 	vldr	s21, [r3, #32]
            wk3r = wk1r - wtmp * wk1i;
  4022e4:	eeb1 aa4d 	vneg.f32	s20, s26
            wk2r = w[k1 + 2];
  4022e8:	ed93 ba0a 	vldr	s22, [r3, #40]	; 0x28
            wk4r = 1 - wtmp * wk2i;
  4022ec:	eeb1 7a6b 	vneg.f32	s14, s23
            wk5i = wtmp * wk1r - wk3i;
            wk6r = wk2r - wtmp * wk2i;
            wk6i = wtmp * wk2r - wk2i;
            wk7r = wk1r - wtmp * wk3i;
            wk7i = wtmp * wk3r - wk1i;
            for (j = k; j < l + k; j += 2) {
  4022f0:	9a05      	ldr	r2, [sp, #20]
            wk4i = wtmp * wk2r;
  4022f2:	ee6b ca27 	vmul.f32	s25, s22, s15
            wk3i = wtmp * wk1r - wk1i;
  4022f6:	eeb0 ea4a 	vmov.f32	s28, s20
            for (j = k; j < l + k; j += 2) {
  4022fa:	4592      	cmp	sl, r2
            wk3r = wk1r - wtmp * wk1i;
  4022fc:	eeb0 ca6a 	vmov.f32	s24, s21
            wk4r = 1 - wtmp * wk2i;
  402300:	eee7 6a27 	vfma.f32	s13, s14, s15
            wk3i = wtmp * wk1r - wk1i;
  402304:	eeaa eaa7 	vfma.f32	s28, s21, s15
            wk3r = wk1r - wtmp * wk1i;
  402308:	eeaa ca27 	vfma.f32	s24, s20, s15
            wk6r = wk2r - wtmp * wk2i;
  40230c:	eeb0 6a4b 	vmov.f32	s12, s22
            wtmp = 2 * wk4i;
  402310:	ee7c 7aac 	vadd.f32	s15, s25, s25
            wk7r = wk1r - wtmp * wk3i;
  402314:	eef0 ea6a 	vmov.f32	s29, s21
            wk4r = 1 - wtmp * wk2i;
  402318:	edcd 6a00 	vstr	s13, [sp]
            wk6r = wk2r - wtmp * wk2i;
  40231c:	eea7 6a27 	vfma.f32	s12, s14, s15
            wk5i = wtmp * wk1r - wk3i;
  402320:	eef1 6a4e 	vneg.f32	s13, s28
            wk6i = wtmp * wk2r - wk2i;
  402324:	eeab 7a27 	vfma.f32	s14, s22, s15
            wk7r = wk1r - wtmp * wk3i;
  402328:	eee6 eaa7 	vfma.f32	s29, s13, s15
            wk6r = wk2r - wtmp * wk2i;
  40232c:	ed8d 6a03 	vstr	s12, [sp, #12]
            wk5r = wk3r - wtmp * wk1i;
  402330:	eeb0 6a4c 	vmov.f32	s12, s24
            wk6i = wtmp * wk2r - wk2i;
  402334:	ed8d 7a04 	vstr	s14, [sp, #16]
            wk5r = wk3r - wtmp * wk1i;
  402338:	eeaa 6a27 	vfma.f32	s12, s20, s15
            wk7i = wtmp * wk3r - wk1i;
  40233c:	eeac aa27 	vfma.f32	s20, s24, s15
            wk5r = wk3r - wtmp * wk1i;
  402340:	ed8d 6a01 	vstr	s12, [sp, #4]
            wk5i = wtmp * wk1r - wk3i;
  402344:	eeb0 6a66 	vmov.f32	s12, s13
  402348:	eeaa 6aa7 	vfma.f32	s12, s21, s15
  40234c:	ed8d 6a02 	vstr	s12, [sp, #8]
            for (j = k; j < l + k; j += 2) {
  402350:	f280 8122 	bge.w	402598 <cftmdl+0x714>
  402354:	9a05      	ldr	r2, [sp, #20]
  402356:	f10a 0802 	add.w	r8, sl, #2
  40235a:	9c06      	ldr	r4, [sp, #24]
  40235c:	eb09 000b 	add.w	r0, r9, fp
  402360:	f102 3eff 	add.w	lr, r2, #4294967295
  402364:	9a0b      	ldr	r2, [sp, #44]	; 0x2c
  402366:	eb09 0104 	add.w	r1, r9, r4
  40236a:	9408      	str	r4, [sp, #32]
  40236c:	ebae 0e0a 	sub.w	lr, lr, sl
  402370:	9c07      	ldr	r4, [sp, #28]
  402372:	eb02 070b 	add.w	r7, r2, fp
  402376:	eb00 0209 	add.w	r2, r0, r9
  40237a:	f02e 0e01 	bic.w	lr, lr, #1
  40237e:	eb01 0609 	add.w	r6, r1, r9
  402382:	f10b 0c04 	add.w	ip, fp, #4
  402386:	eb02 0509 	add.w	r5, r2, r9
  40238a:	44f0      	add	r8, lr
  40238c:	46de      	mov	lr, fp
  40238e:	eb04 0888 	add.w	r8, r4, r8, lsl #2
  402392:	9c08      	ldr	r4, [sp, #32]
                y2i = x0i - x2i;
                y1r = x1r - x3i;
                y1i = x1i + x3r;
                y3r = x1r + x3i;
                y3i = x1i - x3r;
                x0r = a[j4] + a[j5];
  402394:	ed92 3a00 	vldr	s6, [r2]
  402398:	f10e 0e08 	add.w	lr, lr, #8
  40239c:	edd6 7a00 	vldr	s15, [r6]
  4023a0:	3408      	adds	r4, #8
                x0i = a[j4 + 1] + a[j5 + 1];
                x1r = a[j4] - a[j5];
                x1i = a[j4 + 1] - a[j5 + 1];
                x2r = a[j6] + a[j7];
                x2i = a[j6 + 1] + a[j7 + 1];
  4023a2:	ed95 4a01 	vldr	s8, [r5, #4]
  4023a6:	3608      	adds	r6, #8
  4023a8:	ed97 6a01 	vldr	s12, [r7, #4]
                x1r = a[j4] - a[j5];
  4023ac:	ee73 1a67 	vsub.f32	s3, s6, s15
                x0i = a[j4 + 1] + a[j5 + 1];
  4023b0:	ed56 6a01 	vldr	s13, [r6, #-4]
                x0r = a[j4] + a[j5];
  4023b4:	ee33 3a27 	vadd.f32	s6, s6, s15
                x2r = a[j6] + a[j7];
  4023b8:	edd5 5a00 	vldr	s11, [r5]
                x3r = a[j6] - a[j7];
                x3i = a[j6 + 1] - a[j7 + 1];
  4023bc:	ee74 7a46 	vsub.f32	s15, s8, s12
                x2r = a[j6] + a[j7];
  4023c0:	edd7 fa00 	vldr	s31, [r7]
                x2i = a[j6 + 1] + a[j7 + 1];
  4023c4:	ee34 4a06 	vadd.f32	s8, s8, s12
                x0i = a[j4 + 1] + a[j5 + 1];
  4023c8:	ed92 7a01 	vldr	s14, [r2, #4]
  4023cc:	3108      	adds	r1, #8
                x3r = a[j6] - a[j7];
  4023ce:	ee35 6aef 	vsub.f32	s12, s11, s31
                x0r = a[j] + a[j1];
  4023d2:	ed1c 9a01 	vldr	s18, [ip, #-4]
                x1i = a[j4 + 1] - a[j5 + 1];
  4023d6:	ee77 4a66 	vsub.f32	s9, s14, s13
                x2i = a[j2 + 1] + a[j3 + 1];
  4023da:	edd0 8a01 	vldr	s17, [r0, #4]
                x0r = a[j] + a[j1];
  4023de:	ed54 2a02 	vldr	s5, [r4, #-8]
                y4r = x0r + x2r;
                y4i = x0i + x2i;
                y6r = x0r - x2r;
                y6i = x0i - x2i;
                x0r = x1r - x3i;
  4023e2:	ee71 9ae7 	vsub.f32	s19, s3, s15
                x2i = a[j2 + 1] + a[j3 + 1];
  4023e6:	ed51 3a01 	vldr	s7, [r1, #-4]
                x0i = x1i + x3r;
                x2r = x1r + x3i;
  4023ea:	ee71 1aa7 	vadd.f32	s3, s3, s15
                x1r = a[j] - a[j1];
  4023ee:	ee39 8a62 	vsub.f32	s16, s18, s5
                x0i = a[j + 1] + a[j1 + 1];
  4023f2:	ed5e 0a01 	vldr	s1, [lr, #-4]
                x0i = x1i + x3r;
  4023f6:	ee34 2a86 	vadd.f32	s4, s9, s12
                x2r = a[j2] + a[j3];
  4023fa:	ed90 1a00 	vldr	s2, [r0]
                x2i = x1i - x3r;
  4023fe:	ee74 4ac6 	vsub.f32	s9, s9, s12
                x0i = a[j + 1] + a[j1 + 1];
  402402:	ed54 7a01 	vldr	s15, [r4, #-4]
                x3i = a[j2 + 1] - a[j3 + 1];
  402406:	ee38 6ae3 	vsub.f32	s12, s17, s7
                x2r = a[j2] + a[j3];
  40240a:	ed11 5a02 	vldr	s10, [r1, #-8]
                x1i = a[j + 1] - a[j1 + 1];
  40240e:	ee30 0ae7 	vsub.f32	s0, s1, s15
  402412:	3708      	adds	r7, #8
                x0i = a[j4 + 1] + a[j5 + 1];
  402414:	ee37 7a26 	vadd.f32	s14, s14, s13
  402418:	f10c 0c08 	add.w	ip, ip, #8
                x3r = a[j2] - a[j3];
  40241c:	ee71 6a45 	vsub.f32	s13, s2, s10
  402420:	3208      	adds	r2, #8
                x2r = a[j6] + a[j7];
  402422:	ee75 5aaf 	vadd.f32	s11, s11, s31
  402426:	3008      	adds	r0, #8
                y5r = wn4r * (x0r - x0i);
  402428:	ee79 fac2 	vsub.f32	s31, s19, s4
  40242c:	3508      	adds	r5, #8
                y5i = wn4r * (x0r + x0i);
  40242e:	ee39 2a82 	vadd.f32	s4, s19, s4
                y1r = x1r - x3i;
  402432:	ee78 9a46 	vsub.f32	s19, s16, s12
                y3r = x1r + x3i;
  402436:	ee38 6a06 	vadd.f32	s12, s16, s12
                y1i = x1i + x3r;
  40243a:	ee30 8a26 	vadd.f32	s16, s0, s13
                y3i = x1i - x3r;
  40243e:	ee70 6a66 	vsub.f32	s13, s0, s13
                y7r = wn4r * (x2r - x2i);
  402442:	ee31 0ae4 	vsub.f32	s0, s3, s9
                y7i = wn4r * (x2r + x2i);
  402446:	ee71 4aa4 	vadd.f32	s9, s3, s9
                x0r = y1r + y5r;
  40244a:	eef0 1a69 	vmov.f32	s3, s19
                x0i = y1i + y5i;
                a[j1] = wk1r * x0r - wk1i * x0i;
                a[j1 + 1] = wk1r * x0i + wk1i * x0r;
                x0r = y1r - y5r;
  40244e:	eeed 9aaf 	vfma.f32	s19, s27, s31
                x0i = a[j + 1] + a[j1 + 1];
  402452:	ee70 7aa7 	vadd.f32	s15, s1, s15
                x0r = y1r + y5r;
  402456:	eeef 1a2f 	vfma.f32	s3, s30, s31
                x0i = y1i + y5i;
  40245a:	eef0 fa48 	vmov.f32	s31, s16
                x0i = y1i - y5i;
  40245e:	eef0 0a48 	vmov.f32	s1, s16
                x2r = a[j2] + a[j3];
  402462:	ee31 5a05 	vadd.f32	s10, s2, s10
                x0i = y1i + y5i;
  402466:	eeef fa02 	vfma.f32	s31, s30, s4
                x0r = a[j] + a[j1];
  40246a:	ee79 2a22 	vadd.f32	s5, s18, s5
                a[j5] = wk5r * x0r - wk5i * x0i;
                a[j5 + 1] = wk5r * x0i + wk5i * x0r;
                x0r = y3r - y7i;
                x0i = y3i + y7r;
  40246e:	eeb0 8a66 	vmov.f32	s16, s13
                x2i = a[j2 + 1] + a[j3 + 1];
  402472:	ee78 3aa3 	vadd.f32	s7, s17, s7
                x0i = y1i - y5i;
  402476:	eeed 0a82 	vfma.f32	s1, s27, s4
                x0r = y3r - y7i;
  40247a:	eeb0 2a46 	vmov.f32	s4, s12
                x0i = y3i + y7r;
  40247e:	eeaf 8a00 	vfma.f32	s16, s30, s0
                a[j3] = wk3r * x0r - wk3i * x0i;
                a[j3 + 1] = wk3r * x0i + wk3i * x0r;
                x0r = y3r + y7i;
                x0i = y3i - y7r;
  402482:	eeed 6a80 	vfma.f32	s13, s27, s0
                y0r = x0r + x2r;
  402486:	ee72 8a85 	vadd.f32	s17, s5, s10
                a[j1 + 1] = wk1r * x0i + wk1i * x0r;
  40248a:	ee2d 0a21 	vmul.f32	s0, s26, s3
                y2r = x0r - x2r;
  40248e:	ee72 2ac5 	vsub.f32	s5, s5, s10
                y4i = x0i + x2i;
  402492:	ee37 5a04 	vadd.f32	s10, s14, s8
                y6i = x0i - x2i;
  402496:	ee37 7a44 	vsub.f32	s14, s14, s8
                x0r = y3r - y7i;
  40249a:	eead 2aa4 	vfma.f32	s4, s27, s9
                x0r = y3r + y7i;
  40249e:	eeaf 6a24 	vfma.f32	s12, s30, s9
                y4r = x0r + x2r;
  4024a2:	ee33 9a25 	vadd.f32	s18, s6, s11
                y0i = x0i + x2i;
  4024a6:	ee77 4aa3 	vadd.f32	s9, s15, s7
                y6r = x0r - x2r;
  4024aa:	ee73 5a65 	vsub.f32	s11, s6, s11
                y2i = x0i - x2i;
  4024ae:	ee77 7ae3 	vsub.f32	s15, s15, s7
                a[j + 1] = y0i + y4i;
                x0r = y0r - y4r;
                x0i = y0i - y4i;
                a[j4] = wk4r * x0r - wk4i * x0i;
                a[j4 + 1] = wk4r * x0i + wk4i * x0r;
                x0r = y2r - y6i;
  4024b2:	ee32 1ac7 	vsub.f32	s2, s5, s14
                a[j1 + 1] = wk1r * x0i + wk1i * x0r;
  4024b6:	eeaa 0aaf 	vfma.f32	s0, s21, s31
                x0i = y2i + y6r;
                a[j2] = wk2r * x0r - wk2i * x0i;
                a[j2 + 1] = wk2r * x0i + wk2i * x0r;
                x0r = y2r + y6i;
  4024ba:	ee32 7a87 	vadd.f32	s14, s5, s14
                a[j1] = wk1r * x0r - wk1i * x0i;
  4024be:	ee6f 2acd 	vnmul.f32	s5, s31, s26
                a[j5] = wk5r * x0r - wk5i * x0i;
  4024c2:	eddd fa02 	vldr	s31, [sp, #8]
                x0i = y2i + y6r;
  4024c6:	ee37 4aa5 	vadd.f32	s8, s15, s11
                x0i = y2i - y6r;
  4024ca:	ee77 5ae5 	vsub.f32	s11, s15, s11
                a[j5] = wk5r * x0r - wk5i * x0i;
  4024ce:	ee60 7aef 	vnmul.f32	s15, s1, s31
                a[j1] = wk1r * x0r - wk1i * x0i;
  4024d2:	eeea 2aa1 	vfma.f32	s5, s21, s3
                a[j1 + 1] = wk1r * x0i + wk1i * x0r;
  4024d6:	ed04 0a01 	vstr	s0, [r4, #-4]
                a[j5 + 1] = wk5r * x0i + wk5i * x0r;
  4024da:	ee6f 1aa9 	vmul.f32	s3, s31, s19
                a[j5] = wk5r * x0r - wk5i * x0i;
  4024de:	eddd fa01 	vldr	s31, [sp, #4]
                a[j3] = wk3r * x0r - wk3i * x0i;
  4024e2:	ee28 0a4e 	vnmul.f32	s0, s16, s28
                a[j5] = wk5r * x0r - wk5i * x0i;
  4024e6:	eeef 7aa9 	vfma.f32	s15, s31, s19
                a[j3 + 1] = wk3r * x0i + wk3i * x0r;
  4024ea:	ee6e 9a02 	vmul.f32	s19, s28, s4
                a[j5 + 1] = wk5r * x0i + wk5i * x0r;
  4024ee:	eeef 1aa0 	vfma.f32	s3, s31, s1
                a[j3] = wk3r * x0r - wk3i * x0i;
  4024f2:	eeac 0a02 	vfma.f32	s0, s24, s4
                a[j1] = wk1r * x0r - wk1i * x0i;
  4024f6:	ed44 2a02 	vstr	s5, [r4, #-8]
                a[j3 + 1] = wk3r * x0i + wk3i * x0r;
  4024fa:	eeec 9a08 	vfma.f32	s19, s24, s16
                a[j7] = wk7r * x0r - wk7i * x0i;
  4024fe:	ee66 0aca 	vnmul.f32	s1, s13, s20
                a[j7 + 1] = wk7r * x0i + wk7i * x0r;
  402502:	ee6a 2a06 	vmul.f32	s5, s20, s12
                a[j5] = wk5r * x0r - wk5i * x0i;
  402506:	ed46 7a02 	vstr	s15, [r6, #-8]
                x0r = y0r - y4r;
  40250a:	ee78 3ac9 	vsub.f32	s7, s17, s18
                x0i = y0i - y4i;
  40250e:	ee34 3ac5 	vsub.f32	s6, s9, s10
                a[j5 + 1] = wk5r * x0i + wk5i * x0r;
  402512:	ed46 1a01 	vstr	s3, [r6, #-4]
                a[j2 + 1] = wk2r * x0i + wk2i * x0r;
  402516:	ee2b 2a81 	vmul.f32	s4, s23, s2
                a[j3] = wk3r * x0r - wk3i * x0i;
  40251a:	ed01 0a02 	vstr	s0, [r1, #-8]
                a[j3 + 1] = wk3r * x0i + wk3i * x0r;
  40251e:	ed41 9a01 	vstr	s19, [r1, #-4]
                a[j7] = wk7r * x0r - wk7i * x0i;
  402522:	eeee 0a86 	vfma.f32	s1, s29, s12
                a[j6] = wk6r * x0r - wk6i * x0i;
  402526:	eddd 9a04 	vldr	s19, [sp, #16]
                a[j7 + 1] = wk7r * x0i + wk7i * x0r;
  40252a:	eeee 2aa6 	vfma.f32	s5, s29, s13
                a[j2] = wk2r * x0r - wk2i * x0i;
  40252e:	ee24 6a6b 	vnmul.f32	s12, s8, s23
                a[j4 + 1] = wk4r * x0i + wk4i * x0r;
  402532:	ed9d 0a00 	vldr	s0, [sp]
  402536:	ee6c 7aa3 	vmul.f32	s15, s25, s7
                a[j4] = wk4r * x0r - wk4i * x0i;
  40253a:	ee63 1a6c 	vnmul.f32	s3, s6, s25
                a[j6] = wk6r * x0r - wk6i * x0i;
  40253e:	ee25 8ae9 	vnmul.f32	s16, s11, s19
                a[j6 + 1] = wk6r * x0i + wk6i * x0r;
  402542:	ee69 6a87 	vmul.f32	s13, s19, s14
                a[j7] = wk7r * x0r - wk7i * x0i;
  402546:	ed47 0a02 	vstr	s1, [r7, #-8]
                a[j2 + 1] = wk2r * x0i + wk2i * x0r;
  40254a:	eeab 2a04 	vfma.f32	s4, s22, s8
                a[j6] = wk6r * x0r - wk6i * x0i;
  40254e:	ed9d 4a03 	vldr	s8, [sp, #12]
                a[j] = y0r + y4r;
  402552:	ee78 8a89 	vadd.f32	s17, s17, s18
                a[j7 + 1] = wk7r * x0i + wk7i * x0r;
  402556:	ed47 2a01 	vstr	s5, [r7, #-4]
                a[j + 1] = y0i + y4i;
  40255a:	ee74 4a85 	vadd.f32	s9, s9, s10
                a[j4 + 1] = wk4r * x0i + wk4i * x0r;
  40255e:	eee0 7a03 	vfma.f32	s15, s0, s6
                a[j4] = wk4r * x0r - wk4i * x0i;
  402562:	eee0 1a23 	vfma.f32	s3, s0, s7
                a[j] = y0r + y4r;
  402566:	ed4c 8a03 	vstr	s17, [ip, #-12]
                a[j2] = wk2r * x0r - wk2i * x0i;
  40256a:	eeab 6a01 	vfma.f32	s12, s22, s2
                a[j + 1] = y0i + y4i;
  40256e:	ed4e 4a01 	vstr	s9, [lr, #-4]
                a[j6] = wk6r * x0r - wk6i * x0i;
  402572:	eea4 8a07 	vfma.f32	s16, s8, s14
            for (j = k; j < l + k; j += 2) {
  402576:	45f0      	cmp	r8, lr
                a[j6 + 1] = wk6r * x0i + wk6i * x0r;
  402578:	eee4 6a25 	vfma.f32	s13, s8, s11
                a[j4] = wk4r * x0r - wk4i * x0i;
  40257c:	ed42 1a02 	vstr	s3, [r2, #-8]
                a[j4 + 1] = wk4r * x0i + wk4i * x0r;
  402580:	ed42 7a01 	vstr	s15, [r2, #-4]
                a[j2] = wk2r * x0r - wk2i * x0i;
  402584:	ed00 6a02 	vstr	s12, [r0, #-8]
                a[j2 + 1] = wk2r * x0i + wk2i * x0r;
  402588:	ed00 2a01 	vstr	s4, [r0, #-4]
                a[j6] = wk6r * x0r - wk6i * x0i;
  40258c:	ed05 8a02 	vstr	s16, [r5, #-8]
                a[j6 + 1] = wk6r * x0i + wk6i * x0r;
  402590:	ed45 6a01 	vstr	s13, [r5, #-4]
            for (j = k; j < l + k; j += 2) {
  402594:	f47f aefe 	bne.w	402394 <cftmdl+0x510>
  402598:	9a05      	ldr	r2, [sp, #20]
        for (k = 2 * m; k < n; k += m) {
  40259a:	44ca      	add	sl, r9
  40259c:	990a      	ldr	r1, [sp, #40]	; 0x28
  40259e:	3310      	adds	r3, #16
  4025a0:	444a      	add	r2, r9
  4025a2:	448b      	add	fp, r1
  4025a4:	9205      	str	r2, [sp, #20]
  4025a6:	9a06      	ldr	r2, [sp, #24]
  4025a8:	4610      	mov	r0, r2
  4025aa:	9a09      	ldr	r2, [sp, #36]	; 0x24
  4025ac:	4408      	add	r0, r1
  4025ae:	4552      	cmp	r2, sl
  4025b0:	9006      	str	r0, [sp, #24]
  4025b2:	f73f ae8d 	bgt.w	4022d0 <cftmdl+0x44c>
            }
        }
    }
}
  4025b6:	b00d      	add	sp, #52	; 0x34
  4025b8:	ecbd 8b10 	vpop	{d8-d15}
  4025bc:	e8bd 8ff0 	ldmia.w	sp!, {r4, r5, r6, r7, r8, r9, sl, fp, pc}

004025c0 <cftfsub>:
    if (n >= 16) {
  4025c0:	280f      	cmp	r0, #15
{
  4025c2:	e92d 41f0 	stmdb	sp!, {r4, r5, r6, r7, r8, lr}
  4025c6:	4606      	mov	r6, r0
  4025c8:	460d      	mov	r5, r1
    if (n >= 16) {
  4025ca:	dc6a      	bgt.n	4026a2 <cftfsub+0xe2>
  4025cc:	2304      	movs	r3, #4
    l = 2;
  4025ce:	2402      	movs	r4, #2
    if ((l << 1) < n) {
  4025d0:	429e      	cmp	r6, r3
  4025d2:	dd63      	ble.n	40269c <cftfsub+0xdc>
  4025d4:	00e0      	lsls	r0, r4, #3
  4025d6:	0063      	lsls	r3, r4, #1
  4025d8:	462a      	mov	r2, r5
  4025da:	00a5      	lsls	r5, r4, #2
  4025dc:	1d01      	adds	r1, r0, #4
  4025de:	4423      	add	r3, r4
  4025e0:	4628      	mov	r0, r5
  4025e2:	1956      	adds	r6, r2, r5
  4025e4:	3504      	adds	r5, #4
  4025e6:	eb02 0383 	add.w	r3, r2, r3, lsl #2
  4025ea:	4411      	add	r1, r2
  4025ec:	4430      	add	r0, r6
  4025ee:	4415      	add	r5, r2
  4025f0:	1d17      	adds	r7, r2, #4
  4025f2:	f04f 0e00 	mov.w	lr, #0
            x0r = a[j] + a[j1];
  4025f6:	ed15 6a01 	vldr	s12, [r5, #-4]
        for (j = 0; j < l; j += 2) {
  4025fa:	f10e 0e02 	add.w	lr, lr, #2
            x0r = a[j] + a[j1];
  4025fe:	ed17 7a01 	vldr	s14, [r7, #-4]
  402602:	3208      	adds	r2, #8
            x0i = a[j + 1] + a[j1 + 1];
  402604:	edd6 4a01 	vldr	s9, [r6, #4]
        for (j = 0; j < l; j += 2) {
  402608:	45a6      	cmp	lr, r4
            x2r = a[j2] + a[j3];
  40260a:	ed51 6a01 	vldr	s13, [r1, #-4]
            x0r = a[j] + a[j1];
  40260e:	ee37 5a06 	vadd.f32	s10, s14, s12
            x2r = a[j2] + a[j3];
  402612:	edd3 5a00 	vldr	s11, [r3]
            x1r = a[j] - a[j1];
  402616:	ee37 7a46 	vsub.f32	s14, s14, s12
            x0i = a[j + 1] + a[j1 + 1];
  40261a:	ed52 7a01 	vldr	s15, [r2, #-4]
  40261e:	f107 0708 	add.w	r7, r7, #8
            x2i = a[j2 + 1] + a[j3 + 1];
  402622:	ed90 6a01 	vldr	s12, [r0, #4]
            x2r = a[j2] + a[j3];
  402626:	ee36 4aa5 	vadd.f32	s8, s13, s11
            x2i = a[j2 + 1] + a[j3 + 1];
  40262a:	edd3 3a01 	vldr	s7, [r3, #4]
            x3r = a[j2] - a[j3];
  40262e:	ee76 6ae5 	vsub.f32	s13, s13, s11
            x0i = a[j + 1] + a[j1 + 1];
  402632:	ee77 5aa4 	vadd.f32	s11, s15, s9
  402636:	f100 0008 	add.w	r0, r0, #8
            x1i = a[j + 1] - a[j1 + 1];
  40263a:	ee77 7ae4 	vsub.f32	s15, s15, s9
  40263e:	f101 0108 	add.w	r1, r1, #8
            x2i = a[j2 + 1] + a[j3 + 1];
  402642:	ee76 4a23 	vadd.f32	s9, s12, s7
  402646:	f105 0508 	add.w	r5, r5, #8
            x3i = a[j2 + 1] - a[j3 + 1];
  40264a:	ee36 6a63 	vsub.f32	s12, s12, s7
  40264e:	f106 0608 	add.w	r6, r6, #8
            a[j] = x0r + x2r;
  402652:	ee75 3a04 	vadd.f32	s7, s10, s8
  402656:	f103 0308 	add.w	r3, r3, #8
            a[j2] = x0r - x2r;
  40265a:	ee35 5a44 	vsub.f32	s10, s10, s8
            a[j + 1] = x0i + x2i;
  40265e:	ee35 4aa4 	vadd.f32	s8, s11, s9
            a[j2 + 1] = x0i - x2i;
  402662:	ee75 5ae4 	vsub.f32	s11, s11, s9
            a[j] = x0r + x2r;
  402666:	ed47 3a03 	vstr	s7, [r7, #-12]
            a[j1] = x1r - x3i;
  40266a:	ee77 4a46 	vsub.f32	s9, s14, s12
            a[j3] = x1r + x3i;
  40266e:	ee37 7a06 	vadd.f32	s14, s14, s12
            a[j + 1] = x0i + x2i;
  402672:	ed02 4a01 	vstr	s8, [r2, #-4]
            a[j1 + 1] = x1i + x3r;
  402676:	ee37 6aa6 	vadd.f32	s12, s15, s13
            a[j2] = x0r - x2r;
  40267a:	ed01 5a03 	vstr	s10, [r1, #-12]
            a[j3 + 1] = x1i - x3r;
  40267e:	ee77 7ae6 	vsub.f32	s15, s15, s13
            a[j2 + 1] = x0i - x2i;
  402682:	ed40 5a01 	vstr	s11, [r0, #-4]
            a[j1] = x1r - x3i;
  402686:	ed45 4a03 	vstr	s9, [r5, #-12]
            a[j1 + 1] = x1i + x3r;
  40268a:	ed06 6a01 	vstr	s12, [r6, #-4]
            a[j3] = x1r + x3i;
  40268e:	ed03 7a02 	vstr	s14, [r3, #-8]
            a[j3 + 1] = x1i - x3r;
  402692:	ed43 7a01 	vstr	s15, [r3, #-4]
        for (j = 0; j < l; j += 2) {
  402696:	dbae      	blt.n	4025f6 <cftfsub+0x36>
  402698:	e8bd 81f0 	ldmia.w	sp!, {r4, r5, r6, r7, r8, pc}
    } else if ((l << 1) == n) {
  40269c:	d01a      	beq.n	4026d4 <cftfsub+0x114>
  40269e:	e8bd 81f0 	ldmia.w	sp!, {r4, r5, r6, r7, r8, pc}
        cft1st(n, a, w);
  4026a2:	4b27      	ldr	r3, [pc, #156]	; (402740 <cftfsub+0x180>)
  4026a4:	4617      	mov	r7, r2
  4026a6:	4798      	blx	r3
        while ((l << 3) <= n) {
  4026a8:	287f      	cmp	r0, #127	; 0x7f
  4026aa:	dd46      	ble.n	40273a <cftfsub+0x17a>
  4026ac:	2480      	movs	r4, #128	; 0x80
  4026ae:	2110      	movs	r1, #16
  4026b0:	f8df 8090 	ldr.w	r8, [pc, #144]	; 402744 <cftfsub+0x184>
  4026b4:	e000      	b.n	4026b8 <cftfsub+0xf8>
  4026b6:	4604      	mov	r4, r0
            cftmdl(n, l, a, w);
  4026b8:	4630      	mov	r0, r6
  4026ba:	463b      	mov	r3, r7
  4026bc:	462a      	mov	r2, r5
  4026be:	47c0      	blx	r8
  4026c0:	4621      	mov	r1, r4
        while ((l << 3) <= n) {
  4026c2:	00e0      	lsls	r0, r4, #3
  4026c4:	4286      	cmp	r6, r0
  4026c6:	daf6      	bge.n	4026b6 <cftfsub+0xf6>
    if ((l << 1) < n) {
  4026c8:	0063      	lsls	r3, r4, #1
  4026ca:	429e      	cmp	r6, r3
  4026cc:	dc31      	bgt.n	402732 <cftfsub+0x172>
    } else if ((l << 1) == n) {
  4026ce:	d1e6      	bne.n	40269e <cftfsub+0xde>
        for (j = 0; j < l; j += 2) {
  4026d0:	2c00      	cmp	r4, #0
  4026d2:	dde4      	ble.n	40269e <cftfsub+0xde>
  4026d4:	1e60      	subs	r0, r4, #1
  4026d6:	00a4      	lsls	r4, r4, #2
  4026d8:	462a      	mov	r2, r5
  4026da:	1d2b      	adds	r3, r5, #4
  4026dc:	0840      	lsrs	r0, r0, #1
  4026de:	1d21      	adds	r1, r4, #4
  4026e0:	442c      	add	r4, r5
  4026e2:	eb05 00c0 	add.w	r0, r5, r0, lsl #3
  4026e6:	4429      	add	r1, r5
  4026e8:	300c      	adds	r0, #12
            x0r = a[j] - a[j1];
  4026ea:	ed53 7a01 	vldr	s15, [r3, #-4]
  4026ee:	3308      	adds	r3, #8
  4026f0:	ed51 6a01 	vldr	s13, [r1, #-4]
  4026f4:	3208      	adds	r2, #8
            x0i = a[j + 1] - a[j1 + 1];
  4026f6:	ed12 7a01 	vldr	s14, [r2, #-4]
  4026fa:	3108      	adds	r1, #8
            a[j] += a[j1];
  4026fc:	ee37 6aa6 	vadd.f32	s12, s15, s13
            x0i = a[j + 1] - a[j1 + 1];
  402700:	edd4 5a01 	vldr	s11, [r4, #4]
            x0r = a[j] - a[j1];
  402704:	ee77 7ae6 	vsub.f32	s15, s15, s13
  402708:	3408      	adds	r4, #8
            x0i = a[j + 1] - a[j1 + 1];
  40270a:	ee37 7a65 	vsub.f32	s14, s14, s11
            a[j] += a[j1];
  40270e:	ed03 6a03 	vstr	s12, [r3, #-12]
        for (j = 0; j < l; j += 2) {
  402712:	4298      	cmp	r0, r3
            a[j + 1] += a[j1 + 1];
  402714:	ed52 6a01 	vldr	s13, [r2, #-4]
  402718:	ed14 6a01 	vldr	s12, [r4, #-4]
  40271c:	ee76 6a86 	vadd.f32	s13, s13, s12
  402720:	ed42 6a01 	vstr	s13, [r2, #-4]
            a[j1] = x0r;
  402724:	ed41 7a03 	vstr	s15, [r1, #-12]
            a[j1 + 1] = x0i;
  402728:	ed04 7a01 	vstr	s14, [r4, #-4]
        for (j = 0; j < l; j += 2) {
  40272c:	d1dd      	bne.n	4026ea <cftfsub+0x12a>
  40272e:	e8bd 81f0 	ldmia.w	sp!, {r4, r5, r6, r7, r8, pc}
        for (j = 0; j < l; j += 2) {
  402732:	2c00      	cmp	r4, #0
  402734:	f73f af50 	bgt.w	4025d8 <cftfsub+0x18>
  402738:	e7b1      	b.n	40269e <cftfsub+0xde>
        while ((l << 3) <= n) {
  40273a:	2320      	movs	r3, #32
        l = 16;
  40273c:	2410      	movs	r4, #16
  40273e:	e747      	b.n	4025d0 <cftfsub+0x10>
  402740:	004018c5 	.word	0x004018c5
  402744:	00401e85 	.word	0x00401e85

00402748 <aubio_ooura_rdft>:
{
  402748:	e92d 4ff0 	stmdb	sp!, {r4, r5, r6, r7, r8, r9, sl, fp, lr}
  40274c:	4699      	mov	r9, r3
  40274e:	4616      	mov	r6, r2
  402750:	4604      	mov	r4, r0
  402752:	ed2d 8b06 	vpush	{d8-d10}
  402756:	b089      	sub	sp, #36	; 0x24
    nw = ip[0];
  402758:	681b      	ldr	r3, [r3, #0]
{
  40275a:	9a18      	ldr	r2, [sp, #96]	; 0x60
    if (n > (nw << 2)) {
  40275c:	ebb0 0f83 	cmp.w	r0, r3, lsl #2
{
  402760:	9102      	str	r1, [sp, #8]
    nw = ip[0];
  402762:	9301      	str	r3, [sp, #4]
{
  402764:	9200      	str	r2, [sp, #0]
    if (n > (nw << 2)) {
  402766:	f300 8099 	bgt.w	40289c <aubio_ooura_rdft+0x154>
  40276a:	f8d9 5004 	ldr.w	r5, [r9, #4]
  40276e:	00ab      	lsls	r3, r5, #2
    if (n > (nc << 2)) {
  402770:	429c      	cmp	r4, r3
  402772:	dc18      	bgt.n	4027a6 <aubio_ooura_rdft+0x5e>
    if (isgn >= 0) {
  402774:	9b02      	ldr	r3, [sp, #8]
  402776:	2b00      	cmp	r3, #0
  402778:	db72      	blt.n	402860 <aubio_ooura_rdft+0x118>
        if (n > 4) {
  40277a:	2c04      	cmp	r4, #4
  40277c:	f300 8104 	bgt.w	402988 <aubio_ooura_rdft+0x240>
        } else if (n == 4) {
  402780:	f000 8161 	beq.w	402a46 <aubio_ooura_rdft+0x2fe>
        xi = a[0] - a[1];
  402784:	edd6 7a00 	vldr	s15, [r6]
  402788:	ed96 7a01 	vldr	s14, [r6, #4]
        a[0] += a[1];
  40278c:	ee77 6a87 	vadd.f32	s13, s15, s14
        xi = a[0] - a[1];
  402790:	ee77 7ac7 	vsub.f32	s15, s15, s14
        a[0] += a[1];
  402794:	edc6 6a00 	vstr	s13, [r6]
        a[1] = xi;
  402798:	edc6 7a01 	vstr	s15, [r6, #4]
}
  40279c:	b009      	add	sp, #36	; 0x24
  40279e:	ecbd 8b06 	vpop	{d8-d10}
  4027a2:	e8bd 8ff0 	ldmia.w	sp!, {r4, r5, r6, r7, r8, r9, sl, fp, pc}
        nc = n >> 2;
  4027a6:	10a5      	asrs	r5, r4, #2
        makect(nc, ip, w + nw);
  4027a8:	9b00      	ldr	r3, [sp, #0]
  4027aa:	9a01      	ldr	r2, [sp, #4]
    if (nc > 1) {
  4027ac:	2d01      	cmp	r5, #1
    ip[1] = nc;
  4027ae:	f8c9 5004 	str.w	r5, [r9, #4]
        makect(nc, ip, w + nw);
  4027b2:	eb03 0a82 	add.w	sl, r3, r2, lsl #2
    if (nc > 1) {
  4027b6:	dddd      	ble.n	402774 <aubio_ooura_rdft+0x2c>
        nch = nc >> 1;
  4027b8:	10e3      	asrs	r3, r4, #3
        delta = ATAN(1.0) / nch;
  4027ba:	ed9f 7aa6 	vldr	s14, [pc, #664]	; 402a54 <aubio_ooura_rdft+0x30c>
        c[0] = COS(delta * nch);
  4027be:	f8df 82a4 	ldr.w	r8, [pc, #676]	; 402a64 <aubio_ooura_rdft+0x31c>
        c[nch] = (smpl_t)0.5 * c[0];
  4027c2:	eef6 8a00 	vmov.f32	s17, #96	; 0x3f000000  0.5
        delta = ATAN(1.0) / nch;
  4027c6:	ee07 3a90 	vmov	s15, r3
        nch = nc >> 1;
  4027ca:	461f      	mov	r7, r3
        delta = ATAN(1.0) / nch;
  4027cc:	eef8 7ae7 	vcvt.f32.s32	s15, s15
  4027d0:	ee87 9a27 	vdiv.f32	s18, s14, s15
        c[0] = COS(delta * nch);
  4027d4:	ee67 7a89 	vmul.f32	s15, s15, s18
  4027d8:	ee17 0a90 	vmov	r0, s15
  4027dc:	47c0      	blx	r8
  4027de:	ee07 0a90 	vmov	s15, r0
        c[nch] = (smpl_t)0.5 * c[0];
  4027e2:	eb0a 0387 	add.w	r3, sl, r7, lsl #2
        for (j = 1; j < nch; j++) {
  4027e6:	2f01      	cmp	r7, #1
        c[nch] = (smpl_t)0.5 * c[0];
  4027e8:	ee67 7aa8 	vmul.f32	s15, s15, s17
        c[0] = COS(delta * nch);
  4027ec:	f8ca 0000 	str.w	r0, [sl]
        c[nch] = (smpl_t)0.5 * c[0];
  4027f0:	edc3 7a00 	vstr	s15, [r3]
        for (j = 1; j < nch; j++) {
  4027f4:	463b      	mov	r3, r7
  4027f6:	d0bd      	beq.n	402774 <aubio_ooura_rdft+0x2c>
  4027f8:	f04f 0b01 	mov.w	fp, #1
  4027fc:	f10a 0704 	add.w	r7, sl, #4
  402800:	4a95      	ldr	r2, [pc, #596]	; (402a58 <aubio_ooura_rdft+0x310>)
  402802:	eb0a 0a85 	add.w	sl, sl, r5, lsl #2
  402806:	9603      	str	r6, [sp, #12]
  402808:	465e      	mov	r6, fp
  40280a:	f8cd 9010 	str.w	r9, [sp, #16]
  40280e:	46a3      	mov	fp, r4
  402810:	46d1      	mov	r9, sl
  402812:	4614      	mov	r4, r2
  402814:	46aa      	mov	sl, r5
  402816:	4645      	mov	r5, r8
  402818:	4698      	mov	r8, r3
            c[j] = (smpl_t)0.5 * COS(delta * j);
  40281a:	ee07 6a90 	vmov	s15, r6
        for (j = 1; j < nch; j++) {
  40281e:	3601      	adds	r6, #1
            c[j] = (smpl_t)0.5 * COS(delta * j);
  402820:	eeb8 8ae7 	vcvt.f32.s32	s16, s15
  402824:	ee28 8a09 	vmul.f32	s16, s16, s18
  402828:	ee18 0a10 	vmov	r0, s16
  40282c:	47a8      	blx	r5
  40282e:	ee07 0a90 	vmov	s15, r0
            c[nc - j] = (smpl_t)0.5 * SIN(delta * j);
  402832:	ee18 0a10 	vmov	r0, s16
            c[j] = (smpl_t)0.5 * COS(delta * j);
  402836:	ee67 7aa8 	vmul.f32	s15, s15, s17
  40283a:	ece7 7a01 	vstmia	r7!, {s15}
            c[nc - j] = (smpl_t)0.5 * SIN(delta * j);
  40283e:	47a0      	blx	r4
  402840:	ee07 0a90 	vmov	s15, r0
        for (j = 1; j < nch; j++) {
  402844:	45b0      	cmp	r8, r6
            c[nc - j] = (smpl_t)0.5 * SIN(delta * j);
  402846:	ee67 7aa8 	vmul.f32	s15, s15, s17
  40284a:	ed69 7a01 	vstmdb	r9!, {s15}
        for (j = 1; j < nch; j++) {
  40284e:	d1e4      	bne.n	40281a <aubio_ooura_rdft+0xd2>
    if (isgn >= 0) {
  402850:	9b02      	ldr	r3, [sp, #8]
  402852:	4655      	mov	r5, sl
  402854:	465c      	mov	r4, fp
  402856:	9e03      	ldr	r6, [sp, #12]
  402858:	2b00      	cmp	r3, #0
  40285a:	f8dd 9010 	ldr.w	r9, [sp, #16]
  40285e:	da8c      	bge.n	40277a <aubio_ooura_rdft+0x32>
        a[1] = (smpl_t)0.5 * (a[0] - a[1]);
  402860:	ed96 7a00 	vldr	s14, [r6]
  402864:	eeb6 4a00 	vmov.f32	s8, #96	; 0x3f000000  0.5
  402868:	edd6 7a01 	vldr	s15, [r6, #4]
        if (n > 4) {
  40286c:	2c04      	cmp	r4, #4
        a[1] = (smpl_t)0.5 * (a[0] - a[1]);
  40286e:	ee77 7a67 	vsub.f32	s15, s14, s15
  402872:	ee67 7a84 	vmul.f32	s15, s15, s8
        a[0] -= a[1];
  402876:	ee37 7a67 	vsub.f32	s14, s14, s15
        a[1] = (smpl_t)0.5 * (a[0] - a[1]);
  40287a:	edc6 7a01 	vstr	s15, [r6, #4]
        a[0] -= a[1];
  40287e:	ed86 7a00 	vstr	s14, [r6]
        if (n > 4) {
  402882:	f300 80f1 	bgt.w	402a68 <aubio_ooura_rdft+0x320>
        } else if (n == 4) {
  402886:	d189      	bne.n	40279c <aubio_ooura_rdft+0x54>
            cftfsub(n, a, w);
  402888:	9a00      	ldr	r2, [sp, #0]
  40288a:	4631      	mov	r1, r6
  40288c:	4620      	mov	r0, r4
  40288e:	4b73      	ldr	r3, [pc, #460]	; (402a5c <aubio_ooura_rdft+0x314>)
}
  402890:	b009      	add	sp, #36	; 0x24
  402892:	ecbd 8b06 	vpop	{d8-d10}
  402896:	e8bd 4ff0 	ldmia.w	sp!, {r4, r5, r6, r7, r8, r9, sl, fp, lr}
            cftfsub(n, a, w);
  40289a:	4718      	bx	r3
        nw = n >> 2;
  40289c:	1083      	asrs	r3, r0, #2
    ip[1] = 1;
  40289e:	2501      	movs	r5, #1
    if (nw > 2) {
  4028a0:	2b02      	cmp	r3, #2
        nw = n >> 2;
  4028a2:	9301      	str	r3, [sp, #4]
    ip[1] = 1;
  4028a4:	e889 0028 	stmia.w	r9, {r3, r5}
    if (nw > 2) {
  4028a8:	f340 80cb 	ble.w	402a42 <aubio_ooura_rdft+0x2fa>
        nwh = nw >> 1;
  4028ac:	10c3      	asrs	r3, r0, #3
        delta = ATAN(1.0) / nwh;
  4028ae:	ed9f 7a69 	vldr	s14, [pc, #420]	; 402a54 <aubio_ooura_rdft+0x30c>
        w[1] = 0;
  4028b2:	9800      	ldr	r0, [sp, #0]
  4028b4:	2200      	movs	r2, #0
        nwh = nw >> 1;
  4028b6:	4619      	mov	r1, r3
  4028b8:	9303      	str	r3, [sp, #12]
        w[0] = 1;
  4028ba:	f04f 537e 	mov.w	r3, #1065353216	; 0x3f800000
        w[1] = 0;
  4028be:	6042      	str	r2, [r0, #4]
        delta = ATAN(1.0) / nwh;
  4028c0:	ee07 1a90 	vmov	s15, r1
        w[nwh] = COS(delta * nwh);
  4028c4:	460f      	mov	r7, r1
  4028c6:	0089      	lsls	r1, r1, #2
        w[0] = 1;
  4028c8:	6003      	str	r3, [r0, #0]
        delta = ATAN(1.0) / nwh;
  4028ca:	eef8 7ae7 	vcvt.f32.s32	s15, s15
        w[nwh] = COS(delta * nwh);
  4028ce:	f8df 8194 	ldr.w	r8, [pc, #404]	; 402a64 <aubio_ooura_rdft+0x31c>
  4028d2:	460d      	mov	r5, r1
  4028d4:	9104      	str	r1, [sp, #16]
        delta = ATAN(1.0) / nwh;
  4028d6:	eec7 8a27 	vdiv.f32	s17, s14, s15
        w[nwh] = COS(delta * nwh);
  4028da:	1943      	adds	r3, r0, r5
  4028dc:	461d      	mov	r5, r3
  4028de:	9305      	str	r3, [sp, #20]
  4028e0:	ee67 7aa8 	vmul.f32	s15, s15, s17
  4028e4:	ee17 0a90 	vmov	r0, s15
  4028e8:	47c0      	blx	r8
        if (nwh > 2) {
  4028ea:	2f02      	cmp	r7, #2
        w[nwh] = COS(delta * nwh);
  4028ec:	6028      	str	r0, [r5, #0]
        w[nwh + 1] = w[nwh];
  4028ee:	6068      	str	r0, [r5, #4]
        if (nwh > 2) {
  4028f0:	f77f af3b 	ble.w	40276a <aubio_ooura_rdft+0x22>
  4028f4:	9b00      	ldr	r3, [sp, #0]
  4028f6:	2502      	movs	r5, #2
  4028f8:	9a01      	ldr	r2, [sp, #4]
  4028fa:	469b      	mov	fp, r3
  4028fc:	9406      	str	r4, [sp, #24]
  4028fe:	eb03 0782 	add.w	r7, r3, r2, lsl #2
  402902:	4b55      	ldr	r3, [pc, #340]	; (402a58 <aubio_ooura_rdft+0x310>)
  402904:	f8dd a00c 	ldr.w	sl, [sp, #12]
  402908:	461c      	mov	r4, r3
  40290a:	4643      	mov	r3, r8
  40290c:	46d8      	mov	r8, fp
  40290e:	46b3      	mov	fp, r6
  402910:	461e      	mov	r6, r3
  402912:	f8cd 901c 	str.w	r9, [sp, #28]
                x = COS(delta * j);
  402916:	ee07 5a90 	vmov	s15, r5
            for (j = 2; j < nwh; j += 2) {
  40291a:	3502      	adds	r5, #2
  40291c:	f108 0808 	add.w	r8, r8, #8
  402920:	3f08      	subs	r7, #8
                x = COS(delta * j);
  402922:	eeb8 8ae7 	vcvt.f32.s32	s16, s15
  402926:	ee28 8a28 	vmul.f32	s16, s16, s17
  40292a:	ee18 0a10 	vmov	r0, s16
  40292e:	47b0      	blx	r6
  402930:	4681      	mov	r9, r0
                y = SIN(delta * j);
  402932:	ee18 0a10 	vmov	r0, s16
  402936:	47a0      	blx	r4
            for (j = 2; j < nwh; j += 2) {
  402938:	45aa      	cmp	sl, r5
                w[j] = x;
  40293a:	f8c8 9000 	str.w	r9, [r8]
                w[j + 1] = y;
  40293e:	f8c8 0004 	str.w	r0, [r8, #4]
                w[nw - j] = y;
  402942:	6038      	str	r0, [r7, #0]
                w[nw - j + 1] = x;
  402944:	f8c7 9004 	str.w	r9, [r7, #4]
            for (j = 2; j < nwh; j += 2) {
  402948:	dce5      	bgt.n	402916 <aubio_ooura_rdft+0x1ce>
            for (j = nwh - 2; j >= 2; j -= 2) {
  40294a:	9b03      	ldr	r3, [sp, #12]
  40294c:	465e      	mov	r6, fp
  40294e:	9c06      	ldr	r4, [sp, #24]
  402950:	3b02      	subs	r3, #2
  402952:	f8dd 901c 	ldr.w	r9, [sp, #28]
  402956:	2b01      	cmp	r3, #1
  402958:	d00f      	beq.n	40297a <aubio_ooura_rdft+0x232>
  40295a:	9904      	ldr	r1, [sp, #16]
  40295c:	9a05      	ldr	r2, [sp, #20]
  40295e:	440a      	add	r2, r1
  402960:	4611      	mov	r1, r2
  402962:	3b02      	subs	r3, #2
                x = w[2 * j];
  402964:	f852 5c10 	ldr.w	r5, [r2, #-16]
                y = w[2 * j + 1];
  402968:	f852 0c0c 	ldr.w	r0, [r2, #-12]
  40296c:	3908      	subs	r1, #8
            for (j = nwh - 2; j >= 2; j -= 2) {
  40296e:	2b01      	cmp	r3, #1
                w[nwh + j] = x;
  402970:	600d      	str	r5, [r1, #0]
                w[nwh + j + 1] = y;
  402972:	6048      	str	r0, [r1, #4]
  402974:	f1a2 0210 	sub.w	r2, r2, #16
            for (j = nwh - 2; j >= 2; j -= 2) {
  402978:	dcf3      	bgt.n	402962 <aubio_ooura_rdft+0x21a>
            bitrv2(nw, ip + 2, w);
  40297a:	9a00      	ldr	r2, [sp, #0]
  40297c:	f109 0108 	add.w	r1, r9, #8
  402980:	9801      	ldr	r0, [sp, #4]
  402982:	4b37      	ldr	r3, [pc, #220]	; (402a60 <aubio_ooura_rdft+0x318>)
  402984:	4798      	blx	r3
  402986:	e6f0      	b.n	40276a <aubio_ooura_rdft+0x22>
            bitrv2(n, ip + 2, a);
  402988:	f109 0108 	add.w	r1, r9, #8
  40298c:	4632      	mov	r2, r6
  40298e:	4620      	mov	r0, r4
  402990:	4b33      	ldr	r3, [pc, #204]	; (402a60 <aubio_ooura_rdft+0x318>)
  402992:	4798      	blx	r3
            cftfsub(n, a, w);
  402994:	f8dd 8000 	ldr.w	r8, [sp]
void rftfsub(int n, smpl_t *a, int nc, smpl_t *c)
{
    int j, k, kk, ks, m;
    smpl_t wkr, wki, xr, xi, yr, yi;
    
    m = n >> 1;
  402998:	1067      	asrs	r7, r4, #1
            cftfsub(n, a, w);
  40299a:	4620      	mov	r0, r4
  40299c:	4642      	mov	r2, r8
  40299e:	4631      	mov	r1, r6
  4029a0:	4b2e      	ldr	r3, [pc, #184]	; (402a5c <aubio_ooura_rdft+0x314>)
  4029a2:	4798      	blx	r3
            rftfsub(n, a, nc, w + nw);
  4029a4:	9a01      	ldr	r2, [sp, #4]
    ks = 2 * nc / m;
  4029a6:	0068      	lsls	r0, r5, #1
    kk = 0;
    for (j = 2; j < m; j += 2) {
  4029a8:	2f02      	cmp	r7, #2
            rftfsub(n, a, nc, w + nw);
  4029aa:	eb08 0282 	add.w	r2, r8, r2, lsl #2
    ks = 2 * nc / m;
  4029ae:	fb90 f0f7 	sdiv	r0, r0, r7
    for (j = 2; j < m; j += 2) {
  4029b2:	f43f aee7 	beq.w	402784 <aubio_ooura_rdft+0x3c>
  4029b6:	1a2d      	subs	r5, r5, r0
  4029b8:	ebc0 7e80 	rsb	lr, r0, r0, lsl #30
  4029bc:	0080      	lsls	r0, r0, #2
        k = n - j;
        kk += ks;
        wkr = (smpl_t)0.5 - c[nc - kk];
  4029be:	eeb6 4a00 	vmov.f32	s8, #96	; 0x3f000000  0.5
  4029c2:	eb02 0585 	add.w	r5, r2, r5, lsl #2
  4029c6:	4633      	mov	r3, r6
  4029c8:	eb06 0484 	add.w	r4, r6, r4, lsl #2
  4029cc:	4402      	add	r2, r0
  4029ce:	ea4f 0e8e 	mov.w	lr, lr, lsl #2
    for (j = 2; j < m; j += 2) {
  4029d2:	2102      	movs	r1, #2
        wki = c[kk];
        xr = a[j] - a[k];
  4029d4:	ed93 7a02 	vldr	s14, [r3, #8]
    for (j = 2; j < m; j += 2) {
  4029d8:	3102      	adds	r1, #2
        xi = a[j + 1] + a[k + 1];
  4029da:	ed93 6a03 	vldr	s12, [r3, #12]
  4029de:	3c08      	subs	r4, #8
        xr = a[j] - a[k];
  4029e0:	edd4 5a00 	vldr	s11, [r4]
    for (j = 2; j < m; j += 2) {
  4029e4:	428f      	cmp	r7, r1
        xi = a[j + 1] + a[k + 1];
  4029e6:	edd4 4a01 	vldr	s9, [r4, #4]
  4029ea:	f103 0308 	add.w	r3, r3, #8
        xr = a[j] - a[k];
  4029ee:	ee77 5a65 	vsub.f32	s11, s14, s11
        wki = c[kk];
  4029f2:	edd2 7a00 	vldr	s15, [r2]
        xi = a[j + 1] + a[k + 1];
  4029f6:	ee76 4a24 	vadd.f32	s9, s12, s9
        wkr = (smpl_t)0.5 - c[nc - kk];
  4029fa:	ed95 5a00 	vldr	s10, [r5]
  4029fe:	4402      	add	r2, r0
  402a00:	4475      	add	r5, lr
        yr = wkr * xr - wki * xi;
        yi = wkr * xi + wki * xr;
  402a02:	ee67 6aa5 	vmul.f32	s13, s15, s11
        wkr = (smpl_t)0.5 - c[nc - kk];
  402a06:	ee34 5a45 	vsub.f32	s10, s8, s10
        yr = wkr * xr - wki * xi;
  402a0a:	ee64 7ae7 	vnmul.f32	s15, s9, s15
        yi = wkr * xi + wki * xr;
  402a0e:	eee5 6a24 	vfma.f32	s13, s10, s9
        yr = wkr * xr - wki * xi;
  402a12:	eee5 7a25 	vfma.f32	s15, s10, s11
        a[j] -= yr;
        a[j + 1] -= yi;
  402a16:	ee36 6a66 	vsub.f32	s12, s12, s13
        a[j] -= yr;
  402a1a:	ee37 7a67 	vsub.f32	s14, s14, s15
        a[j + 1] -= yi;
  402a1e:	ed83 6a01 	vstr	s12, [r3, #4]
        a[j] -= yr;
  402a22:	ed83 7a00 	vstr	s14, [r3]
        a[k] += yr;
  402a26:	ed94 7a00 	vldr	s14, [r4]
        a[k + 1] -= yi;
  402a2a:	ed94 6a01 	vldr	s12, [r4, #4]
        a[k] += yr;
  402a2e:	ee77 7a27 	vadd.f32	s15, s14, s15
        a[k + 1] -= yi;
  402a32:	ee76 6a66 	vsub.f32	s13, s12, s13
        a[k] += yr;
  402a36:	edc4 7a00 	vstr	s15, [r4]
        a[k + 1] -= yi;
  402a3a:	edc4 6a01 	vstr	s13, [r4, #4]
    for (j = 2; j < m; j += 2) {
  402a3e:	dcc9      	bgt.n	4029d4 <aubio_ooura_rdft+0x28c>
  402a40:	e6a0      	b.n	402784 <aubio_ooura_rdft+0x3c>
    if (nw > 2) {
  402a42:	2304      	movs	r3, #4
  402a44:	e694      	b.n	402770 <aubio_ooura_rdft+0x28>
            cftfsub(n, a, w);
  402a46:	9a00      	ldr	r2, [sp, #0]
  402a48:	4620      	mov	r0, r4
  402a4a:	4631      	mov	r1, r6
  402a4c:	4b03      	ldr	r3, [pc, #12]	; (402a5c <aubio_ooura_rdft+0x314>)
  402a4e:	4798      	blx	r3
  402a50:	e698      	b.n	402784 <aubio_ooura_rdft+0x3c>
  402a52:	bf00      	nop
  402a54:	3f490fdb 	.word	0x3f490fdb
  402a58:	00404b21 	.word	0x00404b21
  402a5c:	004025c1 	.word	0x004025c1
  402a60:	00401679 	.word	0x00401679
  402a64:	00404aa9 	.word	0x00404aa9
{
    int j, k, kk, ks, m;
    smpl_t wkr, wki, xr, xi, yr, yi;
    
    a[1] = -a[1];
    m = n >> 1;
  402a68:	1067      	asrs	r7, r4, #1
    a[1] = -a[1];
  402a6a:	eef1 7a67 	vneg.f32	s15, s15
    ks = 2 * nc / m;
  402a6e:	ea4f 0e45 	mov.w	lr, r5, lsl #1
            rftbsub(n, a, nc, w + nw);
  402a72:	9b00      	ldr	r3, [sp, #0]
  402a74:	9a01      	ldr	r2, [sp, #4]
    kk = 0;
    for (j = 2; j < m; j += 2) {
  402a76:	2f02      	cmp	r7, #2
    a[1] = -a[1];
  402a78:	edc6 7a01 	vstr	s15, [r6, #4]
            rftbsub(n, a, nc, w + nw);
  402a7c:	eb03 0182 	add.w	r1, r3, r2, lsl #2
    ks = 2 * nc / m;
  402a80:	fb9e fef7 	sdiv	lr, lr, r7
    for (j = 2; j < m; j += 2) {
  402a84:	f000 81fc 	beq.w	402e80 <aubio_ooura_rdft+0x738>
  402a88:	eba5 050e 	sub.w	r5, r5, lr
  402a8c:	ebce 7c8e 	rsb	ip, lr, lr, lsl #30
  402a90:	ea4f 0e8e 	mov.w	lr, lr, lsl #2
  402a94:	4632      	mov	r2, r6
  402a96:	eb01 0585 	add.w	r5, r1, r5, lsl #2
  402a9a:	2002      	movs	r0, #2
  402a9c:	ea4f 0c8c 	mov.w	ip, ip, lsl #2
  402aa0:	4471      	add	r1, lr
  402aa2:	eb06 0384 	add.w	r3, r6, r4, lsl #2
        k = n - j;
        kk += ks;
        wkr = (smpl_t)0.5 - c[nc - kk];
        wki = c[kk];
        xr = a[j] - a[k];
  402aa6:	ed92 7a02 	vldr	s14, [r2, #8]
    for (j = 2; j < m; j += 2) {
  402aaa:	3002      	adds	r0, #2
        xi = a[j + 1] + a[k + 1];
  402aac:	ed92 6a03 	vldr	s12, [r2, #12]
  402ab0:	3b08      	subs	r3, #8
        xr = a[j] - a[k];
  402ab2:	edd3 5a00 	vldr	s11, [r3]
    for (j = 2; j < m; j += 2) {
  402ab6:	4287      	cmp	r7, r0
        xi = a[j + 1] + a[k + 1];
  402ab8:	edd3 4a01 	vldr	s9, [r3, #4]
  402abc:	f102 0208 	add.w	r2, r2, #8
        xr = a[j] - a[k];
  402ac0:	ee77 5a65 	vsub.f32	s11, s14, s11
        wki = c[kk];
  402ac4:	edd1 7a00 	vldr	s15, [r1]
        xi = a[j + 1] + a[k + 1];
  402ac8:	ee76 4a24 	vadd.f32	s9, s12, s9
        wkr = (smpl_t)0.5 - c[nc - kk];
  402acc:	ed95 5a00 	vldr	s10, [r5]
  402ad0:	4471      	add	r1, lr
  402ad2:	4465      	add	r5, ip
        yr = wkr * xr + wki * xi;
        yi = wkr * xi - wki * xr;
  402ad4:	ee65 6ae7 	vnmul.f32	s13, s11, s15
        wkr = (smpl_t)0.5 - c[nc - kk];
  402ad8:	ee34 5a45 	vsub.f32	s10, s8, s10
        yr = wkr * xr + wki * xi;
  402adc:	ee67 7aa4 	vmul.f32	s15, s15, s9
        yi = wkr * xi - wki * xr;
  402ae0:	eee5 6a24 	vfma.f32	s13, s10, s9
        yr = wkr * xr + wki * xi;
  402ae4:	eee5 7a25 	vfma.f32	s15, s10, s11
        a[j] -= yr;
        a[j + 1] = yi - a[j + 1];
  402ae8:	ee36 6ac6 	vsub.f32	s12, s13, s12
        a[j] -= yr;
  402aec:	ee37 7a67 	vsub.f32	s14, s14, s15
        a[j + 1] = yi - a[j + 1];
  402af0:	ed82 6a01 	vstr	s12, [r2, #4]
        a[j] -= yr;
  402af4:	ed82 7a00 	vstr	s14, [r2]
        a[k] += yr;
  402af8:	ed93 7a00 	vldr	s14, [r3]
        a[k + 1] = yi - a[k + 1];
  402afc:	ed93 6a01 	vldr	s12, [r3, #4]
        a[k] += yr;
  402b00:	ee77 7a27 	vadd.f32	s15, s14, s15
        a[k + 1] = yi - a[k + 1];
  402b04:	ee76 6ac6 	vsub.f32	s13, s13, s12
        a[k] += yr;
  402b08:	edc3 7a00 	vstr	s15, [r3]
        a[k + 1] = yi - a[k + 1];
  402b0c:	edc3 6a01 	vstr	s13, [r3, #4]
    for (j = 2; j < m; j += 2) {
  402b10:	dcc9      	bgt.n	402aa6 <aubio_ooura_rdft+0x35e>
    }
    a[m + 1] = -a[m + 1];
  402b12:	3701      	adds	r7, #1
            bitrv2(n, ip + 2, a);
  402b14:	f109 0108 	add.w	r1, r9, #8
  402b18:	4632      	mov	r2, r6
  402b1a:	4620      	mov	r0, r4
    a[m + 1] = -a[m + 1];
  402b1c:	eb06 0787 	add.w	r7, r6, r7, lsl #2
            bitrv2(n, ip + 2, a);
  402b20:	4be0      	ldr	r3, [pc, #896]	; (402ea4 <aubio_ooura_rdft+0x75c>)
    a[m + 1] = -a[m + 1];
  402b22:	edd7 7a00 	vldr	s15, [r7]
  402b26:	eef1 7a67 	vneg.f32	s15, s15
  402b2a:	edc7 7a00 	vstr	s15, [r7]
            bitrv2(n, ip + 2, a);
  402b2e:	4798      	blx	r3
    if (n > 16) {
  402b30:	2c10      	cmp	r4, #16
  402b32:	f300 80ec 	bgt.w	402d0e <aubio_ooura_rdft+0x5c6>
  402b36:	2308      	movs	r3, #8
    l = 2;
  402b38:	2702      	movs	r7, #2
    if ((l << 2) < n) {
  402b3a:	429c      	cmp	r4, r3
  402b3c:	f340 8108 	ble.w	402d50 <aubio_ooura_rdft+0x608>
        wn4r = w[2];
  402b40:	9b00      	ldr	r3, [sp, #0]
  402b42:	ed93 2a02 	vldr	s4, [r3, #8]
  402b46:	00bb      	lsls	r3, r7, #2
  402b48:	eb07 0247 	add.w	r2, r7, r7, lsl #1
  402b4c:	18f5      	adds	r5, r6, r3
        while ((l << 3) < n) {
  402b4e:	f04f 0800 	mov.w	r8, #0
  402b52:	f106 0c04 	add.w	ip, r6, #4
  402b56:	18b8      	adds	r0, r7, r2
  402b58:	442b      	add	r3, r5
  402b5a:	eb06 0282 	add.w	r2, r6, r2, lsl #2
  402b5e:	183c      	adds	r4, r7, r0
  402b60:	eb06 0080 	add.w	r0, r6, r0, lsl #2
  402b64:	1939      	adds	r1, r7, r4
  402b66:	f104 0e01 	add.w	lr, r4, #1
  402b6a:	187c      	adds	r4, r7, r1
  402b6c:	eb06 0e8e 	add.w	lr, r6, lr, lsl #2
  402b70:	eb06 0181 	add.w	r1, r6, r1, lsl #2
  402b74:	eb06 0484 	add.w	r4, r6, r4, lsl #2
            x0r = a[j4] + a[j5];
  402b78:	edd0 6a00 	vldr	s13, [r0]
        for (j = 0; j < l; j += 2) {
  402b7c:	f108 0802 	add.w	r8, r8, #2
            x0r = a[j4] + a[j5];
  402b80:	ed1e 7a01 	vldr	s14, [lr, #-4]
  402b84:	3508      	adds	r5, #8
            x2i = a[j6 + 1] + a[j7 + 1];
  402b86:	edd4 7a01 	vldr	s15, [r4, #4]
        for (j = 0; j < l; j += 2) {
  402b8a:	4547      	cmp	r7, r8
            x2r = a[j6] + a[j7];
  402b8c:	edd1 9a00 	vldr	s19, [r1]
            x1r = a[j4] - a[j5];
  402b90:	ee36 5ac7 	vsub.f32	s10, s13, s14
            x2i = a[j6 + 1] + a[j7 + 1];
  402b94:	ed91 3a01 	vldr	s6, [r1, #4]
            x0r = a[j4] + a[j5];
  402b98:	ee76 2a87 	vadd.f32	s5, s13, s14
            x0i = a[j4 + 1] + a[j5 + 1];
  402b9c:	ed90 aa01 	vldr	s20, [r0, #4]
  402ba0:	f102 0208 	add.w	r2, r2, #8
  402ba4:	edde 5a00 	vldr	s11, [lr]
            x3i = a[j6 + 1] - a[j7 + 1];
  402ba8:	ee33 6a67 	vsub.f32	s12, s6, s15
            x2r = a[j6] + a[j7];
  402bac:	edd4 6a00 	vldr	s13, [r4]
            x2i = a[j6 + 1] + a[j7 + 1];
  402bb0:	ee33 3a27 	vadd.f32	s6, s6, s15
            x1i = a[j4 + 1] - a[j5 + 1];
  402bb4:	ee3a 8a65 	vsub.f32	s16, s20, s11
            x0r = a[j] + a[j1];
  402bb8:	ed5c 0a01 	vldr	s1, [ip, #-4]
            x3r = a[j6] - a[j7];
  402bbc:	ee79 7ae6 	vsub.f32	s15, s19, s13
            x0r = a[j] + a[j1];
  402bc0:	ed15 7a02 	vldr	s14, [r5, #-8]
            x0r = x1r - x3i;
  402bc4:	ee35 9a46 	vsub.f32	s18, s10, s12
            x2i = a[j2 + 1] + a[j3 + 1];
  402bc8:	edd3 3a01 	vldr	s7, [r3, #4]
  402bcc:	ed12 4a01 	vldr	s8, [r2, #-4]
            x1r = a[j] - a[j1];
  402bd0:	ee30 0ac7 	vsub.f32	s0, s1, s14
            x0i = x1i + x3r;
  402bd4:	ee78 4a27 	vadd.f32	s9, s16, s15
            x2r = a[j2] + a[j3];
  402bd8:	ed93 1a00 	vldr	s2, [r3]
            x2r = a[j6] + a[j7];
  402bdc:	ee79 6aa6 	vadd.f32	s13, s19, s13
            x2r = a[j2] + a[j3];
  402be0:	ed52 1a02 	vldr	s3, [r2, #-8]
            x2r = x1r + x3i;
  402be4:	ee75 8a06 	vadd.f32	s17, s10, s12
            x0i = -a[j + 1] - a[j1 + 1];
  402be8:	ed96 6a01 	vldr	s12, [r6, #4]
            y5r = wn4r * (x0r - x0i);
  402bec:	ee79 9a64 	vsub.f32	s19, s18, s9
  402bf0:	f104 0408 	add.w	r4, r4, #8
            y5i = wn4r * (x0r + x0i);
  402bf4:	ee39 9a24 	vadd.f32	s18, s18, s9
  402bf8:	f106 0608 	add.w	r6, r6, #8
            x3i = a[j2 + 1] - a[j3 + 1];
  402bfc:	ee73 4ac4 	vsub.f32	s9, s7, s8
  402c00:	f100 0008 	add.w	r0, r0, #8
            x2i = x1i - x3r;
  402c04:	ee38 8a67 	vsub.f32	s16, s16, s15
  402c08:	f10c 0c08 	add.w	ip, ip, #8
            x0i = a[j4 + 1] + a[j5 + 1];
  402c0c:	ee7a 7a25 	vadd.f32	s15, s20, s11
            x0i = -a[j + 1] - a[j1 + 1];
  402c10:	ed55 5a01 	vldr	s11, [r5, #-4]
            x2i = a[j2 + 1] + a[j3 + 1];
  402c14:	ee33 4a84 	vadd.f32	s8, s7, s8
  402c18:	f103 0308 	add.w	r3, r3, #8
            x1i = -a[j + 1] + a[j1 + 1];
  402c1c:	ee35 5ac6 	vsub.f32	s10, s11, s12
  402c20:	f101 0108 	add.w	r1, r1, #8
            x0r = a[j] + a[j1];
  402c24:	ee70 3a87 	vadd.f32	s7, s1, s14
  402c28:	ee36 6a25 	vadd.f32	s12, s12, s11
            y1r = x1r - x3i;
  402c2c:	ee70 0a64 	vsub.f32	s1, s0, s9
            x3r = a[j2] - a[j3];
  402c30:	ee71 5a61 	vsub.f32	s11, s2, s3
            x2r = a[j2] + a[j3];
  402c34:	ee31 7a21 	vadd.f32	s14, s2, s3
            y3r = x1r + x3i;
  402c38:	ee70 4a24 	vadd.f32	s9, s0, s9
            y1i = x1i - x3r;
  402c3c:	ee35 1a65 	vsub.f32	s2, s10, s11
            y7r = wn4r * (x2r - x2i);
  402c40:	ee38 0ac8 	vsub.f32	s0, s17, s16
            y3i = x1i + x3r;
  402c44:	ee75 5a25 	vadd.f32	s11, s10, s11
            y7i = wn4r * (x2r + x2i);
  402c48:	ee38 5a88 	vadd.f32	s10, s17, s16
            a[j1] = y1r + y5r;
  402c4c:	eeb0 8a60 	vmov.f32	s16, s1
  402c50:	ee74 1a06 	vadd.f32	s3, s8, s12
            y2i = x0i + x2i;
  402c54:	ee34 6a46 	vsub.f32	s12, s8, s12
            a[j1] = y1r + y5r;
  402c58:	eea9 8a82 	vfma.f32	s16, s19, s4
            a[j5 + 1] = y1i + y5i;
  402c5c:	eeb0 4a41 	vmov.f32	s8, s2
            a[j5] = y1r - y5r;
  402c60:	eee9 0ac2 	vfms.f32	s1, s19, s4
            a[j3] = y3r - y7i;
  402c64:	eef0 8a64 	vmov.f32	s17, s9
            a[j1 + 1] = y1i - y5i;
  402c68:	eef0 9a41 	vmov.f32	s19, s2
            a[j5 + 1] = y1i + y5i;
  402c6c:	eea9 4a02 	vfma.f32	s8, s18, s4
            a[j1] = y1r + y5r;
  402c70:	ed05 8a02 	vstr	s16, [r5, #-8]
            a[j3 + 1] = y3i - y7r;
  402c74:	eeb0 8a65 	vmov.f32	s16, s11
            a[j7] = y3r + y7i;
  402c78:	eee5 4a02 	vfma.f32	s9, s10, s4
            a[j7 + 1] = y3i + y7r;
  402c7c:	eee0 5a02 	vfma.f32	s11, s0, s4
            a[j3] = y3r - y7i;
  402c80:	eee5 8a42 	vfms.f32	s17, s10, s4
            a[j3 + 1] = y3i - y7r;
  402c84:	eea0 8a42 	vfms.f32	s16, s0, s4
            a[j1 + 1] = y1i - y5i;
  402c88:	eee9 9a42 	vfms.f32	s19, s18, s4
            a[j5 + 1] = y1i + y5i;
  402c8c:	ee14 9a10 	vmov	r9, s8
            y4i = x0i + x2i;
  402c90:	ee37 1a83 	vadd.f32	s2, s15, s6
            y0r = x0r + x2r;
  402c94:	ee33 4a87 	vadd.f32	s8, s7, s14
            y4r = x0r + x2r;
  402c98:	ee32 5aa6 	vadd.f32	s10, s5, s13
            y2r = x0r - x2r;
  402c9c:	ee33 7ac7 	vsub.f32	s14, s7, s14
            y0i = x0i - x2i;
  402ca0:	eeb1 0a61 	vneg.f32	s0, s3
            y6i = x0i - x2i;
  402ca4:	ee77 7ac3 	vsub.f32	s15, s15, s6
            a[j1 + 1] = y1i - y5i;
  402ca8:	ed45 9a01 	vstr	s19, [r5, #-4]
            y6r = x0r - x2r;
  402cac:	ee72 6ae6 	vsub.f32	s13, s5, s13
            a[j5] = y1r - y5r;
  402cb0:	ed4e 0a01 	vstr	s1, [lr, #-4]
            a[j] = y0r + y4r;
  402cb4:	ee74 3a05 	vadd.f32	s7, s8, s10
            a[j5 + 1] = y1i + y5i;
  402cb8:	f84e 9b08 	str.w	r9, [lr], #8
            a[j4 + 1] = y0i + y4i;
  402cbc:	ee71 1a61 	vsub.f32	s3, s2, s3
            a[j3] = y3r - y7i;
  402cc0:	ed42 8a02 	vstr	s17, [r2, #-8]
            a[j3 + 1] = y3i - y7r;
  402cc4:	ed02 8a01 	vstr	s16, [r2, #-4]
            a[j4] = y0r - y4r;
  402cc8:	ee34 5a45 	vsub.f32	s10, s8, s10
            a[j7] = y3r + y7i;
  402ccc:	ed44 4a02 	vstr	s9, [r4, #-8]
            a[j + 1] = y0i - y4i;
  402cd0:	ee70 4a41 	vsub.f32	s9, s0, s2
            a[j7 + 1] = y3i + y7r;
  402cd4:	ed44 5a01 	vstr	s11, [r4, #-4]
            a[j2] = y2r - y6i;
  402cd8:	ee77 5a67 	vsub.f32	s11, s14, s15
            a[j6] = y2r + y6i;
  402cdc:	ee77 7a27 	vadd.f32	s15, s14, s15
            a[j] = y0r + y4r;
  402ce0:	ed4c 3a03 	vstr	s7, [ip, #-12]
            a[j2 + 1] = y2i - y6r;
  402ce4:	ee36 7a66 	vsub.f32	s14, s12, s13
            a[j + 1] = y0i - y4i;
  402ce8:	ed46 4a01 	vstr	s9, [r6, #-4]
            a[j6 + 1] = y2i + y6r;
  402cec:	ee76 6a26 	vadd.f32	s13, s12, s13
            a[j4 + 1] = y0i + y4i;
  402cf0:	ed40 1a01 	vstr	s3, [r0, #-4]
            a[j4] = y0r - y4r;
  402cf4:	ed00 5a02 	vstr	s10, [r0, #-8]
            a[j2] = y2r - y6i;
  402cf8:	ed43 5a02 	vstr	s11, [r3, #-8]
            a[j2 + 1] = y2i - y6r;
  402cfc:	ed03 7a01 	vstr	s14, [r3, #-4]
            a[j6] = y2r + y6i;
  402d00:	ed41 7a02 	vstr	s15, [r1, #-8]
            a[j6 + 1] = y2i + y6r;
  402d04:	ed41 6a01 	vstr	s13, [r1, #-4]
        for (j = 0; j < l; j += 2) {
  402d08:	f73f af36 	bgt.w	402b78 <aubio_ooura_rdft+0x430>
  402d0c:	e546      	b.n	40279c <aubio_ooura_rdft+0x54>
        cft1st(n, a, w);
  402d0e:	f8dd 8000 	ldr.w	r8, [sp]
  402d12:	4631      	mov	r1, r6
  402d14:	4620      	mov	r0, r4
  402d16:	4b64      	ldr	r3, [pc, #400]	; (402ea8 <aubio_ooura_rdft+0x760>)
  402d18:	4642      	mov	r2, r8
  402d1a:	4798      	blx	r3
        while ((l << 3) < n) {
  402d1c:	2c80      	cmp	r4, #128	; 0x80
  402d1e:	f340 80bd 	ble.w	402e9c <aubio_ooura_rdft+0x754>
  402d22:	2780      	movs	r7, #128	; 0x80
  402d24:	2110      	movs	r1, #16
  402d26:	4d61      	ldr	r5, [pc, #388]	; (402eac <aubio_ooura_rdft+0x764>)
  402d28:	e000      	b.n	402d2c <aubio_ooura_rdft+0x5e4>
  402d2a:	4617      	mov	r7, r2
            cftmdl(n, l, a, w);
  402d2c:	4632      	mov	r2, r6
  402d2e:	4643      	mov	r3, r8
  402d30:	4620      	mov	r0, r4
  402d32:	47a8      	blx	r5
  402d34:	4639      	mov	r1, r7
        while ((l << 3) < n) {
  402d36:	00fa      	lsls	r2, r7, #3
  402d38:	4294      	cmp	r4, r2
  402d3a:	dcf6      	bgt.n	402d2a <aubio_ooura_rdft+0x5e2>
    if ((l << 2) < n) {
  402d3c:	00bb      	lsls	r3, r7, #2
  402d3e:	429c      	cmp	r4, r3
  402d40:	dd3a      	ble.n	402db8 <aubio_ooura_rdft+0x670>
        for (j = 0; j < l; j += 2) {
  402d42:	2f00      	cmp	r7, #0
  402d44:	f77f ad2a 	ble.w	40279c <aubio_ooura_rdft+0x54>
        wn4r = w[2];
  402d48:	9a00      	ldr	r2, [sp, #0]
  402d4a:	ed92 2a02 	vldr	s4, [r2, #8]
  402d4e:	e6fb      	b.n	402b48 <aubio_ooura_rdft+0x400>
    } else if ((l << 2) == n) {
  402d50:	f000 8093 	beq.w	402e7a <aubio_ooura_rdft+0x732>
        for (j = 0; j < l; j += 2) {
  402d54:	2f00      	cmp	r7, #0
  402d56:	f77f ad21 	ble.w	40279c <aubio_ooura_rdft+0x54>
  402d5a:	1e78      	subs	r0, r7, #1
  402d5c:	00bb      	lsls	r3, r7, #2
  402d5e:	1d32      	adds	r2, r6, #4
  402d60:	0840      	lsrs	r0, r0, #1
  402d62:	1d19      	adds	r1, r3, #4
  402d64:	4433      	add	r3, r6
  402d66:	eb06 00c0 	add.w	r0, r6, r0, lsl #3
  402d6a:	4431      	add	r1, r6
  402d6c:	300c      	adds	r0, #12
            x0r = a[j] - a[j1];
  402d6e:	ed12 7a01 	vldr	s14, [r2, #-4]
  402d72:	3208      	adds	r2, #8
  402d74:	ed51 7a01 	vldr	s15, [r1, #-4]
  402d78:	3608      	adds	r6, #8
            x0i = -a[j + 1] + a[j1 + 1];
  402d7a:	ed56 6a01 	vldr	s13, [r6, #-4]
  402d7e:	3108      	adds	r1, #8
            a[j] += a[j1];
  402d80:	ee77 5a27 	vadd.f32	s11, s14, s15
            x0i = -a[j + 1] + a[j1 + 1];
  402d84:	ed93 6a01 	vldr	s12, [r3, #4]
            x0r = a[j] - a[j1];
  402d88:	ee77 7a67 	vsub.f32	s15, s14, s15
  402d8c:	3308      	adds	r3, #8
            x0i = -a[j + 1] + a[j1 + 1];
  402d8e:	ee36 6a66 	vsub.f32	s12, s12, s13
            a[j] += a[j1];
  402d92:	ed42 5a03 	vstr	s11, [r2, #-12]
        for (j = 0; j < l; j += 2) {
  402d96:	4290      	cmp	r0, r2
            a[j + 1] = -a[j + 1] - a[j1 + 1];
  402d98:	ed56 6a01 	vldr	s13, [r6, #-4]
  402d9c:	ed13 7a01 	vldr	s14, [r3, #-4]
  402da0:	ee36 7a87 	vadd.f32	s14, s13, s14
  402da4:	eeb1 7a47 	vneg.f32	s14, s14
  402da8:	ed06 7a01 	vstr	s14, [r6, #-4]
            a[j1] = x0r;
  402dac:	ed41 7a03 	vstr	s15, [r1, #-12]
            a[j1 + 1] = x0i;
  402db0:	ed03 6a01 	vstr	s12, [r3, #-4]
        for (j = 0; j < l; j += 2) {
  402db4:	d1db      	bne.n	402d6e <aubio_ooura_rdft+0x626>
  402db6:	e4f1      	b.n	40279c <aubio_ooura_rdft+0x54>
    } else if ((l << 2) == n) {
  402db8:	d1cc      	bne.n	402d54 <aubio_ooura_rdft+0x60c>
        for (j = 0; j < l; j += 2) {
  402dba:	2f00      	cmp	r7, #0
  402dbc:	f77f acee 	ble.w	40279c <aubio_ooura_rdft+0x54>
  402dc0:	1e78      	subs	r0, r7, #1
  402dc2:	1d1c      	adds	r4, r3, #4
  402dc4:	eb07 0747 	add.w	r7, r7, r7, lsl #1
  402dc8:	3204      	adds	r2, #4
  402dca:	0840      	lsrs	r0, r0, #1
  402dcc:	18f5      	adds	r5, r6, r3
  402dce:	eb06 0187 	add.w	r1, r6, r7, lsl #2
  402dd2:	4432      	add	r2, r6
  402dd4:	eb06 00c0 	add.w	r0, r6, r0, lsl #3
  402dd8:	442b      	add	r3, r5
  402dda:	4434      	add	r4, r6
  402ddc:	f100 070c 	add.w	r7, r0, #12
  402de0:	1d30      	adds	r0, r6, #4
            x0i = -a[j + 1] - a[j1 + 1];
  402de2:	edd6 7a01 	vldr	s15, [r6, #4]
  402de6:	3008      	adds	r0, #8
            x2i = a[j2 + 1] + a[j3 + 1];
  402de8:	edd3 4a01 	vldr	s9, [r3, #4]
  402dec:	3608      	adds	r6, #8
            x0i = -a[j + 1] - a[j1 + 1];
  402dee:	ed95 7a01 	vldr	s14, [r5, #4]
  402df2:	3308      	adds	r3, #8
            x2i = a[j2 + 1] + a[j3 + 1];
  402df4:	ed91 6a01 	vldr	s12, [r1, #4]
  402df8:	3208      	adds	r2, #8
            x0r = a[j] + a[j1];
  402dfa:	ed10 5a03 	vldr	s10, [r0, #-12]
  402dfe:	ee37 4a87 	vadd.f32	s8, s15, s14
            x2r = a[j2] + a[j3];
  402e02:	ed52 6a03 	vldr	s13, [r2, #-12]
            x2i = a[j2 + 1] + a[j3 + 1];
  402e06:	ee74 3a86 	vadd.f32	s7, s9, s12
            x0r = a[j] + a[j1];
  402e0a:	ed54 5a01 	vldr	s11, [r4, #-4]
            x1i = -a[j + 1] + a[j1 + 1];
  402e0e:	ee37 7a67 	vsub.f32	s14, s14, s15
            x2r = a[j2] + a[j3];
  402e12:	edd1 7a00 	vldr	s15, [r1]
            x3i = a[j2 + 1] - a[j3 + 1];
  402e16:	ee34 6ac6 	vsub.f32	s12, s9, s12
            x0r = a[j] + a[j1];
  402e1a:	ee35 3a25 	vadd.f32	s6, s10, s11
  402e1e:	3408      	adds	r4, #8
            x2r = a[j2] + a[j3];
  402e20:	ee76 4aa7 	vadd.f32	s9, s13, s15
  402e24:	3508      	adds	r5, #8
            a[j + 1] = x0i - x2i;
  402e26:	ee74 2a23 	vadd.f32	s5, s8, s7
  402e2a:	3108      	adds	r1, #8
            x1r = a[j] - a[j1];
  402e2c:	ee75 5a65 	vsub.f32	s11, s10, s11
            a[j] = x0r + x2r;
  402e30:	ee33 5a24 	vadd.f32	s10, s6, s9
            x3r = a[j2] - a[j3];
  402e34:	ee76 7ae7 	vsub.f32	s15, s13, s15
            a[j + 1] = x0i - x2i;
  402e38:	eef1 6a62 	vneg.f32	s13, s5
            a[j] = x0r + x2r;
  402e3c:	ed00 5a03 	vstr	s10, [r0, #-12]
            a[j2 + 1] = x0i + x2i;
  402e40:	ee33 4ac4 	vsub.f32	s8, s7, s8
            a[j1] = x1r - x3i;
  402e44:	ee35 5ac6 	vsub.f32	s10, s11, s12
        for (j = 0; j < l; j += 2) {
  402e48:	4287      	cmp	r7, r0
            a[j + 1] = x0i - x2i;
  402e4a:	ed46 6a01 	vstr	s13, [r6, #-4]
            a[j2] = x0r - x2r;
  402e4e:	ee73 4a64 	vsub.f32	s9, s6, s9
            a[j1 + 1] = x1i - x3r;
  402e52:	ee77 6a67 	vsub.f32	s13, s14, s15
            a[j3] = x1r + x3i;
  402e56:	ee35 6a86 	vadd.f32	s12, s11, s12
            a[j3 + 1] = x1i + x3r;
  402e5a:	ee77 7a27 	vadd.f32	s15, s14, s15
            a[j2] = x0r - x2r;
  402e5e:	ed42 4a03 	vstr	s9, [r2, #-12]
            a[j2 + 1] = x0i + x2i;
  402e62:	ed03 4a01 	vstr	s8, [r3, #-4]
            a[j1] = x1r - x3i;
  402e66:	ed04 5a03 	vstr	s10, [r4, #-12]
            a[j1 + 1] = x1i - x3r;
  402e6a:	ed45 6a01 	vstr	s13, [r5, #-4]
            a[j3] = x1r + x3i;
  402e6e:	ed01 6a02 	vstr	s12, [r1, #-8]
            a[j3 + 1] = x1i + x3r;
  402e72:	ed41 7a01 	vstr	s15, [r1, #-4]
        for (j = 0; j < l; j += 2) {
  402e76:	d1b4      	bne.n	402de2 <aubio_ooura_rdft+0x69a>
  402e78:	e490      	b.n	40279c <aubio_ooura_rdft+0x54>
  402e7a:	00fa      	lsls	r2, r7, #3
  402e7c:	00bb      	lsls	r3, r7, #2
  402e7e:	e79f      	b.n	402dc0 <aubio_ooura_rdft+0x678>
    a[m + 1] = -a[m + 1];
  402e80:	edd6 7a03 	vldr	s15, [r6, #12]
            bitrv2(n, ip + 2, a);
  402e84:	f109 0108 	add.w	r1, r9, #8
  402e88:	4b06      	ldr	r3, [pc, #24]	; (402ea4 <aubio_ooura_rdft+0x75c>)
  402e8a:	4632      	mov	r2, r6
    a[m + 1] = -a[m + 1];
  402e8c:	eef1 7a67 	vneg.f32	s15, s15
            bitrv2(n, ip + 2, a);
  402e90:	4620      	mov	r0, r4
    a[m + 1] = -a[m + 1];
  402e92:	edc6 7a03 	vstr	s15, [r6, #12]
            bitrv2(n, ip + 2, a);
  402e96:	4798      	blx	r3
  402e98:	2308      	movs	r3, #8
  402e9a:	e64e      	b.n	402b3a <aubio_ooura_rdft+0x3f2>
        while ((l << 3) < n) {
  402e9c:	2340      	movs	r3, #64	; 0x40
        l = 16;
  402e9e:	2710      	movs	r7, #16
  402ea0:	e64b      	b.n	402b3a <aubio_ooura_rdft+0x3f2>
  402ea2:	bf00      	nop
  402ea4:	00401679 	.word	0x00401679
  402ea8:	004018c5 	.word	0x004018c5
  402eac:	00401e85 	.word	0x00401e85

00402eb0 <new_aubio_pitchyinfast>:
	fvec_t *kernel_fft;
	aubio_fft_t *fft;
};

aubio_pitchyinfast_t * new_aubio_pitchyinfast (uint_t bufsize)
{
  402eb0:	b5f8      	push	{r3, r4, r5, r6, r7, lr}
	aubio_pitchyinfast_t *o = AUBIO_NEW (aubio_pitchyinfast_t);
  402eb2:	2101      	movs	r1, #1
{
  402eb4:	4605      	mov	r5, r0
	aubio_pitchyinfast_t *o = AUBIO_NEW (aubio_pitchyinfast_t);
  402eb6:	4b11      	ldr	r3, [pc, #68]	; (402efc <new_aubio_pitchyinfast+0x4c>)
  402eb8:	2024      	movs	r0, #36	; 0x24
	o->yin = new_fvec (bufsize / 2);
  402eba:	fa25 f701 	lsr.w	r7, r5, r1
	aubio_pitchyinfast_t *o = AUBIO_NEW (aubio_pitchyinfast_t);
  402ebe:	4798      	blx	r3
  402ec0:	4604      	mov	r4, r0
	o->yin = new_fvec (bufsize / 2);
  402ec2:	4e0f      	ldr	r6, [pc, #60]	; (402f00 <new_aubio_pitchyinfast+0x50>)
  402ec4:	4638      	mov	r0, r7
  402ec6:	47b0      	blx	r6
  402ec8:	6020      	str	r0, [r4, #0]
	o->tmpdata = new_fvec (bufsize);
  402eca:	4628      	mov	r0, r5
  402ecc:	47b0      	blx	r6
  402ece:	60e0      	str	r0, [r4, #12]
	o->sqdiff = new_fvec (bufsize / 2);
  402ed0:	4638      	mov	r0, r7
  402ed2:	47b0      	blx	r6
  402ed4:	6120      	str	r0, [r4, #16]
	o->kernel = new_fvec (bufsize);
  402ed6:	4628      	mov	r0, r5
  402ed8:	47b0      	blx	r6
  402eda:	6160      	str	r0, [r4, #20]
	o->samples_fft = new_fvec (bufsize);
  402edc:	4628      	mov	r0, r5
  402ede:	47b0      	blx	r6
  402ee0:	61a0      	str	r0, [r4, #24]
	o->kernel_fft = new_fvec (bufsize);
  402ee2:	4628      	mov	r0, r5
  402ee4:	47b0      	blx	r6
	o->fft = new_aubio_fft (bufsize);
  402ee6:	4b07      	ldr	r3, [pc, #28]	; (402f04 <new_aubio_pitchyinfast+0x54>)
	o->kernel_fft = new_fvec (bufsize);
  402ee8:	61e0      	str	r0, [r4, #28]
	o->fft = new_aubio_fft (bufsize);
  402eea:	4628      	mov	r0, r5
  402eec:	4798      	blx	r3
	o->tol = 0.05; // changed from 0.15
  402eee:	4a06      	ldr	r2, [pc, #24]	; (402f08 <new_aubio_pitchyinfast+0x58>)
	o->peak_pos = 0;
  402ef0:	2300      	movs	r3, #0
	o->fft = new_aubio_fft (bufsize);
  402ef2:	6220      	str	r0, [r4, #32]
	o->tol = 0.05; // changed from 0.15
  402ef4:	6062      	str	r2, [r4, #4]
	return o;
}
  402ef6:	4620      	mov	r0, r4
	o->peak_pos = 0;
  402ef8:	60a3      	str	r3, [r4, #8]
}
  402efa:	bdf8      	pop	{r3, r4, r5, r6, r7, pc}
  402efc:	004068d1 	.word	0x004068d1
  402f00:	00401445 	.word	0x00401445
  402f04:	00401225 	.word	0x00401225
  402f08:	3d4ccccd 	.word	0x3d4ccccd

00402f0c <del_aubio_pitchyinfast>:

void del_aubio_pitchyinfast (aubio_pitchyinfast_t * o)
{
  402f0c:	b570      	push	{r4, r5, r6, lr}
  402f0e:	4604      	mov	r4, r0
	del_fvec (o->yin);
  402f10:	4d0a      	ldr	r5, [pc, #40]	; (402f3c <del_aubio_pitchyinfast+0x30>)
  402f12:	6800      	ldr	r0, [r0, #0]
  402f14:	47a8      	blx	r5
	del_fvec (o->tmpdata);
  402f16:	68e0      	ldr	r0, [r4, #12]
  402f18:	47a8      	blx	r5
	del_fvec (o->sqdiff);
  402f1a:	6920      	ldr	r0, [r4, #16]
  402f1c:	47a8      	blx	r5
	del_fvec (o->kernel);
  402f1e:	6960      	ldr	r0, [r4, #20]
  402f20:	47a8      	blx	r5
	del_fvec (o->samples_fft);
  402f22:	69a0      	ldr	r0, [r4, #24]
  402f24:	47a8      	blx	r5
	del_fvec (o->kernel_fft);
  402f26:	69e0      	ldr	r0, [r4, #28]
  402f28:	47a8      	blx	r5
	del_aubio_fft (o->fft);
  402f2a:	6a20      	ldr	r0, [r4, #32]
  402f2c:	4b04      	ldr	r3, [pc, #16]	; (402f40 <del_aubio_pitchyinfast+0x34>)
  402f2e:	4798      	blx	r3
	AUBIO_FREE (o);
  402f30:	4620      	mov	r0, r4
  402f32:	4b04      	ldr	r3, [pc, #16]	; (402f44 <del_aubio_pitchyinfast+0x38>)
}
  402f34:	e8bd 4070 	ldmia.w	sp!, {r4, r5, r6, lr}
	AUBIO_FREE (o);
  402f38:	4718      	bx	r3
  402f3a:	bf00      	nop
  402f3c:	0040146d 	.word	0x0040146d
  402f40:	004012ad 	.word	0x004012ad
  402f44:	004069c9 	.word	0x004069c9

00402f48 <aubio_pitchyinfast_do>:

float32_t aubio_pitchyinfast_do (aubio_pitchyinfast_t * o, fvec_t * input)
{
  402f48:	e92d 4ff0 	stmdb	sp!, {r4, r5, r6, r7, r8, r9, sl, fp, lr}
  402f4c:	4604      	mov	r4, r0
  // compute r_t(0) + r_t + tau(0)
  // actually computing r_t(0) -> constant on line 109
  // r_t+tau(0) -> zero lag term done in the for loop for every tau
  {
    fvec_t *squares = o->tmpdata;
    fvec_weighted_copy(input, input, squares);
  402f4e:	4bc2      	ldr	r3, [pc, #776]	; (403258 <aubio_pitchyinfast_do+0x310>)
{
  402f50:	4689      	mov	r9, r1
  402f52:	ed2d 8b04 	vpush	{d8-d9}
	uint_t B = o->tmpdata->length;
  402f56:	f8d0 800c 	ldr.w	r8, [r0, #12]
{
  402f5a:	b087      	sub	sp, #28
	fvec_t* yin = o->yin;
  402f5c:	6826      	ldr	r6, [r4, #0]
    fvec_weighted_copy(input, input, squares);
  402f5e:	4608      	mov	r0, r1
	uint_t B = o->tmpdata->length;
  402f60:	f8d8 5000 	ldr.w	r5, [r8]
    fvec_weighted_copy(input, input, squares);
  402f64:	4642      	mov	r2, r8
	const uint_t length = yin->length;
  402f66:	f8d6 a000 	ldr.w	sl, [r6]
    tmp_slice.data = squares->data;
    tmp_slice.length = W;
  402f6a:	af06      	add	r7, sp, #24
	uint_t B = o->tmpdata->length;
  402f6c:	9501      	str	r5, [sp, #4]
	const smpl_t tol = o->tol;
  402f6e:	edd4 8a01 	vldr	s17, [r4, #4]
    fvec_weighted_copy(input, input, squares);
  402f72:	4798      	blx	r3
    o->sqdiff->data[0] = fvec_sum(&tmp_slice);
  402f74:	6923      	ldr	r3, [r4, #16]
    tmp_slice.data = squares->data;
  402f76:	f8d8 2004 	ldr.w	r2, [r8, #4]
    tmp_slice.length = W;
  402f7a:	f847 ad10 	str.w	sl, [r7, #-16]!
    o->sqdiff->data[0] = fvec_sum(&tmp_slice);
  402f7e:	4638      	mov	r0, r7
    tmp_slice.data = squares->data;
  402f80:	9203      	str	r2, [sp, #12]
    o->sqdiff->data[0] = fvec_sum(&tmp_slice);
  402f82:	685d      	ldr	r5, [r3, #4]
  402f84:	4bb5      	ldr	r3, [pc, #724]	; (40325c <aubio_pitchyinfast_do+0x314>)
  402f86:	4798      	blx	r3
    for (tau = 1; tau < W; tau++) 
  402f88:	f1ba 0f01 	cmp.w	sl, #1
    o->sqdiff->data[0] = fvec_sum(&tmp_slice);
  402f8c:	6028      	str	r0, [r5, #0]
  402f8e:	ea4f 058a 	mov.w	r5, sl, lsl #2
    for (tau = 1; tau < W; tau++) 
  402f92:	d92e      	bls.n	402ff2 <aubio_pitchyinfast_do+0xaa>
  402f94:	2000      	movs	r0, #0
  402f96:	f04f 0e01 	mov.w	lr, #1
	{
		o->sqdiff->data[tau] = o->sqdiff->data[tau-1];
  402f9a:	6923      	ldr	r3, [r4, #16]
  402f9c:	ea4f 028e 	mov.w	r2, lr, lsl #2
    for (tau = 1; tau < W; tau++) 
  402fa0:	f10e 0e01 	add.w	lr, lr, #1
		o->sqdiff->data[tau] = o->sqdiff->data[tau-1];
  402fa4:	685b      	ldr	r3, [r3, #4]
    for (tau = 1; tau < W; tau++) 
  402fa6:	45f2      	cmp	sl, lr
		o->sqdiff->data[tau] = o->sqdiff->data[tau-1];
  402fa8:	eb03 0100 	add.w	r1, r3, r0
  402fac:	4413      	add	r3, r2
  402fae:	6809      	ldr	r1, [r1, #0]
  402fb0:	6019      	str	r1, [r3, #0]
		o->sqdiff->data[tau] -= squares->data[tau-1];
  402fb2:	6921      	ldr	r1, [r4, #16]
  402fb4:	f8d8 3004 	ldr.w	r3, [r8, #4]
  402fb8:	6849      	ldr	r1, [r1, #4]
  402fba:	4403      	add	r3, r0
  402fbc:	4411      	add	r1, r2
  402fbe:	edd3 7a00 	vldr	s15, [r3]
  402fc2:	ed91 7a00 	vldr	s14, [r1]
  402fc6:	ee77 7a67 	vsub.f32	s15, s14, s15
  402fca:	edc1 7a00 	vstr	s15, [r1]
		o->sqdiff->data[tau] += squares->data[W+tau-1];
  402fce:	6921      	ldr	r1, [r4, #16]
  402fd0:	f8d8 3004 	ldr.w	r3, [r8, #4]
  402fd4:	6849      	ldr	r1, [r1, #4]
  402fd6:	442b      	add	r3, r5
  402fd8:	440a      	add	r2, r1
  402fda:	4403      	add	r3, r0
  402fdc:	f100 0004 	add.w	r0, r0, #4
  402fe0:	ed92 7a00 	vldr	s14, [r2]
  402fe4:	edd3 7a00 	vldr	s15, [r3]
  402fe8:	ee77 7a27 	vadd.f32	s15, s14, s15
  402fec:	edc2 7a00 	vstr	s15, [r2]
    for (tau = 1; tau < W; tau++) 
  402ff0:	d1d3      	bne.n	402f9a <aubio_pitchyinfast_do+0x52>
    }
    fvec_add(o->sqdiff, o->sqdiff->data[0]);
  402ff2:	6920      	ldr	r0, [r4, #16]
    aubio_fft_do_complex(o->fft, input, o->samples_fft);
    // build kernel, take a copy of first half of samples
    tmp_slice.data = input->data;
    tmp_slice.length = W;
    kernel_ptr.data = o->kernel->data + 1;
    kernel_ptr.length = W;
  402ff4:	f10d 0b18 	add.w	fp, sp, #24
    fvec_add(o->sqdiff, o->sqdiff->data[0]);
  402ff8:	4a99      	ldr	r2, [pc, #612]	; (403260 <aubio_pitchyinfast_do+0x318>)
  402ffa:	6841      	ldr	r1, [r0, #4]
  402ffc:	6809      	ldr	r1, [r1, #0]
  402ffe:	4790      	blx	r2
    fvec_t *rt_of_tau = o->samples_fft;
  403000:	69a3      	ldr	r3, [r4, #24]
    aubio_fft_do_complex(o->fft, input, o->samples_fft);
  403002:	4649      	mov	r1, r9
  403004:	6a20      	ldr	r0, [r4, #32]
  403006:	461a      	mov	r2, r3
    fvec_t *rt_of_tau = o->samples_fft;
  403008:	9300      	str	r3, [sp, #0]
    aubio_fft_do_complex(o->fft, input, o->samples_fft);
  40300a:	4b96      	ldr	r3, [pc, #600]	; (403264 <aubio_pitchyinfast_do+0x31c>)
    fvec_t *compmul = o->tmpdata;
  40300c:	f8d4 800c 	ldr.w	r8, [r4, #12]
    aubio_fft_do_complex(o->fft, input, o->samples_fft);
  403010:	4798      	blx	r3
    tmp_slice.data = input->data;
  403012:	f8d9 1004 	ldr.w	r1, [r9, #4]
    fvec_copy(&tmp_slice, &kernel_ptr);
  403016:	4638      	mov	r0, r7
    kernel_ptr.data = o->kernel->data + 1;
  403018:	6962      	ldr	r2, [r4, #20]
    tmp_slice.data = input->data;
  40301a:	9103      	str	r1, [sp, #12]
    kernel_ptr.data = o->kernel->data + 1;
  40301c:	6857      	ldr	r7, [r2, #4]
    kernel_ptr.length = W;
  40301e:	f84b ad08 	str.w	sl, [fp, #-8]!
    fvec_copy(&tmp_slice, &kernel_ptr);
  403022:	4659      	mov	r1, fp
    kernel_ptr.data = o->kernel->data + 1;
  403024:	3704      	adds	r7, #4
    fvec_copy(&tmp_slice, &kernel_ptr);
  403026:	4a90      	ldr	r2, [pc, #576]	; (403268 <aubio_pitchyinfast_do+0x320>)
    tmp_slice.length = W;
  403028:	f8cd a008 	str.w	sl, [sp, #8]
    kernel_ptr.data = o->kernel->data + 1;
  40302c:	9705      	str	r7, [sp, #20]
    fvec_copy(&tmp_slice, &kernel_ptr);
  40302e:	4790      	blx	r2
    // reverse them
    fvec_rev(&kernel_ptr);
  403030:	4658      	mov	r0, fp
  403032:	4b8e      	ldr	r3, [pc, #568]	; (40326c <aubio_pitchyinfast_do+0x324>)
  403034:	4798      	blx	r3
    // compute fft(kernel)
    aubio_fft_do_complex(o->fft, o->kernel, o->kernel_fft);
  403036:	69e2      	ldr	r2, [r4, #28]
  403038:	4b8a      	ldr	r3, [pc, #552]	; (403264 <aubio_pitchyinfast_do+0x31c>)
  40303a:	6961      	ldr	r1, [r4, #20]
  40303c:	6a20      	ldr	r0, [r4, #32]
  40303e:	4798      	blx	r3
    // compute complex product
    compmul->data[0] = o->kernel_fft->data[0] * o->samples_fft->data[0];
  403040:	69e2      	ldr	r2, [r4, #28]
  403042:	69a3      	ldr	r3, [r4, #24]
    for (tau = 1; tau < W; tau++) 
  403044:	f1ba 0f01 	cmp.w	sl, #1
    compmul->data[0] = o->kernel_fft->data[0] * o->samples_fft->data[0];
  403048:	6852      	ldr	r2, [r2, #4]
  40304a:	685b      	ldr	r3, [r3, #4]
  40304c:	edd2 7a00 	vldr	s15, [r2]
  403050:	ed93 7a00 	vldr	s14, [r3]
  403054:	f8d8 3004 	ldr.w	r3, [r8, #4]
  403058:	ee67 7a87 	vmul.f32	s15, s15, s14
  40305c:	edc3 7a00 	vstr	s15, [r3]
    for (tau = 1; tau < W; tau++) 
  403060:	f240 8116 	bls.w	403290 <aubio_pitchyinfast_do+0x348>
  403064:	f06f 4140 	mvn.w	r1, #3221225472	; 0xc0000000
  403068:	9b01      	ldr	r3, [sp, #4]
  40306a:	f04f 0e01 	mov.w	lr, #1
  40306e:	4637      	mov	r7, r6
  403070:	440b      	add	r3, r1
  403072:	0099      	lsls	r1, r3, #2
  403074:	468c      	mov	ip, r1
	{
		compmul->data[tau] = o->kernel_fft->data[tau] * o->samples_fft->data[tau];
  403076:	69e0      	ldr	r0, [r4, #28]
  403078:	ea4f 028e 	mov.w	r2, lr, lsl #2
  40307c:	69a3      	ldr	r3, [r4, #24]
    for (tau = 1; tau < W; tau++) 
  40307e:	f10e 0e01 	add.w	lr, lr, #1
		compmul->data[tau] = o->kernel_fft->data[tau] * o->samples_fft->data[tau];
  403082:	6846      	ldr	r6, [r0, #4]
  403084:	6858      	ldr	r0, [r3, #4]
    for (tau = 1; tau < W; tau++) 
  403086:	45f2      	cmp	sl, lr
		compmul->data[tau] = o->kernel_fft->data[tau] * o->samples_fft->data[tau];
  403088:	4416      	add	r6, r2
  40308a:	f8d8 3004 	ldr.w	r3, [r8, #4]
  40308e:	4410      	add	r0, r2
  403090:	ed96 7a00 	vldr	s14, [r6]
  403094:	4413      	add	r3, r2
  403096:	edd0 7a00 	vldr	s15, [r0]
  40309a:	ee67 7a27 	vmul.f32	s15, s14, s15
  40309e:	edc3 7a00 	vstr	s15, [r3]
		compmul->data[tau] -= o->kernel_fft->data[B-tau] * o->samples_fft->data[B-tau];
  4030a2:	69e6      	ldr	r6, [r4, #28]
  4030a4:	69a0      	ldr	r0, [r4, #24]
  4030a6:	f8d8 3004 	ldr.w	r3, [r8, #4]
  4030aa:	6876      	ldr	r6, [r6, #4]
  4030ac:	6840      	ldr	r0, [r0, #4]
  4030ae:	4413      	add	r3, r2
  4030b0:	4466      	add	r6, ip
  4030b2:	eb00 020c 	add.w	r2, r0, ip
  4030b6:	edd3 7a00 	vldr	s15, [r3]
  4030ba:	edd6 6a00 	vldr	s13, [r6]
  4030be:	f1ac 0c04 	sub.w	ip, ip, #4
  4030c2:	ed92 7a00 	vldr	s14, [r2]
  4030c6:	eee6 7ac7 	vfms.f32	s15, s13, s14
  4030ca:	edc3 7a00 	vstr	s15, [r3]
    for (tau = 1; tau < W; tau++) 
  4030ce:	d1d2      	bne.n	403076 <aubio_pitchyinfast_do+0x12e>
    }
    compmul->data[W] = o->kernel_fft->data[W] * o->samples_fft->data[W];
  4030d0:	69e2      	ldr	r2, [r4, #28]
  4030d2:	2001      	movs	r0, #1
  4030d4:	69a3      	ldr	r3, [r4, #24]
  4030d6:	6852      	ldr	r2, [r2, #4]
  4030d8:	685b      	ldr	r3, [r3, #4]
  4030da:	442a      	add	r2, r5
  4030dc:	442b      	add	r3, r5
  4030de:	edd2 7a00 	vldr	s15, [r2]
  4030e2:	ed93 7a00 	vldr	s14, [r3]
  4030e6:	f8d8 3004 	ldr.w	r3, [r8, #4]
  4030ea:	ee67 7a87 	vmul.f32	s15, s15, s14
  4030ee:	442b      	add	r3, r5
  4030f0:	edc3 7a00 	vstr	s15, [r3]
    for (tau = 1; tau < W; tau++) 
	{
		compmul->data[B-tau] = o->kernel_fft->data[B-tau] * o->samples_fft->data[tau];
  4030f4:	69e6      	ldr	r6, [r4, #28]
  4030f6:	0082      	lsls	r2, r0, #2
    for (tau = 1; tau < W; tau++) 
  4030f8:	3001      	adds	r0, #1
		compmul->data[B-tau] = o->kernel_fft->data[B-tau] * o->samples_fft->data[tau];
  4030fa:	6873      	ldr	r3, [r6, #4]
  4030fc:	69a6      	ldr	r6, [r4, #24]
    for (tau = 1; tau < W; tau++) 
  4030fe:	4586      	cmp	lr, r0
		compmul->data[B-tau] = o->kernel_fft->data[B-tau] * o->samples_fft->data[tau];
  403100:	eb03 0c01 	add.w	ip, r3, r1
  403104:	f8d8 3004 	ldr.w	r3, [r8, #4]
  403108:	6876      	ldr	r6, [r6, #4]
  40310a:	ed9c 7a00 	vldr	s14, [ip]
  40310e:	440b      	add	r3, r1
  403110:	4416      	add	r6, r2
  403112:	edd6 7a00 	vldr	s15, [r6]
  403116:	ee67 7a27 	vmul.f32	s15, s14, s15
  40311a:	edc3 7a00 	vstr	s15, [r3]
		compmul->data[B-tau] += o->kernel_fft->data[tau] * o->samples_fft->data[B-tau];
  40311e:	69e6      	ldr	r6, [r4, #28]
  403120:	6873      	ldr	r3, [r6, #4]
  403122:	69a6      	ldr	r6, [r4, #24]
  403124:	441a      	add	r2, r3
  403126:	f8d8 3004 	ldr.w	r3, [r8, #4]
  40312a:	6876      	ldr	r6, [r6, #4]
  40312c:	440b      	add	r3, r1
  40312e:	edd2 6a00 	vldr	s13, [r2]
  403132:	440e      	add	r6, r1
  403134:	f1a1 0104 	sub.w	r1, r1, #4
  403138:	edd3 7a00 	vldr	s15, [r3]
  40313c:	ed96 7a00 	vldr	s14, [r6]
  403140:	eee6 7a87 	vfma.f32	s15, s13, s14
  403144:	edc3 7a00 	vstr	s15, [r3]
    for (tau = 1; tau < W; tau++) 
  403148:	d1d4      	bne.n	4030f4 <aubio_pitchyinfast_do+0x1ac>
    }
    // compute inverse fft
    aubio_fft_rdo_complex(o->fft, compmul, rt_of_tau);
  40314a:	4641      	mov	r1, r8
  40314c:	9a00      	ldr	r2, [sp, #0]
  40314e:	6a20      	ldr	r0, [r4, #32]
  403150:	463e      	mov	r6, r7
  403152:	4b47      	ldr	r3, [pc, #284]	; (403270 <aubio_pitchyinfast_do+0x328>)
  403154:	4798      	blx	r3
    compmul->data[W] = o->kernel_fft->data[W] * o->samples_fft->data[W];
  403156:	2700      	movs	r7, #0
  403158:	f8dd 9000 	ldr.w	r9, [sp]
  40315c:	f8cd a004 	str.w	sl, [sp, #4]
  403160:	9400      	str	r4, [sp, #0]
    // compute square difference r_t(tau) = sqdiff - 2 * r_t_tau[W-1:-1]
    for (tau = 0; tau < W; tau++) 
	{
		yin->data[tau] = o->sqdiff->data[tau] - 2. * rt_of_tau->data[tau+W];
  403162:	9b00      	ldr	r3, [sp, #0]
  403164:	00ba      	lsls	r2, r7, #2
  403166:	6871      	ldr	r1, [r6, #4]
    for (tau = 0; tau < W; tau++) 
  403168:	3701      	adds	r7, #1
		yin->data[tau] = o->sqdiff->data[tau] - 2. * rt_of_tau->data[tau+W];
  40316a:	691b      	ldr	r3, [r3, #16]
  40316c:	eb01 0802 	add.w	r8, r1, r2
  403170:	4c40      	ldr	r4, [pc, #256]	; (403274 <aubio_pitchyinfast_do+0x32c>)
  403172:	685b      	ldr	r3, [r3, #4]
  403174:	4413      	add	r3, r2
  403176:	6818      	ldr	r0, [r3, #0]
  403178:	4b3f      	ldr	r3, [pc, #252]	; (403278 <aubio_pitchyinfast_do+0x330>)
  40317a:	4798      	blx	r3
  40317c:	f8d9 3004 	ldr.w	r3, [r9, #4]
  403180:	4682      	mov	sl, r0
  403182:	468b      	mov	fp, r1
  403184:	442b      	add	r3, r5
  403186:	3504      	adds	r5, #4
  403188:	6818      	ldr	r0, [r3, #0]
  40318a:	4b3b      	ldr	r3, [pc, #236]	; (403278 <aubio_pitchyinfast_do+0x330>)
  40318c:	4798      	blx	r3
  40318e:	4602      	mov	r2, r0
  403190:	460b      	mov	r3, r1
  403192:	47a0      	blx	r4
  403194:	4c39      	ldr	r4, [pc, #228]	; (40327c <aubio_pitchyinfast_do+0x334>)
  403196:	4602      	mov	r2, r0
  403198:	460b      	mov	r3, r1
  40319a:	4650      	mov	r0, sl
  40319c:	4659      	mov	r1, fp
  40319e:	47a0      	blx	r4
  4031a0:	4b37      	ldr	r3, [pc, #220]	; (403280 <aubio_pitchyinfast_do+0x338>)
  4031a2:	4798      	blx	r3
    for (tau = 0; tau < W; tau++) 
  4031a4:	9b01      	ldr	r3, [sp, #4]
		yin->data[tau] = o->sqdiff->data[tau] - 2. * rt_of_tau->data[tau+W];
  4031a6:	f8c8 0000 	str.w	r0, [r8]
    for (tau = 0; tau < W; tau++) 
  4031aa:	42bb      	cmp	r3, r7
  4031ac:	d1d9      	bne.n	403162 <aubio_pitchyinfast_do+0x21a>
    }
  }

	// now build yin and look for first minimum
	yin->data[0] = 1.0;
  4031ae:	eef7 9a00 	vmov.f32	s19, #112	; 0x3f800000  1.0
  4031b2:	6873      	ldr	r3, [r6, #4]
	for (tau = 1; tau < length; tau++) 
  4031b4:	2f01      	cmp	r7, #1
  4031b6:	9c00      	ldr	r4, [sp, #0]
	yin->data[0] = 1.0;
  4031b8:	edc3 9a00 	vstr	s19, [r3]
	for (tau = 1; tau < length; tau++) 
  4031bc:	f000 8086 	beq.w	4032cc <aubio_pitchyinfast_do+0x384>
  4031c0:	f06f 0907 	mvn.w	r9, #7
  4031c4:	ed9f 9a2f 	vldr	s18, [pc, #188]	; 403284 <aubio_pitchyinfast_do+0x33c>
  4031c8:	2501      	movs	r5, #1
  4031ca:	f8df b0bc 	ldr.w	fp, [pc, #188]	; 403288 <aubio_pitchyinfast_do+0x340>
  4031ce:	f8df a0bc 	ldr.w	sl, [pc, #188]	; 40328c <aubio_pitchyinfast_do+0x344>
  4031d2:	e01f      	b.n	403214 <aubio_pitchyinfast_do+0x2cc>
	{
		tmp2 += yin->data[tau];
		if (abs(tmp2) > 0.00001) 
		{
			yin->data[tau] *= tau / tmp2;
  4031d4:	eec7 7a09 	vdiv.f32	s15, s14, s18
  4031d8:	ee27 8a88 	vmul.f32	s16, s15, s16
  4031dc:	ed88 8a00 	vstr	s16, [r8]
		else
		{
			yin->data[tau] = 1.0;
		}
		period = tau - 3;
		if (tau > 4 && (yin->data[period] < tol) && (yin->data[period] < yin->data[period + 1]))
  4031e0:	2d04      	cmp	r5, #4
  4031e2:	f1a5 0103 	sub.w	r1, r5, #3
	for (tau = 1; tau < length; tau++) 
  4031e6:	f105 0501 	add.w	r5, r5, #1
		if (tau > 4 && (yin->data[period] < tol) && (yin->data[period] < yin->data[period + 1]))
  4031ea:	d90f      	bls.n	40320c <aubio_pitchyinfast_do+0x2c4>
  4031ec:	6873      	ldr	r3, [r6, #4]
  4031ee:	444b      	add	r3, r9
  4031f0:	edd3 7a00 	vldr	s15, [r3]
  4031f4:	eef4 8ae7 	vcmpe.f32	s17, s15
  4031f8:	eef1 fa10 	vmrs	APSR_nzcv, fpscr
  4031fc:	dd06      	ble.n	40320c <aubio_pitchyinfast_do+0x2c4>
  4031fe:	ed93 7a01 	vldr	s14, [r3, #4]
  403202:	eef4 7ac7 	vcmpe.f32	s15, s14
  403206:	eef1 fa10 	vmrs	APSR_nzcv, fpscr
  40320a:	d474      	bmi.n	4032f6 <aubio_pitchyinfast_do+0x3ae>
	for (tau = 1; tau < length; tau++) 
  40320c:	42af      	cmp	r7, r5
  40320e:	f109 0904 	add.w	r9, r9, #4
  403212:	d05b      	beq.n	4032cc <aubio_pitchyinfast_do+0x384>
		tmp2 += yin->data[tau];
  403214:	6873      	ldr	r3, [r6, #4]
  403216:	eb03 0885 	add.w	r8, r3, r5, lsl #2
  40321a:	ed98 8a00 	vldr	s16, [r8]
  40321e:	ee39 9a08 	vadd.f32	s18, s18, s16
		if (abs(tmp2) > 0.00001) 
  403222:	eefd 7ac9 	vcvt.s32.f32	s15, s18
  403226:	ee17 3a90 	vmov	r3, s15
  40322a:	ea83 70e3 	eor.w	r0, r3, r3, asr #31
  40322e:	eba0 70e3 	sub.w	r0, r0, r3, asr #31
  403232:	47d8      	blx	fp
  403234:	a306      	add	r3, pc, #24	; (adr r3, 403250 <aubio_pitchyinfast_do+0x308>)
  403236:	e9d3 2300 	ldrd	r2, r3, [r3]
  40323a:	47d0      	blx	sl
			yin->data[tau] *= tau / tmp2;
  40323c:	ee07 5a90 	vmov	s15, r5
  403240:	eeb8 7a67 	vcvt.f32.u32	s14, s15
		if (abs(tmp2) > 0.00001) 
  403244:	2800      	cmp	r0, #0
  403246:	d1c5      	bne.n	4031d4 <aubio_pitchyinfast_do+0x28c>
			yin->data[tau] = 1.0;
  403248:	edc8 9a00 	vstr	s19, [r8]
  40324c:	e7c8      	b.n	4031e0 <aubio_pitchyinfast_do+0x298>
  40324e:	bf00      	nop
  403250:	88e368f1 	.word	0x88e368f1
  403254:	3ee4f8b5 	.word	0x3ee4f8b5
  403258:	004014e1 	.word	0x004014e1
  40325c:	0040154d 	.word	0x0040154d
  403260:	004015a9 	.word	0x004015a9
  403264:	004012dd 	.word	0x004012dd
  403268:	00401521 	.word	0x00401521
  40326c:	00401485 	.word	0x00401485
  403270:	00401371 	.word	0x00401371
  403274:	00405955 	.word	0x00405955
  403278:	00405c11 	.word	0x00405c11
  40327c:	00405951 	.word	0x00405951
  403280:	0040623d 	.word	0x0040623d
  403284:	00000000 	.word	0x00000000
  403288:	00405bed 	.word	0x00405bed
  40328c:	004061d9 	.word	0x004061d9
    compmul->data[W] = o->kernel_fft->data[W] * o->samples_fft->data[W];
  403290:	69e0      	ldr	r0, [r4, #28]
    aubio_fft_rdo_complex(o->fft, compmul, rt_of_tau);
  403292:	4641      	mov	r1, r8
    compmul->data[W] = o->kernel_fft->data[W] * o->samples_fft->data[W];
  403294:	69a3      	ldr	r3, [r4, #24]
  403296:	6847      	ldr	r7, [r0, #4]
  403298:	6858      	ldr	r0, [r3, #4]
  40329a:	442f      	add	r7, r5
  40329c:	f8d8 3004 	ldr.w	r3, [r8, #4]
  4032a0:	4428      	add	r0, r5
    aubio_fft_rdo_complex(o->fft, compmul, rt_of_tau);
  4032a2:	9a00      	ldr	r2, [sp, #0]
    compmul->data[W] = o->kernel_fft->data[W] * o->samples_fft->data[W];
  4032a4:	edd7 7a00 	vldr	s15, [r7]
  4032a8:	442b      	add	r3, r5
  4032aa:	ed90 7a00 	vldr	s14, [r0]
    aubio_fft_rdo_complex(o->fft, compmul, rt_of_tau);
  4032ae:	4f1a      	ldr	r7, [pc, #104]	; (403318 <aubio_pitchyinfast_do+0x3d0>)
    compmul->data[W] = o->kernel_fft->data[W] * o->samples_fft->data[W];
  4032b0:	ee67 7a87 	vmul.f32	s15, s15, s14
  4032b4:	edc3 7a00 	vstr	s15, [r3]
    aubio_fft_rdo_complex(o->fft, compmul, rt_of_tau);
  4032b8:	6a20      	ldr	r0, [r4, #32]
  4032ba:	47b8      	blx	r7
    for (tau = 0; tau < W; tau++) 
  4032bc:	f1ba 0f00 	cmp.w	sl, #0
  4032c0:	f47f af49 	bne.w	403156 <aubio_pitchyinfast_do+0x20e>
	yin->data[0] = 1.0;
  4032c4:	f04f 527e 	mov.w	r2, #1065353216	; 0x3f800000
  4032c8:	6873      	ldr	r3, [r6, #4]
  4032ca:	601a      	str	r2, [r3, #0]
			return YIN_FFT_SAMPLING_RATE / fvec_quadratic_peak_pos (yin, o->peak_pos);
		}
	}
		
	// use global minimum
	o->peak_pos = (uint_t)fvec_min_elem (yin);
  4032cc:	4630      	mov	r0, r6
  4032ce:	4b13      	ldr	r3, [pc, #76]	; (40331c <aubio_pitchyinfast_do+0x3d4>)
  4032d0:	4798      	blx	r3
  4032d2:	4601      	mov	r1, r0
	return YIN_FFT_SAMPLING_RATE / fvec_quadratic_peak_pos (yin, o->peak_pos);
  4032d4:	4b12      	ldr	r3, [pc, #72]	; (403320 <aubio_pitchyinfast_do+0x3d8>)
  4032d6:	4630      	mov	r0, r6
	o->peak_pos = (uint_t)fvec_min_elem (yin);
  4032d8:	60a1      	str	r1, [r4, #8]
	return YIN_FFT_SAMPLING_RATE / fvec_quadratic_peak_pos (yin, o->peak_pos);
  4032da:	4798      	blx	r3
  4032dc:	ed9f 7a11 	vldr	s14, [pc, #68]	; 403324 <aubio_pitchyinfast_do+0x3dc>
  4032e0:	ee06 0a90 	vmov	s13, r0
  4032e4:	eec7 7a26 	vdiv.f32	s15, s14, s13
	//return -1; 
}
  4032e8:	ee17 0a90 	vmov	r0, s15
  4032ec:	b007      	add	sp, #28
  4032ee:	ecbd 8b04 	vpop	{d8-d9}
  4032f2:	e8bd 8ff0 	ldmia.w	sp!, {r4, r5, r6, r7, r8, r9, sl, fp, pc}
			o->peak_pos = (uint_t)period;
  4032f6:	60a1      	str	r1, [r4, #8]
			return YIN_FFT_SAMPLING_RATE / fvec_quadratic_peak_pos (yin, o->peak_pos);
  4032f8:	4630      	mov	r0, r6
  4032fa:	4b09      	ldr	r3, [pc, #36]	; (403320 <aubio_pitchyinfast_do+0x3d8>)
  4032fc:	4798      	blx	r3
  4032fe:	ed9f 7a09 	vldr	s14, [pc, #36]	; 403324 <aubio_pitchyinfast_do+0x3dc>
  403302:	ee06 0a90 	vmov	s13, r0
  403306:	eec7 7a26 	vdiv.f32	s15, s14, s13
}
  40330a:	ee17 0a90 	vmov	r0, s15
  40330e:	b007      	add	sp, #28
  403310:	ecbd 8b04 	vpop	{d8-d9}
  403314:	e8bd 8ff0 	ldmia.w	sp!, {r4, r5, r6, r7, r8, r9, sl, fp, pc}
  403318:	00401371 	.word	0x00401371
  40331c:	00401579 	.word	0x00401579
  403320:	004015d1 	.word	0x004015d1
  403324:	46b86000 	.word	0x46b86000

00403328 <aubio_pitchyinfast_get_confidence>:

smpl_t aubio_pitchyinfast_get_confidence (aubio_pitchyinfast_t * o) 
{
	return 1. - o->yin->data[o->peak_pos];
  403328:	6803      	ldr	r3, [r0, #0]
  40332a:	eeb7 7a00 	vmov.f32	s14, #112	; 0x3f800000  1.0
  40332e:	6882      	ldr	r2, [r0, #8]
  403330:	685b      	ldr	r3, [r3, #4]
  403332:	eb03 0382 	add.w	r3, r3, r2, lsl #2
  403336:	edd3 7a00 	vldr	s15, [r3]
}
  40333a:	ee77 7a67 	vsub.f32	s15, s14, s15
  40333e:	ee17 0a90 	vmov	r0, s15
  403342:	4770      	bx	lr

00403344 <_read>:
int __attribute__((weak))
_read (int file, char * ptr, int len); // Remove GCC compiler warning

int __attribute__((weak))
_read (int file, char * ptr, int len)
{
  403344:	e92d 41f0 	stmdb	sp!, {r4, r5, r6, r7, r8, lr}
	int nChars = 0;

	if (file != 0) {
  403348:	b990      	cbnz	r0, 403370 <_read+0x2c>
		return -1;
	}

	for (; len > 0; --len) {
  40334a:	2a00      	cmp	r2, #0
  40334c:	4690      	mov	r8, r2
  40334e:	dd0d      	ble.n	40336c <_read+0x28>
  403350:	460c      	mov	r4, r1
  403352:	188f      	adds	r7, r1, r2
  403354:	4e08      	ldr	r6, [pc, #32]	; (403378 <_read+0x34>)
  403356:	4d09      	ldr	r5, [pc, #36]	; (40337c <_read+0x38>)
		ptr_get(stdio_base, ptr);
  403358:	4621      	mov	r1, r4
		ptr++;
  40335a:	3401      	adds	r4, #1
		ptr_get(stdio_base, ptr);
  40335c:	6830      	ldr	r0, [r6, #0]
  40335e:	682b      	ldr	r3, [r5, #0]
  403360:	4798      	blx	r3
	for (; len > 0; --len) {
  403362:	42bc      	cmp	r4, r7
  403364:	d1f8      	bne.n	403358 <_read+0x14>
		nChars++;
	}
	return nChars;
}
  403366:	4640      	mov	r0, r8
  403368:	e8bd 81f0 	ldmia.w	sp!, {r4, r5, r6, r7, r8, pc}
	for (; len > 0; --len) {
  40336c:	4680      	mov	r8, r0
  40336e:	e7fa      	b.n	403366 <_read+0x22>
		return -1;
  403370:	f04f 38ff 	mov.w	r8, #4294967295
  403374:	e7f7      	b.n	403366 <_read+0x22>
  403376:	bf00      	nop
  403378:	2043b7d4 	.word	0x2043b7d4
  40337c:	2043b7cc 	.word	0x2043b7cc

00403380 <_write>:
int __attribute__((weak))
_write (int file, const char *ptr, int len)
{
	int nChars = 0;

	if ((file != 1) && (file != 2) && (file!=3)) {
  403380:	3801      	subs	r0, #1
  403382:	2802      	cmp	r0, #2
  403384:	d81e      	bhi.n	4033c4 <_write+0x44>
{
  403386:	e92d 41f0 	stmdb	sp!, {r4, r5, r6, r7, r8, lr}
  40338a:	4615      	mov	r5, r2
		return -1;
	}

	for (; len != 0; --len) {
  40338c:	b1ba      	cbz	r2, 4033be <_write+0x3e>
  40338e:	460e      	mov	r6, r1
  403390:	460c      	mov	r4, r1
  403392:	f8df 803c 	ldr.w	r8, [pc, #60]	; 4033d0 <_write+0x50>
  403396:	4f0d      	ldr	r7, [pc, #52]	; (4033cc <_write+0x4c>)
  403398:	e001      	b.n	40339e <_write+0x1e>
  40339a:	3d01      	subs	r5, #1
  40339c:	d00d      	beq.n	4033ba <_write+0x3a>
		if (ptr_put(stdio_base, *ptr++) < 0) {
  40339e:	f814 1b01 	ldrb.w	r1, [r4], #1
  4033a2:	f8d8 0000 	ldr.w	r0, [r8]
  4033a6:	683b      	ldr	r3, [r7, #0]
  4033a8:	4798      	blx	r3
  4033aa:	2800      	cmp	r0, #0
  4033ac:	eba4 0006 	sub.w	r0, r4, r6
  4033b0:	daf3      	bge.n	40339a <_write+0x1a>
		return -1;
  4033b2:	f04f 30ff 	mov.w	r0, #4294967295
  4033b6:	e8bd 81f0 	ldmia.w	sp!, {r4, r5, r6, r7, r8, pc}
  4033ba:	e8bd 81f0 	ldmia.w	sp!, {r4, r5, r6, r7, r8, pc}
	for (; len != 0; --len) {
  4033be:	4610      	mov	r0, r2
			return -1;
		}
		++nChars;
	}
	return nChars;
}
  4033c0:	e8bd 81f0 	ldmia.w	sp!, {r4, r5, r6, r7, r8, pc}
		return -1;
  4033c4:	f04f 30ff 	mov.w	r0, #4294967295
}
  4033c8:	4770      	bx	lr
  4033ca:	bf00      	nop
  4033cc:	2043b7d0 	.word	0x2043b7d0
  4033d0:	2043b7d4 	.word	0x2043b7d4

004033d4 <wm8904_write_register>:
 *
 * \param uc_register_address Register address to write
 * \param us_data Data to write.
 */
void wm8904_write_register(uint8_t uc_register_address, uint16_t us_data)
{
  4033d4:	b570      	push	{r4, r5, r6, lr}
  4033d6:	460b      	mov	r3, r1
  4033d8:	b086      	sub	sp, #24
	uint8_t uc_temp_data[2];
	twihs_packet_t packet;

	uc_temp_data[0] = (us_data & 0xff00) >> 8;
  4033da:	0a0e      	lsrs	r6, r1, #8

	packet.addr[0]     = uc_register_address;
	packet.addr_length = 0x1;
	packet.buffer      = uc_temp_data;
	packet.length      = 0x2;
	packet.chip        = WM8904_SLAVE_ADDRESS;
  4033dc:	221a      	movs	r2, #26
	uc_temp_data[1] = us_data & 0xff;
  4033de:	f88d 3001 	strb.w	r3, [sp, #1]
	packet.addr_length = 0x1;
  4033e2:	2501      	movs	r5, #1
	packet.length      = 0x2;
  4033e4:	2402      	movs	r4, #2

	twihs_master_write(WM8904_TWIHS, &packet);
  4033e6:	a901      	add	r1, sp, #4
  4033e8:	4b07      	ldr	r3, [pc, #28]	; (403408 <wm8904_write_register+0x34>)
	packet.addr[0]     = uc_register_address;
  4033ea:	f88d 0004 	strb.w	r0, [sp, #4]
	twihs_master_write(WM8904_TWIHS, &packet);
  4033ee:	4807      	ldr	r0, [pc, #28]	; (40340c <wm8904_write_register+0x38>)
	uc_temp_data[0] = (us_data & 0xff00) >> 8;
  4033f0:	f88d 6000 	strb.w	r6, [sp]
	packet.addr_length = 0x1;
  4033f4:	9502      	str	r5, [sp, #8]
	packet.buffer      = uc_temp_data;
  4033f6:	f8cd d00c 	str.w	sp, [sp, #12]
	packet.length      = 0x2;
  4033fa:	9404      	str	r4, [sp, #16]
	packet.chip        = WM8904_SLAVE_ADDRESS;
  4033fc:	f88d 2014 	strb.w	r2, [sp, #20]
	twihs_master_write(WM8904_TWIHS, &packet);
  403400:	4798      	blx	r3
}
  403402:	b006      	add	sp, #24
  403404:	bd70      	pop	{r4, r5, r6, pc}
  403406:	bf00      	nop
  403408:	004037fd 	.word	0x004037fd
  40340c:	40018000 	.word	0x40018000

00403410 <wm8904_read_register>:
 *
 * \param uc_register_address Register address to write
 * \retun Register value.
 */
uint16_t wm8904_read_register(uint8_t uc_register_address)
{
  403410:	b530      	push	{r4, r5, lr}
  403412:	b087      	sub	sp, #28

	packet.addr[0]     = uc_register_address;
	packet.addr_length = 0x1;
	packet.buffer      = uc_temp_data;
	packet.length      = 0x2;
	packet.chip        = WM8904_SLAVE_ADDRESS;
  403414:	221a      	movs	r2, #26
	packet.addr_length = 0x1;
  403416:	2501      	movs	r5, #1
	packet.length      = 0x2;
  403418:	2402      	movs	r4, #2
	packet.addr[0]     = uc_register_address;
  40341a:	f88d 0004 	strb.w	r0, [sp, #4]

	twihs_master_read(WM8904_TWIHS, &packet);
  40341e:	a901      	add	r1, sp, #4
  403420:	4b08      	ldr	r3, [pc, #32]	; (403444 <wm8904_read_register+0x34>)
  403422:	4809      	ldr	r0, [pc, #36]	; (403448 <wm8904_read_register+0x38>)
	packet.addr_length = 0x1;
  403424:	9502      	str	r5, [sp, #8]
	packet.buffer      = uc_temp_data;
  403426:	f8cd d00c 	str.w	sp, [sp, #12]
	packet.length      = 0x2;
  40342a:	9404      	str	r4, [sp, #16]
	packet.chip        = WM8904_SLAVE_ADDRESS;
  40342c:	f88d 2014 	strb.w	r2, [sp, #20]
	twihs_master_read(WM8904_TWIHS, &packet);
  403430:	4798      	blx	r3
	us_data = (((uint16_t)uc_temp_data[0] << 8) & 0xff00) | uc_temp_data[1];
  403432:	f89d 0000 	ldrb.w	r0, [sp]
  403436:	f89d 3001 	ldrb.w	r3, [sp, #1]

	return us_data;
}
  40343a:	ea43 2000 	orr.w	r0, r3, r0, lsl #8
  40343e:	b007      	add	sp, #28
  403440:	bd30      	pop	{r4, r5, pc}
  403442:	bf00      	nop
  403444:	0040375d 	.word	0x0040375d
  403448:	40018000 	.word	0x40018000

0040344c <wm8904_twi_init>:
 * \brief Initialize TWIHS connect to WM8904.
 *
 * \retun TWIHS_SUCCESS if initialization is complete, error code otherwise.
 */
uint32_t wm8904_twi_init(void)
{
  40344c:	b510      	push	{r4, lr}
	pio_configure_pin(WM8904_TK_PIO, WM8904_TK_FLAGS);
  40344e:	f04f 5100 	mov.w	r1, #536870912	; 0x20000000
{
  403452:	b084      	sub	sp, #16
	pio_configure_pin(WM8904_TK_PIO, WM8904_TK_FLAGS);
  403454:	4c15      	ldr	r4, [pc, #84]	; (4034ac <wm8904_twi_init+0x60>)
  403456:	2021      	movs	r0, #33	; 0x21
  403458:	47a0      	blx	r4
	pio_configure_pin(WM8904_TF_PIO, WM8904_TF_FLAGS);
  40345a:	f04f 5100 	mov.w	r1, #536870912	; 0x20000000
  40345e:	2020      	movs	r0, #32
  403460:	47a0      	blx	r4
	pio_configure_pin(WM8904_TD_PIO, WM8904_TD_FLAGS);
  403462:	f04f 5180 	mov.w	r1, #268435456	; 0x10000000
  403466:	207a      	movs	r0, #122	; 0x7a
  403468:	47a0      	blx	r4
	pio_configure_pin(WM8904_RK_PIO, WM8904_RK_FLAGS);
  40346a:	f04f 6100 	mov.w	r1, #134217728	; 0x8000000
  40346e:	2016      	movs	r0, #22
  403470:	47a0      	blx	r4
	pio_configure_pin(WM8904_RF_PIO, WM8904_RF_FLAGS);
  403472:	f04f 5180 	mov.w	r1, #268435456	; 0x10000000
  403476:	2078      	movs	r0, #120	; 0x78
  403478:	47a0      	blx	r4
	pio_configure_pin(WM8904_RD_PIO, WM8904_RD_FLAGS);
  40347a:	f04f 51c0 	mov.w	r1, #402653184	; 0x18000000
  40347e:	200a      	movs	r0, #10
  403480:	47a0      	blx	r4
	pio_configure_pin(WM8904_PCK2_PIO, WM8904_PCK2_FLAGS);
  403482:	f04f 5180 	mov.w	r1, #268435456	; 0x10000000
  403486:	2012      	movs	r0, #18
  403488:	47a0      	blx	r4

static inline uint32_t twihs_master_setup(twihs_master_t p_twihs,
		twihs_master_options_t *p_opt)
{
	p_opt->master_clk = sysclk_get_peripheral_hz();
	p_opt->smbus      = 0;
  40348a:	2200      	movs	r2, #0
	p_opt->master_clk = sysclk_get_peripheral_hz();
  40348c:	4908      	ldr	r1, [pc, #32]	; (4034b0 <wm8904_twi_init+0x64>)
 *
 * \param ul_id Id (number) of the peripheral clock.
 */
static inline void sysclk_enable_peripheral_clock(uint32_t ul_id)
{
	pmc_enable_periph_clk(ul_id);
  40348e:	2013      	movs	r0, #19

	twihs_options_t opt;
	opt.master_clk = sysclk_get_cpu_hz();
	opt.speed = WM8904_TWIHS_CLK;
  403490:	4c08      	ldr	r4, [pc, #32]	; (4034b4 <wm8904_twi_init+0x68>)
  403492:	4b09      	ldr	r3, [pc, #36]	; (4034b8 <wm8904_twi_init+0x6c>)
  403494:	9101      	str	r1, [sp, #4]
	p_opt->smbus      = 0;
  403496:	f88d 200d 	strb.w	r2, [sp, #13]
  40349a:	9402      	str	r4, [sp, #8]
  40349c:	4798      	blx	r3
#endif		
	} else {
		// Do Nothing
	}
#endif
	return (twihs_master_init(p_twihs, p_opt));
  40349e:	a901      	add	r1, sp, #4
  4034a0:	4b06      	ldr	r3, [pc, #24]	; (4034bc <wm8904_twi_init+0x70>)
  4034a2:	4807      	ldr	r0, [pc, #28]	; (4034c0 <wm8904_twi_init+0x74>)
  4034a4:	4798      	blx	r3
	return twihs_master_setup(WM8904_TWIHS, &opt);
}
  4034a6:	b004      	add	sp, #16
  4034a8:	bd10      	pop	{r4, pc}
  4034aa:	bf00      	nop
  4034ac:	00403dbd 	.word	0x00403dbd
  4034b0:	08f0d180 	.word	0x08f0d180
  4034b4:	00061a80 	.word	0x00061a80
  4034b8:	004041b5 	.word	0x004041b5
  4034bc:	00403729 	.word	0x00403729
  4034c0:	40018000 	.word	0x40018000

004034c4 <rtt_init>:
 * \return 0 if successful.
 */
uint32_t rtt_init(Rtt *p_rtt, uint16_t us_prescaler)
{
#if (SAM4N || SAM4S || SAM4E || SAM4C || SAMG51 || SAM4CP || SAM4CM || SAMV71 || SAMV70 || SAME70 || SAMS70)
	p_rtt->RTT_MR = (us_prescaler | RTT_MR_RTTRST | g_wobits_in_rtt_mr);
  4034c4:	4b04      	ldr	r3, [pc, #16]	; (4034d8 <rtt_init+0x14>)
{
  4034c6:	4602      	mov	r2, r0
#else
	p_rtt->RTT_MR = (us_prescaler | RTT_MR_RTTRST);
#endif
	return 0;
}
  4034c8:	2000      	movs	r0, #0
	p_rtt->RTT_MR = (us_prescaler | RTT_MR_RTTRST | g_wobits_in_rtt_mr);
  4034ca:	681b      	ldr	r3, [r3, #0]
  4034cc:	f443 2380 	orr.w	r3, r3, #262144	; 0x40000
  4034d0:	4319      	orrs	r1, r3
  4034d2:	6011      	str	r1, [r2, #0]
}
  4034d4:	4770      	bx	lr
  4034d6:	bf00      	nop
  4034d8:	20402c78 	.word	0x20402c78

004034dc <rtt_sel_source>:
 * \param p_rtt Pointer to an RTT instance.
 * \param is_rtc_sel RTC 1Hz Clock Selection.
 */
void rtt_sel_source(Rtt *p_rtt, bool is_rtc_sel)
{
	if(is_rtc_sel) {
  4034dc:	b941      	cbnz	r1, 4034f0 <rtt_sel_source+0x14>
		g_wobits_in_rtt_mr |= RTT_MR_RTC1HZ;
		p_rtt->RTT_MR |= g_wobits_in_rtt_mr;
	} else {
		g_wobits_in_rtt_mr &= ~RTT_MR_RTC1HZ;
  4034de:	4909      	ldr	r1, [pc, #36]	; (403504 <rtt_sel_source+0x28>)
		p_rtt->RTT_MR |= g_wobits_in_rtt_mr;
  4034e0:	6802      	ldr	r2, [r0, #0]
		g_wobits_in_rtt_mr &= ~RTT_MR_RTC1HZ;
  4034e2:	680b      	ldr	r3, [r1, #0]
  4034e4:	f023 7380 	bic.w	r3, r3, #16777216	; 0x1000000
		p_rtt->RTT_MR |= g_wobits_in_rtt_mr;
  4034e8:	431a      	orrs	r2, r3
		g_wobits_in_rtt_mr &= ~RTT_MR_RTC1HZ;
  4034ea:	600b      	str	r3, [r1, #0]
		p_rtt->RTT_MR |= g_wobits_in_rtt_mr;
  4034ec:	6002      	str	r2, [r0, #0]
  4034ee:	4770      	bx	lr
		g_wobits_in_rtt_mr |= RTT_MR_RTC1HZ;
  4034f0:	4904      	ldr	r1, [pc, #16]	; (403504 <rtt_sel_source+0x28>)
		p_rtt->RTT_MR |= g_wobits_in_rtt_mr;
  4034f2:	6802      	ldr	r2, [r0, #0]
		g_wobits_in_rtt_mr |= RTT_MR_RTC1HZ;
  4034f4:	680b      	ldr	r3, [r1, #0]
  4034f6:	f043 7380 	orr.w	r3, r3, #16777216	; 0x1000000
		p_rtt->RTT_MR |= g_wobits_in_rtt_mr;
  4034fa:	431a      	orrs	r2, r3
		g_wobits_in_rtt_mr |= RTT_MR_RTC1HZ;
  4034fc:	600b      	str	r3, [r1, #0]
		p_rtt->RTT_MR |= g_wobits_in_rtt_mr;
  4034fe:	6002      	str	r2, [r0, #0]
  403500:	4770      	bx	lr
  403502:	bf00      	nop
  403504:	20402c78 	.word	0x20402c78

00403508 <rtt_enable_interrupt>:
	uint32_t temp;

	temp = p_rtt->RTT_MR;
	temp |= ul_sources;
#if (SAM4N || SAM4S || SAM4E || SAM4C || SAMG51 || SAM4CP || SAM4CM || SAMV71 || SAMV70 || SAME70 || SAMS70)
	temp |= g_wobits_in_rtt_mr;
  403508:	4b03      	ldr	r3, [pc, #12]	; (403518 <rtt_enable_interrupt+0x10>)
	temp = p_rtt->RTT_MR;
  40350a:	6802      	ldr	r2, [r0, #0]
	temp |= g_wobits_in_rtt_mr;
  40350c:	681b      	ldr	r3, [r3, #0]
  40350e:	4319      	orrs	r1, r3
  403510:	4311      	orrs	r1, r2
#endif
	p_rtt->RTT_MR = temp;
  403512:	6001      	str	r1, [r0, #0]
  403514:	4770      	bx	lr
  403516:	bf00      	nop
  403518:	20402c78 	.word	0x20402c78

0040351c <rtt_disable_interrupt>:
 */
void rtt_disable_interrupt(Rtt *p_rtt, uint32_t ul_sources)
{
	uint32_t temp = 0;

	temp = p_rtt->RTT_MR;
  40351c:	6803      	ldr	r3, [r0, #0]
	temp &= (~ul_sources);
#if (SAM4N || SAM4S || SAM4E || SAM4C || SAMG51 || SAM4CP || SAM4CM || SAMV71 || SAMV70 || SAME70 || SAMS70)
	temp |= g_wobits_in_rtt_mr;
  40351e:	4a03      	ldr	r2, [pc, #12]	; (40352c <rtt_disable_interrupt+0x10>)
	temp &= (~ul_sources);
  403520:	ea23 0101 	bic.w	r1, r3, r1
	temp |= g_wobits_in_rtt_mr;
  403524:	6812      	ldr	r2, [r2, #0]
  403526:	4311      	orrs	r1, r2
#endif
	p_rtt->RTT_MR = temp;
  403528:	6001      	str	r1, [r0, #0]
  40352a:	4770      	bx	lr
  40352c:	20402c78 	.word	0x20402c78

00403530 <rtt_read_timer_value>:
 *
 * \return The current Real-time Timer value.
 */
uint32_t rtt_read_timer_value(Rtt *p_rtt)
{
	uint32_t rtt_val = p_rtt->RTT_VR;
  403530:	6882      	ldr	r2, [r0, #8]

	while (rtt_val != p_rtt->RTT_VR) {
  403532:	6883      	ldr	r3, [r0, #8]
  403534:	429a      	cmp	r2, r3
  403536:	d003      	beq.n	403540 <rtt_read_timer_value+0x10>
		rtt_val = p_rtt->RTT_VR;
  403538:	6882      	ldr	r2, [r0, #8]
	while (rtt_val != p_rtt->RTT_VR) {
  40353a:	6883      	ldr	r3, [r0, #8]
  40353c:	4293      	cmp	r3, r2
  40353e:	d1fb      	bne.n	403538 <rtt_read_timer_value+0x8>
	}

	return rtt_val;
}
  403540:	4618      	mov	r0, r3
  403542:	4770      	bx	lr

00403544 <rtt_get_status>:
 *
 * \return The Real-time Timer status.
 */
uint32_t rtt_get_status(Rtt *p_rtt)
{
	return p_rtt->RTT_SR;
  403544:	68c0      	ldr	r0, [r0, #12]
}
  403546:	4770      	bx	lr

00403548 <ssc_reset>:
 * \param p_ssc Pointer to an SSC instance.
 */
void ssc_reset(Ssc *p_ssc)
{
	p_ssc->SSC_CR = SSC_CR_SWRST;
	p_ssc->SSC_CMR = 0;
  403548:	2300      	movs	r3, #0
	p_ssc->SSC_CR = SSC_CR_SWRST;
  40354a:	f44f 4200 	mov.w	r2, #32768	; 0x8000
  40354e:	6002      	str	r2, [r0, #0]
	p_ssc->SSC_CMR = 0;
  403550:	6043      	str	r3, [r0, #4]
	p_ssc->SSC_RCMR = 0;
  403552:	6103      	str	r3, [r0, #16]
	p_ssc->SSC_RFMR = 0;
  403554:	6143      	str	r3, [r0, #20]
	p_ssc->SSC_TCMR = 0;
  403556:	6183      	str	r3, [r0, #24]
	p_ssc->SSC_TFMR = 0;
  403558:	61c3      	str	r3, [r0, #28]
  40355a:	4770      	bx	lr

0040355c <ssc_enable_rx>:
 *
 * \param p_ssc Pointer to an SSC instance.
 */
void ssc_enable_rx(Ssc *p_ssc)
{
	p_ssc->SSC_CR = SSC_CR_RXEN;
  40355c:	2301      	movs	r3, #1
  40355e:	6003      	str	r3, [r0, #0]
  403560:	4770      	bx	lr
  403562:	bf00      	nop

00403564 <ssc_disable_rx>:
 *
 * \param p_ssc Pointer to an SSC instance.
 */
void ssc_disable_rx(Ssc *p_ssc)
{
	p_ssc->SSC_CR = SSC_CR_RXDIS;
  403564:	2302      	movs	r3, #2
  403566:	6003      	str	r3, [r0, #0]
  403568:	4770      	bx	lr
  40356a:	bf00      	nop

0040356c <ssc_enable_tx>:
 *
 * \param p_ssc Pointer to an SSC instance.
 */
void ssc_enable_tx(Ssc *p_ssc)
{
	p_ssc->SSC_CR = SSC_CR_TXEN;
  40356c:	f44f 7380 	mov.w	r3, #256	; 0x100
  403570:	6003      	str	r3, [r0, #0]
  403572:	4770      	bx	lr

00403574 <ssc_disable_tx>:
 *
 * \param p_ssc Pointer to an SSC instance.
 */
void ssc_disable_tx(Ssc *p_ssc)
{
	p_ssc->SSC_CR = SSC_CR_TXDIS;
  403574:	f44f 7300 	mov.w	r3, #512	; 0x200
  403578:	6003      	str	r3, [r0, #0]
  40357a:	4770      	bx	lr

0040357c <ssc_set_receiver>:
 * \param p_rx_clk_opt Pointer to the receiver clock configuration structure.
 * \param p_rx_data_frame Pointer to the receiver data frame configuration structure.
 */
void ssc_set_receiver(Ssc *p_ssc, clock_opt_t *p_rx_clk_opt,
		data_frame_opt_t *p_rx_data_frame)
{
  40357c:	b4f0      	push	{r4, r5, r6, r7}
	if (p_rx_clk_opt == NULL) {
  40357e:	2900      	cmp	r1, #0
  403580:	d02f      	beq.n	4035e2 <ssc_set_receiver+0x66>
		p_ssc->SSC_RCMR = 0;
	} else {
		p_ssc->SSC_RCMR |= p_rx_clk_opt->ul_cks |
  403582:	6904      	ldr	r4, [r0, #16]
  403584:	68cf      	ldr	r7, [r1, #12]
  403586:	698e      	ldr	r6, [r1, #24]
  403588:	e891 0028 	ldmia.w	r1, {r3, r5}
  40358c:	432b      	orrs	r3, r5
  40358e:	688d      	ldr	r5, [r1, #8]
  403590:	4323      	orrs	r3, r4
				p_rx_clk_opt->ul_cko | p_rx_clk_opt->ul_cki |
				p_rx_clk_opt->ul_ckg |
				p_rx_clk_opt->ul_start_sel |
				SSC_RCMR_PERIOD(p_rx_clk_opt->ul_period) |
				SSC_RCMR_STTDLY(p_rx_clk_opt->ul_sttdly);
  403592:	694c      	ldr	r4, [r1, #20]
		p_ssc->SSC_RCMR |= p_rx_clk_opt->ul_cks |
  403594:	432b      	orrs	r3, r5
				SSC_RCMR_PERIOD(p_rx_clk_opt->ul_period) |
  403596:	690d      	ldr	r5, [r1, #16]
				SSC_RCMR_STTDLY(p_rx_clk_opt->ul_sttdly);
  403598:	0421      	lsls	r1, r4, #16
		p_ssc->SSC_RCMR |= p_rx_clk_opt->ul_cks |
  40359a:	433b      	orrs	r3, r7
				SSC_RCMR_STTDLY(p_rx_clk_opt->ul_sttdly);
  40359c:	f401 017f 	and.w	r1, r1, #16711680	; 0xff0000
		p_ssc->SSC_RCMR |= p_rx_clk_opt->ul_cks |
  4035a0:	4333      	orrs	r3, r6
  4035a2:	ea43 6305 	orr.w	r3, r3, r5, lsl #24
  4035a6:	430b      	orrs	r3, r1
  4035a8:	6103      	str	r3, [r0, #16]
	}

	if (p_rx_data_frame == NULL) {
  4035aa:	b1ea      	cbz	r2, 4035e8 <ssc_set_receiver+0x6c>
		p_ssc->SSC_RFMR = 0;
	} else {
		p_ssc->SSC_RFMR |= SSC_RFMR_DATLEN(p_rx_data_frame->ul_datlen) |
  4035ac:	6954      	ldr	r4, [r2, #20]
  4035ae:	6853      	ldr	r3, [r2, #4]
  4035b0:	6991      	ldr	r1, [r2, #24]
  4035b2:	4323      	orrs	r3, r4
  4035b4:	6946      	ldr	r6, [r0, #20]
  4035b6:	6814      	ldr	r4, [r2, #0]
  4035b8:	430b      	orrs	r3, r1
				p_rx_data_frame->ul_msbf |
				SSC_RFMR_DATNB(p_rx_data_frame->ul_datnb) |
  4035ba:	6891      	ldr	r1, [r2, #8]
		p_ssc->SSC_RFMR |= SSC_RFMR_DATLEN(p_rx_data_frame->ul_datlen) |
  4035bc:	f004 041f 	and.w	r4, r4, #31
				SSC_RFMR_FSLEN(p_rx_data_frame->ul_fslen) |
				SSC_RFMR_FSLEN_EXT(p_rx_data_frame->ul_fslen_ext) |
  4035c0:	6915      	ldr	r5, [r2, #16]
		p_ssc->SSC_RFMR |= SSC_RFMR_DATLEN(p_rx_data_frame->ul_datlen) |
  4035c2:	4333      	orrs	r3, r6
				SSC_RFMR_FSLEN(p_rx_data_frame->ul_fslen) |
  4035c4:	68d2      	ldr	r2, [r2, #12]
				SSC_RFMR_DATNB(p_rx_data_frame->ul_datnb) |
  4035c6:	0209      	lsls	r1, r1, #8
		p_ssc->SSC_RFMR |= SSC_RFMR_DATLEN(p_rx_data_frame->ul_datlen) |
  4035c8:	4323      	orrs	r3, r4
				SSC_RFMR_FSLEN(p_rx_data_frame->ul_fslen) |
  4035ca:	0412      	lsls	r2, r2, #16
				SSC_RFMR_DATNB(p_rx_data_frame->ul_datnb) |
  4035cc:	f401 6170 	and.w	r1, r1, #3840	; 0xf00
		p_ssc->SSC_RFMR |= SSC_RFMR_DATLEN(p_rx_data_frame->ul_datlen) |
  4035d0:	ea43 7305 	orr.w	r3, r3, r5, lsl #28
				SSC_RFMR_FSLEN(p_rx_data_frame->ul_fslen) |
  4035d4:	f402 2270 	and.w	r2, r2, #983040	; 0xf0000
		p_ssc->SSC_RFMR |= SSC_RFMR_DATLEN(p_rx_data_frame->ul_datlen) |
  4035d8:	430b      	orrs	r3, r1
  4035da:	4313      	orrs	r3, r2
				p_rx_data_frame->ul_fsos |
				p_rx_data_frame->ul_fsedge;
	}
}
  4035dc:	bcf0      	pop	{r4, r5, r6, r7}
		p_ssc->SSC_RFMR |= SSC_RFMR_DATLEN(p_rx_data_frame->ul_datlen) |
  4035de:	6143      	str	r3, [r0, #20]
}
  4035e0:	4770      	bx	lr
		p_ssc->SSC_RCMR = 0;
  4035e2:	6101      	str	r1, [r0, #16]
	if (p_rx_data_frame == NULL) {
  4035e4:	2a00      	cmp	r2, #0
  4035e6:	d1e1      	bne.n	4035ac <ssc_set_receiver+0x30>
		p_ssc->SSC_RFMR = 0;
  4035e8:	6142      	str	r2, [r0, #20]
}
  4035ea:	bcf0      	pop	{r4, r5, r6, r7}
  4035ec:	4770      	bx	lr
  4035ee:	bf00      	nop

004035f0 <ssc_set_transmitter>:
 * \param p_tx_clk_opt Pointer to the transmitter clock configuration structure.
 * \param p_tx_data_frame Pointer to the transmitter data frame configuration structure.
 */
void ssc_set_transmitter(Ssc *p_ssc, clock_opt_t *p_tx_clk_opt,
		data_frame_opt_t *p_tx_data_frame)
{
  4035f0:	b4f0      	push	{r4, r5, r6, r7}
	if (p_tx_clk_opt == NULL) {
  4035f2:	2900      	cmp	r1, #0
  4035f4:	d02f      	beq.n	403656 <ssc_set_transmitter+0x66>
		p_ssc->SSC_TCMR = 0;
	} else {
		p_ssc->SSC_TCMR |= p_tx_clk_opt->ul_cks |
  4035f6:	6984      	ldr	r4, [r0, #24]
  4035f8:	68cf      	ldr	r7, [r1, #12]
  4035fa:	698e      	ldr	r6, [r1, #24]
  4035fc:	e891 0028 	ldmia.w	r1, {r3, r5}
  403600:	432b      	orrs	r3, r5
  403602:	688d      	ldr	r5, [r1, #8]
  403604:	4323      	orrs	r3, r4
				p_tx_clk_opt->ul_cko | p_tx_clk_opt->ul_cki |
				p_tx_clk_opt->ul_ckg |
				p_tx_clk_opt->ul_start_sel |
				SSC_TCMR_PERIOD(p_tx_clk_opt->ul_period) |
				SSC_TCMR_STTDLY(p_tx_clk_opt->ul_sttdly);
  403606:	694c      	ldr	r4, [r1, #20]
		p_ssc->SSC_TCMR |= p_tx_clk_opt->ul_cks |
  403608:	432b      	orrs	r3, r5
				SSC_TCMR_PERIOD(p_tx_clk_opt->ul_period) |
  40360a:	690d      	ldr	r5, [r1, #16]
				SSC_TCMR_STTDLY(p_tx_clk_opt->ul_sttdly);
  40360c:	0421      	lsls	r1, r4, #16
		p_ssc->SSC_TCMR |= p_tx_clk_opt->ul_cks |
  40360e:	433b      	orrs	r3, r7
				SSC_TCMR_STTDLY(p_tx_clk_opt->ul_sttdly);
  403610:	f401 017f 	and.w	r1, r1, #16711680	; 0xff0000
		p_ssc->SSC_TCMR |= p_tx_clk_opt->ul_cks |
  403614:	4333      	orrs	r3, r6
  403616:	ea43 6305 	orr.w	r3, r3, r5, lsl #24
  40361a:	430b      	orrs	r3, r1
  40361c:	6183      	str	r3, [r0, #24]
	}

	if (p_tx_data_frame == NULL) {
  40361e:	b1ea      	cbz	r2, 40365c <ssc_set_transmitter+0x6c>
		p_ssc->SSC_TFMR = 0;
	} else {
		p_ssc->SSC_TFMR |= SSC_RFMR_DATLEN(p_tx_data_frame->ul_datlen) |
  403620:	6954      	ldr	r4, [r2, #20]
  403622:	6853      	ldr	r3, [r2, #4]
  403624:	6991      	ldr	r1, [r2, #24]
  403626:	4323      	orrs	r3, r4
  403628:	69c6      	ldr	r6, [r0, #28]
  40362a:	6814      	ldr	r4, [r2, #0]
  40362c:	430b      	orrs	r3, r1
				p_tx_data_frame->ul_msbf |
				SSC_TFMR_DATNB(p_tx_data_frame->ul_datnb) |
  40362e:	6891      	ldr	r1, [r2, #8]
		p_ssc->SSC_TFMR |= SSC_RFMR_DATLEN(p_tx_data_frame->ul_datlen) |
  403630:	f004 041f 	and.w	r4, r4, #31
				SSC_TFMR_FSLEN(p_tx_data_frame->ul_fslen) |
				SSC_TFMR_FSLEN_EXT(p_tx_data_frame->ul_fslen_ext) |
  403634:	6915      	ldr	r5, [r2, #16]
		p_ssc->SSC_TFMR |= SSC_RFMR_DATLEN(p_tx_data_frame->ul_datlen) |
  403636:	4333      	orrs	r3, r6
				SSC_TFMR_FSLEN(p_tx_data_frame->ul_fslen) |
  403638:	68d2      	ldr	r2, [r2, #12]
				SSC_TFMR_DATNB(p_tx_data_frame->ul_datnb) |
  40363a:	0209      	lsls	r1, r1, #8
		p_ssc->SSC_TFMR |= SSC_RFMR_DATLEN(p_tx_data_frame->ul_datlen) |
  40363c:	4323      	orrs	r3, r4
				SSC_TFMR_FSLEN(p_tx_data_frame->ul_fslen) |
  40363e:	0412      	lsls	r2, r2, #16
				SSC_TFMR_DATNB(p_tx_data_frame->ul_datnb) |
  403640:	f401 6170 	and.w	r1, r1, #3840	; 0xf00
		p_ssc->SSC_TFMR |= SSC_RFMR_DATLEN(p_tx_data_frame->ul_datlen) |
  403644:	ea43 7305 	orr.w	r3, r3, r5, lsl #28
				SSC_TFMR_FSLEN(p_tx_data_frame->ul_fslen) |
  403648:	f402 2270 	and.w	r2, r2, #983040	; 0xf0000
		p_ssc->SSC_TFMR |= SSC_RFMR_DATLEN(p_tx_data_frame->ul_datlen) |
  40364c:	430b      	orrs	r3, r1
  40364e:	4313      	orrs	r3, r2
				p_tx_data_frame->ul_fsos |
				p_tx_data_frame->ul_fsedge;
	}
}
  403650:	bcf0      	pop	{r4, r5, r6, r7}
		p_ssc->SSC_TFMR |= SSC_RFMR_DATLEN(p_tx_data_frame->ul_datlen) |
  403652:	61c3      	str	r3, [r0, #28]
}
  403654:	4770      	bx	lr
		p_ssc->SSC_TCMR = 0;
  403656:	6181      	str	r1, [r0, #24]
	if (p_tx_data_frame == NULL) {
  403658:	2a00      	cmp	r2, #0
  40365a:	d1e1      	bne.n	403620 <ssc_set_transmitter+0x30>
		p_ssc->SSC_TFMR = 0;
  40365c:	61c2      	str	r2, [r0, #28]
}
  40365e:	bcf0      	pop	{r4, r5, r6, r7}
  403660:	4770      	bx	lr
  403662:	bf00      	nop

00403664 <ssc_disable_interrupt>:
 * \param p_ssc Pointer to an SSC instance.
 * \param ul_sources Interrupts to be enabled.
 */
void ssc_disable_interrupt(Ssc *p_ssc, uint32_t ul_sources)
{
	p_ssc->SSC_IDR = ul_sources;
  403664:	6481      	str	r1, [r0, #72]	; 0x48
  403666:	4770      	bx	lr

00403668 <twihs_set_speed>:
	uint32_t ckdiv = 0;
	uint32_t c_lh_div;
	uint32_t cldiv, chdiv;

	/* High-Speed can be only used in slave mode, 400k is the max speed allowed for master */
	if (ul_speed > I2C_FAST_MODE_SPEED) {
  403668:	4b2c      	ldr	r3, [pc, #176]	; (40371c <twihs_set_speed+0xb4>)
  40366a:	4299      	cmp	r1, r3
{
  40366c:	b430      	push	{r4, r5}
	if (ul_speed > I2C_FAST_MODE_SPEED) {
  40366e:	d84d      	bhi.n	40370c <twihs_set_speed+0xa4>
		return FAIL;
	}

	/* Low level time not less than 1.3us of I2C Fast Mode. */
	if (ul_speed > LOW_LEVEL_TIME_LIMIT) {
  403670:	f5a3 537a 	sub.w	r3, r3, #16000	; 0x3e80
  403674:	4299      	cmp	r1, r3
  403676:	d92e      	bls.n	4036d6 <twihs_set_speed+0x6e>
		/* Low level of time fixed for 1.3us. */
		cldiv = ul_mck / (LOW_LEVEL_TIME_LIMIT * TWIHS_CLK_DIVIDER) - TWIHS_CLK_CALC_ARGU;
		chdiv = ul_mck / ((ul_speed + (ul_speed - LOW_LEVEL_TIME_LIMIT)) * TWIHS_CLK_DIVIDER) - TWIHS_CLK_CALC_ARGU;
  403678:	4b29      	ldr	r3, [pc, #164]	; (403720 <twihs_set_speed+0xb8>)
		cldiv = ul_mck / (LOW_LEVEL_TIME_LIMIT * TWIHS_CLK_DIVIDER) - TWIHS_CLK_CALC_ARGU;
  40367a:	4c2a      	ldr	r4, [pc, #168]	; (403724 <twihs_set_speed+0xbc>)
		chdiv = ul_mck / ((ul_speed + (ul_speed - LOW_LEVEL_TIME_LIMIT)) * TWIHS_CLK_DIVIDER) - TWIHS_CLK_CALC_ARGU;
  40367c:	440b      	add	r3, r1
		cldiv = ul_mck / (LOW_LEVEL_TIME_LIMIT * TWIHS_CLK_DIVIDER) - TWIHS_CLK_CALC_ARGU;
  40367e:	fba4 1402 	umull	r1, r4, r4, r2
		chdiv = ul_mck / ((ul_speed + (ul_speed - LOW_LEVEL_TIME_LIMIT)) * TWIHS_CLK_DIVIDER) - TWIHS_CLK_CALC_ARGU;
  403682:	009b      	lsls	r3, r3, #2
		cldiv = ul_mck / (LOW_LEVEL_TIME_LIMIT * TWIHS_CLK_DIVIDER) - TWIHS_CLK_CALC_ARGU;
  403684:	0ba4      	lsrs	r4, r4, #14
		chdiv = ul_mck / ((ul_speed + (ul_speed - LOW_LEVEL_TIME_LIMIT)) * TWIHS_CLK_DIVIDER) - TWIHS_CLK_CALC_ARGU;
  403686:	fbb2 f2f3 	udiv	r2, r2, r3
		cldiv = ul_mck / (LOW_LEVEL_TIME_LIMIT * TWIHS_CLK_DIVIDER) - TWIHS_CLK_CALC_ARGU;
  40368a:	3c03      	subs	r4, #3
		chdiv = ul_mck / ((ul_speed + (ul_speed - LOW_LEVEL_TIME_LIMIT)) * TWIHS_CLK_DIVIDER) - TWIHS_CLK_CALC_ARGU;
  40368c:	3a03      	subs	r2, #3
		
		/* cldiv must fit in 8 bits, ckdiv must fit in 3 bits */
		while ((cldiv > TWIHS_CLK_DIV_MAX) && (ckdiv < TWIHS_CLK_DIV_MIN)) {
  40368e:	2cff      	cmp	r4, #255	; 0xff
  403690:	d940      	bls.n	403714 <twihs_set_speed+0xac>
  403692:	2100      	movs	r1, #0
  403694:	e000      	b.n	403698 <twihs_set_speed+0x30>
  403696:	b13b      	cbz	r3, 4036a8 <twihs_set_speed+0x40>
			/* Increase clock divider */
			ckdiv++;
  403698:	3101      	adds	r1, #1
			/* Divide cldiv value */
			cldiv /= TWIHS_CLK_DIVIDER;
  40369a:	0864      	lsrs	r4, r4, #1
		while ((cldiv > TWIHS_CLK_DIV_MAX) && (ckdiv < TWIHS_CLK_DIV_MIN)) {
  40369c:	2906      	cmp	r1, #6
  40369e:	bf8c      	ite	hi
  4036a0:	2300      	movhi	r3, #0
  4036a2:	2301      	movls	r3, #1
  4036a4:	2cff      	cmp	r4, #255	; 0xff
  4036a6:	d8f6      	bhi.n	403696 <twihs_set_speed+0x2e>
		}
		/* chdiv must fit in 8 bits, ckdiv must fit in 3 bits */
		while ((chdiv > TWIHS_CLK_DIV_MAX) && (ckdiv < TWIHS_CLK_DIV_MIN)) {
  4036a8:	2aff      	cmp	r2, #255	; 0xff
  4036aa:	d907      	bls.n	4036bc <twihs_set_speed+0x54>
  4036ac:	b913      	cbnz	r3, 4036b4 <twihs_set_speed+0x4c>
  4036ae:	e005      	b.n	4036bc <twihs_set_speed+0x54>
  4036b0:	2906      	cmp	r1, #6
  4036b2:	d803      	bhi.n	4036bc <twihs_set_speed+0x54>
			/* Increase clock divider */
			ckdiv++;
			/* Divide cldiv value */
			chdiv /= TWIHS_CLK_DIVIDER;
  4036b4:	0852      	lsrs	r2, r2, #1
			ckdiv++;
  4036b6:	3101      	adds	r1, #1
		while ((chdiv > TWIHS_CLK_DIV_MAX) && (ckdiv < TWIHS_CLK_DIV_MIN)) {
  4036b8:	2aff      	cmp	r2, #255	; 0xff
  4036ba:	d8f9      	bhi.n	4036b0 <twihs_set_speed+0x48>
		}

		/* set clock waveform generator register */
		p_twihs->TWIHS_CWGR =
				TWIHS_CWGR_CLDIV(cldiv) | TWIHS_CWGR_CHDIV(chdiv) |
  4036bc:	0213      	lsls	r3, r2, #8
		p_twihs->TWIHS_CWGR =
  4036be:	2500      	movs	r5, #0
				TWIHS_CWGR_CKDIV(ckdiv);
  4036c0:	0409      	lsls	r1, r1, #16
				TWIHS_CWGR_CLDIV(cldiv) | TWIHS_CWGR_CHDIV(chdiv) |
  4036c2:	b29b      	uxth	r3, r3
				TWIHS_CWGR_CKDIV(ckdiv);
  4036c4:	f401 21e0 	and.w	r1, r1, #458752	; 0x70000
				TWIHS_CWGR_CLDIV(cldiv) | TWIHS_CWGR_CHDIV(chdiv) |
  4036c8:	b2e4      	uxtb	r4, r4
  4036ca:	430b      	orrs	r3, r1
  4036cc:	4323      	orrs	r3, r4
		p_twihs->TWIHS_CWGR =
  4036ce:	6103      	str	r3, [r0, #16]
				TWIHS_CWGR_CLDIV(c_lh_div) | TWIHS_CWGR_CHDIV(c_lh_div) |
				TWIHS_CWGR_CKDIV(ckdiv);
	}

	return PASS;
}
  4036d0:	4628      	mov	r0, r5
  4036d2:	bc30      	pop	{r4, r5}
  4036d4:	4770      	bx	lr
		c_lh_div = ul_mck / (ul_speed * TWIHS_CLK_DIVIDER) - TWIHS_CLK_CALC_ARGU;
  4036d6:	0049      	lsls	r1, r1, #1
		while ((c_lh_div > TWIHS_CLK_DIV_MAX) && (ckdiv < TWIHS_CLK_DIV_MIN)) {
  4036d8:	2300      	movs	r3, #0
		c_lh_div = ul_mck / (ul_speed * TWIHS_CLK_DIVIDER) - TWIHS_CLK_CALC_ARGU;
  4036da:	fbb2 f2f1 	udiv	r2, r2, r1
  4036de:	3a03      	subs	r2, #3
		while ((c_lh_div > TWIHS_CLK_DIV_MAX) && (ckdiv < TWIHS_CLK_DIV_MIN)) {
  4036e0:	2aff      	cmp	r2, #255	; 0xff
  4036e2:	d802      	bhi.n	4036ea <twihs_set_speed+0x82>
  4036e4:	e008      	b.n	4036f8 <twihs_set_speed+0x90>
  4036e6:	2b06      	cmp	r3, #6
  4036e8:	d803      	bhi.n	4036f2 <twihs_set_speed+0x8a>
			c_lh_div /= TWIHS_CLK_DIVIDER;
  4036ea:	0852      	lsrs	r2, r2, #1
			ckdiv++;
  4036ec:	3301      	adds	r3, #1
		while ((c_lh_div > TWIHS_CLK_DIV_MAX) && (ckdiv < TWIHS_CLK_DIV_MIN)) {
  4036ee:	2aff      	cmp	r2, #255	; 0xff
  4036f0:	d8f9      	bhi.n	4036e6 <twihs_set_speed+0x7e>
  4036f2:	041b      	lsls	r3, r3, #16
  4036f4:	f403 23e0 	and.w	r3, r3, #458752	; 0x70000
				TWIHS_CWGR_CLDIV(c_lh_div) | TWIHS_CWGR_CHDIV(c_lh_div) |
  4036f8:	0211      	lsls	r1, r2, #8
	return PASS;
  4036fa:	2500      	movs	r5, #0
				TWIHS_CWGR_CLDIV(c_lh_div) | TWIHS_CWGR_CHDIV(c_lh_div) |
  4036fc:	b2d2      	uxtb	r2, r2
  4036fe:	b289      	uxth	r1, r1
  403700:	431a      	orrs	r2, r3
  403702:	430a      	orrs	r2, r1
		p_twihs->TWIHS_CWGR =
  403704:	6102      	str	r2, [r0, #16]
}
  403706:	4628      	mov	r0, r5
  403708:	bc30      	pop	{r4, r5}
  40370a:	4770      	bx	lr
		return FAIL;
  40370c:	2501      	movs	r5, #1
}
  40370e:	4628      	mov	r0, r5
  403710:	bc30      	pop	{r4, r5}
  403712:	4770      	bx	lr
		while ((cldiv > TWIHS_CLK_DIV_MAX) && (ckdiv < TWIHS_CLK_DIV_MIN)) {
  403714:	2301      	movs	r3, #1
	uint32_t ckdiv = 0;
  403716:	2100      	movs	r1, #0
  403718:	e7c6      	b.n	4036a8 <twihs_set_speed+0x40>
  40371a:	bf00      	nop
  40371c:	00061a80 	.word	0x00061a80
  403720:	3ffd1200 	.word	0x3ffd1200
  403724:	057619f1 	.word	0x057619f1

00403728 <twihs_master_init>:
{
  403728:	b5f8      	push	{r3, r4, r5, r6, r7, lr}
	p_twihs->TWIHS_CR = TWIHS_CR_MSEN;
  40372a:	2204      	movs	r2, #4
	p_twihs->TWIHS_IDR = ~0UL;
  40372c:	f04f 37ff 	mov.w	r7, #4294967295
 * \param p_twihs Pointer to a TWIHS instance.
 */
void twihs_reset(Twihs *p_twihs)
{
	/* Set SWRST bit to reset TWIHS peripheral */
	p_twihs->TWIHS_CR = TWIHS_CR_SWRST;
  403730:	2480      	movs	r4, #128	; 0x80
	p_twihs->TWIHS_CR = TWIHS_CR_MSDIS;
  403732:	2608      	movs	r6, #8
	p_twihs->TWIHS_CR = TWIHS_CR_SVDIS;
  403734:	2520      	movs	r5, #32
	p_twihs->TWIHS_IDR = ~0UL;
  403736:	6287      	str	r7, [r0, #40]	; 0x28
	p_twihs->TWIHS_SR;
  403738:	6a07      	ldr	r7, [r0, #32]
	p_twihs->TWIHS_CR = TWIHS_CR_SWRST;
  40373a:	6004      	str	r4, [r0, #0]
	if (twihs_set_speed(p_twihs, p_opt->speed, p_opt->master_clk) == FAIL) {
  40373c:	4c06      	ldr	r4, [pc, #24]	; (403758 <twihs_master_init+0x30>)
	p_twihs->TWIHS_RHR;
  40373e:	6b07      	ldr	r7, [r0, #48]	; 0x30
	p_twihs->TWIHS_CR = TWIHS_CR_MSDIS;
  403740:	6006      	str	r6, [r0, #0]
	p_twihs->TWIHS_CR = TWIHS_CR_SVDIS;
  403742:	6005      	str	r5, [r0, #0]
	p_twihs->TWIHS_CR = TWIHS_CR_MSEN;
  403744:	6002      	str	r2, [r0, #0]
	if (twihs_set_speed(p_twihs, p_opt->speed, p_opt->master_clk) == FAIL) {
  403746:	680a      	ldr	r2, [r1, #0]
  403748:	6849      	ldr	r1, [r1, #4]
  40374a:	47a0      	blx	r4
}
  40374c:	f1a0 0001 	sub.w	r0, r0, #1
  403750:	fab0 f080 	clz	r0, r0
  403754:	0940      	lsrs	r0, r0, #5
  403756:	bdf8      	pop	{r3, r4, r5, r6, r7, pc}
  403758:	00403669 	.word	0x00403669

0040375c <twihs_master_read>:
	uint32_t status, cnt = p_packet->length;
  40375c:	68ca      	ldr	r2, [r1, #12]
	if (cnt == 0) {
  40375e:	2a00      	cmp	r2, #0
  403760:	d049      	beq.n	4037f6 <twihs_master_read+0x9a>
{
  403762:	b470      	push	{r4, r5, r6}
	p_twihs->TWIHS_MMR = 0;
  403764:	2600      	movs	r6, #0
	uint8_t *buffer = p_packet->buffer;
  403766:	688c      	ldr	r4, [r1, #8]
	p_twihs->TWIHS_MMR = 0;
  403768:	6046      	str	r6, [r0, #4]
			((p_packet->addr_length << TWIHS_MMR_IADRSZ_Pos) &
  40376a:	684b      	ldr	r3, [r1, #4]
	p_twihs->TWIHS_MMR = TWIHS_MMR_MREAD | TWIHS_MMR_DADR(p_packet->chip) |
  40376c:	7c0d      	ldrb	r5, [r1, #16]
			((p_packet->addr_length << TWIHS_MMR_IADRSZ_Pos) &
  40376e:	021b      	lsls	r3, r3, #8
	p_twihs->TWIHS_MMR = TWIHS_MMR_MREAD | TWIHS_MMR_DADR(p_packet->chip) |
  403770:	042d      	lsls	r5, r5, #16
			((p_packet->addr_length << TWIHS_MMR_IADRSZ_Pos) &
  403772:	f403 7340 	and.w	r3, r3, #768	; 0x300
	p_twihs->TWIHS_MMR = TWIHS_MMR_MREAD | TWIHS_MMR_DADR(p_packet->chip) |
  403776:	f405 05fe 	and.w	r5, r5, #8323072	; 0x7f0000
  40377a:	f443 5380 	orr.w	r3, r3, #4096	; 0x1000
  40377e:	432b      	orrs	r3, r5
  403780:	6043      	str	r3, [r0, #4]
	p_twihs->TWIHS_IADR = 0;
  403782:	60c6      	str	r6, [r0, #12]
	p_twihs->TWIHS_IADR = twihs_mk_addr(p_packet->addr, p_packet->addr_length);
  403784:	684b      	ldr	r3, [r1, #4]
	if (len == 0)
  403786:	b9bb      	cbnz	r3, 4037b8 <twihs_master_read+0x5c>
		return 0;
  403788:	461d      	mov	r5, r3
	p_twihs->TWIHS_CR = TWIHS_CR_START;
  40378a:	2301      	movs	r3, #1
	p_twihs->TWIHS_IADR = twihs_mk_addr(p_packet->addr, p_packet->addr_length);
  40378c:	60c5      	str	r5, [r0, #12]
			p_twihs->TWIHS_CR = TWIHS_CR_STOP;
  40378e:	2502      	movs	r5, #2
	p_twihs->TWIHS_CR = TWIHS_CR_START;
  403790:	6003      	str	r3, [r0, #0]
		status = p_twihs->TWIHS_SR;
  403792:	6a03      	ldr	r3, [r0, #32]
		if (status & TWIHS_SR_NACK) {
  403794:	05d9      	lsls	r1, r3, #23
  403796:	d40c      	bmi.n	4037b2 <twihs_master_read+0x56>
  403798:	f247 5130 	movw	r1, #30000	; 0x7530
		if (cnt == 1) {
  40379c:	2a01      	cmp	r2, #1
  40379e:	d01e      	beq.n	4037de <twihs_master_read+0x82>
		if (!(status & TWIHS_SR_RXRDY)) {
  4037a0:	079e      	lsls	r6, r3, #30
  4037a2:	d515      	bpl.n	4037d0 <twihs_master_read+0x74>
		*buffer++ = p_twihs->TWIHS_RHR;
  4037a4:	6b03      	ldr	r3, [r0, #48]	; 0x30
		cnt--;
  4037a6:	3a01      	subs	r2, #1
		*buffer++ = p_twihs->TWIHS_RHR;
  4037a8:	f804 3b01 	strb.w	r3, [r4], #1
		status = p_twihs->TWIHS_SR;
  4037ac:	6a03      	ldr	r3, [r0, #32]
		if (status & TWIHS_SR_NACK) {
  4037ae:	05d9      	lsls	r1, r3, #23
  4037b0:	d5f2      	bpl.n	403798 <twihs_master_read+0x3c>
			return TWIHS_RECEIVE_NACK;
  4037b2:	2005      	movs	r0, #5
}
  4037b4:	bc70      	pop	{r4, r5, r6}
  4037b6:	4770      	bx	lr
	if (len > 1) {
  4037b8:	2b01      	cmp	r3, #1
	val = addr[0];
  4037ba:	780d      	ldrb	r5, [r1, #0]
	if (len > 1) {
  4037bc:	dde5      	ble.n	40378a <twihs_master_read+0x2e>
		val |= addr[1];
  4037be:	784e      	ldrb	r6, [r1, #1]
	if (len > 2) {
  4037c0:	2b02      	cmp	r3, #2
		val |= addr[1];
  4037c2:	ea46 2505 	orr.w	r5, r6, r5, lsl #8
	if (len > 2) {
  4037c6:	d0e0      	beq.n	40378a <twihs_master_read+0x2e>
		val |= addr[2];
  4037c8:	788b      	ldrb	r3, [r1, #2]
  4037ca:	ea43 2505 	orr.w	r5, r3, r5, lsl #8
  4037ce:	e7dc      	b.n	40378a <twihs_master_read+0x2e>
		status = p_twihs->TWIHS_SR;
  4037d0:	6a03      	ldr	r3, [r0, #32]
		if (status & TWIHS_SR_NACK) {
  4037d2:	05de      	lsls	r6, r3, #23
  4037d4:	d4ed      	bmi.n	4037b2 <twihs_master_read+0x56>
		if (!timeout--) {
  4037d6:	3901      	subs	r1, #1
  4037d8:	d1e0      	bne.n	40379c <twihs_master_read+0x40>
			return TWIHS_ERROR_TIMEOUT;
  4037da:	2009      	movs	r0, #9
  4037dc:	e7ea      	b.n	4037b4 <twihs_master_read+0x58>
		if (!(status & TWIHS_SR_RXRDY)) {
  4037de:	079b      	lsls	r3, r3, #30
			p_twihs->TWIHS_CR = TWIHS_CR_STOP;
  4037e0:	6005      	str	r5, [r0, #0]
		if (!(status & TWIHS_SR_RXRDY)) {
  4037e2:	d5f5      	bpl.n	4037d0 <twihs_master_read+0x74>
		*buffer++ = p_twihs->TWIHS_RHR;
  4037e4:	6b03      	ldr	r3, [r0, #48]	; 0x30
  4037e6:	7023      	strb	r3, [r4, #0]
	while (!(p_twihs->TWIHS_SR & TWIHS_SR_TXCOMP)) {
  4037e8:	6a03      	ldr	r3, [r0, #32]
  4037ea:	07db      	lsls	r3, r3, #31
  4037ec:	d5fc      	bpl.n	4037e8 <twihs_master_read+0x8c>
	p_twihs->TWIHS_SR;
  4037ee:	6a03      	ldr	r3, [r0, #32]
	return TWIHS_SUCCESS;
  4037f0:	2000      	movs	r0, #0
}
  4037f2:	bc70      	pop	{r4, r5, r6}
  4037f4:	4770      	bx	lr
		return TWIHS_INVALID_ARGUMENT;
  4037f6:	2001      	movs	r0, #1
  4037f8:	4770      	bx	lr
  4037fa:	bf00      	nop

004037fc <twihs_master_write>:
{
  4037fc:	4603      	mov	r3, r0
	uint32_t status, cnt = p_packet->length;
  4037fe:	68c8      	ldr	r0, [r1, #12]
	if (cnt == 0) {
  403800:	2800      	cmp	r0, #0
  403802:	d034      	beq.n	40386e <twihs_master_write+0x72>
{
  403804:	b470      	push	{r4, r5, r6}
	p_twihs->TWIHS_MMR = 0;
  403806:	2600      	movs	r6, #0
	uint8_t *buffer = p_packet->buffer;
  403808:	688c      	ldr	r4, [r1, #8]
	p_twihs->TWIHS_MMR = 0;
  40380a:	605e      	str	r6, [r3, #4]
	p_twihs->TWIHS_MMR = TWIHS_MMR_DADR(p_packet->chip) |
  40380c:	7c0a      	ldrb	r2, [r1, #16]
			((p_packet->addr_length << TWIHS_MMR_IADRSZ_Pos) &
  40380e:	684d      	ldr	r5, [r1, #4]
	p_twihs->TWIHS_MMR = TWIHS_MMR_DADR(p_packet->chip) |
  403810:	0412      	lsls	r2, r2, #16
			((p_packet->addr_length << TWIHS_MMR_IADRSZ_Pos) &
  403812:	022d      	lsls	r5, r5, #8
	p_twihs->TWIHS_MMR = TWIHS_MMR_DADR(p_packet->chip) |
  403814:	f402 02fe 	and.w	r2, r2, #8323072	; 0x7f0000
			((p_packet->addr_length << TWIHS_MMR_IADRSZ_Pos) &
  403818:	f405 7540 	and.w	r5, r5, #768	; 0x300
	p_twihs->TWIHS_MMR = TWIHS_MMR_DADR(p_packet->chip) |
  40381c:	432a      	orrs	r2, r5
  40381e:	605a      	str	r2, [r3, #4]
	p_twihs->TWIHS_IADR = 0;
  403820:	60de      	str	r6, [r3, #12]
	p_twihs->TWIHS_IADR = twihs_mk_addr(p_packet->addr, p_packet->addr_length);
  403822:	684a      	ldr	r2, [r1, #4]
	if (len == 0)
  403824:	b98a      	cbnz	r2, 40384a <twihs_master_write+0x4e>
		return 0;
  403826:	4615      	mov	r5, r2
	p_twihs->TWIHS_IADR = twihs_mk_addr(p_packet->addr, p_packet->addr_length);
  403828:	60dd      	str	r5, [r3, #12]
		status = p_twihs->TWIHS_SR;
  40382a:	6a1a      	ldr	r2, [r3, #32]
		if (status & TWIHS_SR_NACK) {
  40382c:	05d6      	lsls	r6, r2, #23
  40382e:	d409      	bmi.n	403844 <twihs_master_write+0x48>
		if (!(status & TWIHS_SR_TXRDY)) {
  403830:	0755      	lsls	r5, r2, #29
  403832:	d5fa      	bpl.n	40382a <twihs_master_write+0x2e>
		p_twihs->TWIHS_THR = *buffer++;
  403834:	f814 2b01 	ldrb.w	r2, [r4], #1
	while (cnt > 0) {
  403838:	3801      	subs	r0, #1
		p_twihs->TWIHS_THR = *buffer++;
  40383a:	635a      	str	r2, [r3, #52]	; 0x34
	while (cnt > 0) {
  40383c:	d013      	beq.n	403866 <twihs_master_write+0x6a>
		status = p_twihs->TWIHS_SR;
  40383e:	6a1a      	ldr	r2, [r3, #32]
		if (status & TWIHS_SR_NACK) {
  403840:	05d6      	lsls	r6, r2, #23
  403842:	d5f5      	bpl.n	403830 <twihs_master_write+0x34>
			return TWIHS_RECEIVE_NACK;
  403844:	2005      	movs	r0, #5
}
  403846:	bc70      	pop	{r4, r5, r6}
  403848:	4770      	bx	lr
	if (len > 1) {
  40384a:	2a01      	cmp	r2, #1
	val = addr[0];
  40384c:	780d      	ldrb	r5, [r1, #0]
	if (len > 1) {
  40384e:	ddeb      	ble.n	403828 <twihs_master_write+0x2c>
		val |= addr[1];
  403850:	784e      	ldrb	r6, [r1, #1]
	if (len > 2) {
  403852:	2a02      	cmp	r2, #2
		val |= addr[1];
  403854:	ea46 2505 	orr.w	r5, r6, r5, lsl #8
	if (len > 2) {
  403858:	d0e6      	beq.n	403828 <twihs_master_write+0x2c>
		val |= addr[2];
  40385a:	788a      	ldrb	r2, [r1, #2]
  40385c:	ea42 2505 	orr.w	r5, r2, r5, lsl #8
  403860:	e7e2      	b.n	403828 <twihs_master_write+0x2c>
		if (status & TWIHS_SR_TXRDY) {
  403862:	0751      	lsls	r1, r2, #29
  403864:	d405      	bmi.n	403872 <twihs_master_write+0x76>
		status = p_twihs->TWIHS_SR;
  403866:	6a1a      	ldr	r2, [r3, #32]
		if (status & TWIHS_SR_NACK) {
  403868:	05d4      	lsls	r4, r2, #23
  40386a:	d4eb      	bmi.n	403844 <twihs_master_write+0x48>
  40386c:	e7f9      	b.n	403862 <twihs_master_write+0x66>
		return TWIHS_INVALID_ARGUMENT;
  40386e:	2001      	movs	r0, #1
  403870:	4770      	bx	lr
	p_twihs->TWIHS_CR = TWIHS_CR_STOP;
  403872:	2202      	movs	r2, #2
  403874:	601a      	str	r2, [r3, #0]
	while (!(p_twihs->TWIHS_SR & TWIHS_SR_TXCOMP)) {
  403876:	6a1a      	ldr	r2, [r3, #32]
  403878:	07d2      	lsls	r2, r2, #31
  40387a:	d5fc      	bpl.n	403876 <twihs_master_write+0x7a>
}
  40387c:	bc70      	pop	{r4, r5, r6}
  40387e:	4770      	bx	lr

00403880 <uart_write>:
 * \retval 1 I/O Failure, UART is not ready.
 */
uint32_t uart_write(Uart *p_uart, const uint8_t uc_data)
{
	/* Check if the transmitter is ready */
	if (!(p_uart->UART_SR & UART_SR_TXRDY))
  403880:	6943      	ldr	r3, [r0, #20]
  403882:	079b      	lsls	r3, r3, #30
  403884:	d502      	bpl.n	40388c <uart_write+0xc>
		return 1;

	/* Send character */
	p_uart->UART_THR = uc_data;
  403886:	61c1      	str	r1, [r0, #28]
	return 0;
  403888:	2000      	movs	r0, #0
  40388a:	4770      	bx	lr
		return 1;
  40388c:	2001      	movs	r0, #1
}
  40388e:	4770      	bx	lr

00403890 <uart_read>:
 * \retval 1 I/O Failure, UART is not ready.
 */
uint32_t uart_read(Uart *p_uart, uint8_t *puc_data)
{
	/* Check if the receiver is ready */
	if ((p_uart->UART_SR & UART_SR_RXRDY) == 0)
  403890:	6943      	ldr	r3, [r0, #20]
  403892:	07db      	lsls	r3, r3, #31
  403894:	d503      	bpl.n	40389e <uart_read+0xe>
		return 1;

	/* Read character */
	*puc_data = (uint8_t) p_uart->UART_RHR;
  403896:	6983      	ldr	r3, [r0, #24]
	return 0;
  403898:	2000      	movs	r0, #0
	*puc_data = (uint8_t) p_uart->UART_RHR;
  40389a:	700b      	strb	r3, [r1, #0]
	return 0;
  40389c:	4770      	bx	lr
		return 1;
  40389e:	2001      	movs	r0, #1
}
  4038a0:	4770      	bx	lr
  4038a2:	bf00      	nop

004038a4 <usart_set_async_baudrate>:
	uint32_t cd_fp;
	uint32_t cd;
	uint32_t fp;

	/* Calculate the receiver sampling divide of baudrate clock. */
	if (ul_mck >= HIGH_FRQ_SAMPLE_DIV * baudrate) {
  4038a4:	010b      	lsls	r3, r1, #4
  4038a6:	4293      	cmp	r3, r2
{
  4038a8:	b410      	push	{r4}
	if (ul_mck >= HIGH_FRQ_SAMPLE_DIV * baudrate) {
  4038aa:	d814      	bhi.n	4038d6 <usart_set_async_baudrate+0x32>
	} else {
		over = LOW_FRQ_SAMPLE_DIV;
	}

	/* Calculate clock divider according to the fraction calculated formula. */
	cd_fp = (8 * ul_mck + (over * baudrate) / 2) / (over * baudrate);
  4038ac:	0859      	lsrs	r1, r3, #1
	cd = cd_fp >> 3;
	fp = cd_fp & 0x07;
	if (cd < MIN_CD_VALUE || cd > MAX_CD_VALUE) {
  4038ae:	f64f 74fe 	movw	r4, #65534	; 0xfffe
	cd_fp = (8 * ul_mck + (over * baudrate) / 2) / (over * baudrate);
  4038b2:	eb01 02c2 	add.w	r2, r1, r2, lsl #3
  4038b6:	fbb2 f2f3 	udiv	r2, r2, r3
	cd = cd_fp >> 3;
  4038ba:	08d3      	lsrs	r3, r2, #3
	if (cd < MIN_CD_VALUE || cd > MAX_CD_VALUE) {
  4038bc:	1e59      	subs	r1, r3, #1
  4038be:	42a1      	cmp	r1, r4
  4038c0:	d815      	bhi.n	4038ee <usart_set_async_baudrate+0x4a>
	if (over == 8) {
		p_usart->US_MR |= US_MR_OVER;
	}

	/* Configure the baudrate generate register. */
	p_usart->US_BRGR = (cd << US_BRGR_CD_Pos) | (fp << US_BRGR_FP_Pos);
  4038c2:	0412      	lsls	r2, r2, #16

	return 0;
  4038c4:	2100      	movs	r1, #0
	p_usart->US_BRGR = (cd << US_BRGR_CD_Pos) | (fp << US_BRGR_FP_Pos);
  4038c6:	f402 22e0 	and.w	r2, r2, #458752	; 0x70000
  4038ca:	431a      	orrs	r2, r3
  4038cc:	6202      	str	r2, [r0, #32]
}
  4038ce:	4608      	mov	r0, r1
  4038d0:	f85d 4b04 	ldr.w	r4, [sp], #4
  4038d4:	4770      	bx	lr
	cd_fp = (8 * ul_mck + (over * baudrate) / 2) / (over * baudrate);
  4038d6:	00c9      	lsls	r1, r1, #3
	if (cd < MIN_CD_VALUE || cd > MAX_CD_VALUE) {
  4038d8:	f64f 74fe 	movw	r4, #65534	; 0xfffe
	cd_fp = (8 * ul_mck + (over * baudrate) / 2) / (over * baudrate);
  4038dc:	084b      	lsrs	r3, r1, #1
  4038de:	eb03 02c2 	add.w	r2, r3, r2, lsl #3
  4038e2:	fbb2 f2f1 	udiv	r2, r2, r1
	cd = cd_fp >> 3;
  4038e6:	08d3      	lsrs	r3, r2, #3
	if (cd < MIN_CD_VALUE || cd > MAX_CD_VALUE) {
  4038e8:	1e59      	subs	r1, r3, #1
  4038ea:	42a1      	cmp	r1, r4
  4038ec:	d904      	bls.n	4038f8 <usart_set_async_baudrate+0x54>
		return 1;
  4038ee:	2101      	movs	r1, #1
}
  4038f0:	f85d 4b04 	ldr.w	r4, [sp], #4
  4038f4:	4608      	mov	r0, r1
  4038f6:	4770      	bx	lr
		p_usart->US_MR |= US_MR_OVER;
  4038f8:	6841      	ldr	r1, [r0, #4]
  4038fa:	f441 2100 	orr.w	r1, r1, #524288	; 0x80000
  4038fe:	6041      	str	r1, [r0, #4]
  403900:	e7df      	b.n	4038c2 <usart_set_async_baudrate+0x1e>
  403902:	bf00      	nop

00403904 <usart_init_rs232>:
 * \retval 0 on success.
 * \retval 1 on failure.
 */
uint32_t usart_init_rs232(Usart *p_usart,
		const sam_usart_opt_t *p_usart_opt, uint32_t ul_mck)
{
  403904:	b5f8      	push	{r3, r4, r5, r6, r7, lr}
	p_usart->US_MR = 0;
  403906:	2400      	movs	r4, #0
 *
 * \param p_usart Pointer to a USART instance.
 */
void usart_disable_writeprotect(Usart *p_usart)
{
	p_usart->US_WPMR = US_WPMR_WPKEY_PASSWD;
  403908:	4d14      	ldr	r5, [pc, #80]	; (40395c <usart_init_rs232+0x58>)
	p_usart->US_CR = US_CR_RSTSTA;
  40390a:	f44f 7680 	mov.w	r6, #256	; 0x100
	p_usart->US_CR = US_CR_RSTTX | US_CR_TXDIS;
  40390e:	f04f 0e88 	mov.w	lr, #136	; 0x88
	p_usart->US_CR = US_CR_RSTRX | US_CR_RXDIS;
  403912:	2724      	movs	r7, #36	; 0x24
	p_usart->US_WPMR = US_WPMR_WPKEY_PASSWD;
  403914:	f8c0 50e4 	str.w	r5, [r0, #228]	; 0xe4
	p_usart->US_MR = 0;
  403918:	6044      	str	r4, [r0, #4]
	p_usart->US_CR = US_CR_RTSDIS;
  40391a:	f44f 2500 	mov.w	r5, #524288	; 0x80000
	p_usart->US_RTOR = 0;
  40391e:	6244      	str	r4, [r0, #36]	; 0x24
	p_usart->US_TTGR = 0;
  403920:	6284      	str	r4, [r0, #40]	; 0x28
	p_usart->US_CR = US_CR_RSTTX | US_CR_TXDIS;
  403922:	f8c0 e000 	str.w	lr, [r0]
	p_usart->US_CR = US_CR_RSTRX | US_CR_RXDIS;
  403926:	6007      	str	r7, [r0, #0]
	p_usart->US_CR = US_CR_RSTSTA;
  403928:	6006      	str	r6, [r0, #0]
	ul_reg_val = 0;
  40392a:	4e0d      	ldr	r6, [pc, #52]	; (403960 <usart_init_rs232+0x5c>)
	p_usart->US_CR = US_CR_RTSDIS;
  40392c:	6005      	str	r5, [r0, #0]
	ul_reg_val = 0;
  40392e:	6034      	str	r4, [r6, #0]
	if (!p_usart_opt || usart_set_async_baudrate(p_usart,
  403930:	b189      	cbz	r1, 403956 <usart_init_rs232+0x52>
  403932:	460d      	mov	r5, r1
  403934:	4b0b      	ldr	r3, [pc, #44]	; (403964 <usart_init_rs232+0x60>)
  403936:	6809      	ldr	r1, [r1, #0]
  403938:	4604      	mov	r4, r0
  40393a:	4798      	blx	r3
  40393c:	b958      	cbnz	r0, 403956 <usart_init_rs232+0x52>
	ul_reg_val |= p_usart_opt->char_length | p_usart_opt->parity_type |
  40393e:	686a      	ldr	r2, [r5, #4]
  403940:	68ab      	ldr	r3, [r5, #8]
  403942:	692f      	ldr	r7, [r5, #16]
  403944:	4313      	orrs	r3, r2
			p_usart_opt->channel_mode | p_usart_opt->stop_bits;
  403946:	68e9      	ldr	r1, [r5, #12]
	p_usart->US_MR |= ul_reg_val;
  403948:	6862      	ldr	r2, [r4, #4]
	ul_reg_val |= p_usart_opt->char_length | p_usart_opt->parity_type |
  40394a:	433b      	orrs	r3, r7
			p_usart_opt->channel_mode | p_usart_opt->stop_bits;
  40394c:	430b      	orrs	r3, r1
	p_usart->US_MR |= ul_reg_val;
  40394e:	431a      	orrs	r2, r3
	ul_reg_val |= p_usart_opt->char_length | p_usart_opt->parity_type |
  403950:	6033      	str	r3, [r6, #0]
	p_usart->US_MR |= ul_reg_val;
  403952:	6062      	str	r2, [r4, #4]
}
  403954:	bdf8      	pop	{r3, r4, r5, r6, r7, pc}
		return 1;
  403956:	2001      	movs	r0, #1
  403958:	bdf8      	pop	{r3, r4, r5, r6, r7, pc}
  40395a:	bf00      	nop
  40395c:	55534100 	.word	0x55534100
  403960:	20402c7c 	.word	0x20402c7c
  403964:	004038a5 	.word	0x004038a5

00403968 <usart_enable_tx>:
	p_usart->US_CR = US_CR_TXEN;
  403968:	2340      	movs	r3, #64	; 0x40
  40396a:	6003      	str	r3, [r0, #0]
  40396c:	4770      	bx	lr
  40396e:	bf00      	nop

00403970 <usart_enable_rx>:
	p_usart->US_CR = US_CR_RXEN;
  403970:	2310      	movs	r3, #16
  403972:	6003      	str	r3, [r0, #0]
  403974:	4770      	bx	lr
  403976:	bf00      	nop

00403978 <usart_enable_interrupt>:
	p_usart->US_IER = ul_sources;
  403978:	6081      	str	r1, [r0, #8]
  40397a:	4770      	bx	lr

0040397c <usart_get_status>:
	return p_usart->US_CSR;
  40397c:	6940      	ldr	r0, [r0, #20]
}
  40397e:	4770      	bx	lr

00403980 <usart_write>:
	if (!(p_usart->US_CSR & US_CSR_TXRDY)) {
  403980:	6942      	ldr	r2, [r0, #20]
{
  403982:	4603      	mov	r3, r0
	if (!(p_usart->US_CSR & US_CSR_TXRDY)) {
  403984:	0792      	lsls	r2, r2, #30
  403986:	d504      	bpl.n	403992 <usart_write+0x12>
	p_usart->US_THR = US_THR_TXCHR(c);
  403988:	f3c1 0108 	ubfx	r1, r1, #0, #9
	return 0;
  40398c:	2000      	movs	r0, #0
	p_usart->US_THR = US_THR_TXCHR(c);
  40398e:	61d9      	str	r1, [r3, #28]
	return 0;
  403990:	4770      	bx	lr
		return 1;
  403992:	2001      	movs	r0, #1
}
  403994:	4770      	bx	lr
  403996:	bf00      	nop

00403998 <usart_read>:
	if (!(p_usart->US_CSR & US_CSR_RXRDY)) {
  403998:	6943      	ldr	r3, [r0, #20]
  40399a:	07db      	lsls	r3, r3, #31
  40399c:	d505      	bpl.n	4039aa <usart_read+0x12>
	*c = p_usart->US_RHR & US_RHR_RXCHR_Msk;
  40399e:	6983      	ldr	r3, [r0, #24]
	return 0;
  4039a0:	2000      	movs	r0, #0
	*c = p_usart->US_RHR & US_RHR_RXCHR_Msk;
  4039a2:	f3c3 0308 	ubfx	r3, r3, #0, #9
  4039a6:	600b      	str	r3, [r1, #0]
	return 0;
  4039a8:	4770      	bx	lr
		return 1;
  4039aa:	2001      	movs	r0, #1
}
  4039ac:	4770      	bx	lr
  4039ae:	bf00      	nop

004039b0 <xdmac_configure_transfer>:
	return xdmac->XDMAC_CHID[channel_num].XDMAC_CIS;
  4039b0:	eb00 1181 	add.w	r1, r0, r1, lsl #6
	Assert(xdmac);
	Assert(channel_num < XDMACCHID_NUMBER);
	Assert(cfg);
	
	xdmac_channel_get_interrupt_status( xdmac, channel_num);
	xdmac_channel_set_source_addr(xdmac, channel_num, cfg->mbr_sa);
  4039b4:	6853      	ldr	r3, [r2, #4]
  4039b6:	6dc8      	ldr	r0, [r1, #92]	; 0x5c
	xdmac->XDMAC_CHID[channel_num].XDMAC_CSA = src_addr;
  4039b8:	660b      	str	r3, [r1, #96]	; 0x60
	xdmac_channel_set_destination_addr(xdmac, channel_num, cfg->mbr_da);
  4039ba:	6893      	ldr	r3, [r2, #8]
	xdmac->XDMAC_CHID[channel_num].XDMAC_CDA = dst_addr;
  4039bc:	664b      	str	r3, [r1, #100]	; 0x64
 */
static inline void xdmac_channel_set_microblock_control(Xdmac *xdmac, uint32_t channel_num, uint32_t ublen)
{
	Assert(xdmac);
	Assert(channel_num < XDMACCHID_NUMBER);
	xdmac->XDMAC_CHID[channel_num].XDMAC_CUBC = XDMAC_CUBC_UBLEN(ublen);
  4039be:	6813      	ldr	r3, [r2, #0]
  4039c0:	f023 437f 	bic.w	r3, r3, #4278190080	; 0xff000000
  4039c4:	670b      	str	r3, [r1, #112]	; 0x70
 */
static inline void xdmac_channel_set_block_control(Xdmac *xdmac, uint32_t channel_num, uint32_t blen)
{
	Assert(xdmac);
	Assert(channel_num < XDMACCHID_NUMBER);
	xdmac->XDMAC_CHID[channel_num].XDMAC_CBC = XDMAC_CBC_BLEN(blen);
  4039c6:	6913      	ldr	r3, [r2, #16]
  4039c8:	f3c3 030b 	ubfx	r3, r3, #0, #12
  4039cc:	674b      	str	r3, [r1, #116]	; 0x74
	xdmac_channel_set_microblock_control(xdmac, channel_num, cfg->mbr_ubc);
	xdmac_channel_set_block_control(xdmac, channel_num, cfg->mbr_bc);
	xdmac_channel_set_datastride_mempattern(xdmac, channel_num, cfg->mbr_ds);
  4039ce:	6953      	ldr	r3, [r2, #20]
 */
static inline void xdmac_channel_set_datastride_mempattern(Xdmac *xdmac, uint32_t channel_num, uint32_t dds_msp)
{
	Assert(xdmac);
	Assert(channel_num < XDMACCHID_NUMBER);
	xdmac->XDMAC_CHID[channel_num].XDMAC_CDS_MSP = dds_msp;
  4039d0:	67cb      	str	r3, [r1, #124]	; 0x7c
static inline void xdmac_channel_set_source_microblock_stride(Xdmac *xdmac,
		uint32_t channel_num, uint32_t subs)
{
	Assert(xdmac);
	Assert(channel_num < XDMACCHID_NUMBER);
	xdmac->XDMAC_CHID[channel_num].XDMAC_CSUS = XDMAC_CSUS_SUBS(subs);
  4039d2:	6993      	ldr	r3, [r2, #24]
  4039d4:	f023 437f 	bic.w	r3, r3, #4278190080	; 0xff000000
  4039d8:	f8c1 3080 	str.w	r3, [r1, #128]	; 0x80
static inline void xdmac_channel_set_destination_microblock_stride(Xdmac *xdmac,
		uint32_t channel_num, uint32_t dubs)
{
	Assert(xdmac);
	Assert(channel_num < XDMACCHID_NUMBER);
	xdmac->XDMAC_CHID[channel_num].XDMAC_CDUS = XDMAC_CDUS_DUBS(dubs);
  4039dc:	69d3      	ldr	r3, [r2, #28]
  4039de:	f023 437f 	bic.w	r3, r3, #4278190080	; 0xff000000
  4039e2:	f8c1 3084 	str.w	r3, [r1, #132]	; 0x84
	xdmac_channel_set_source_microblock_stride(xdmac, channel_num, cfg->mbr_sus);
	xdmac_channel_set_destination_microblock_stride(xdmac, channel_num, cfg->mbr_dus);
	xdmac_channel_set_config(xdmac, channel_num, cfg->mbr_cfg );
  4039e6:	68d3      	ldr	r3, [r2, #12]
	xdmac->XDMAC_CHID[channel_num].XDMAC_CC = config;
  4039e8:	678b      	str	r3, [r1, #120]	; 0x78
  4039ea:	4770      	bx	lr

004039ec <sysclk_init>:
	pmc_disable_udpck();
}
#endif // CONFIG_USBCLK_SOURCE

void sysclk_init(void)
{
  4039ec:	b570      	push	{r4, r5, r6, lr}
	struct pll_config pllcfg;

	/* Set flash wait state to max in case the below clock switching. */
	system_init_flash(CHIP_FREQ_CPU_MAX);
  4039ee:	4810      	ldr	r0, [pc, #64]	; (403a30 <sysclk_init+0x44>)
  4039f0:	4d10      	ldr	r5, [pc, #64]	; (403a34 <sysclk_init+0x48>)
  4039f2:	47a8      	blx	r5
	case OSC_MAINCK_8M_RC:
		pmc_switch_mainck_to_fastrc(CKGR_MOR_MOSCRCF_8_MHz);
		break;

	case OSC_MAINCK_12M_RC:
		pmc_switch_mainck_to_fastrc(CKGR_MOR_MOSCRCF_12_MHz);
  4039f4:	2020      	movs	r0, #32
  4039f6:	4b10      	ldr	r3, [pc, #64]	; (403a38 <sysclk_init+0x4c>)
  4039f8:	4c10      	ldr	r4, [pc, #64]	; (403a3c <sysclk_init+0x50>)
  4039fa:	4798      	blx	r3
	case OSC_MAINCK_4M_RC:
	case OSC_MAINCK_8M_RC:
	case OSC_MAINCK_12M_RC:
	case OSC_MAINCK_XTAL:
	case OSC_MAINCK_BYPASS:
		return pmc_osc_is_ready_mainck();
  4039fc:	47a0      	blx	r4
 *
 * \param id A number identifying the oscillator to wait for.
 */
static inline void osc_wait_ready(uint8_t id)
{
	while (!osc_is_ready(id)) {
  4039fe:	2800      	cmp	r0, #0
  403a00:	d0fc      	beq.n	4039fc <sysclk_init+0x10>
static inline void pll_enable(const struct pll_config *p_cfg, uint32_t ul_pll_id)
{
	Assert(ul_pll_id < NR_PLLS);

	if (ul_pll_id == PLLA_ID) {
		pmc_disable_pllack(); // Always stop PLL first!
  403a02:	4b0f      	ldr	r3, [pc, #60]	; (403a40 <sysclk_init+0x54>)
  403a04:	4798      	blx	r3
  403a06:	4c0f      	ldr	r4, [pc, #60]	; (403a44 <sysclk_init+0x58>)
		PMC->CKGR_PLLAR = CKGR_PLLAR_ONE | p_cfg->ctrl;
  403a08:	4b0f      	ldr	r3, [pc, #60]	; (403a48 <sysclk_init+0x5c>)
  403a0a:	4a10      	ldr	r2, [pc, #64]	; (403a4c <sysclk_init+0x60>)
  403a0c:	629a      	str	r2, [r3, #40]	; 0x28
static inline uint32_t pll_is_locked(uint32_t ul_pll_id)
{
	Assert(ul_pll_id < NR_PLLS);

	if (ul_pll_id == PLLA_ID) {
	return pmc_is_locked_pllack();
  403a0e:	47a0      	blx	r4
 */
static inline int pll_wait_for_lock(unsigned int pll_id)
{
	Assert(pll_id < NR_PLLS);

	while (!pll_is_locked(pll_id)) {
  403a10:	2800      	cmp	r0, #0
  403a12:	d0fc      	beq.n	403a0e <sysclk_init+0x22>
	else if (CONFIG_SYSCLK_SOURCE == SYSCLK_SRC_PLLACK) {
		pll_enable_source(CONFIG_PLL0_SOURCE);
		pll_config_defaults(&pllcfg, 0);
		pll_enable(&pllcfg, 0);
		pll_wait_for_lock(0);
		pmc_mck_set_division(CONFIG_SYSCLK_DIV);
  403a14:	2002      	movs	r0, #2
  403a16:	4b0e      	ldr	r3, [pc, #56]	; (403a50 <sysclk_init+0x64>)
  403a18:	4798      	blx	r3
		pmc_switch_mck_to_pllack(CONFIG_SYSCLK_PRES);
  403a1a:	4b0e      	ldr	r3, [pc, #56]	; (403a54 <sysclk_init+0x68>)
  403a1c:	2000      	movs	r0, #0
  403a1e:	4798      	blx	r3
		pll_wait_for_lock(1);
		pmc_mck_set_division(CONFIG_SYSCLK_DIV);
		pmc_switch_mck_to_upllck(CONFIG_SYSCLK_PRES);
	}
	/* Update the SystemFrequency variable */
	SystemCoreClockUpdate();
  403a20:	4b0d      	ldr	r3, [pc, #52]	; (403a58 <sysclk_init+0x6c>)
  403a22:	4798      	blx	r3

	/* Set a flash wait state depending on the new cpu frequency */
	system_init_flash(sysclk_get_cpu_hz());
  403a24:	462b      	mov	r3, r5
  403a26:	4802      	ldr	r0, [pc, #8]	; (403a30 <sysclk_init+0x44>)

#if (defined CONFIG_SYSCLK_DEFAULT_RETURNS_SLOW_OSC)
	/* Signal that the internal frequencies are setup */
	sysclk_initialized = 1;
#endif
}
  403a28:	e8bd 4070 	ldmia.w	sp!, {r4, r5, r6, lr}
	system_init_flash(sysclk_get_cpu_hz());
  403a2c:	4718      	bx	r3
  403a2e:	bf00      	nop
  403a30:	11e1a300 	.word	0x11e1a300
  403a34:	00404425 	.word	0x00404425
  403a38:	00404139 	.word	0x00404139
  403a3c:	00404185 	.word	0x00404185
  403a40:	00404195 	.word	0x00404195
  403a44:	004041a5 	.word	0x004041a5
  403a48:	400e0600 	.word	0x400e0600
  403a4c:	20183f01 	.word	0x20183f01
  403a50:	004040b5 	.word	0x004040b5
  403a54:	004040e5 	.word	0x004040e5
  403a58:	00404341 	.word	0x00404341

00403a5c <board_init>:

void board_init(void)
{
#ifndef CONF_BOARD_KEEP_WATCHDOG_AT_INIT
	/* Disable the watchdog */
	WDT->WDT_MR = WDT_MR_WDDIS;
  403a5c:	4b81      	ldr	r3, [pc, #516]	; (403c64 <board_init+0x208>)
  403a5e:	f44f 4200 	mov.w	r2, #32768	; 0x8000
{
  403a62:	e92d 41f0 	stmdb	sp!, {r4, r5, r6, r7, r8, lr}
	WDT->WDT_MR = WDT_MR_WDDIS;
  403a66:	605a      	str	r2, [r3, #4]
    This function ensures the apparent order of the explicit memory operations before
    and after the instruction, without ensuring their completion.
 */
__attribute__( ( always_inline ) ) __STATIC_INLINE void __DMB(void)
{
  __ASM volatile ("dmb");
  403a68:	f3bf 8f5f 	dmb	sy
		mpu_cal_mpu_region_size(ITCM_END_ADDRESS - ITCM_START_ADDRESS) |
  403a6c:	f8df 826c 	ldr.w	r8, [pc, #620]	; 403cdc <board_init+0x280>
	dw_region_attr =
  403a70:	4f7d      	ldr	r7, [pc, #500]	; (403c68 <board_init+0x20c>)
		mpu_cal_mpu_region_size(ITCM_END_ADDRESS - ITCM_START_ADDRESS) |
  403a72:	4d7e      	ldr	r5, [pc, #504]	; (403c6c <board_init+0x210>)
  403a74:	4640      	mov	r0, r8
	mpu_set_region( dw_region_base_addr, dw_region_attr);
  403a76:	4c7e      	ldr	r4, [pc, #504]	; (403c70 <board_init+0x214>)
		mpu_cal_mpu_region_size(ITCM_END_ADDRESS - ITCM_START_ADDRESS) |
  403a78:	47a8      	blx	r5
	mpu_set_region( dw_region_base_addr, dw_region_attr);
  403a7a:	ea40 0107 	orr.w	r1, r0, r7
  403a7e:	2011      	movs	r0, #17
  403a80:	47a0      	blx	r4
		mpu_cal_mpu_region_size(IFLASH_END_ADDRESS - IFLASH_START_ADDRESS) |
  403a82:	487c      	ldr	r0, [pc, #496]	; (403c74 <board_init+0x218>)
  403a84:	47a8      	blx	r5
	mpu_set_region( dw_region_base_addr, dw_region_attr);
  403a86:	497c      	ldr	r1, [pc, #496]	; (403c78 <board_init+0x21c>)
	dw_region_attr =
  403a88:	4e7c      	ldr	r6, [pc, #496]	; (403c7c <board_init+0x220>)
	mpu_set_region( dw_region_base_addr, dw_region_attr);
  403a8a:	4301      	orrs	r1, r0
  403a8c:	487c      	ldr	r0, [pc, #496]	; (403c80 <board_init+0x224>)
  403a8e:	47a0      	blx	r4
		mpu_cal_mpu_region_size(DTCM_END_ADDRESS - DTCM_START_ADDRESS) |
  403a90:	4640      	mov	r0, r8
  403a92:	47a8      	blx	r5
	mpu_set_region( dw_region_base_addr, dw_region_attr);
  403a94:	ea40 0107 	orr.w	r1, r0, r7
  403a98:	487a      	ldr	r0, [pc, #488]	; (403c84 <board_init+0x228>)
  403a9a:	47a0      	blx	r4
		mpu_cal_mpu_region_size(SRAM_FIRST_END_ADDRESS - SRAM_FIRST_START_ADDRESS)
  403a9c:	487a      	ldr	r0, [pc, #488]	; (403c88 <board_init+0x22c>)
  403a9e:	47a8      	blx	r5
	mpu_set_region( dw_region_base_addr, dw_region_attr);
  403aa0:	ea40 0106 	orr.w	r1, r0, r6
  403aa4:	4879      	ldr	r0, [pc, #484]	; (403c8c <board_init+0x230>)
  403aa6:	47a0      	blx	r4
		mpu_cal_mpu_region_size(SRAM_SECOND_END_ADDRESS - SRAM_SECOND_START_ADDRESS) |
  403aa8:	4879      	ldr	r0, [pc, #484]	; (403c90 <board_init+0x234>)
  403aaa:	47a8      	blx	r5
	dw_region_attr = MPU_AP_FULL_ACCESS |
  403aac:	4f79      	ldr	r7, [pc, #484]	; (403c94 <board_init+0x238>)
	mpu_set_region( dw_region_base_addr, dw_region_attr);
  403aae:	ea40 0106 	orr.w	r1, r0, r6
  403ab2:	4879      	ldr	r0, [pc, #484]	; (403c98 <board_init+0x23c>)
  403ab4:	47a0      	blx	r4
		mpu_cal_mpu_region_size(PERIPHERALS_END_ADDRESS - PERIPHERALS_START_ADDRESS)
  403ab6:	f06f 4060 	mvn.w	r0, #3758096384	; 0xe0000000
  403aba:	47a8      	blx	r5
	dw_region_attr =
  403abc:	f8df 8220 	ldr.w	r8, [pc, #544]	; 403ce0 <board_init+0x284>
	mpu_set_region( dw_region_base_addr, dw_region_attr);
  403ac0:	ea40 0107 	orr.w	r1, r0, r7
  403ac4:	4875      	ldr	r0, [pc, #468]	; (403c9c <board_init+0x240>)
  403ac6:	47a0      	blx	r4
		mpu_cal_mpu_region_size(EXT_EBI_END_ADDRESS - EXT_EBI_START_ADDRESS) |
  403ac8:	f06f 4070 	mvn.w	r0, #4026531840	; 0xf0000000
  403acc:	47a8      	blx	r5
	mpu_set_region( dw_region_base_addr, dw_region_attr);
  403ace:	ea40 0108 	orr.w	r1, r0, r8
  403ad2:	4873      	ldr	r0, [pc, #460]	; (403ca0 <board_init+0x244>)
  403ad4:	47a0      	blx	r4
		mpu_cal_mpu_region_size(SDRAM_END_ADDRESS - SDRAM_START_ADDRESS) |
  403ad6:	f06f 4070 	mvn.w	r0, #4026531840	; 0xf0000000
  403ada:	47a8      	blx	r5
	mpu_set_region( dw_region_base_addr, dw_region_attr);
  403adc:	4971      	ldr	r1, [pc, #452]	; (403ca4 <board_init+0x248>)
	SCB->SHCSR |= (SCB_SHCSR_MEMFAULTENA_Msk | SCB_SHCSR_BUSFAULTENA_Msk
  403ade:	4e72      	ldr	r6, [pc, #456]	; (403ca8 <board_init+0x24c>)
	mpu_set_region( dw_region_base_addr, dw_region_attr);
  403ae0:	4301      	orrs	r1, r0
  403ae2:	4872      	ldr	r0, [pc, #456]	; (403cac <board_init+0x250>)
  403ae4:	47a0      	blx	r4
		mpu_cal_mpu_region_size(QSPI_END_ADDRESS - QSPI_START_ADDRESS) |
  403ae6:	f06f 4060 	mvn.w	r0, #3758096384	; 0xe0000000
  403aea:	47a8      	blx	r5
	mpu_set_region( dw_region_base_addr, dw_region_attr);
  403aec:	ea40 0108 	orr.w	r1, r0, r8
  403af0:	486f      	ldr	r0, [pc, #444]	; (403cb0 <board_init+0x254>)
  403af2:	47a0      	blx	r4
		mpu_cal_mpu_region_size(USBHSRAM_END_ADDRESS - USBHSRAM_START_ADDRESS) |
  403af4:	486f      	ldr	r0, [pc, #444]	; (403cb4 <board_init+0x258>)
  403af6:	47a8      	blx	r5
	mpu_set_region( dw_region_base_addr, dw_region_attr);
  403af8:	ea40 0107 	orr.w	r1, r0, r7
  403afc:	486e      	ldr	r0, [pc, #440]	; (403cb8 <board_init+0x25c>)
  403afe:	47a0      	blx	r4
	SCB->SHCSR |= (SCB_SHCSR_MEMFAULTENA_Msk | SCB_SHCSR_BUSFAULTENA_Msk
  403b00:	6a73      	ldr	r3, [r6, #36]	; 0x24
	mpu_enable( MPU_ENABLE | MPU_PRIVDEFENA);
  403b02:	2005      	movs	r0, #5
  403b04:	4a6d      	ldr	r2, [pc, #436]	; (403cbc <board_init+0x260>)
	SCB->SHCSR |= (SCB_SHCSR_MEMFAULTENA_Msk | SCB_SHCSR_BUSFAULTENA_Msk
  403b06:	f443 23e0 	orr.w	r3, r3, #458752	; 0x70000
  403b0a:	6273      	str	r3, [r6, #36]	; 0x24
	mpu_enable( MPU_ENABLE | MPU_PRIVDEFENA);
  403b0c:	4790      	blx	r2
  __ASM volatile ("dsb");
  403b0e:	f3bf 8f4f 	dsb	sy
  __ASM volatile ("isb");
  403b12:	f3bf 8f6f 	isb	sy
  __ASM volatile ("dsb");
  403b16:	f3bf 8f4f 	dsb	sy
  __ASM volatile ("isb");
  403b1a:	f3bf 8f6f 	isb	sy
__STATIC_INLINE void SCB_EnableICache(void)
{
  #if (__ICACHE_PRESENT == 1)
    __DSB();
    __ISB();
    SCB->ICIALLU = 0;                       // invalidate I-Cache
  403b1e:	2300      	movs	r3, #0
  403b20:	f8c6 3250 	str.w	r3, [r6, #592]	; 0x250
    SCB->CCR |=  SCB_CCR_IC_Msk;            // enable I-Cache
  403b24:	6973      	ldr	r3, [r6, #20]
  403b26:	f443 3300 	orr.w	r3, r3, #131072	; 0x20000
  403b2a:	6173      	str	r3, [r6, #20]
  __ASM volatile ("dsb");
  403b2c:	f3bf 8f4f 	dsb	sy
  __ASM volatile ("isb");
  403b30:	f3bf 8f6f 	isb	sy
		*dst++ = *src++;
	}
#endif
#else
	/* TCM Configuration */
	EFC->EEFC_FCR = (EEFC_FCR_FKEY_PASSWD | EEFC_FCR_FCMD_CGPB 
  403b34:	4b62      	ldr	r3, [pc, #392]	; (403cc0 <board_init+0x264>)
  403b36:	4963      	ldr	r1, [pc, #396]	; (403cc4 <board_init+0x268>)
					| EEFC_FCR_FARG(8));
	EFC->EEFC_FCR = (EEFC_FCR_FKEY_PASSWD | EEFC_FCR_FCMD_CGPB 
  403b38:	4a63      	ldr	r2, [pc, #396]	; (403cc8 <board_init+0x26c>)
	EFC->EEFC_FCR = (EEFC_FCR_FKEY_PASSWD | EEFC_FCR_FCMD_CGPB 
  403b3a:	6059      	str	r1, [r3, #4]
	EFC->EEFC_FCR = (EEFC_FCR_FKEY_PASSWD | EEFC_FCR_FCMD_CGPB 
  403b3c:	605a      	str	r2, [r3, #4]
  __ASM volatile ("dsb");
  403b3e:	f3bf 8f4f 	dsb	sy
  __ASM volatile ("isb");
  403b42:	f3bf 8f6f 	isb	sy
	SCB->ITCMCR &= ~(uint32_t)(1UL);
  403b46:	f8d6 3290 	ldr.w	r3, [r6, #656]	; 0x290
  403b4a:	f023 0301 	bic.w	r3, r3, #1
  403b4e:	f8c6 3290 	str.w	r3, [r6, #656]	; 0x290
	SCB->DTCMCR &= ~(uint32_t)SCB_DTCMCR_EN_Msk;
  403b52:	f8d6 3294 	ldr.w	r3, [r6, #660]	; 0x294
  403b56:	f023 0301 	bic.w	r3, r3, #1
  403b5a:	f8c6 3294 	str.w	r3, [r6, #660]	; 0x294
  __ASM volatile ("dsb");
  403b5e:	f3bf 8f4f 	dsb	sy
  __ASM volatile ("isb");
  403b62:	f3bf 8f6f 	isb	sy
  403b66:	4c59      	ldr	r4, [pc, #356]	; (403ccc <board_init+0x270>)
  403b68:	200a      	movs	r0, #10
  403b6a:	47a0      	blx	r4
  403b6c:	200b      	movs	r0, #11
  403b6e:	47a0      	blx	r4
  403b70:	200c      	movs	r0, #12
  403b72:	47a0      	blx	r4
  403b74:	2010      	movs	r0, #16
  403b76:	47a0      	blx	r4
  403b78:	2011      	movs	r0, #17
  403b7a:	47a0      	blx	r4
		enum ioport_direction dir)
{
	Pio *base = arch_ioport_pin_to_base(pin);

	if (dir == IOPORT_DIR_OUTPUT) {
		base->PIO_OER = arch_ioport_pin_to_mask(pin);
  403b7c:	f44f 0600 	mov.w	r6, #8388608	; 0x800000
  403b80:	4b53      	ldr	r3, [pc, #332]	; (403cd0 <board_init+0x274>)
  403b82:	f44f 7200 	mov.w	r2, #512	; 0x200
  403b86:	4853      	ldr	r0, [pc, #332]	; (403cd4 <board_init+0x278>)
		base->PIO_PUDR = mask;
  403b88:	f44f 1500 	mov.w	r5, #2097152	; 0x200000
		base->PIO_OER = arch_ioport_pin_to_mask(pin);
  403b8c:	611e      	str	r6, [r3, #16]
		base->PIO_PUDR = mask;
  403b8e:	2110      	movs	r1, #16
	} else if (dir == IOPORT_DIR_INPUT) {
		base->PIO_ODR = arch_ioport_pin_to_mask(pin);
	}

	base->PIO_OWER = arch_ioport_pin_to_mask(pin);
  403b90:	f8c3 60a0 	str.w	r6, [r3, #160]	; 0xa0
		base->PIO_PUDR = mask;
  403b94:	f5a0 7000 	sub.w	r0, r0, #512	; 0x200
		bool level)
{
	Pio *base = arch_ioport_pin_to_base(pin);

	if (level) {
		base->PIO_SODR = arch_ioport_pin_to_mask(pin);
  403b98:	631e      	str	r6, [r3, #48]	; 0x30
		base->PIO_PUDR = mask;
  403b9a:	2408      	movs	r4, #8
		base->PIO_OER = arch_ioport_pin_to_mask(pin);
  403b9c:	f8c0 2210 	str.w	r2, [r0, #528]	; 0x210
	base->PIO_OWER = arch_ioport_pin_to_mask(pin);
  403ba0:	f8c0 22a0 	str.w	r2, [r0, #672]	; 0x2a0
		base->PIO_SODR = arch_ioport_pin_to_mask(pin);
  403ba4:	f8c0 2230 	str.w	r2, [r0, #560]	; 0x230
		base->PIO_ODR = arch_ioport_pin_to_mask(pin);
  403ba8:	615a      	str	r2, [r3, #20]
	base->PIO_OWER = arch_ioport_pin_to_mask(pin);
  403baa:	f8c3 20a0 	str.w	r2, [r3, #160]	; 0xa0
		base->PIO_PUER = mask;
  403bae:	665a      	str	r2, [r3, #100]	; 0x64
		base->PIO_PPDDR = mask;
  403bb0:	f8c3 2090 	str.w	r2, [r3, #144]	; 0x90
		base->PIO_MDDR = mask;
  403bb4:	655a      	str	r2, [r3, #84]	; 0x54
		base->PIO_IFER = mask;
  403bb6:	621a      	str	r2, [r3, #32]
		base->PIO_IFSCER = mask;
  403bb8:	f8c3 2084 	str.w	r2, [r3, #132]	; 0x84
		base->PIO_ABCDSR[0] &= ~mask;
  403bbc:	6f1e      	ldr	r6, [r3, #112]	; 0x70
			GPIO_PUSH_BUTTON_1_SENSE);

#ifdef CONF_BOARD_UART_CONSOLE
	/* Configure UART pins */
	ioport_set_pin_peripheral_mode(USART1_RXD_GPIO, USART1_RXD_FLAGS);
	MATRIX->CCFG_SYSIO |= CCFG_SYSIO_SYSIO4;
  403bbe:	4f46      	ldr	r7, [pc, #280]	; (403cd8 <board_init+0x27c>)
  403bc0:	f426 7600 	bic.w	r6, r6, #512	; 0x200
  403bc4:	671e      	str	r6, [r3, #112]	; 0x70
		base->PIO_ABCDSR[1] &= ~mask;
  403bc6:	6f5e      	ldr	r6, [r3, #116]	; 0x74
  403bc8:	f426 7600 	bic.w	r6, r6, #512	; 0x200
  403bcc:	675e      	str	r6, [r3, #116]	; 0x74
	case IOPORT_SENSE_FALLING:
		base->PIO_ESR = mask;
		base->PIO_FELLSR = mask;
		break;
	case IOPORT_SENSE_RISING:
		base->PIO_ESR = mask;
  403bce:	f8c3 20c0 	str.w	r2, [r3, #192]	; 0xc0
		base->PIO_REHLSR = mask;
  403bd2:	f8c3 20d4 	str.w	r2, [r3, #212]	; 0xd4
		break;
	default:
		base->PIO_AIMDR = mask;
		return;
	}
	base->PIO_AIMER = mask;
  403bd6:	f8c3 20b0 	str.w	r2, [r3, #176]	; 0xb0
		base->PIO_PUDR = mask;
  403bda:	661d      	str	r5, [r3, #96]	; 0x60
		base->PIO_PPDDR = mask;
  403bdc:	f8c3 5090 	str.w	r5, [r3, #144]	; 0x90
		base->PIO_MDDR = mask;
  403be0:	655d      	str	r5, [r3, #84]	; 0x54
		base->PIO_IFDR = mask;
  403be2:	625d      	str	r5, [r3, #36]	; 0x24
		base->PIO_IFSCDR = mask;
  403be4:	f8c3 5080 	str.w	r5, [r3, #128]	; 0x80
		base->PIO_ABCDSR[0] &= ~mask;
  403be8:	6f1a      	ldr	r2, [r3, #112]	; 0x70
  403bea:	f422 1200 	bic.w	r2, r2, #2097152	; 0x200000
  403bee:	671a      	str	r2, [r3, #112]	; 0x70
		base->PIO_ABCDSR[1] &= ~mask;
  403bf0:	6f5a      	ldr	r2, [r3, #116]	; 0x74
  403bf2:	f422 1200 	bic.w	r2, r2, #2097152	; 0x200000
  403bf6:	675a      	str	r2, [r3, #116]	; 0x74
	arch_ioport_port_to_base(port)->PIO_PDR = mask;
  403bf8:	605d      	str	r5, [r3, #4]
  403bfa:	f8d7 2114 	ldr.w	r2, [r7, #276]	; 0x114
  403bfe:	430a      	orrs	r2, r1
  403c00:	f8c7 2114 	str.w	r2, [r7, #276]	; 0x114
		base->PIO_PUDR = mask;
  403c04:	6601      	str	r1, [r0, #96]	; 0x60
		base->PIO_PPDDR = mask;
  403c06:	f8c0 1090 	str.w	r1, [r0, #144]	; 0x90
		base->PIO_MDDR = mask;
  403c0a:	6541      	str	r1, [r0, #84]	; 0x54
		base->PIO_IFDR = mask;
  403c0c:	6241      	str	r1, [r0, #36]	; 0x24
		base->PIO_IFSCDR = mask;
  403c0e:	f8c0 1080 	str.w	r1, [r0, #128]	; 0x80
		base->PIO_ABCDSR[0] |= mask;
  403c12:	6f02      	ldr	r2, [r0, #112]	; 0x70
  403c14:	430a      	orrs	r2, r1
  403c16:	6702      	str	r2, [r0, #112]	; 0x70
		base->PIO_ABCDSR[1] |= mask;
  403c18:	6f42      	ldr	r2, [r0, #116]	; 0x74
  403c1a:	430a      	orrs	r2, r1
  403c1c:	6742      	str	r2, [r0, #116]	; 0x74
	arch_ioport_port_to_base(port)->PIO_PDR = mask;
  403c1e:	6041      	str	r1, [r0, #4]
		base->PIO_PUDR = mask;
  403c20:	661c      	str	r4, [r3, #96]	; 0x60
		base->PIO_PPDDR = mask;
  403c22:	f8c3 4090 	str.w	r4, [r3, #144]	; 0x90
		base->PIO_MDDR = mask;
  403c26:	655c      	str	r4, [r3, #84]	; 0x54
		base->PIO_IFDR = mask;
  403c28:	625c      	str	r4, [r3, #36]	; 0x24
		base->PIO_IFSCDR = mask;
  403c2a:	f8c3 4080 	str.w	r4, [r3, #128]	; 0x80
		base->PIO_ABCDSR[0] &= ~mask;
  403c2e:	6f1a      	ldr	r2, [r3, #112]	; 0x70
  403c30:	f022 0208 	bic.w	r2, r2, #8
  403c34:	671a      	str	r2, [r3, #112]	; 0x70
		base->PIO_ABCDSR[1] &= ~mask;
  403c36:	6f5a      	ldr	r2, [r3, #116]	; 0x74
  403c38:	f022 0208 	bic.w	r2, r2, #8
  403c3c:	675a      	str	r2, [r3, #116]	; 0x74
	arch_ioport_port_to_base(port)->PIO_PDR = mask;
  403c3e:	605c      	str	r4, [r3, #4]
		base->PIO_PUDR = mask;
  403c40:	6619      	str	r1, [r3, #96]	; 0x60
		base->PIO_PPDDR = mask;
  403c42:	f8c3 1090 	str.w	r1, [r3, #144]	; 0x90
		base->PIO_MDDR = mask;
  403c46:	6559      	str	r1, [r3, #84]	; 0x54
		base->PIO_IFDR = mask;
  403c48:	6259      	str	r1, [r3, #36]	; 0x24
		base->PIO_IFSCDR = mask;
  403c4a:	f8c3 1080 	str.w	r1, [r3, #128]	; 0x80
		base->PIO_ABCDSR[0] &= ~mask;
  403c4e:	6f1a      	ldr	r2, [r3, #112]	; 0x70
  403c50:	f022 0210 	bic.w	r2, r2, #16
  403c54:	671a      	str	r2, [r3, #112]	; 0x70
		base->PIO_ABCDSR[1] &= ~mask;
  403c56:	6f5a      	ldr	r2, [r3, #116]	; 0x74
  403c58:	f022 0210 	bic.w	r2, r2, #16
  403c5c:	675a      	str	r2, [r3, #116]	; 0x74
	arch_ioport_port_to_base(port)->PIO_PDR = mask;
  403c5e:	6059      	str	r1, [r3, #4]
  403c60:	e8bd 81f0 	ldmia.w	sp!, {r4, r5, r6, r7, r8, pc}
  403c64:	400e1850 	.word	0x400e1850
  403c68:	01000001 	.word	0x01000001
  403c6c:	00403cfd 	.word	0x00403cfd
  403c70:	00403cf1 	.word	0x00403cf1
  403c74:	001fffff 	.word	0x001fffff
  403c78:	06230001 	.word	0x06230001
  403c7c:	03230001 	.word	0x03230001
  403c80:	00400012 	.word	0x00400012
  403c84:	20000013 	.word	0x20000013
  403c88:	0003ffff 	.word	0x0003ffff
  403c8c:	20400014 	.word	0x20400014
  403c90:	0001ffff 	.word	0x0001ffff
  403c94:	13010001 	.word	0x13010001
  403c98:	20440015 	.word	0x20440015
  403c9c:	40000016 	.word	0x40000016
  403ca0:	60000017 	.word	0x60000017
  403ca4:	03250001 	.word	0x03250001
  403ca8:	e000ed00 	.word	0xe000ed00
  403cac:	70000018 	.word	0x70000018
  403cb0:	80000019 	.word	0x80000019
  403cb4:	000fffff 	.word	0x000fffff
  403cb8:	a010001a 	.word	0xa010001a
  403cbc:	00403ce5 	.word	0x00403ce5
  403cc0:	400e0c00 	.word	0x400e0c00
  403cc4:	5a00080c 	.word	0x5a00080c
  403cc8:	5a00070c 	.word	0x5a00070c
  403ccc:	004041b5 	.word	0x004041b5
  403cd0:	400e0e00 	.word	0x400e0e00
  403cd4:	400e1200 	.word	0x400e1200
  403cd8:	40088000 	.word	0x40088000
  403cdc:	003fffff 	.word	0x003fffff
  403ce0:	03000001 	.word	0x03000001

00403ce4 <mpu_enable>:
 *
 * \param dwMPUEnable  Enable/Disable the memory region.
 */
void mpu_enable(uint32_t dw_mpu_enable)
{
	MPU->CTRL = dw_mpu_enable ;
  403ce4:	4b01      	ldr	r3, [pc, #4]	; (403cec <mpu_enable+0x8>)
  403ce6:	6058      	str	r0, [r3, #4]
  403ce8:	4770      	bx	lr
  403cea:	bf00      	nop
  403cec:	e000ed90 	.word	0xe000ed90

00403cf0 <mpu_set_region>:
 * \param dwRegionBaseAddr  Memory region base address.
 * \param dwRegionAttr  Memory region attributes.
 */
void mpu_set_region(uint32_t dw_region_base_addr, uint32_t dw_region_attr)
{
	MPU->RBAR = dw_region_base_addr;
  403cf0:	4b01      	ldr	r3, [pc, #4]	; (403cf8 <mpu_set_region+0x8>)
  403cf2:	60d8      	str	r0, [r3, #12]
	MPU->RASR = dw_region_attr;
  403cf4:	6119      	str	r1, [r3, #16]
  403cf6:	4770      	bx	lr
  403cf8:	e000ed90 	.word	0xe000ed90

00403cfc <mpu_cal_mpu_region_size>:
{
	uint32_t dwRegionSize = 32;
	uint32_t dwReturnValue = 4;

	while( dwReturnValue < 31 ) {
		if( dw_actual_size_in_bytes <= dwRegionSize ) {
  403cfc:	2820      	cmp	r0, #32
  403cfe:	d90d      	bls.n	403d1c <mpu_cal_mpu_region_size+0x20>
  403d00:	2240      	movs	r2, #64	; 0x40
  403d02:	2305      	movs	r3, #5
  403d04:	e002      	b.n	403d0c <mpu_cal_mpu_region_size+0x10>
			break;
		} else {
			dwReturnValue++;
  403d06:	3301      	adds	r3, #1
	while( dwReturnValue < 31 ) {
  403d08:	2b1f      	cmp	r3, #31
  403d0a:	d005      	beq.n	403d18 <mpu_cal_mpu_region_size+0x1c>
		if( dw_actual_size_in_bytes <= dwRegionSize ) {
  403d0c:	4290      	cmp	r0, r2
		}
		dwRegionSize <<= 1;
  403d0e:	ea4f 0242 	mov.w	r2, r2, lsl #1
		if( dw_actual_size_in_bytes <= dwRegionSize ) {
  403d12:	d8f8      	bhi.n	403d06 <mpu_cal_mpu_region_size+0xa>
  403d14:	0058      	lsls	r0, r3, #1
  403d16:	4770      	bx	lr
  403d18:	203e      	movs	r0, #62	; 0x3e
  403d1a:	4770      	bx	lr
  403d1c:	2008      	movs	r0, #8
	}

	return ( dwReturnValue << 1 );
}
  403d1e:	4770      	bx	lr

00403d20 <pio_set_debounce_filter>:
	/*
	 * The debouncing filter can filter a pulse of less than 1/2 Period of a
	 * programmable Divided Slow Clock:
	 * Tdiv_slclk = ((DIV+1)*2).Tslow_clock
	 */
	p_pio->PIO_SCDR = PIO_SCDR_DIV((FREQ_SLOW_CLOCK_EXT /
  403d20:	0052      	lsls	r2, r2, #1
  403d22:	f44f 4300 	mov.w	r3, #32768	; 0x8000
	p_pio->PIO_IFSCER = ul_mask;
  403d26:	f8c0 1084 	str.w	r1, [r0, #132]	; 0x84
	p_pio->PIO_SCDR = PIO_SCDR_DIV((FREQ_SLOW_CLOCK_EXT /
  403d2a:	fbb3 f3f2 	udiv	r3, r3, r2
  403d2e:	3b01      	subs	r3, #1
  403d30:	f3c3 030d 	ubfx	r3, r3, #0, #14
  403d34:	f8c0 308c 	str.w	r3, [r0, #140]	; 0x8c
  403d38:	4770      	bx	lr
  403d3a:	bf00      	nop

00403d3c <pio_set_input>:
	if (ul_pull_up_enable) {
  403d3c:	07d3      	lsls	r3, r2, #31
 * \param p_pio Pointer to a PIO instance.
 * \param ul_mask Interrupt sources bit map.
 */
void pio_disable_interrupt(Pio *p_pio, const uint32_t ul_mask)
{
	p_pio->PIO_IDR = ul_mask;
  403d3e:	6441      	str	r1, [r0, #68]	; 0x44
	if (ul_pull_up_enable) {
  403d40:	d515      	bpl.n	403d6e <pio_set_input+0x32>
		p_pio->PIO_PUER = ul_mask;
  403d42:	6641      	str	r1, [r0, #100]	; 0x64
	if (ul_attribute & (PIO_DEGLITCH | PIO_DEBOUNCE)) {
  403d44:	f012 0f0a 	tst.w	r2, #10
  403d48:	d009      	beq.n	403d5e <pio_set_input+0x22>
	if (ul_attribute & PIO_DEGLITCH) {
  403d4a:	0793      	lsls	r3, r2, #30
		p_pio->PIO_IFER = ul_mask;
  403d4c:	6201      	str	r1, [r0, #32]
	if (ul_attribute & PIO_DEGLITCH) {
  403d4e:	d409      	bmi.n	403d64 <pio_set_input+0x28>
		if (ul_attribute & PIO_DEBOUNCE) {
  403d50:	0713      	lsls	r3, r2, #28
  403d52:	d501      	bpl.n	403d58 <pio_set_input+0x1c>
			p_pio->PIO_IFSCER = ul_mask;
  403d54:	f8c0 1084 	str.w	r1, [r0, #132]	; 0x84
	p_pio->PIO_ODR = ul_mask;
  403d58:	6141      	str	r1, [r0, #20]
	p_pio->PIO_PER = ul_mask;
  403d5a:	6001      	str	r1, [r0, #0]
  403d5c:	4770      	bx	lr
	if (ul_attribute & PIO_DEGLITCH) {
  403d5e:	0793      	lsls	r3, r2, #30
		p_pio->PIO_IFDR = ul_mask;
  403d60:	6241      	str	r1, [r0, #36]	; 0x24
	if (ul_attribute & PIO_DEGLITCH) {
  403d62:	d5f5      	bpl.n	403d50 <pio_set_input+0x14>
		p_pio->PIO_IFSCDR = ul_mask;
  403d64:	f8c0 1080 	str.w	r1, [r0, #128]	; 0x80
	p_pio->PIO_ODR = ul_mask;
  403d68:	6141      	str	r1, [r0, #20]
	p_pio->PIO_PER = ul_mask;
  403d6a:	6001      	str	r1, [r0, #0]
  403d6c:	4770      	bx	lr
		p_pio->PIO_PUDR = ul_mask;
  403d6e:	6601      	str	r1, [r0, #96]	; 0x60
  403d70:	e7e8      	b.n	403d44 <pio_set_input+0x8>
  403d72:	bf00      	nop

00403d74 <pio_enable_interrupt>:
	p_pio->PIO_IER = ul_mask;
  403d74:	6401      	str	r1, [r0, #64]	; 0x40
  403d76:	4770      	bx	lr

00403d78 <pio_disable_interrupt>:
	p_pio->PIO_IDR = ul_mask;
  403d78:	6441      	str	r1, [r0, #68]	; 0x44
  403d7a:	4770      	bx	lr

00403d7c <pio_get_interrupt_status>:
 *
 * \return The interrupt status value.
 */
uint32_t pio_get_interrupt_status(const Pio *p_pio)
{
	return p_pio->PIO_ISR;
  403d7c:	6cc0      	ldr	r0, [r0, #76]	; 0x4c
}
  403d7e:	4770      	bx	lr

00403d80 <pio_get_interrupt_mask>:
 *
 * \return The interrupt mask value.
 */
uint32_t pio_get_interrupt_mask(const Pio *p_pio)
{
	return p_pio->PIO_IMR;
  403d80:	6c80      	ldr	r0, [r0, #72]	; 0x48
}
  403d82:	4770      	bx	lr

00403d84 <pio_set_additional_interrupt_mode>:
 */
void pio_set_additional_interrupt_mode(Pio *p_pio,
		const uint32_t ul_mask, const uint32_t ul_attribute)
{
	/* Enables additional interrupt mode if needed */
	if (ul_attribute & PIO_IT_AIME) {
  403d84:	06d3      	lsls	r3, r2, #27
  403d86:	d50a      	bpl.n	403d9e <pio_set_additional_interrupt_mode+0x1a>
		/* Enables additional interrupt mode */
		p_pio->PIO_AIMER = ul_mask;

		/* Configures the Polarity of the event detection */
		/* (Rising/Falling Edge or High/Low Level) */
		if (ul_attribute & PIO_IT_RE_OR_HL) {
  403d88:	0693      	lsls	r3, r2, #26
		p_pio->PIO_AIMER = ul_mask;
  403d8a:	f8c0 10b0 	str.w	r1, [r0, #176]	; 0xb0
		if (ul_attribute & PIO_IT_RE_OR_HL) {
  403d8e:	d409      	bmi.n	403da4 <pio_set_additional_interrupt_mode+0x20>
			/* Falling Edge or Low Level */
			p_pio->PIO_FELLSR = ul_mask;
		}

		/* Configures the type of event detection (Edge or Level) */
		if (ul_attribute & PIO_IT_EDGE) {
  403d90:	0653      	lsls	r3, r2, #25
			p_pio->PIO_FELLSR = ul_mask;
  403d92:	f8c0 10d0 	str.w	r1, [r0, #208]	; 0xd0
		if (ul_attribute & PIO_IT_EDGE) {
  403d96:	d509      	bpl.n	403dac <pio_set_additional_interrupt_mode+0x28>
			/* Edge select */
			p_pio->PIO_ESR = ul_mask;
  403d98:	f8c0 10c0 	str.w	r1, [r0, #192]	; 0xc0
  403d9c:	4770      	bx	lr
			/* Level select */
			p_pio->PIO_LSR = ul_mask;
		}
	} else {
		/* Disable additional interrupt mode */
		p_pio->PIO_AIMDR = ul_mask;
  403d9e:	f8c0 10b4 	str.w	r1, [r0, #180]	; 0xb4
  403da2:	4770      	bx	lr
		if (ul_attribute & PIO_IT_EDGE) {
  403da4:	0653      	lsls	r3, r2, #25
			p_pio->PIO_REHLSR = ul_mask;
  403da6:	f8c0 10d4 	str.w	r1, [r0, #212]	; 0xd4
		if (ul_attribute & PIO_IT_EDGE) {
  403daa:	d4f5      	bmi.n	403d98 <pio_set_additional_interrupt_mode+0x14>
			p_pio->PIO_LSR = ul_mask;
  403dac:	f8c0 10c4 	str.w	r1, [r0, #196]	; 0xc4
  403db0:	4770      	bx	lr
  403db2:	bf00      	nop

00403db4 <pio_configure_interrupt>:
  403db4:	4b00      	ldr	r3, [pc, #0]	; (403db8 <pio_configure_interrupt+0x4>)
  403db6:	4718      	bx	r3
  403db8:	00403d85 	.word	0x00403d85

00403dbc <pio_configure_pin>:
		p_pio = PIOC;
	} else {
		p_pio = (Pio *)((uint32_t)PIOA + (PIO_DELTA * (ul_pin >> 5)));
	}
#else
	p_pio = (Pio *)((uint32_t)PIOA + (PIO_DELTA * (ul_pin >> 5)));
  403dbc:	4b53      	ldr	r3, [pc, #332]	; (403f0c <pio_configure_pin+0x150>)
	switch (ul_flags & PIO_TYPE_Msk) {
  403dbe:	f001 42f0 	and.w	r2, r1, #2013265920	; 0x78000000
	p_pio = (Pio *)((uint32_t)PIOA + (PIO_DELTA * (ul_pin >> 5)));
  403dc2:	eb03 1350 	add.w	r3, r3, r0, lsr #5
	switch (ul_flags & PIO_TYPE_Msk) {
  403dc6:	f1b2 5f00 	cmp.w	r2, #536870912	; 0x20000000
{
  403dca:	b470      	push	{r4, r5, r6}
	p_pio = (Pio *)((uint32_t)PIOA + (PIO_DELTA * (ul_pin >> 5)));
  403dcc:	ea4f 2343 	mov.w	r3, r3, lsl #9
	switch (ul_flags & PIO_TYPE_Msk) {
  403dd0:	d06d      	beq.n	403eae <pio_configure_pin+0xf2>
  403dd2:	d80b      	bhi.n	403dec <pio_configure_pin+0x30>
  403dd4:	f1b2 5f80 	cmp.w	r2, #268435456	; 0x10000000
  403dd8:	d027      	beq.n	403e2a <pio_configure_pin+0x6e>
  403dda:	f1b2 5fc0 	cmp.w	r2, #402653184	; 0x18000000
  403dde:	d052      	beq.n	403e86 <pio_configure_pin+0xca>
  403de0:	f1b2 6f00 	cmp.w	r2, #134217728	; 0x8000000
  403de4:	d038      	beq.n	403e58 <pio_configure_pin+0x9c>
		return 0;
  403de6:	2000      	movs	r0, #0
}
  403de8:	bc70      	pop	{r4, r5, r6}
  403dea:	4770      	bx	lr
	switch (ul_flags & PIO_TYPE_Msk) {
  403dec:	f1b2 5f40 	cmp.w	r2, #805306368	; 0x30000000
  403df0:	d066      	beq.n	403ec0 <pio_configure_pin+0x104>
  403df2:	f1b2 5f60 	cmp.w	r2, #939524096	; 0x38000000
  403df6:	d063      	beq.n	403ec0 <pio_configure_pin+0x104>
  403df8:	f1b2 5f20 	cmp.w	r2, #671088640	; 0x28000000
  403dfc:	d1f3      	bne.n	403de6 <pio_configure_pin+0x2a>
		pio_set_input(p_pio, (1 << (ul_pin & 0x1F)), ul_flags);
  403dfe:	f000 001f 	and.w	r0, r0, #31
  403e02:	2201      	movs	r2, #1
	if (ul_pull_up_enable) {
  403e04:	07cd      	lsls	r5, r1, #31
		pio_set_input(p_pio, (1 << (ul_pin & 0x1F)), ul_flags);
  403e06:	fa02 f200 	lsl.w	r2, r2, r0
	p_pio->PIO_IDR = ul_mask;
  403e0a:	645a      	str	r2, [r3, #68]	; 0x44
	if (ul_pull_up_enable) {
  403e0c:	d573      	bpl.n	403ef6 <pio_configure_pin+0x13a>
		p_pio->PIO_PUER = ul_mask;
  403e0e:	665a      	str	r2, [r3, #100]	; 0x64
	if (ul_attribute & (PIO_DEGLITCH | PIO_DEBOUNCE)) {
  403e10:	f011 0f0a 	tst.w	r1, #10
  403e14:	d06d      	beq.n	403ef2 <pio_configure_pin+0x136>
		p_pio->PIO_IFER = ul_mask;
  403e16:	621a      	str	r2, [r3, #32]
	if (ul_attribute & PIO_DEGLITCH) {
  403e18:	078c      	lsls	r4, r1, #30
  403e1a:	d56e      	bpl.n	403efa <pio_configure_pin+0x13e>
		p_pio->PIO_IFSCDR = ul_mask;
  403e1c:	f8c3 2080 	str.w	r2, [r3, #128]	; 0x80
	p_pio->PIO_ODR = ul_mask;
  403e20:	615a      	str	r2, [r3, #20]
	return 1;
  403e22:	2001      	movs	r0, #1
	p_pio->PIO_PER = ul_mask;
  403e24:	601a      	str	r2, [r3, #0]
}
  403e26:	bc70      	pop	{r4, r5, r6}
  403e28:	4770      	bx	lr
		pio_set_peripheral(p_pio, PIO_PERIPH_B, (1 << (ul_pin & 0x1F)));
  403e2a:	f000 021f 	and.w	r2, r0, #31
  403e2e:	2001      	movs	r0, #1
	if (ul_pull_up_enable) {
  403e30:	07c9      	lsls	r1, r1, #31
		pio_set_peripheral(p_pio, PIO_PERIPH_B, (1 << (ul_pin & 0x1F)));
  403e32:	fa00 f202 	lsl.w	r2, r0, r2
	p_pio->PIO_IDR = ul_mask;
  403e36:	645a      	str	r2, [r3, #68]	; 0x44
		ul_sr = p_pio->PIO_ABCDSR[0];
  403e38:	6f1c      	ldr	r4, [r3, #112]	; 0x70
		p_pio->PIO_ABCDSR[0] = (ul_mask | ul_sr);
  403e3a:	ea44 0402 	orr.w	r4, r4, r2
  403e3e:	671c      	str	r4, [r3, #112]	; 0x70
		ul_sr = p_pio->PIO_ABCDSR[1];
  403e40:	6f5c      	ldr	r4, [r3, #116]	; 0x74
		p_pio->PIO_ABCDSR[1] &= (~ul_mask & ul_sr);
  403e42:	6f5d      	ldr	r5, [r3, #116]	; 0x74
  403e44:	ea04 0405 	and.w	r4, r4, r5
  403e48:	ea24 0402 	bic.w	r4, r4, r2
  403e4c:	675c      	str	r4, [r3, #116]	; 0x74
	p_pio->PIO_PDR = ul_mask;
  403e4e:	605a      	str	r2, [r3, #4]
	if (ul_pull_up_enable) {
  403e50:	d516      	bpl.n	403e80 <pio_configure_pin+0xc4>
		p_pio->PIO_PUER = ul_mask;
  403e52:	665a      	str	r2, [r3, #100]	; 0x64
}
  403e54:	bc70      	pop	{r4, r5, r6}
  403e56:	4770      	bx	lr
		pio_set_peripheral(p_pio, PIO_PERIPH_A, (1 << (ul_pin & 0x1F)));
  403e58:	f000 021f 	and.w	r2, r0, #31
  403e5c:	2001      	movs	r0, #1
  403e5e:	fa00 f202 	lsl.w	r2, r0, r2
	p_pio->PIO_IDR = ul_mask;
  403e62:	645a      	str	r2, [r3, #68]	; 0x44
		p_pio->PIO_ABCDSR[0] &= (~ul_mask & ul_sr);
  403e64:	43d6      	mvns	r6, r2
		ul_sr = p_pio->PIO_ABCDSR[0];
  403e66:	6f1d      	ldr	r5, [r3, #112]	; 0x70
		p_pio->PIO_ABCDSR[0] &= (~ul_mask & ul_sr);
  403e68:	6f1c      	ldr	r4, [r3, #112]	; 0x70
  403e6a:	4025      	ands	r5, r4
  403e6c:	4035      	ands	r5, r6
  403e6e:	671d      	str	r5, [r3, #112]	; 0x70
		ul_sr = p_pio->PIO_ABCDSR[1];
  403e70:	6f5c      	ldr	r4, [r3, #116]	; 0x74
		p_pio->PIO_ABCDSR[1] &= (~ul_mask & ul_sr);
  403e72:	6f5d      	ldr	r5, [r3, #116]	; 0x74
  403e74:	402c      	ands	r4, r5
  403e76:	4034      	ands	r4, r6
  403e78:	675c      	str	r4, [r3, #116]	; 0x74
	if (ul_pull_up_enable) {
  403e7a:	07cc      	lsls	r4, r1, #31
	p_pio->PIO_PDR = ul_mask;
  403e7c:	605a      	str	r2, [r3, #4]
	if (ul_pull_up_enable) {
  403e7e:	d4e8      	bmi.n	403e52 <pio_configure_pin+0x96>
		p_pio->PIO_PUDR = ul_mask;
  403e80:	661a      	str	r2, [r3, #96]	; 0x60
}
  403e82:	bc70      	pop	{r4, r5, r6}
  403e84:	4770      	bx	lr
		pio_set_peripheral(p_pio, PIO_PERIPH_C, (1 << (ul_pin & 0x1F)));
  403e86:	f000 021f 	and.w	r2, r0, #31
  403e8a:	2001      	movs	r0, #1
  403e8c:	fa00 f202 	lsl.w	r2, r0, r2
	p_pio->PIO_IDR = ul_mask;
  403e90:	645a      	str	r2, [r3, #68]	; 0x44
		ul_sr = p_pio->PIO_ABCDSR[0];
  403e92:	6f1c      	ldr	r4, [r3, #112]	; 0x70
		p_pio->PIO_ABCDSR[0] &= (~ul_mask & ul_sr);
  403e94:	6f1d      	ldr	r5, [r3, #112]	; 0x70
  403e96:	402c      	ands	r4, r5
  403e98:	ea24 0402 	bic.w	r4, r4, r2
		p_pio->PIO_ABCDSR[0] = (ul_mask | ul_sr);
  403e9c:	671c      	str	r4, [r3, #112]	; 0x70
	if (ul_pull_up_enable) {
  403e9e:	07ce      	lsls	r6, r1, #31
		ul_sr = p_pio->PIO_ABCDSR[1];
  403ea0:	6f5c      	ldr	r4, [r3, #116]	; 0x74
		p_pio->PIO_ABCDSR[1] = (ul_mask | ul_sr);
  403ea2:	ea44 0402 	orr.w	r4, r4, r2
  403ea6:	675c      	str	r4, [r3, #116]	; 0x74
	p_pio->PIO_PDR = ul_mask;
  403ea8:	605a      	str	r2, [r3, #4]
	if (ul_pull_up_enable) {
  403eaa:	d5e9      	bpl.n	403e80 <pio_configure_pin+0xc4>
  403eac:	e7d1      	b.n	403e52 <pio_configure_pin+0x96>
		pio_set_peripheral(p_pio, PIO_PERIPH_D, (1 << (ul_pin & 0x1F)));
  403eae:	f000 021f 	and.w	r2, r0, #31
  403eb2:	2001      	movs	r0, #1
  403eb4:	fa00 f202 	lsl.w	r2, r0, r2
	p_pio->PIO_IDR = ul_mask;
  403eb8:	645a      	str	r2, [r3, #68]	; 0x44
		ul_sr = p_pio->PIO_ABCDSR[0];
  403eba:	6f1c      	ldr	r4, [r3, #112]	; 0x70
		p_pio->PIO_ABCDSR[0] = (ul_mask | ul_sr);
  403ebc:	4314      	orrs	r4, r2
  403ebe:	e7ed      	b.n	403e9c <pio_configure_pin+0xe0>
		pio_set_output(p_pio, (1 << (ul_pin & 0x1F)),
  403ec0:	f000 001f 	and.w	r0, r0, #31
  403ec4:	2201      	movs	r2, #1
				((ul_flags & PIO_TYPE_PIO_OUTPUT_1)
  403ec6:	f001 5460 	and.w	r4, r1, #939524096	; 0x38000000
				(ul_flags & PIO_OPENDRAIN) ? 1 : 0,
  403eca:	f001 0504 	and.w	r5, r1, #4
		pio_set_output(p_pio, (1 << (ul_pin & 0x1F)),
  403ece:	4082      	lsls	r2, r0
	if (ul_pull_up_enable) {
  403ed0:	07c9      	lsls	r1, r1, #31
	p_pio->PIO_IDR = ul_mask;
  403ed2:	645a      	str	r2, [r3, #68]	; 0x44
	if (ul_pull_up_enable) {
  403ed4:	d50b      	bpl.n	403eee <pio_configure_pin+0x132>
		p_pio->PIO_PUER = ul_mask;
  403ed6:	665a      	str	r2, [r3, #100]	; 0x64
	if (ul_multidrive_enable) {
  403ed8:	b1a5      	cbz	r5, 403f04 <pio_configure_pin+0x148>
		p_pio->PIO_MDER = ul_mask;
  403eda:	651a      	str	r2, [r3, #80]	; 0x50
	if (ul_default_level) {
  403edc:	f1b4 5f60 	cmp.w	r4, #939524096	; 0x38000000
  403ee0:	d012      	beq.n	403f08 <pio_configure_pin+0x14c>
		p_pio->PIO_CODR = ul_mask;
  403ee2:	635a      	str	r2, [r3, #52]	; 0x34
	p_pio->PIO_OER = ul_mask;
  403ee4:	611a      	str	r2, [r3, #16]
	return 1;
  403ee6:	2001      	movs	r0, #1
	p_pio->PIO_PER = ul_mask;
  403ee8:	601a      	str	r2, [r3, #0]
}
  403eea:	bc70      	pop	{r4, r5, r6}
  403eec:	4770      	bx	lr
		p_pio->PIO_PUDR = ul_mask;
  403eee:	661a      	str	r2, [r3, #96]	; 0x60
  403ef0:	e7f2      	b.n	403ed8 <pio_configure_pin+0x11c>
		p_pio->PIO_IFDR = ul_mask;
  403ef2:	625a      	str	r2, [r3, #36]	; 0x24
  403ef4:	e790      	b.n	403e18 <pio_configure_pin+0x5c>
		p_pio->PIO_PUDR = ul_mask;
  403ef6:	661a      	str	r2, [r3, #96]	; 0x60
  403ef8:	e78a      	b.n	403e10 <pio_configure_pin+0x54>
		if (ul_attribute & PIO_DEBOUNCE) {
  403efa:	0708      	lsls	r0, r1, #28
  403efc:	d590      	bpl.n	403e20 <pio_configure_pin+0x64>
			p_pio->PIO_IFSCER = ul_mask;
  403efe:	f8c3 2084 	str.w	r2, [r3, #132]	; 0x84
  403f02:	e78d      	b.n	403e20 <pio_configure_pin+0x64>
		p_pio->PIO_MDDR = ul_mask;
  403f04:	655a      	str	r2, [r3, #84]	; 0x54
  403f06:	e7e9      	b.n	403edc <pio_configure_pin+0x120>
		p_pio->PIO_SODR = ul_mask;
  403f08:	631a      	str	r2, [r3, #48]	; 0x30
  403f0a:	e7eb      	b.n	403ee4 <pio_configure_pin+0x128>
  403f0c:	00200707 	.word	0x00200707

00403f10 <pio_handler_process>:
 *
 * \param p_pio PIO controller base address.
 * \param ul_id PIO controller ID.
 */
void pio_handler_process(Pio *p_pio, uint32_t ul_id)
{
  403f10:	b5f8      	push	{r3, r4, r5, r6, r7, lr}
  403f12:	4604      	mov	r4, r0
	uint32_t status;
	uint32_t i;

	/* Read PIO controller status */
	status = pio_get_interrupt_status(p_pio);
  403f14:	4b0f      	ldr	r3, [pc, #60]	; (403f54 <pio_handler_process+0x44>)
{
  403f16:	460f      	mov	r7, r1
	status = pio_get_interrupt_status(p_pio);
  403f18:	4798      	blx	r3
  403f1a:	4606      	mov	r6, r0
	status &= pio_get_interrupt_mask(p_pio);
  403f1c:	4b0e      	ldr	r3, [pc, #56]	; (403f58 <pio_handler_process+0x48>)
  403f1e:	4620      	mov	r0, r4
  403f20:	4798      	blx	r3

	/* Check pending events */
	if (status != 0) {
  403f22:	4006      	ands	r6, r0
  403f24:	d015      	beq.n	403f52 <pio_handler_process+0x42>
  403f26:	4c0d      	ldr	r4, [pc, #52]	; (403f5c <pio_handler_process+0x4c>)
  403f28:	2500      	movs	r5, #0
  403f2a:	e004      	b.n	403f36 <pio_handler_process+0x26>
		/* Find triggering source */
		i = 0;
		while (status != 0) {
  403f2c:	2d07      	cmp	r5, #7
  403f2e:	f104 0410 	add.w	r4, r4, #16
  403f32:	d00e      	beq.n	403f52 <pio_handler_process+0x42>
  403f34:	b16e      	cbz	r6, 403f52 <pio_handler_process+0x42>
			/* Source is configured on the same controller */
			if (gs_interrupt_sources[i].id == ul_id) {
  403f36:	6823      	ldr	r3, [r4, #0]
					gs_interrupt_sources[i].handler(gs_interrupt_sources[i].id,
							gs_interrupt_sources[i].mask);
					status &= ~(gs_interrupt_sources[i].mask);
				}
			}
			i++;
  403f38:	3501      	adds	r5, #1
			if (gs_interrupt_sources[i].id == ul_id) {
  403f3a:	42bb      	cmp	r3, r7
  403f3c:	d1f6      	bne.n	403f2c <pio_handler_process+0x1c>
				if ((status & gs_interrupt_sources[i].mask) != 0) {
  403f3e:	6861      	ldr	r1, [r4, #4]
  403f40:	4231      	tst	r1, r6
  403f42:	d0f3      	beq.n	403f2c <pio_handler_process+0x1c>
					gs_interrupt_sources[i].handler(gs_interrupt_sources[i].id,
  403f44:	68e3      	ldr	r3, [r4, #12]
  403f46:	4638      	mov	r0, r7
  403f48:	4798      	blx	r3
					status &= ~(gs_interrupt_sources[i].mask);
  403f4a:	6863      	ldr	r3, [r4, #4]
  403f4c:	ea26 0603 	bic.w	r6, r6, r3
  403f50:	e7ec      	b.n	403f2c <pio_handler_process+0x1c>
  403f52:	bdf8      	pop	{r3, r4, r5, r6, r7, pc}
  403f54:	00403d7d 	.word	0x00403d7d
  403f58:	00403d81 	.word	0x00403d81
  403f5c:	20402c80 	.word	0x20402c80

00403f60 <pio_handler_set>:
 *
 * \return 0 if successful, 1 if the maximum number of sources has been defined.
 */
uint32_t pio_handler_set(Pio *p_pio, uint32_t ul_id, uint32_t ul_mask,
		uint32_t ul_attr, void (*p_handler) (uint32_t, uint32_t))
{
  403f60:	e92d 47f0 	stmdb	sp!, {r4, r5, r6, r7, r8, r9, sl, lr}
    uint8_t i;
	struct s_interrupt_source *pSource;

	if (gs_ul_nb_sources >= MAX_INTERRUPT_SOURCES)
  403f64:	f8df 9070 	ldr.w	r9, [pc, #112]	; 403fd8 <pio_handler_set+0x78>
  403f68:	f8d9 c000 	ldr.w	ip, [r9]
  403f6c:	f1bc 0f06 	cmp.w	ip, #6
  403f70:	d82b      	bhi.n	403fca <pio_handler_set+0x6a>
  403f72:	f04f 0800 	mov.w	r8, #0
  403f76:	4e16      	ldr	r6, [pc, #88]	; (403fd0 <pio_handler_set+0x70>)
  403f78:	4644      	mov	r4, r8
  403f7a:	e002      	b.n	403f82 <pio_handler_set+0x22>
		return 1;

    /* Check interrupt for this pin, if already defined, redefine it. */
	for (i = 0; i <= gs_ul_nb_sources; i++) {
  403f7c:	45a4      	cmp	ip, r4
  403f7e:	46a0      	mov	r8, r4
  403f80:	d30c      	bcc.n	403f9c <pio_handler_set+0x3c>
		pSource = &(gs_interrupt_sources[i]);
		if (pSource->id == ul_id && pSource->mask == ul_mask) {
  403f82:	0125      	lsls	r5, r4, #4
	for (i = 0; i <= gs_ul_nb_sources; i++) {
  403f84:	f104 0e01 	add.w	lr, r4, #1
		pSource = &(gs_interrupt_sources[i]);
  403f88:	46a2      	mov	sl, r4
		if (pSource->id == ul_id && pSource->mask == ul_mask) {
  403f8a:	5977      	ldr	r7, [r6, r5]
	for (i = 0; i <= gs_ul_nb_sources; i++) {
  403f8c:	fa5f f48e 	uxtb.w	r4, lr
		if (pSource->id == ul_id && pSource->mask == ul_mask) {
  403f90:	4435      	add	r5, r6
  403f92:	428f      	cmp	r7, r1
  403f94:	d1f2      	bne.n	403f7c <pio_handler_set+0x1c>
  403f96:	686d      	ldr	r5, [r5, #4]
  403f98:	4295      	cmp	r5, r2
  403f9a:	d1ef      	bne.n	403f7c <pio_handler_set+0x1c>
			break;
		}
	}

	/* Define new source */
	pSource->id = ul_id;
  403f9c:	ea4f 1a0a 	mov.w	sl, sl, lsl #4
	pSource->mask = ul_mask;
	pSource->attr = ul_attr;
	pSource->handler = p_handler;
	if (i == gs_ul_nb_sources + 1) {
  403fa0:	f10c 0c01 	add.w	ip, ip, #1
	pSource->id = ul_id;
  403fa4:	eb06 040a 	add.w	r4, r6, sl
  403fa8:	f846 100a 	str.w	r1, [r6, sl]
	pSource->handler = p_handler;
  403fac:	9908      	ldr	r1, [sp, #32]
	if (i == gs_ul_nb_sources + 1) {
  403fae:	45c4      	cmp	ip, r8
	pSource->mask = ul_mask;
  403fb0:	6062      	str	r2, [r4, #4]
	pSource->attr = ul_attr;
  403fb2:	60a3      	str	r3, [r4, #8]
	pSource->handler = p_handler;
  403fb4:	60e1      	str	r1, [r4, #12]
  403fb6:	4611      	mov	r1, r2
		gs_ul_nb_sources++;
	}

	/* Configure interrupt mode */
	pio_configure_interrupt(p_pio, ul_mask, ul_attr);
  403fb8:	461a      	mov	r2, r3
  403fba:	4b06      	ldr	r3, [pc, #24]	; (403fd4 <pio_handler_set+0x74>)
		gs_ul_nb_sources++;
  403fbc:	bf08      	it	eq
  403fbe:	f8c9 8000 	streq.w	r8, [r9]
	pio_configure_interrupt(p_pio, ul_mask, ul_attr);
  403fc2:	4798      	blx	r3

	return 0;
  403fc4:	2000      	movs	r0, #0
  403fc6:	e8bd 87f0 	ldmia.w	sp!, {r4, r5, r6, r7, r8, r9, sl, pc}
		return 1;
  403fca:	2001      	movs	r0, #1
}
  403fcc:	e8bd 87f0 	ldmia.w	sp!, {r4, r5, r6, r7, r8, r9, sl, pc}
  403fd0:	20402c80 	.word	0x20402c80
  403fd4:	00403db5 	.word	0x00403db5
  403fd8:	20402cf0 	.word	0x20402cf0

00403fdc <PIOA_Handler>:
 * \brief Parallel IO Controller A interrupt handler.
 * Redefined PIOA interrupt handler for NVIC interrupt table.
 */
void PIOA_Handler(void)
{
	pio_handler_process(PIOA, ID_PIOA);
  403fdc:	210a      	movs	r1, #10
  403fde:	4801      	ldr	r0, [pc, #4]	; (403fe4 <PIOA_Handler+0x8>)
  403fe0:	4b01      	ldr	r3, [pc, #4]	; (403fe8 <PIOA_Handler+0xc>)
  403fe2:	4718      	bx	r3
  403fe4:	400e0e00 	.word	0x400e0e00
  403fe8:	00403f11 	.word	0x00403f11

00403fec <PIOB_Handler>:
 * \brief Parallel IO Controller B interrupt handler
 * Redefined PIOB interrupt handler for NVIC interrupt table.
 */
void PIOB_Handler(void)
{
    pio_handler_process(PIOB, ID_PIOB);
  403fec:	210b      	movs	r1, #11
  403fee:	4801      	ldr	r0, [pc, #4]	; (403ff4 <PIOB_Handler+0x8>)
  403ff0:	4b01      	ldr	r3, [pc, #4]	; (403ff8 <PIOB_Handler+0xc>)
  403ff2:	4718      	bx	r3
  403ff4:	400e1000 	.word	0x400e1000
  403ff8:	00403f11 	.word	0x00403f11

00403ffc <PIOC_Handler>:
 * \brief Parallel IO Controller C interrupt handler.
 * Redefined PIOC interrupt handler for NVIC interrupt table.
 */
void PIOC_Handler(void)
{
	pio_handler_process(PIOC, ID_PIOC);
  403ffc:	210c      	movs	r1, #12
  403ffe:	4801      	ldr	r0, [pc, #4]	; (404004 <PIOC_Handler+0x8>)
  404000:	4b01      	ldr	r3, [pc, #4]	; (404008 <PIOC_Handler+0xc>)
  404002:	4718      	bx	r3
  404004:	400e1200 	.word	0x400e1200
  404008:	00403f11 	.word	0x00403f11

0040400c <PIOD_Handler>:
 * \brief Parallel IO Controller D interrupt handler.
 * Redefined PIOD interrupt handler for NVIC interrupt table.
 */
void PIOD_Handler(void)
{
	pio_handler_process(PIOD, ID_PIOD);
  40400c:	2110      	movs	r1, #16
  40400e:	4801      	ldr	r0, [pc, #4]	; (404014 <PIOD_Handler+0x8>)
  404010:	4b01      	ldr	r3, [pc, #4]	; (404018 <PIOD_Handler+0xc>)
  404012:	4718      	bx	r3
  404014:	400e1400 	.word	0x400e1400
  404018:	00403f11 	.word	0x00403f11

0040401c <PIOE_Handler>:
 * \brief Parallel IO Controller E interrupt handler.
 * Redefined PIOE interrupt handler for NVIC interrupt table.
 */
void PIOE_Handler(void)
{
	pio_handler_process(PIOE, ID_PIOE);
  40401c:	2111      	movs	r1, #17
  40401e:	4801      	ldr	r0, [pc, #4]	; (404024 <PIOE_Handler+0x8>)
  404020:	4b01      	ldr	r3, [pc, #4]	; (404028 <PIOE_Handler+0xc>)
  404022:	4718      	bx	r3
  404024:	400e1600 	.word	0x400e1600
  404028:	00403f11 	.word	0x00403f11

0040402c <pio_handler_set_priority>:
 * \param p_pio PIO controller base address.
 * \param ul_irqn NVIC line number.
 * \param ul_priority PIO controller interrupts priority.
 */
void pio_handler_set_priority(Pio *p_pio, IRQn_Type ul_irqn, uint32_t ul_priority)
{
  40402c:	e92d 41f0 	stmdb	sp!, {r4, r5, r6, r7, r8, lr}
  404030:	4606      	mov	r6, r0
	uint32_t bitmask = 0;

	bitmask = pio_get_interrupt_mask(p_pio);
  404032:	4b1a      	ldr	r3, [pc, #104]	; (40409c <pio_handler_set_priority+0x70>)
{
  404034:	460c      	mov	r4, r1
  404036:	4615      	mov	r5, r2
	bitmask = pio_get_interrupt_mask(p_pio);
  404038:	4798      	blx	r3
	pio_disable_interrupt(p_pio, 0xFFFFFFFF);
  40403a:	f04f 31ff 	mov.w	r1, #4294967295
  40403e:	4b18      	ldr	r3, [pc, #96]	; (4040a0 <pio_handler_set_priority+0x74>)
	bitmask = pio_get_interrupt_mask(p_pio);
  404040:	4607      	mov	r7, r0
	pio_disable_interrupt(p_pio, 0xFFFFFFFF);
  404042:	4630      	mov	r0, r6
  404044:	4798      	blx	r3
	pio_get_interrupt_status(p_pio);
  404046:	4b17      	ldr	r3, [pc, #92]	; (4040a4 <pio_handler_set_priority+0x78>)
  404048:	4630      	mov	r0, r6
  40404a:	4798      	blx	r3
  NVIC->ICER[((uint32_t)(IRQn) >> 5)] = (1 << ((uint32_t)(IRQn) & 0x1F)); /* disable interrupt */
  40404c:	f04f 0c01 	mov.w	ip, #1
  404050:	fa5f fe84 	uxtb.w	lr, r4
  404054:	4914      	ldr	r1, [pc, #80]	; (4040a8 <pio_handler_set_priority+0x7c>)
  404056:	0960      	lsrs	r0, r4, #5
  if(IRQn < 0) {
  404058:	2c00      	cmp	r4, #0
  NVIC->ICER[((uint32_t)(IRQn) >> 5)] = (1 << ((uint32_t)(IRQn) & 0x1F)); /* disable interrupt */
  40405a:	f00e 031f 	and.w	r3, lr, #31
  40405e:	eb01 0280 	add.w	r2, r1, r0, lsl #2
  404062:	fa0c f303 	lsl.w	r3, ip, r3
  404066:	f8c2 3080 	str.w	r3, [r2, #128]	; 0x80
  NVIC->ICPR[((uint32_t)(IRQn) >> 5)] = (1 << ((uint32_t)(IRQn) & 0x1F)); /* Clear pending interrupt */
  40406a:	f8c2 3180 	str.w	r3, [r2, #384]	; 0x180
  if(IRQn < 0) {
  40406e:	db0c      	blt.n	40408a <pio_handler_set_priority+0x5e>
    NVIC->IP[(uint32_t)(IRQn)]            = ((priority << (8 - __NVIC_PRIO_BITS)) & 0xff); } /* set Priority for device specific Interrupts  */
  404070:	016d      	lsls	r5, r5, #5
  404072:	440c      	add	r4, r1
  404074:	b2ed      	uxtb	r5, r5
  404076:	f884 5300 	strb.w	r5, [r4, #768]	; 0x300
  NVIC->ISER[(uint32_t)((int32_t)IRQn) >> 5] = (uint32_t)(1 << ((uint32_t)((int32_t)IRQn) & (uint32_t)0x1F)); /* enable interrupt */
  40407a:	f841 3020 	str.w	r3, [r1, r0, lsl #2]
	NVIC_DisableIRQ(ul_irqn);
	NVIC_ClearPendingIRQ(ul_irqn);
	NVIC_SetPriority(ul_irqn, ul_priority);
	NVIC_EnableIRQ(ul_irqn);
	pio_enable_interrupt(p_pio, bitmask);
  40407e:	4639      	mov	r1, r7
  404080:	4630      	mov	r0, r6
  404082:	4b0a      	ldr	r3, [pc, #40]	; (4040ac <pio_handler_set_priority+0x80>)
}
  404084:	e8bd 41f0 	ldmia.w	sp!, {r4, r5, r6, r7, r8, lr}
	pio_enable_interrupt(p_pio, bitmask);
  404088:	4718      	bx	r3
    SCB->SHPR[((uint32_t)(IRQn) & 0xF)-4] = ((priority << (8 - __NVIC_PRIO_BITS)) & 0xff); } /* set Priority for Cortex-M  System Interrupts */
  40408a:	f00e 0e0f 	and.w	lr, lr, #15
  40408e:	016d      	lsls	r5, r5, #5
  404090:	4c07      	ldr	r4, [pc, #28]	; (4040b0 <pio_handler_set_priority+0x84>)
  404092:	b2ed      	uxtb	r5, r5
  404094:	4474      	add	r4, lr
  404096:	7625      	strb	r5, [r4, #24]
  404098:	e7ef      	b.n	40407a <pio_handler_set_priority+0x4e>
  40409a:	bf00      	nop
  40409c:	00403d81 	.word	0x00403d81
  4040a0:	00403d79 	.word	0x00403d79
  4040a4:	00403d7d 	.word	0x00403d7d
  4040a8:	e000e100 	.word	0xe000e100
  4040ac:	00403d75 	.word	0x00403d75
  4040b0:	e000ecfc 	.word	0xe000ecfc

004040b4 <pmc_mck_set_division>:
 * \brief Set the division of the MCK.
 *
 * \param ul_div Division value.
 */
void pmc_mck_set_division(uint32_t ul_div)
{
  4040b4:	3802      	subs	r0, #2
  4040b6:	2802      	cmp	r0, #2
  4040b8:	d80d      	bhi.n	4040d6 <pmc_mck_set_division+0x22>
  4040ba:	4b08      	ldr	r3, [pc, #32]	; (4040dc <pmc_mck_set_division+0x28>)
  4040bc:	f853 0020 	ldr.w	r0, [r3, r0, lsl #2]
		default:
			ul_div = PMC_MCKR_MDIV_EQ_PCK;
			break;
	}
	PMC->PMC_MCKR =
			(PMC->PMC_MCKR & (~PMC_MCKR_MDIV_Msk)) | ul_div;
  4040c0:	4907      	ldr	r1, [pc, #28]	; (4040e0 <pmc_mck_set_division+0x2c>)
  4040c2:	6b0b      	ldr	r3, [r1, #48]	; 0x30
	while (!(PMC->PMC_SR & PMC_SR_MCKRDY));
  4040c4:	460a      	mov	r2, r1
			(PMC->PMC_MCKR & (~PMC_MCKR_MDIV_Msk)) | ul_div;
  4040c6:	f423 7340 	bic.w	r3, r3, #768	; 0x300
  4040ca:	4303      	orrs	r3, r0
	PMC->PMC_MCKR =
  4040cc:	630b      	str	r3, [r1, #48]	; 0x30
	while (!(PMC->PMC_SR & PMC_SR_MCKRDY));
  4040ce:	6e93      	ldr	r3, [r2, #104]	; 0x68
  4040d0:	071b      	lsls	r3, r3, #28
  4040d2:	d5fc      	bpl.n	4040ce <pmc_mck_set_division+0x1a>
}
  4040d4:	4770      	bx	lr
{
  4040d6:	2000      	movs	r0, #0
  4040d8:	e7f2      	b.n	4040c0 <pmc_mck_set_division+0xc>
  4040da:	bf00      	nop
  4040dc:	00414520 	.word	0x00414520
  4040e0:	400e0600 	.word	0x400e0600

004040e4 <pmc_switch_mck_to_pllack>:
 */
uint32_t pmc_switch_mck_to_pllack(uint32_t ul_pres)
{
	uint32_t ul_timeout;

	PMC->PMC_MCKR = (PMC->PMC_MCKR & (~PMC_MCKR_PRES_Msk)) | ul_pres;
  4040e4:	4913      	ldr	r1, [pc, #76]	; (404134 <pmc_switch_mck_to_pllack+0x50>)
  4040e6:	6b0b      	ldr	r3, [r1, #48]	; 0x30
  4040e8:	f023 0370 	bic.w	r3, r3, #112	; 0x70
  4040ec:	4318      	orrs	r0, r3
  4040ee:	6308      	str	r0, [r1, #48]	; 0x30
	for (ul_timeout = PMC_TIMEOUT; !(PMC->PMC_SR & PMC_SR_MCKRDY);
  4040f0:	6e8b      	ldr	r3, [r1, #104]	; 0x68
  4040f2:	0718      	lsls	r0, r3, #28
  4040f4:	d407      	bmi.n	404106 <pmc_switch_mck_to_pllack+0x22>
  4040f6:	f44f 6300 	mov.w	r3, #2048	; 0x800
  4040fa:	e001      	b.n	404100 <pmc_switch_mck_to_pllack+0x1c>
			--ul_timeout) {
		if (ul_timeout == 0) {
  4040fc:	3b01      	subs	r3, #1
  4040fe:	d016      	beq.n	40412e <pmc_switch_mck_to_pllack+0x4a>
	for (ul_timeout = PMC_TIMEOUT; !(PMC->PMC_SR & PMC_SR_MCKRDY);
  404100:	6e8a      	ldr	r2, [r1, #104]	; 0x68
  404102:	0712      	lsls	r2, r2, #28
  404104:	d5fa      	bpl.n	4040fc <pmc_switch_mck_to_pllack+0x18>
			return 1;
		}
	}

	PMC->PMC_MCKR = (PMC->PMC_MCKR & (~PMC_MCKR_CSS_Msk)) |
  404106:	490b      	ldr	r1, [pc, #44]	; (404134 <pmc_switch_mck_to_pllack+0x50>)
  404108:	6b0b      	ldr	r3, [r1, #48]	; 0x30
  40410a:	f023 0303 	bic.w	r3, r3, #3
  40410e:	f043 0302 	orr.w	r3, r3, #2
  404112:	630b      	str	r3, [r1, #48]	; 0x30
			PMC_MCKR_CSS_PLLA_CLK;

	for (ul_timeout = PMC_TIMEOUT; !(PMC->PMC_SR & PMC_SR_MCKRDY);
  404114:	6e8b      	ldr	r3, [r1, #104]	; 0x68
  404116:	0718      	lsls	r0, r3, #28
  404118:	d407      	bmi.n	40412a <pmc_switch_mck_to_pllack+0x46>
  40411a:	f44f 6300 	mov.w	r3, #2048	; 0x800
  40411e:	e001      	b.n	404124 <pmc_switch_mck_to_pllack+0x40>
			--ul_timeout) {
		if (ul_timeout == 0) {
  404120:	3b01      	subs	r3, #1
  404122:	d004      	beq.n	40412e <pmc_switch_mck_to_pllack+0x4a>
	for (ul_timeout = PMC_TIMEOUT; !(PMC->PMC_SR & PMC_SR_MCKRDY);
  404124:	6e8a      	ldr	r2, [r1, #104]	; 0x68
  404126:	0712      	lsls	r2, r2, #28
  404128:	d5fa      	bpl.n	404120 <pmc_switch_mck_to_pllack+0x3c>
			return 1;
		}
	}

	return 0;
  40412a:	2000      	movs	r0, #0
}
  40412c:	4770      	bx	lr
			return 1;
  40412e:	2001      	movs	r0, #1
  404130:	4770      	bx	lr
  404132:	bf00      	nop
  404134:	400e0600 	.word	0x400e0600

00404138 <pmc_switch_mainck_to_fastrc>:
 * \retval 2 Invalid frequency.
 */
void pmc_switch_mainck_to_fastrc(uint32_t ul_moscrcf)
{
	/* Enable Fast RC oscillator but DO NOT switch to RC now */
	PMC->CKGR_MOR |= (CKGR_MOR_KEY_PASSWD | CKGR_MOR_MOSCRCEN);
  404138:	4a0e      	ldr	r2, [pc, #56]	; (404174 <pmc_switch_mainck_to_fastrc+0x3c>)
{
  40413a:	b410      	push	{r4}
	PMC->CKGR_MOR |= (CKGR_MOR_KEY_PASSWD | CKGR_MOR_MOSCRCEN);
  40413c:	4c0e      	ldr	r4, [pc, #56]	; (404178 <pmc_switch_mainck_to_fastrc+0x40>)

	/* Wait the Fast RC to stabilize */
	while (!(PMC->PMC_SR & PMC_SR_MOSCRCS));
  40413e:	4611      	mov	r1, r2
	PMC->CKGR_MOR |= (CKGR_MOR_KEY_PASSWD | CKGR_MOR_MOSCRCEN);
  404140:	6a13      	ldr	r3, [r2, #32]
  404142:	431c      	orrs	r4, r3
  404144:	6214      	str	r4, [r2, #32]
	while (!(PMC->PMC_SR & PMC_SR_MOSCRCS));
  404146:	6e8b      	ldr	r3, [r1, #104]	; 0x68
  404148:	039a      	lsls	r2, r3, #14
  40414a:	d5fc      	bpl.n	404146 <pmc_switch_mainck_to_fastrc+0xe>

	/* Change Fast RC oscillator frequency */
	PMC->CKGR_MOR = (PMC->CKGR_MOR & ~CKGR_MOR_MOSCRCF_Msk) |
  40414c:	6a0c      	ldr	r4, [r1, #32]
  40414e:	4b0b      	ldr	r3, [pc, #44]	; (40417c <pmc_switch_mainck_to_fastrc+0x44>)
			CKGR_MOR_KEY_PASSWD | ul_moscrcf;

	/* Wait the Fast RC to stabilize */
	while (!(PMC->PMC_SR & PMC_SR_MOSCRCS));
  404150:	4a08      	ldr	r2, [pc, #32]	; (404174 <pmc_switch_mainck_to_fastrc+0x3c>)
	PMC->CKGR_MOR = (PMC->CKGR_MOR & ~CKGR_MOR_MOSCRCF_Msk) |
  404152:	4023      	ands	r3, r4
			CKGR_MOR_KEY_PASSWD | ul_moscrcf;
  404154:	f443 135c 	orr.w	r3, r3, #3604480	; 0x370000
  404158:	4318      	orrs	r0, r3
	PMC->CKGR_MOR = (PMC->CKGR_MOR & ~CKGR_MOR_MOSCRCF_Msk) |
  40415a:	6208      	str	r0, [r1, #32]
	while (!(PMC->PMC_SR & PMC_SR_MOSCRCS));
  40415c:	6e93      	ldr	r3, [r2, #104]	; 0x68
  40415e:	039b      	lsls	r3, r3, #14
  404160:	d5fc      	bpl.n	40415c <pmc_switch_mainck_to_fastrc+0x24>

	/* Switch to Fast RC */
	PMC->CKGR_MOR = (PMC->CKGR_MOR & ~CKGR_MOR_MOSCSEL) |
  404162:	6a11      	ldr	r1, [r2, #32]
  404164:	4b06      	ldr	r3, [pc, #24]	; (404180 <pmc_switch_mainck_to_fastrc+0x48>)
  404166:	400b      	ands	r3, r1
  404168:	f443 135c 	orr.w	r3, r3, #3604480	; 0x370000
  40416c:	6213      	str	r3, [r2, #32]
			CKGR_MOR_KEY_PASSWD;
}
  40416e:	f85d 4b04 	ldr.w	r4, [sp], #4
  404172:	4770      	bx	lr
  404174:	400e0600 	.word	0x400e0600
  404178:	00370008 	.word	0x00370008
  40417c:	ffc8ff8f 	.word	0xffc8ff8f
  404180:	fec8ffff 	.word	0xfec8ffff

00404184 <pmc_osc_is_ready_mainck>:
 * \retval 1 Xtal is ready.
 * \retval 0 Xtal is not ready.
 */
uint32_t pmc_osc_is_ready_mainck(void)
{
	return PMC->PMC_SR & PMC_SR_MOSCSELS;
  404184:	4b02      	ldr	r3, [pc, #8]	; (404190 <pmc_osc_is_ready_mainck+0xc>)
  404186:	6e98      	ldr	r0, [r3, #104]	; 0x68
}
  404188:	f400 3080 	and.w	r0, r0, #65536	; 0x10000
  40418c:	4770      	bx	lr
  40418e:	bf00      	nop
  404190:	400e0600 	.word	0x400e0600

00404194 <pmc_disable_pllack>:
void pmc_disable_pllack(void)
{
#if (SAM4C || SAM4CM || SAM4CP || SAMG)
	PMC->CKGR_PLLAR = CKGR_PLLAR_MULA(0);
#else
	PMC->CKGR_PLLAR = CKGR_PLLAR_ONE | CKGR_PLLAR_MULA(0);
  404194:	4b02      	ldr	r3, [pc, #8]	; (4041a0 <pmc_disable_pllack+0xc>)
  404196:	f04f 5200 	mov.w	r2, #536870912	; 0x20000000
  40419a:	629a      	str	r2, [r3, #40]	; 0x28
  40419c:	4770      	bx	lr
  40419e:	bf00      	nop
  4041a0:	400e0600 	.word	0x400e0600

004041a4 <pmc_is_locked_pllack>:
 * \retval 0 Not locked.
 * \retval 1 Locked.
 */
uint32_t pmc_is_locked_pllack(void)
{
	return (PMC->PMC_SR & PMC_SR_LOCKA);
  4041a4:	4b02      	ldr	r3, [pc, #8]	; (4041b0 <pmc_is_locked_pllack+0xc>)
  4041a6:	6e98      	ldr	r0, [r3, #104]	; 0x68
}
  4041a8:	f000 0002 	and.w	r0, r0, #2
  4041ac:	4770      	bx	lr
  4041ae:	bf00      	nop
  4041b0:	400e0600 	.word	0x400e0600

004041b4 <pmc_enable_periph_clk>:
 * \retval 0 Success.
 * \retval 1 Invalid parameter.
 */
uint32_t pmc_enable_periph_clk(uint32_t ul_id)
{
	if (ul_id > MAX_PERIPH_ID) {
  4041b4:	283f      	cmp	r0, #63	; 0x3f
  4041b6:	d81a      	bhi.n	4041ee <pmc_enable_periph_clk+0x3a>
		return 1;
	}

	if (ul_id < 32) {
  4041b8:	281f      	cmp	r0, #31
  4041ba:	d80a      	bhi.n	4041d2 <pmc_enable_periph_clk+0x1e>
		if ((PMC->PMC_PCSR0 & (1u << ul_id)) != (1u << ul_id)) {
  4041bc:	2301      	movs	r3, #1
  4041be:	4a0e      	ldr	r2, [pc, #56]	; (4041f8 <pmc_enable_periph_clk+0x44>)
  4041c0:	fa03 f000 	lsl.w	r0, r3, r0
  4041c4:	6991      	ldr	r1, [r2, #24]
  4041c6:	ea30 0301 	bics.w	r3, r0, r1
  4041ca:	d012      	beq.n	4041f2 <pmc_enable_periph_clk+0x3e>
			PMC->PMC_PCER0 = 1 << ul_id;
  4041cc:	6110      	str	r0, [r2, #16]
			PMC->PMC_PCER1 = 1 << ul_id;
		}
#endif
	}

	return 0;
  4041ce:	2000      	movs	r0, #0
  4041d0:	4770      	bx	lr
		if ((PMC->PMC_PCSR1 & (1u << ul_id)) != (1u << ul_id)) {
  4041d2:	2301      	movs	r3, #1
		ul_id -= 32;
  4041d4:	3820      	subs	r0, #32
		if ((PMC->PMC_PCSR1 & (1u << ul_id)) != (1u << ul_id)) {
  4041d6:	4a08      	ldr	r2, [pc, #32]	; (4041f8 <pmc_enable_periph_clk+0x44>)
  4041d8:	fa03 f000 	lsl.w	r0, r3, r0
  4041dc:	f8d2 3108 	ldr.w	r3, [r2, #264]	; 0x108
  4041e0:	ea30 0303 	bics.w	r3, r0, r3
  4041e4:	d005      	beq.n	4041f2 <pmc_enable_periph_clk+0x3e>
			PMC->PMC_PCER1 = 1 << ul_id;
  4041e6:	f8c2 0100 	str.w	r0, [r2, #256]	; 0x100
	return 0;
  4041ea:	2000      	movs	r0, #0
  4041ec:	4770      	bx	lr
		return 1;
  4041ee:	2001      	movs	r0, #1
  4041f0:	4770      	bx	lr
	return 0;
  4041f2:	2000      	movs	r0, #0
}
  4041f4:	4770      	bx	lr
  4041f6:	bf00      	nop
  4041f8:	400e0600 	.word	0x400e0600

004041fc <pmc_pck_set_prescaler>:
 *
 * \param ul_id Peripheral ID.
 * \param ul_pres Prescaler value.
 */
void pmc_pck_set_prescaler(uint32_t ul_id, uint32_t ul_pres)
{
  4041fc:	4b0b      	ldr	r3, [pc, #44]	; (40422c <pmc_pck_set_prescaler+0x30>)
  4041fe:	f44f 7280 	mov.w	r2, #256	; 0x100
  404202:	b410      	push	{r4}
  404204:	eb03 0480 	add.w	r4, r3, r0, lsl #2
  404208:	fa02 f000 	lsl.w	r0, r2, r0
	PMC->PMC_PCK[ul_id] =
			(PMC->PMC_PCK[ul_id] & ~PMC_PCK_PRES_Msk) | ul_pres;
  40420c:	6c22      	ldr	r2, [r4, #64]	; 0x40
  40420e:	f422 627f 	bic.w	r2, r2, #4080	; 0xff0
  404212:	4311      	orrs	r1, r2
	PMC->PMC_PCK[ul_id] =
  404214:	6421      	str	r1, [r4, #64]	; 0x40
	while ((PMC->PMC_SCER & (PMC_SCER_PCK0 << ul_id))
  404216:	e002      	b.n	40421e <pmc_pck_set_prescaler+0x22>
			&& !(PMC->PMC_SR & (PMC_SR_PCKRDY0 << ul_id)));
  404218:	6e9a      	ldr	r2, [r3, #104]	; 0x68
  40421a:	4202      	tst	r2, r0
  40421c:	d102      	bne.n	404224 <pmc_pck_set_prescaler+0x28>
	while ((PMC->PMC_SCER & (PMC_SCER_PCK0 << ul_id))
  40421e:	681a      	ldr	r2, [r3, #0]
  404220:	4202      	tst	r2, r0
  404222:	d1f9      	bne.n	404218 <pmc_pck_set_prescaler+0x1c>
}
  404224:	f85d 4b04 	ldr.w	r4, [sp], #4
  404228:	4770      	bx	lr
  40422a:	bf00      	nop
  40422c:	400e0600 	.word	0x400e0600

00404230 <pmc_pck_set_source>:
 *
 * \param ul_id Peripheral ID.
 * \param ul_source Source selection value.
 */
void pmc_pck_set_source(uint32_t ul_id, uint32_t ul_source)
{
  404230:	4b0b      	ldr	r3, [pc, #44]	; (404260 <pmc_pck_set_source+0x30>)
  404232:	f44f 7280 	mov.w	r2, #256	; 0x100
  404236:	b410      	push	{r4}
  404238:	eb03 0480 	add.w	r4, r3, r0, lsl #2
  40423c:	fa02 f000 	lsl.w	r0, r2, r0
	PMC->PMC_PCK[ul_id] =
			(PMC->PMC_PCK[ul_id] & ~PMC_PCK_CSS_Msk) | ul_source;
  404240:	6c22      	ldr	r2, [r4, #64]	; 0x40
  404242:	f022 0207 	bic.w	r2, r2, #7
  404246:	4311      	orrs	r1, r2
	PMC->PMC_PCK[ul_id] =
  404248:	6421      	str	r1, [r4, #64]	; 0x40
	while ((PMC->PMC_SCER & (PMC_SCER_PCK0 << ul_id))
  40424a:	e002      	b.n	404252 <pmc_pck_set_source+0x22>
			&& !(PMC->PMC_SR & (PMC_SR_PCKRDY0 << ul_id)));
  40424c:	6e9a      	ldr	r2, [r3, #104]	; 0x68
  40424e:	4202      	tst	r2, r0
  404250:	d102      	bne.n	404258 <pmc_pck_set_source+0x28>
	while ((PMC->PMC_SCER & (PMC_SCER_PCK0 << ul_id))
  404252:	681a      	ldr	r2, [r3, #0]
  404254:	4202      	tst	r2, r0
  404256:	d1f9      	bne.n	40424c <pmc_pck_set_source+0x1c>
}
  404258:	f85d 4b04 	ldr.w	r4, [sp], #4
  40425c:	4770      	bx	lr
  40425e:	bf00      	nop
  404260:	400e0600 	.word	0x400e0600

00404264 <pmc_enable_pck>:
 *
 * \param ul_id Id of the programmable clock.
 */
void pmc_enable_pck(uint32_t ul_id)
{
	PMC->PMC_SCER = PMC_SCER_PCK0 << ul_id;
  404264:	f44f 7380 	mov.w	r3, #256	; 0x100
  404268:	4a02      	ldr	r2, [pc, #8]	; (404274 <pmc_enable_pck+0x10>)
  40426a:	fa03 f000 	lsl.w	r0, r3, r0
  40426e:	6010      	str	r0, [r2, #0]
  404270:	4770      	bx	lr
  404272:	bf00      	nop
  404274:	400e0600 	.word	0x400e0600

00404278 <Dummy_Handler>:

/**
 * \brief Default interrupt handler for unused IRQs.
 */
void Dummy_Handler(void)
{
  404278:	e7fe      	b.n	404278 <Dummy_Handler>
  40427a:	bf00      	nop

0040427c <Dummy_Handler2>:
	while (1) {
	}
}

void Dummy_Handler2(void)
{
  40427c:	e7fe      	b.n	40427c <Dummy_Handler2>
  40427e:	bf00      	nop

00404280 <Reset_Handler>:
        if (pSrc != pDest) {
  404280:	4924      	ldr	r1, [pc, #144]	; (404314 <Reset_Handler+0x94>)
  404282:	4a25      	ldr	r2, [pc, #148]	; (404318 <Reset_Handler+0x98>)
  404284:	4291      	cmp	r1, r2
{
  404286:	b500      	push	{lr}
  404288:	b083      	sub	sp, #12
        if (pSrc != pDest) {
  40428a:	d00e      	beq.n	4042aa <Reset_Handler+0x2a>
                for (; pDest < &_erelocate;) {
  40428c:	4823      	ldr	r0, [pc, #140]	; (40431c <Reset_Handler+0x9c>)
  40428e:	4282      	cmp	r2, r0
  404290:	d20b      	bcs.n	4042aa <Reset_Handler+0x2a>
  404292:	43d3      	mvns	r3, r2
  404294:	4403      	add	r3, r0
  404296:	f023 0303 	bic.w	r3, r3, #3
  40429a:	3304      	adds	r3, #4
  40429c:	4413      	add	r3, r2
                        *pDest++ = *pSrc++;
  40429e:	f851 0b04 	ldr.w	r0, [r1], #4
  4042a2:	f842 0b04 	str.w	r0, [r2], #4
                for (; pDest < &_erelocate;) {
  4042a6:	429a      	cmp	r2, r3
  4042a8:	d1f9      	bne.n	40429e <Reset_Handler+0x1e>
        for (pDest = &_szero; pDest < &_ezero;) {
  4042aa:	4a1d      	ldr	r2, [pc, #116]	; (404320 <Reset_Handler+0xa0>)
  4042ac:	491d      	ldr	r1, [pc, #116]	; (404324 <Reset_Handler+0xa4>)
  4042ae:	428a      	cmp	r2, r1
  4042b0:	d20a      	bcs.n	4042c8 <Reset_Handler+0x48>
  4042b2:	43d3      	mvns	r3, r2
                *pDest++ = 0;
  4042b4:	2000      	movs	r0, #0
  4042b6:	440b      	add	r3, r1
  4042b8:	f023 0303 	bic.w	r3, r3, #3
  4042bc:	3304      	adds	r3, #4
  4042be:	4413      	add	r3, r2
  4042c0:	f842 0b04 	str.w	r0, [r2], #4
        for (pDest = &_szero; pDest < &_ezero;) {
  4042c4:	429a      	cmp	r2, r3
  4042c6:	d1fb      	bne.n	4042c0 <Reset_Handler+0x40>
        SCB->VTOR = ((uint32_t) pSrc & SCB_VTOR_TBLOFF_Msk);
  4042c8:	4b17      	ldr	r3, [pc, #92]	; (404328 <Reset_Handler+0xa8>)
  4042ca:	4a18      	ldr	r2, [pc, #96]	; (40432c <Reset_Handler+0xac>)
  4042cc:	f023 037f 	bic.w	r3, r3, #127	; 0x7f
  4042d0:	6093      	str	r3, [r2, #8]
 */
__attribute__( ( always_inline ) ) __STATIC_INLINE uint32_t __get_PRIMASK(void)
{
  uint32_t result;

  __ASM volatile ("MRS %0, primask" : "=r" (result) );
  4042d2:	f3ef 8310 	mrs	r3, PRIMASK
static volatile uint32_t cpu_irq_critical_section_counter;
static volatile bool     cpu_irq_prev_interrupt_state;

static inline irqflags_t cpu_irq_save(void)
{
	volatile irqflags_t flags = cpu_irq_is_enabled();
  4042d6:	fab3 f383 	clz	r3, r3
  4042da:	095b      	lsrs	r3, r3, #5
  4042dc:	9301      	str	r3, [sp, #4]
  __ASM volatile ("cpsid i" : : : "memory");
  4042de:	b672      	cpsid	i
  __ASM volatile ("dmb");
  4042e0:	f3bf 8f5f 	dmb	sy
	cpu_irq_disable();
  4042e4:	4a12      	ldr	r2, [pc, #72]	; (404330 <Reset_Handler+0xb0>)
  4042e6:	2300      	movs	r3, #0
 */
__always_inline static void fpu_enable(void)
{
	irqflags_t flags;
	flags = cpu_irq_save();
	REG_CPACR |=  (0xFu << 20);
  4042e8:	4912      	ldr	r1, [pc, #72]	; (404334 <Reset_Handler+0xb4>)
  4042ea:	7013      	strb	r3, [r2, #0]
	return flags;
  4042ec:	9801      	ldr	r0, [sp, #4]
  4042ee:	680b      	ldr	r3, [r1, #0]
  4042f0:	f443 0370 	orr.w	r3, r3, #15728640	; 0xf00000
  4042f4:	600b      	str	r3, [r1, #0]
  __ASM volatile ("dsb");
  4042f6:	f3bf 8f4f 	dsb	sy
  __ASM volatile ("isb");
  4042fa:	f3bf 8f6f 	isb	sy
	return (flags);
}

static inline void cpu_irq_restore(irqflags_t flags)
{
	if (cpu_irq_is_enabled_flags(flags))
  4042fe:	b120      	cbz	r0, 40430a <Reset_Handler+0x8a>
		cpu_irq_enable();
  404300:	2301      	movs	r3, #1
  404302:	7013      	strb	r3, [r2, #0]
  __ASM volatile ("dmb");
  404304:	f3bf 8f5f 	dmb	sy
  __ASM volatile ("cpsie i" : : : "memory");
  404308:	b662      	cpsie	i
        __libc_init_array();
  40430a:	4b0b      	ldr	r3, [pc, #44]	; (404338 <Reset_Handler+0xb8>)
  40430c:	4798      	blx	r3
        main();
  40430e:	4b0b      	ldr	r3, [pc, #44]	; (40433c <Reset_Handler+0xbc>)
  404310:	4798      	blx	r3
  404312:	e7fe      	b.n	404312 <Reset_Handler+0x92>
  404314:	00414aac 	.word	0x00414aac
  404318:	20400000 	.word	0x20400000
  40431c:	20400a00 	.word	0x20400a00
  404320:	20400a00 	.word	0x20400a00
  404324:	2043b818 	.word	0x2043b818
  404328:	00400000 	.word	0x00400000
  40432c:	e000ed00 	.word	0xe000ed00
  404330:	20400025 	.word	0x20400025
  404334:	e000ed88 	.word	0xe000ed88
  404338:	00406941 	.word	0x00406941
  40433c:	0040478d 	.word	0x0040478d

00404340 <SystemCoreClockUpdate>:
}

void SystemCoreClockUpdate( void )
{
  /* Determine clock frequency according to clock register values */
  switch (PMC->PMC_MCKR & (uint32_t) PMC_MCKR_CSS_Msk)
  404340:	4a31      	ldr	r2, [pc, #196]	; (404408 <SystemCoreClockUpdate+0xc8>)
  404342:	6b13      	ldr	r3, [r2, #48]	; 0x30
  404344:	f003 0303 	and.w	r3, r3, #3
  404348:	2b01      	cmp	r3, #1
  40434a:	d03d      	beq.n	4043c8 <SystemCoreClockUpdate+0x88>
  40434c:	d326      	bcc.n	40439c <SystemCoreClockUpdate+0x5c>
  40434e:	2b02      	cmp	r3, #2
  404350:	d00d      	beq.n	40436e <SystemCoreClockUpdate+0x2e>
  404352:	492e      	ldr	r1, [pc, #184]	; (40440c <SystemCoreClockUpdate+0xcc>)
  404354:	680b      	ldr	r3, [r1, #0]

    default:
    break;
  }

  if ( (PMC->PMC_MCKR & PMC_MCKR_PRES_Msk) == PMC_MCKR_PRES_CLK_3 )
  404356:	482c      	ldr	r0, [pc, #176]	; (404408 <SystemCoreClockUpdate+0xc8>)
  404358:	6b02      	ldr	r2, [r0, #48]	; 0x30
  40435a:	f002 0270 	and.w	r2, r2, #112	; 0x70
  40435e:	2a70      	cmp	r2, #112	; 0x70
  404360:	d02c      	beq.n	4043bc <SystemCoreClockUpdate+0x7c>
  {
    SystemCoreClock /= 3U;
  }
  else
  {
    SystemCoreClock >>= ((PMC->PMC_MCKR & PMC_MCKR_PRES_Msk) >> PMC_MCKR_PRES_Pos);
  404362:	6b02      	ldr	r2, [r0, #48]	; 0x30
  404364:	f3c2 1202 	ubfx	r2, r2, #4, #3
  404368:	40d3      	lsrs	r3, r2
  40436a:	600b      	str	r3, [r1, #0]
  40436c:	4770      	bx	lr
      if ( PMC->CKGR_MOR & CKGR_MOR_MOSCSEL )
  40436e:	6a13      	ldr	r3, [r2, #32]
        SystemCoreClock = CHIP_FREQ_XTAL_12M ;
  404370:	4926      	ldr	r1, [pc, #152]	; (40440c <SystemCoreClockUpdate+0xcc>)
      if ( PMC->CKGR_MOR & CKGR_MOR_MOSCSEL )
  404372:	01db      	lsls	r3, r3, #7
  404374:	d538      	bpl.n	4043e8 <SystemCoreClockUpdate+0xa8>
            SystemCoreClock *= 3U;
  404376:	4b26      	ldr	r3, [pc, #152]	; (404410 <SystemCoreClockUpdate+0xd0>)
  404378:	600b      	str	r3, [r1, #0]
      if ( (uint32_t) (PMC->PMC_MCKR & (uint32_t) PMC_MCKR_CSS_Msk) == PMC_MCKR_CSS_PLLA_CLK )
  40437a:	4823      	ldr	r0, [pc, #140]	; (404408 <SystemCoreClockUpdate+0xc8>)
  40437c:	6b02      	ldr	r2, [r0, #48]	; 0x30
  40437e:	f002 0203 	and.w	r2, r2, #3
  404382:	2a02      	cmp	r2, #2
  404384:	d1e7      	bne.n	404356 <SystemCoreClockUpdate+0x16>
        SystemCoreClock *= ((((PMC->CKGR_PLLAR) & CKGR_PLLAR_MULA_Msk) >> CKGR_PLLAR_MULA_Pos) + 1U);
  404386:	6a82      	ldr	r2, [r0, #40]	; 0x28
        SystemCoreClock /= ((((PMC->CKGR_PLLAR) & CKGR_PLLAR_DIVA_Msk) >> CKGR_PLLAR_DIVA_Pos));
  404388:	6a80      	ldr	r0, [r0, #40]	; 0x28
        SystemCoreClock *= ((((PMC->CKGR_PLLAR) & CKGR_PLLAR_MULA_Msk) >> CKGR_PLLAR_MULA_Pos) + 1U);
  40438a:	f3c2 420a 	ubfx	r2, r2, #16, #11
        SystemCoreClock /= ((((PMC->CKGR_PLLAR) & CKGR_PLLAR_DIVA_Msk) >> CKGR_PLLAR_DIVA_Pos));
  40438e:	b2c0      	uxtb	r0, r0
        SystemCoreClock *= ((((PMC->CKGR_PLLAR) & CKGR_PLLAR_MULA_Msk) >> CKGR_PLLAR_MULA_Pos) + 1U);
  404390:	fb02 3303 	mla	r3, r2, r3, r3
        SystemCoreClock /= ((((PMC->CKGR_PLLAR) & CKGR_PLLAR_DIVA_Msk) >> CKGR_PLLAR_DIVA_Pos));
  404394:	fbb3 f3f0 	udiv	r3, r3, r0
  404398:	600b      	str	r3, [r1, #0]
  40439a:	e7dc      	b.n	404356 <SystemCoreClockUpdate+0x16>
      if ( SUPC->SUPC_SR & SUPC_SR_OSCSEL )
  40439c:	4b1d      	ldr	r3, [pc, #116]	; (404414 <SystemCoreClockUpdate+0xd4>)
        SystemCoreClock = CHIP_FREQ_XTAL_32K;
  40439e:	491b      	ldr	r1, [pc, #108]	; (40440c <SystemCoreClockUpdate+0xcc>)
      if ( SUPC->SUPC_SR & SUPC_SR_OSCSEL )
  4043a0:	695b      	ldr	r3, [r3, #20]
  if ( (PMC->PMC_MCKR & PMC_MCKR_PRES_Msk) == PMC_MCKR_PRES_CLK_3 )
  4043a2:	4819      	ldr	r0, [pc, #100]	; (404408 <SystemCoreClockUpdate+0xc8>)
      if ( SUPC->SUPC_SR & SUPC_SR_OSCSEL )
  4043a4:	061b      	lsls	r3, r3, #24
        SystemCoreClock = CHIP_FREQ_XTAL_32K;
  4043a6:	bf4c      	ite	mi
  4043a8:	f44f 4300 	movmi.w	r3, #32768	; 0x8000
        SystemCoreClock = CHIP_FREQ_SLCK_RC;
  4043ac:	f44f 43fa 	movpl.w	r3, #32000	; 0x7d00
  4043b0:	600b      	str	r3, [r1, #0]
  if ( (PMC->PMC_MCKR & PMC_MCKR_PRES_Msk) == PMC_MCKR_PRES_CLK_3 )
  4043b2:	6b02      	ldr	r2, [r0, #48]	; 0x30
  4043b4:	f002 0270 	and.w	r2, r2, #112	; 0x70
  4043b8:	2a70      	cmp	r2, #112	; 0x70
  4043ba:	d1d2      	bne.n	404362 <SystemCoreClockUpdate+0x22>
    SystemCoreClock /= 3U;
  4043bc:	4a16      	ldr	r2, [pc, #88]	; (404418 <SystemCoreClockUpdate+0xd8>)
  4043be:	fba2 2303 	umull	r2, r3, r2, r3
  4043c2:	085b      	lsrs	r3, r3, #1
  4043c4:	600b      	str	r3, [r1, #0]
  4043c6:	4770      	bx	lr
      if ( PMC->CKGR_MOR & CKGR_MOR_MOSCSEL )
  4043c8:	6a13      	ldr	r3, [r2, #32]
        SystemCoreClock = CHIP_FREQ_XTAL_12M;
  4043ca:	4910      	ldr	r1, [pc, #64]	; (40440c <SystemCoreClockUpdate+0xcc>)
      if ( PMC->CKGR_MOR & CKGR_MOR_MOSCSEL )
  4043cc:	01d8      	lsls	r0, r3, #7
  4043ce:	d408      	bmi.n	4043e2 <SystemCoreClockUpdate+0xa2>
        SystemCoreClock = CHIP_FREQ_MAINCK_RC_4MHZ;
  4043d0:	4b12      	ldr	r3, [pc, #72]	; (40441c <SystemCoreClockUpdate+0xdc>)
  4043d2:	600b      	str	r3, [r1, #0]
        switch ( PMC->CKGR_MOR & CKGR_MOR_MOSCRCF_Msk )
  4043d4:	6a12      	ldr	r2, [r2, #32]
  4043d6:	f002 0270 	and.w	r2, r2, #112	; 0x70
  4043da:	2a10      	cmp	r2, #16
  4043dc:	d011      	beq.n	404402 <SystemCoreClockUpdate+0xc2>
  4043de:	2a20      	cmp	r2, #32
  4043e0:	d1b9      	bne.n	404356 <SystemCoreClockUpdate+0x16>
            SystemCoreClock *= 3U;
  4043e2:	4b0b      	ldr	r3, [pc, #44]	; (404410 <SystemCoreClockUpdate+0xd0>)
  4043e4:	600b      	str	r3, [r1, #0]
          break;
  4043e6:	e7b6      	b.n	404356 <SystemCoreClockUpdate+0x16>
        SystemCoreClock = CHIP_FREQ_MAINCK_RC_4MHZ;
  4043e8:	4b0c      	ldr	r3, [pc, #48]	; (40441c <SystemCoreClockUpdate+0xdc>)
  4043ea:	600b      	str	r3, [r1, #0]
        switch ( PMC->CKGR_MOR & CKGR_MOR_MOSCRCF_Msk )
  4043ec:	6a12      	ldr	r2, [r2, #32]
  4043ee:	f002 0270 	and.w	r2, r2, #112	; 0x70
  4043f2:	2a10      	cmp	r2, #16
  4043f4:	d002      	beq.n	4043fc <SystemCoreClockUpdate+0xbc>
  4043f6:	2a20      	cmp	r2, #32
  4043f8:	d0bd      	beq.n	404376 <SystemCoreClockUpdate+0x36>
  4043fa:	e7be      	b.n	40437a <SystemCoreClockUpdate+0x3a>
            SystemCoreClock *= 2U;
  4043fc:	4b08      	ldr	r3, [pc, #32]	; (404420 <SystemCoreClockUpdate+0xe0>)
  4043fe:	600b      	str	r3, [r1, #0]
          break;
  404400:	e7bb      	b.n	40437a <SystemCoreClockUpdate+0x3a>
            SystemCoreClock *= 2U;
  404402:	4b07      	ldr	r3, [pc, #28]	; (404420 <SystemCoreClockUpdate+0xe0>)
  404404:	600b      	str	r3, [r1, #0]
          break;
  404406:	e7a6      	b.n	404356 <SystemCoreClockUpdate+0x16>
  404408:	400e0600 	.word	0x400e0600
  40440c:	20400028 	.word	0x20400028
  404410:	00b71b00 	.word	0x00b71b00
  404414:	400e1810 	.word	0x400e1810
  404418:	aaaaaaab 	.word	0xaaaaaaab
  40441c:	003d0900 	.word	0x003d0900
  404420:	007a1200 	.word	0x007a1200

00404424 <system_init_flash>:
 * Initialize flash.
 */
void system_init_flash( uint32_t ul_clk )
{
  /* Set FWS for embedded Flash access according to operating frequency */
  if ( ul_clk < CHIP_FREQ_FWS_0 )
  404424:	4b16      	ldr	r3, [pc, #88]	; (404480 <system_init_flash+0x5c>)
  404426:	4298      	cmp	r0, r3
  404428:	d917      	bls.n	40445a <system_init_flash+0x36>
  {
    EFC->EEFC_FMR = EEFC_FMR_FWS(0)|EEFC_FMR_CLOE;
  }
  else
  {
    if (ul_clk < CHIP_FREQ_FWS_1)
  40442a:	4b16      	ldr	r3, [pc, #88]	; (404484 <system_init_flash+0x60>)
  40442c:	4298      	cmp	r0, r3
  40442e:	d910      	bls.n	404452 <system_init_flash+0x2e>
    {
      EFC->EEFC_FMR = EEFC_FMR_FWS(1)|EEFC_FMR_CLOE;
    }
    else
    {
      if (ul_clk < CHIP_FREQ_FWS_2)
  404430:	4b15      	ldr	r3, [pc, #84]	; (404488 <system_init_flash+0x64>)
  404432:	4298      	cmp	r0, r3
  404434:	d91a      	bls.n	40446c <system_init_flash+0x48>
      {
        EFC->EEFC_FMR = EEFC_FMR_FWS(2)|EEFC_FMR_CLOE;
      }
      else
      {
        if ( ul_clk < CHIP_FREQ_FWS_3 )
  404436:	4b15      	ldr	r3, [pc, #84]	; (40448c <system_init_flash+0x68>)
  404438:	4298      	cmp	r0, r3
  40443a:	d913      	bls.n	404464 <system_init_flash+0x40>
        {
          EFC->EEFC_FMR = EEFC_FMR_FWS(3)|EEFC_FMR_CLOE;
        }
        else
        {
          if ( ul_clk < CHIP_FREQ_FWS_4 )
  40443c:	4b14      	ldr	r3, [pc, #80]	; (404490 <system_init_flash+0x6c>)
  40443e:	4298      	cmp	r0, r3
  404440:	d918      	bls.n	404474 <system_init_flash+0x50>
          {
            EFC->EEFC_FMR = EEFC_FMR_FWS(4)|EEFC_FMR_CLOE;
          }
          else
          {
            if ( ul_clk < CHIP_FREQ_FWS_5 )
  404442:	4b14      	ldr	r3, [pc, #80]	; (404494 <system_init_flash+0x70>)
  404444:	4298      	cmp	r0, r3
            {
              EFC->EEFC_FMR = EEFC_FMR_FWS(5)|EEFC_FMR_CLOE;
  404446:	4b14      	ldr	r3, [pc, #80]	; (404498 <system_init_flash+0x74>)
  404448:	bf94      	ite	ls
  40444a:	4a14      	ldrls	r2, [pc, #80]	; (40449c <system_init_flash+0x78>)
            }
            else
            {
              EFC->EEFC_FMR = EEFC_FMR_FWS(6)|EEFC_FMR_CLOE;
  40444c:	4a14      	ldrhi	r2, [pc, #80]	; (4044a0 <system_init_flash+0x7c>)
  40444e:	601a      	str	r2, [r3, #0]
  404450:	4770      	bx	lr
      EFC->EEFC_FMR = EEFC_FMR_FWS(1)|EEFC_FMR_CLOE;
  404452:	4b11      	ldr	r3, [pc, #68]	; (404498 <system_init_flash+0x74>)
  404454:	4a13      	ldr	r2, [pc, #76]	; (4044a4 <system_init_flash+0x80>)
  404456:	601a      	str	r2, [r3, #0]
  404458:	4770      	bx	lr
    EFC->EEFC_FMR = EEFC_FMR_FWS(0)|EEFC_FMR_CLOE;
  40445a:	4b0f      	ldr	r3, [pc, #60]	; (404498 <system_init_flash+0x74>)
  40445c:	f04f 6280 	mov.w	r2, #67108864	; 0x4000000
  404460:	601a      	str	r2, [r3, #0]
  404462:	4770      	bx	lr
          EFC->EEFC_FMR = EEFC_FMR_FWS(3)|EEFC_FMR_CLOE;
  404464:	4b0c      	ldr	r3, [pc, #48]	; (404498 <system_init_flash+0x74>)
  404466:	4a10      	ldr	r2, [pc, #64]	; (4044a8 <system_init_flash+0x84>)
  404468:	601a      	str	r2, [r3, #0]
  40446a:	4770      	bx	lr
        EFC->EEFC_FMR = EEFC_FMR_FWS(2)|EEFC_FMR_CLOE;
  40446c:	4b0a      	ldr	r3, [pc, #40]	; (404498 <system_init_flash+0x74>)
  40446e:	4a0f      	ldr	r2, [pc, #60]	; (4044ac <system_init_flash+0x88>)
  404470:	601a      	str	r2, [r3, #0]
  404472:	4770      	bx	lr
            EFC->EEFC_FMR = EEFC_FMR_FWS(4)|EEFC_FMR_CLOE;
  404474:	4b08      	ldr	r3, [pc, #32]	; (404498 <system_init_flash+0x74>)
  404476:	f04f 2204 	mov.w	r2, #67109888	; 0x4000400
  40447a:	601a      	str	r2, [r3, #0]
  40447c:	4770      	bx	lr
  40447e:	bf00      	nop
  404480:	015ef3bf 	.word	0x015ef3bf
  404484:	02bde77f 	.word	0x02bde77f
  404488:	041cdb3f 	.word	0x041cdb3f
  40448c:	057bceff 	.word	0x057bceff
  404490:	06dac2bf 	.word	0x06dac2bf
  404494:	0839b67f 	.word	0x0839b67f
  404498:	400e0c00 	.word	0x400e0c00
  40449c:	04000500 	.word	0x04000500
  4044a0:	04000600 	.word	0x04000600
  4044a4:	04000100 	.word	0x04000100
  4044a8:	04000300 	.word	0x04000300
  4044ac:	04000200 	.word	0x04000200

004044b0 <_sbrk>:
{
	static unsigned char *heap = NULL;
	unsigned char *prev_heap;
	int ramend = (int)&__ram_end__;

	if (heap == NULL) {
  4044b0:	4a0d      	ldr	r2, [pc, #52]	; (4044e8 <_sbrk+0x38>)
	int ramend = (int)&__ram_end__;
  4044b2:	490e      	ldr	r1, [pc, #56]	; (4044ec <_sbrk+0x3c>)
	if (heap == NULL) {
  4044b4:	6813      	ldr	r3, [r2, #0]
  4044b6:	b143      	cbz	r3, 4044ca <_sbrk+0x1a>
		heap = (unsigned char *)&_end;
	}
	prev_heap = heap;

	if (((int)prev_heap + incr) > ramend) {
  4044b8:	4418      	add	r0, r3
  4044ba:	4281      	cmp	r1, r0
  4044bc:	db02      	blt.n	4044c4 <_sbrk+0x14>
		return (caddr_t) -1;	
	}

	heap += incr;
  4044be:	6010      	str	r0, [r2, #0]

	return (caddr_t) prev_heap;
  4044c0:	4618      	mov	r0, r3
  4044c2:	4770      	bx	lr
		return (caddr_t) -1;	
  4044c4:	f04f 30ff 	mov.w	r0, #4294967295
  4044c8:	4770      	bx	lr
{
  4044ca:	b410      	push	{r4}
		heap = (unsigned char *)&_end;
  4044cc:	4c08      	ldr	r4, [pc, #32]	; (4044f0 <_sbrk+0x40>)
	if (((int)prev_heap + incr) > ramend) {
  4044ce:	4420      	add	r0, r4
		heap = (unsigned char *)&_end;
  4044d0:	6014      	str	r4, [r2, #0]
	if (((int)prev_heap + incr) > ramend) {
  4044d2:	4281      	cmp	r1, r0
  4044d4:	db04      	blt.n	4044e0 <_sbrk+0x30>
	heap += incr;
  4044d6:	6010      	str	r0, [r2, #0]
	return (caddr_t) prev_heap;
  4044d8:	4620      	mov	r0, r4
}
  4044da:	f85d 4b04 	ldr.w	r4, [sp], #4
  4044de:	4770      	bx	lr
		return (caddr_t) -1;	
  4044e0:	f04f 30ff 	mov.w	r0, #4294967295
  4044e4:	e7f9      	b.n	4044da <_sbrk+0x2a>
  4044e6:	bf00      	nop
  4044e8:	20402cf4 	.word	0x20402cf4
  4044ec:	2045fffc 	.word	0x2045fffc
  4044f0:	2043da18 	.word	0x2043da18

004044f4 <_close>:
}

extern int _close(int file)
{
	return -1;
}
  4044f4:	f04f 30ff 	mov.w	r0, #4294967295
  4044f8:	4770      	bx	lr
  4044fa:	bf00      	nop

004044fc <_fstat>:

extern int _fstat(int file, struct stat *st)
{
	st->st_mode = S_IFCHR;
  4044fc:	f44f 5300 	mov.w	r3, #8192	; 0x2000

	return 0;
}
  404500:	2000      	movs	r0, #0
	st->st_mode = S_IFCHR;
  404502:	604b      	str	r3, [r1, #4]
}
  404504:	4770      	bx	lr
  404506:	bf00      	nop

00404508 <_isatty>:

extern int _isatty(int file)
{
	return 1;
}
  404508:	2001      	movs	r0, #1
  40450a:	4770      	bx	lr

0040450c <_lseek>:

extern int _lseek(int file, int ptr, int dir)
{
	return 0;
}
  40450c:	2000      	movs	r0, #0
  40450e:	4770      	bx	lr

00404510 <usart_serial_getchar>:
	if (UART == (Uart*)p_usart) {
		while (uart_read((Uart*)p_usart, data));
	}
#else
# ifdef UART0
	if (UART0 == (Uart*)p_usart) {
  404510:	4b2d      	ldr	r3, [pc, #180]	; (4045c8 <usart_serial_getchar+0xb8>)
	uint32_t val = 0;
  404512:	2200      	movs	r2, #0
{
  404514:	b5f0      	push	{r4, r5, r6, r7, lr}
	if (UART0 == (Uart*)p_usart) {
  404516:	4298      	cmp	r0, r3
{
  404518:	b083      	sub	sp, #12
  40451a:	4604      	mov	r4, r0
  40451c:	460d      	mov	r5, r1
	uint32_t val = 0;
  40451e:	9201      	str	r2, [sp, #4]
	if (UART0 == (Uart*)p_usart) {
  404520:	d03a      	beq.n	404598 <usart_serial_getchar+0x88>
		while (uart_read((Uart*)p_usart, data));
	}
# endif
# ifdef UART1
	if (UART1 == (Uart*)p_usart) {
  404522:	4b2a      	ldr	r3, [pc, #168]	; (4045cc <usart_serial_getchar+0xbc>)
  404524:	4298      	cmp	r0, r3
  404526:	d03f      	beq.n	4045a8 <usart_serial_getchar+0x98>
		while (uart_read((Uart*)p_usart, data));
	}
# endif
# ifdef UART2
	if (UART2 == (Uart*)p_usart) {
  404528:	4b29      	ldr	r3, [pc, #164]	; (4045d0 <usart_serial_getchar+0xc0>)
  40452a:	4298      	cmp	r0, r3
  40452c:	d044      	beq.n	4045b8 <usart_serial_getchar+0xa8>
		while (uart_read((Uart*)p_usart, data));
	}
# endif
# ifdef UART3
	if (UART3 == (Uart*)p_usart) {
  40452e:	4b29      	ldr	r3, [pc, #164]	; (4045d4 <usart_serial_getchar+0xc4>)
  404530:	4298      	cmp	r0, r3
  404532:	d015      	beq.n	404560 <usart_serial_getchar+0x50>
		while (usart_read(p_usart, &val));
		*data = (uint8_t)(val & 0xFF);
	}
#else
# ifdef USART0
	if (USART0 == p_usart) {
  404534:	4b28      	ldr	r3, [pc, #160]	; (4045d8 <usart_serial_getchar+0xc8>)
  404536:	4298      	cmp	r0, r3
  404538:	d024      	beq.n	404584 <usart_serial_getchar+0x74>
		while (usart_read(p_usart, &val));
		*data = (uint8_t)(val & 0xFF);
	}
# endif
# ifdef USART1
	if (USART1 == p_usart) {
  40453a:	4b28      	ldr	r3, [pc, #160]	; (4045dc <usart_serial_getchar+0xcc>)
  40453c:	429c      	cmp	r4, r3
  40453e:	d017      	beq.n	404570 <usart_serial_getchar+0x60>
		while (usart_read(p_usart, &val));
		*data = (uint8_t)(val & 0xFF);
	}
# endif
# ifdef USART2
	if (USART2 == p_usart) {
  404540:	4b27      	ldr	r3, [pc, #156]	; (4045e0 <usart_serial_getchar+0xd0>)
  404542:	429c      	cmp	r4, r3
  404544:	d001      	beq.n	40454a <usart_serial_getchar+0x3a>
		*data = (uint8_t)(val & 0xFF);
	}
# endif
#endif /* ifdef USART */

}
  404546:	b003      	add	sp, #12
  404548:	bdf0      	pop	{r4, r5, r6, r7, pc}
  40454a:	af01      	add	r7, sp, #4
  40454c:	4e25      	ldr	r6, [pc, #148]	; (4045e4 <usart_serial_getchar+0xd4>)
		while (usart_read(p_usart, &val));
  40454e:	4639      	mov	r1, r7
  404550:	4620      	mov	r0, r4
  404552:	47b0      	blx	r6
  404554:	2800      	cmp	r0, #0
  404556:	d1fa      	bne.n	40454e <usart_serial_getchar+0x3e>
		*data = (uint8_t)(val & 0xFF);
  404558:	9b01      	ldr	r3, [sp, #4]
  40455a:	702b      	strb	r3, [r5, #0]
}
  40455c:	b003      	add	sp, #12
  40455e:	bdf0      	pop	{r4, r5, r6, r7, pc}
  404560:	4e21      	ldr	r6, [pc, #132]	; (4045e8 <usart_serial_getchar+0xd8>)
		while (uart_read((Uart*)p_usart, data));
  404562:	4629      	mov	r1, r5
  404564:	4620      	mov	r0, r4
  404566:	47b0      	blx	r6
  404568:	2800      	cmp	r0, #0
  40456a:	d1fa      	bne.n	404562 <usart_serial_getchar+0x52>
}
  40456c:	b003      	add	sp, #12
  40456e:	bdf0      	pop	{r4, r5, r6, r7, pc}
  404570:	af01      	add	r7, sp, #4
  404572:	4e1c      	ldr	r6, [pc, #112]	; (4045e4 <usart_serial_getchar+0xd4>)
		while (usart_read(p_usart, &val));
  404574:	4639      	mov	r1, r7
  404576:	4620      	mov	r0, r4
  404578:	47b0      	blx	r6
  40457a:	2800      	cmp	r0, #0
  40457c:	d1fa      	bne.n	404574 <usart_serial_getchar+0x64>
		*data = (uint8_t)(val & 0xFF);
  40457e:	9b01      	ldr	r3, [sp, #4]
  404580:	702b      	strb	r3, [r5, #0]
  404582:	e7eb      	b.n	40455c <usart_serial_getchar+0x4c>
  404584:	af01      	add	r7, sp, #4
  404586:	4e17      	ldr	r6, [pc, #92]	; (4045e4 <usart_serial_getchar+0xd4>)
		while (usart_read(p_usart, &val));
  404588:	4639      	mov	r1, r7
  40458a:	4620      	mov	r0, r4
  40458c:	47b0      	blx	r6
  40458e:	2800      	cmp	r0, #0
  404590:	d1fa      	bne.n	404588 <usart_serial_getchar+0x78>
		*data = (uint8_t)(val & 0xFF);
  404592:	9b01      	ldr	r3, [sp, #4]
  404594:	702b      	strb	r3, [r5, #0]
  404596:	e7e1      	b.n	40455c <usart_serial_getchar+0x4c>
  404598:	4e13      	ldr	r6, [pc, #76]	; (4045e8 <usart_serial_getchar+0xd8>)
		while (uart_read((Uart*)p_usart, data));
  40459a:	4607      	mov	r7, r0
  40459c:	4629      	mov	r1, r5
  40459e:	4638      	mov	r0, r7
  4045a0:	47b0      	blx	r6
  4045a2:	2800      	cmp	r0, #0
  4045a4:	d1fa      	bne.n	40459c <usart_serial_getchar+0x8c>
  4045a6:	e7c8      	b.n	40453a <usart_serial_getchar+0x2a>
  4045a8:	4e0f      	ldr	r6, [pc, #60]	; (4045e8 <usart_serial_getchar+0xd8>)
		while (uart_read((Uart*)p_usart, data));
  4045aa:	4607      	mov	r7, r0
  4045ac:	4629      	mov	r1, r5
  4045ae:	4638      	mov	r0, r7
  4045b0:	47b0      	blx	r6
  4045b2:	2800      	cmp	r0, #0
  4045b4:	d1fa      	bne.n	4045ac <usart_serial_getchar+0x9c>
  4045b6:	e7c0      	b.n	40453a <usart_serial_getchar+0x2a>
  4045b8:	4e0b      	ldr	r6, [pc, #44]	; (4045e8 <usart_serial_getchar+0xd8>)
		while (uart_read((Uart*)p_usart, data));
  4045ba:	4607      	mov	r7, r0
  4045bc:	4629      	mov	r1, r5
  4045be:	4638      	mov	r0, r7
  4045c0:	47b0      	blx	r6
  4045c2:	2800      	cmp	r0, #0
  4045c4:	d1fa      	bne.n	4045bc <usart_serial_getchar+0xac>
  4045c6:	e7bb      	b.n	404540 <usart_serial_getchar+0x30>
  4045c8:	400e0800 	.word	0x400e0800
  4045cc:	400e0a00 	.word	0x400e0a00
  4045d0:	400e1a00 	.word	0x400e1a00
  4045d4:	400e1c00 	.word	0x400e1c00
  4045d8:	40024000 	.word	0x40024000
  4045dc:	40028000 	.word	0x40028000
  4045e0:	4002c000 	.word	0x4002c000
  4045e4:	00403999 	.word	0x00403999
  4045e8:	00403891 	.word	0x00403891

004045ec <start_handler>:
	millisecond_cnt++; 
}

static void start_handler(const uint32_t id, const uint32_t index)
{
	if ((id == ID_PIOA) && (index == PIO_PA9)){
  4045ec:	280a      	cmp	r0, #10
  4045ee:	d107      	bne.n	404600 <start_handler+0x14>
  4045f0:	f5b1 7f00 	cmp.w	r1, #512	; 0x200
  4045f4:	d104      	bne.n	404600 <start_handler+0x14>
		start = !start; 
  4045f6:	4a03      	ldr	r2, [pc, #12]	; (404604 <start_handler+0x18>)
  4045f8:	7813      	ldrb	r3, [r2, #0]
  4045fa:	f083 0301 	eor.w	r3, r3, #1
  4045fe:	7013      	strb	r3, [r2, #0]
  404600:	4770      	bx	lr
  404602:	bf00      	nop
  404604:	2043b7e8 	.word	0x2043b7e8

00404608 <tap_handler>:
	}
}

static void tap_handler(const uint32_t id, const uint32_t index)
{
	if ((id == ID_PIOC) && (index == PIO_PC13)){
  404608:	280c      	cmp	r0, #12
  40460a:	d109      	bne.n	404620 <tap_handler+0x18>
  40460c:	f5b1 5f00 	cmp.w	r1, #8192	; 0x2000
  404610:	d106      	bne.n	404620 <tap_handler+0x18>
		if (millisecond_cnt > 100)
  404612:	4b04      	ldr	r3, [pc, #16]	; (404624 <tap_handler+0x1c>)
  404614:	681b      	ldr	r3, [r3, #0]
  404616:	2b64      	cmp	r3, #100	; 0x64
  404618:	d902      	bls.n	404620 <tap_handler+0x18>
		{
			tap = true; 
  40461a:	4b03      	ldr	r3, [pc, #12]	; (404628 <tap_handler+0x20>)
  40461c:	2201      	movs	r2, #1
  40461e:	701a      	strb	r2, [r3, #0]
  404620:	4770      	bx	lr
  404622:	bf00      	nop
  404624:	2043b7ec 	.word	0x2043b7ec
  404628:	2043b7d8 	.word	0x2043b7d8

0040462c <usart_serial_putchar>:
	if (UART0 == (Uart*)p_usart) {
  40462c:	4b2a      	ldr	r3, [pc, #168]	; (4046d8 <usart_serial_putchar+0xac>)
  40462e:	4298      	cmp	r0, r3
{
  404630:	b570      	push	{r4, r5, r6, lr}
  404632:	460d      	mov	r5, r1
	if (UART0 == (Uart*)p_usart) {
  404634:	d01c      	beq.n	404670 <usart_serial_putchar+0x44>
	if (UART1 == (Uart*)p_usart) {
  404636:	4b29      	ldr	r3, [pc, #164]	; (4046dc <usart_serial_putchar+0xb0>)
  404638:	4298      	cmp	r0, r3
  40463a:	d022      	beq.n	404682 <usart_serial_putchar+0x56>
	if (UART2 == (Uart*)p_usart) {
  40463c:	4b28      	ldr	r3, [pc, #160]	; (4046e0 <usart_serial_putchar+0xb4>)
  40463e:	4298      	cmp	r0, r3
  404640:	d028      	beq.n	404694 <usart_serial_putchar+0x68>
	if (UART3 == (Uart*)p_usart) {
  404642:	4b28      	ldr	r3, [pc, #160]	; (4046e4 <usart_serial_putchar+0xb8>)
  404644:	4298      	cmp	r0, r3
  404646:	d02e      	beq.n	4046a6 <usart_serial_putchar+0x7a>
	if (USART0 == p_usart) {
  404648:	4b27      	ldr	r3, [pc, #156]	; (4046e8 <usart_serial_putchar+0xbc>)
  40464a:	4298      	cmp	r0, r3
  40464c:	d007      	beq.n	40465e <usart_serial_putchar+0x32>
	if (USART1 == p_usart) {
  40464e:	4b27      	ldr	r3, [pc, #156]	; (4046ec <usart_serial_putchar+0xc0>)
  404650:	4298      	cmp	r0, r3
  404652:	d038      	beq.n	4046c6 <usart_serial_putchar+0x9a>
	if (USART2 == p_usart) {
  404654:	4b26      	ldr	r3, [pc, #152]	; (4046f0 <usart_serial_putchar+0xc4>)
  404656:	4298      	cmp	r0, r3
  404658:	d02d      	beq.n	4046b6 <usart_serial_putchar+0x8a>
	return 0;
  40465a:	2000      	movs	r0, #0
}
  40465c:	bd70      	pop	{r4, r5, r6, pc}
		while (usart_write(p_usart, c)!=0);
  40465e:	4604      	mov	r4, r0
  404660:	4e24      	ldr	r6, [pc, #144]	; (4046f4 <usart_serial_putchar+0xc8>)
  404662:	4629      	mov	r1, r5
  404664:	4620      	mov	r0, r4
  404666:	47b0      	blx	r6
  404668:	2800      	cmp	r0, #0
  40466a:	d1fa      	bne.n	404662 <usart_serial_putchar+0x36>
		return 1;
  40466c:	2001      	movs	r0, #1
  40466e:	bd70      	pop	{r4, r5, r6, pc}
		while (uart_write((Uart*)p_usart, c)!=0);
  404670:	4604      	mov	r4, r0
  404672:	4e21      	ldr	r6, [pc, #132]	; (4046f8 <usart_serial_putchar+0xcc>)
  404674:	4629      	mov	r1, r5
  404676:	4620      	mov	r0, r4
  404678:	47b0      	blx	r6
  40467a:	2800      	cmp	r0, #0
  40467c:	d1fa      	bne.n	404674 <usart_serial_putchar+0x48>
		return 1;
  40467e:	2001      	movs	r0, #1
  404680:	bd70      	pop	{r4, r5, r6, pc}
		while (uart_write((Uart*)p_usart, c)!=0);
  404682:	4604      	mov	r4, r0
  404684:	4e1c      	ldr	r6, [pc, #112]	; (4046f8 <usart_serial_putchar+0xcc>)
  404686:	4629      	mov	r1, r5
  404688:	4620      	mov	r0, r4
  40468a:	47b0      	blx	r6
  40468c:	2800      	cmp	r0, #0
  40468e:	d1fa      	bne.n	404686 <usart_serial_putchar+0x5a>
		return 1;
  404690:	2001      	movs	r0, #1
  404692:	bd70      	pop	{r4, r5, r6, pc}
		while (uart_write((Uart*)p_usart, c)!=0);
  404694:	4604      	mov	r4, r0
  404696:	4e18      	ldr	r6, [pc, #96]	; (4046f8 <usart_serial_putchar+0xcc>)
  404698:	4629      	mov	r1, r5
  40469a:	4620      	mov	r0, r4
  40469c:	47b0      	blx	r6
  40469e:	2800      	cmp	r0, #0
  4046a0:	d1fa      	bne.n	404698 <usart_serial_putchar+0x6c>
		return 1;
  4046a2:	2001      	movs	r0, #1
  4046a4:	bd70      	pop	{r4, r5, r6, pc}
		while (uart_write((Uart*)p_usart, c)!=0);
  4046a6:	4604      	mov	r4, r0
  4046a8:	4e13      	ldr	r6, [pc, #76]	; (4046f8 <usart_serial_putchar+0xcc>)
  4046aa:	4629      	mov	r1, r5
  4046ac:	4620      	mov	r0, r4
  4046ae:	47b0      	blx	r6
  4046b0:	2800      	cmp	r0, #0
  4046b2:	d1fa      	bne.n	4046aa <usart_serial_putchar+0x7e>
  4046b4:	e7da      	b.n	40466c <usart_serial_putchar+0x40>
		while (usart_write(p_usart, c)!=0);
  4046b6:	4604      	mov	r4, r0
  4046b8:	4e0e      	ldr	r6, [pc, #56]	; (4046f4 <usart_serial_putchar+0xc8>)
  4046ba:	4629      	mov	r1, r5
  4046bc:	4620      	mov	r0, r4
  4046be:	47b0      	blx	r6
  4046c0:	2800      	cmp	r0, #0
  4046c2:	d1fa      	bne.n	4046ba <usart_serial_putchar+0x8e>
  4046c4:	e7d2      	b.n	40466c <usart_serial_putchar+0x40>
		while (usart_write(p_usart, c)!=0);
  4046c6:	4604      	mov	r4, r0
  4046c8:	4e0a      	ldr	r6, [pc, #40]	; (4046f4 <usart_serial_putchar+0xc8>)
  4046ca:	4629      	mov	r1, r5
  4046cc:	4620      	mov	r0, r4
  4046ce:	47b0      	blx	r6
  4046d0:	2800      	cmp	r0, #0
  4046d2:	d1fa      	bne.n	4046ca <usart_serial_putchar+0x9e>
  4046d4:	e7ca      	b.n	40466c <usart_serial_putchar+0x40>
  4046d6:	bf00      	nop
  4046d8:	400e0800 	.word	0x400e0800
  4046dc:	400e0a00 	.word	0x400e0a00
  4046e0:	400e1a00 	.word	0x400e1a00
  4046e4:	400e1c00 	.word	0x400e1c00
  4046e8:	40024000 	.word	0x40024000
  4046ec:	40028000 	.word	0x40028000
  4046f0:	4002c000 	.word	0x4002c000
  4046f4:	00403981 	.word	0x00403981
  4046f8:	00403881 	.word	0x00403881

004046fc <usart_serial_init.constprop.4>:
static inline void usart_serial_init(usart_if p_usart,
  4046fc:	4603      	mov	r3, r0
	usart_settings.channel_mode= US_MR_CHMODE_NORMAL;
  4046fe:	2200      	movs	r2, #0
  404700:	200e      	movs	r0, #14
static inline void usart_serial_init(usart_if p_usart,
  404702:	b5f0      	push	{r4, r5, r6, r7, lr}
		usart_init_rs232(p_usart, &usart_settings,
  404704:	4c0c      	ldr	r4, [pc, #48]	; (404738 <usart_serial_init.constprop.4+0x3c>)
static inline void usart_serial_init(usart_if p_usart,
  404706:	b087      	sub	sp, #28
	uart_settings.ul_mode = opt->paritytype;
  404708:	689e      	ldr	r6, [r3, #8]
	usart_settings.baudrate = opt->baudrate;
  40470a:	681d      	ldr	r5, [r3, #0]
	usart_settings.char_length = opt->charlength;
  40470c:	6859      	ldr	r1, [r3, #4]
	usart_settings.stop_bits= opt->stopbits;
  40470e:	68df      	ldr	r7, [r3, #12]
  404710:	4b0a      	ldr	r3, [pc, #40]	; (40473c <usart_serial_init.constprop.4+0x40>)
	usart_settings.char_length = opt->charlength;
  404712:	9101      	str	r1, [sp, #4]
	usart_settings.channel_mode= US_MR_CHMODE_NORMAL;
  404714:	9204      	str	r2, [sp, #16]
	usart_settings.parity_type = opt->paritytype;
  404716:	9602      	str	r6, [sp, #8]
	usart_settings.baudrate = opt->baudrate;
  404718:	9500      	str	r5, [sp, #0]
	usart_settings.stop_bits= opt->stopbits;
  40471a:	9703      	str	r7, [sp, #12]
  40471c:	4798      	blx	r3
		usart_init_rs232(p_usart, &usart_settings,
  40471e:	4a08      	ldr	r2, [pc, #32]	; (404740 <usart_serial_init.constprop.4+0x44>)
  404720:	4669      	mov	r1, sp
  404722:	4620      	mov	r0, r4
  404724:	4b07      	ldr	r3, [pc, #28]	; (404744 <usart_serial_init.constprop.4+0x48>)
  404726:	4798      	blx	r3
		usart_enable_tx(p_usart);
  404728:	4620      	mov	r0, r4
  40472a:	4b07      	ldr	r3, [pc, #28]	; (404748 <usart_serial_init.constprop.4+0x4c>)
  40472c:	4798      	blx	r3
		usart_enable_rx(p_usart);
  40472e:	4620      	mov	r0, r4
  404730:	4b06      	ldr	r3, [pc, #24]	; (40474c <usart_serial_init.constprop.4+0x50>)
  404732:	4798      	blx	r3
}
  404734:	b007      	add	sp, #28
  404736:	bdf0      	pop	{r4, r5, r6, r7, pc}
  404738:	40028000 	.word	0x40028000
  40473c:	004041b5 	.word	0x004041b5
  404740:	08f0d180 	.word	0x08f0d180
  404744:	00403905 	.word	0x00403905
  404748:	00403969 	.word	0x00403969
  40474c:	00403971 	.word	0x00403971

00404750 <USART1_Handler>:
{
  404750:	b500      	push	{lr}
	uint32_t received_byte = 0; 
  404752:	2200      	movs	r2, #0
{
  404754:	b083      	sub	sp, #12
	uint32_t dw_status = usart_get_status(USART_SERIAL);
  404756:	4b06      	ldr	r3, [pc, #24]	; (404770 <USART1_Handler+0x20>)
  404758:	4806      	ldr	r0, [pc, #24]	; (404774 <USART1_Handler+0x24>)
	uint32_t received_byte = 0; 
  40475a:	9201      	str	r2, [sp, #4]
	uint32_t dw_status = usart_get_status(USART_SERIAL);
  40475c:	4798      	blx	r3
	if (dw_status & US_CSR_RXRDY) {
  40475e:	07c3      	lsls	r3, r0, #31
  404760:	d503      	bpl.n	40476a <USART1_Handler+0x1a>
		usart_read(USART_SERIAL, &received_byte);
  404762:	a901      	add	r1, sp, #4
  404764:	4803      	ldr	r0, [pc, #12]	; (404774 <USART1_Handler+0x24>)
  404766:	4b04      	ldr	r3, [pc, #16]	; (404778 <USART1_Handler+0x28>)
  404768:	4798      	blx	r3
}
  40476a:	b003      	add	sp, #12
  40476c:	f85d fb04 	ldr.w	pc, [sp], #4
  404770:	0040397d 	.word	0x0040397d
  404774:	40028000 	.word	0x40028000
  404778:	00403999 	.word	0x00403999

0040477c <SysTick_Handler>:
	millisecond_cnt++; 
  40477c:	4a02      	ldr	r2, [pc, #8]	; (404788 <SysTick_Handler+0xc>)
  40477e:	6813      	ldr	r3, [r2, #0]
  404780:	3301      	adds	r3, #1
  404782:	6013      	str	r3, [r2, #0]
  404784:	4770      	bx	lr
  404786:	bf00      	nop
  404788:	2043b7ec 	.word	0x2043b7ec

0040478c <main>:
}


extern uint32_t max_power; 
int main(void)
{
  40478c:	e92d 4ff0 	stmdb	sp!, {r4, r5, r6, r7, r8, r9, sl, fp, lr}
  404790:	f5ad 3d9c 	sub.w	sp, sp, #79872	; 0x13800
	sysclk_init();
  404794:	4b96      	ldr	r3, [pc, #600]	; (4049f0 <main+0x264>)
 * \param opt         Options needed to set up RS232 communication (see \ref usart_options_t).
 *
 */
static inline void stdio_serial_init(volatile void *usart, const usart_serial_options_t *opt)
{
	stdio_base = (void *)usart;
  404796:	f8df a2f4 	ldr.w	sl, [pc, #756]	; 404a8c <main+0x300>
	//lcd_init(); 
	audio_init();
	configure_uart(); 
	
	bpm = 100;
	playback_instrument = PIANO;
  40479a:	f04f 0800 	mov.w	r8, #0
{
  40479e:	b0ad      	sub	sp, #180	; 0xb4
	bpm = 100;
  4047a0:	f8df b2ec 	ldr.w	fp, [pc, #748]	; 404a90 <main+0x304>
	sysclk_init();
  4047a4:	4798      	blx	r3
	board_init();
  4047a6:	4b93      	ldr	r3, [pc, #588]	; (4049f4 <main+0x268>)
  4047a8:	4798      	blx	r3
	audio_init();
  4047aa:	4b93      	ldr	r3, [pc, #588]	; (4049f8 <main+0x26c>)
  4047ac:	4798      	blx	r3
	usart_serial_options_t usart_console_settings = {
  4047ae:	4b93      	ldr	r3, [pc, #588]	; (4049fc <main+0x270>)
  4047b0:	ae0c      	add	r6, sp, #48	; 0x30
	time_sig = time_signatures[0];
	key_sig = key_signatures[0];
	start = false; 
  4047b2:	4c93      	ldr	r4, [pc, #588]	; (404a00 <main+0x274>)
	tap = false; 
  4047b4:	4d93      	ldr	r5, [pc, #588]	; (404a04 <main+0x278>)
	millisecond_cnt = 0; 
  4047b6:	f8df 92dc 	ldr.w	r9, [pc, #732]	; 404a94 <main+0x308>
	
	pio_set_input(PIOA, PIO_PA9, PIO_PULLUP); 
	pio_set_debounce_filter(PIOA, PIO_PA9, 10); 
	pio_handler_set(PIOA, ID_PIOA, PIO_PA9, PIO_IT_EDGE, &start_handler);
  4047ba:	4f93      	ldr	r7, [pc, #588]	; (404a08 <main+0x27c>)
	usart_serial_options_t usart_console_settings = {
  4047bc:	cb0f      	ldmia	r3, {r0, r1, r2, r3}
  4047be:	e886 000f 	stmia.w	r6, {r0, r1, r2, r3}
	usart_serial_init(USART_SERIAL, &usart_console_settings);
  4047c2:	4630      	mov	r0, r6
  4047c4:	4b91      	ldr	r3, [pc, #580]	; (404a0c <main+0x280>)
  4047c6:	4798      	blx	r3
  4047c8:	4b91      	ldr	r3, [pc, #580]	; (404a10 <main+0x284>)
  4047ca:	200e      	movs	r0, #14
	
	
	while(1)
	{
		for (uint32_t i = 0; i < NUM_AVG_TAPS; i++)
			millisecond_cnt_buffer[i] = 0;
  4047cc:	4646      	mov	r6, r8
  4047ce:	4798      	blx	r3
	ptr_put = (int (*)(void volatile*,char))&usart_serial_putchar;
  4047d0:	4990      	ldr	r1, [pc, #576]	; (404a14 <main+0x288>)
	stdio_base = (void *)usart;
  4047d2:	4b91      	ldr	r3, [pc, #580]	; (404a18 <main+0x28c>)
# if (XMEGA || MEGA_RF)
	usart_serial_init((USART_t *)usart,opt);
# elif UC3
	usart_serial_init(usart,(usart_serial_options_t *)opt);
# elif SAM
	usart_serial_init((Usart *)usart,(usart_serial_options_t *)opt);
  4047d4:	a80c      	add	r0, sp, #48	; 0x30
	ptr_put = (int (*)(void volatile*,char))&usart_serial_putchar;
  4047d6:	4a91      	ldr	r2, [pc, #580]	; (404a1c <main+0x290>)
	stdio_base = (void *)usart;
  4047d8:	f8c3 a000 	str.w	sl, [r3]
	ptr_put = (int (*)(void volatile*,char))&usart_serial_putchar;
  4047dc:	6011      	str	r1, [r2, #0]
	ptr_get = (void (*)(void volatile*,char*))&usart_serial_getchar;
  4047de:	4b90      	ldr	r3, [pc, #576]	; (404a20 <main+0x294>)
  4047e0:	4a90      	ldr	r2, [pc, #576]	; (404a24 <main+0x298>)
  4047e2:	601a      	str	r2, [r3, #0]
	usart_serial_init((Usart *)usart,(usart_serial_options_t *)opt);
  4047e4:	4b89      	ldr	r3, [pc, #548]	; (404a0c <main+0x280>)
  4047e6:	4798      	blx	r3
	fdevopen((int (*)(char, FILE*))(_write),(int (*)(FILE*))(_read));
#  endif
#  if UC3 || SAM
	// For AVR32 and SAM GCC
	// Specify that stdout and stdin should not be buffered.
	setbuf(stdout, NULL);
  4047e8:	4b8f      	ldr	r3, [pc, #572]	; (404a28 <main+0x29c>)
  4047ea:	4641      	mov	r1, r8
  4047ec:	681b      	ldr	r3, [r3, #0]
  4047ee:	6898      	ldr	r0, [r3, #8]
  4047f0:	4b8e      	ldr	r3, [pc, #568]	; (404a2c <main+0x2a0>)
  4047f2:	4798      	blx	r3
	setbuf(stdin, NULL);
  4047f4:	4b8c      	ldr	r3, [pc, #560]	; (404a28 <main+0x29c>)
  4047f6:	4641      	mov	r1, r8
  4047f8:	681b      	ldr	r3, [r3, #0]
  4047fa:	6858      	ldr	r0, [r3, #4]
  4047fc:	4b8b      	ldr	r3, [pc, #556]	; (404a2c <main+0x2a0>)
  4047fe:	4798      	blx	r3
	usart_enable_tx(USART_SERIAL);
  404800:	4650      	mov	r0, sl
  404802:	4b8b      	ldr	r3, [pc, #556]	; (404a30 <main+0x2a4>)
  404804:	4798      	blx	r3
	usart_enable_rx(USART_SERIAL);
  404806:	4650      	mov	r0, sl
  404808:	4b8a      	ldr	r3, [pc, #552]	; (404a34 <main+0x2a8>)
  40480a:	4798      	blx	r3
	usart_enable_interrupt(USART_SERIAL, US_IER_RXRDY);
  40480c:	4650      	mov	r0, sl
  40480e:	2101      	movs	r1, #1
  404810:	4b89      	ldr	r3, [pc, #548]	; (404a38 <main+0x2ac>)
  404812:	4798      	blx	r3
    NVIC->IP[(uint32_t)(IRQn)]            = ((priority << (8 - __NVIC_PRIO_BITS)) & 0xff); } /* set Priority for device specific Interrupts  */
  404814:	4a89      	ldr	r2, [pc, #548]	; (404a3c <main+0x2b0>)
  404816:	f04f 0040 	mov.w	r0, #64	; 0x40
  NVIC->ICPR[((uint32_t)(IRQn) >> 5)] = (1 << ((uint32_t)(IRQn) & 0x1F)); /* Clear pending interrupt */
  40481a:	f44f 4380 	mov.w	r3, #16384	; 0x4000
	time_sig = time_signatures[0];
  40481e:	4988      	ldr	r1, [pc, #544]	; (404a40 <main+0x2b4>)
    NVIC->IP[(uint32_t)(IRQn)]            = ((priority << (8 - __NVIC_PRIO_BITS)) & 0xff); } /* set Priority for device specific Interrupts  */
  404820:	f882 030e 	strb.w	r0, [r2, #782]	; 0x30e
	pio_set_input(PIOA, PIO_PA9, PIO_PULLUP); 
  404824:	2201      	movs	r2, #1
  NVIC->ICPR[((uint32_t)(IRQn) >> 5)] = (1 << ((uint32_t)(IRQn) & 0x1F)); /* Clear pending interrupt */
  404826:	4885      	ldr	r0, [pc, #532]	; (404a3c <main+0x2b0>)
	time_sig = time_signatures[0];
  404828:	f8b1 e000 	ldrh.w	lr, [r1]
  40482c:	f8c0 3180 	str.w	r3, [r0, #384]	; 0x180
  NVIC->ISER[(uint32_t)((int32_t)IRQn) >> 5] = (uint32_t)(1 << ((uint32_t)((int32_t)IRQn) & (uint32_t)0x1F)); /* enable interrupt */
  404830:	6003      	str	r3, [r0, #0]
	bpm = 100;
  404832:	2364      	movs	r3, #100	; 0x64
	time_sig = time_signatures[0];
  404834:	f891 c002 	ldrb.w	ip, [r1, #2]
	pio_set_input(PIOA, PIO_PA9, PIO_PULLUP); 
  404838:	f44f 7100 	mov.w	r1, #512	; 0x200
	bpm = 100;
  40483c:	f8cb 3000 	str.w	r3, [fp]
	playback_instrument = PIANO;
  404840:	4b80      	ldr	r3, [pc, #512]	; (404a44 <main+0x2b8>)
	pio_set_input(PIOA, PIO_PA9, PIO_PULLUP); 
  404842:	4881      	ldr	r0, [pc, #516]	; (404a48 <main+0x2bc>)
	playback_instrument = PIANO;
  404844:	f883 8000 	strb.w	r8, [r3]
	time_sig = time_signatures[0];
  404848:	4b80      	ldr	r3, [pc, #512]	; (404a4c <main+0x2c0>)
	pio_enable_interrupt(PIOA, PIO_PA9);
  40484a:	f8df a24c 	ldr.w	sl, [pc, #588]	; 404a98 <main+0x30c>
	time_sig = time_signatures[0];
  40484e:	f8a3 e000 	strh.w	lr, [r3]
  404852:	f883 c002 	strb.w	ip, [r3, #2]
	key_sig = key_signatures[0];
  404856:	4b7e      	ldr	r3, [pc, #504]	; (404a50 <main+0x2c4>)
  404858:	f8a3 8000 	strh.w	r8, [r3]
  40485c:	f8a3 8000 	strh.w	r8, [r3]
	pio_set_input(PIOA, PIO_PA9, PIO_PULLUP); 
  404860:	4b7c      	ldr	r3, [pc, #496]	; (404a54 <main+0x2c8>)
	start = false; 
  404862:	f884 8000 	strb.w	r8, [r4]
	tap = false; 
  404866:	f885 8000 	strb.w	r8, [r5]
	millisecond_cnt = 0; 
  40486a:	f8c9 8000 	str.w	r8, [r9]
	pio_set_input(PIOA, PIO_PA9, PIO_PULLUP); 
  40486e:	4798      	blx	r3
	pio_set_debounce_filter(PIOA, PIO_PA9, 10); 
  404870:	220a      	movs	r2, #10
  404872:	f44f 7100 	mov.w	r1, #512	; 0x200
  404876:	4874      	ldr	r0, [pc, #464]	; (404a48 <main+0x2bc>)
  404878:	4b77      	ldr	r3, [pc, #476]	; (404a58 <main+0x2cc>)
  40487a:	4798      	blx	r3
	pio_handler_set(PIOA, ID_PIOA, PIO_PA9, PIO_IT_EDGE, &start_handler);
  40487c:	4977      	ldr	r1, [pc, #476]	; (404a5c <main+0x2d0>)
  40487e:	2340      	movs	r3, #64	; 0x40
  404880:	f44f 7200 	mov.w	r2, #512	; 0x200
  404884:	9100      	str	r1, [sp, #0]
  404886:	210a      	movs	r1, #10
  404888:	486f      	ldr	r0, [pc, #444]	; (404a48 <main+0x2bc>)
  40488a:	47b8      	blx	r7
	pio_handler_set_priority(PIOA, PIOA_IRQn, 2);
  40488c:	2202      	movs	r2, #2
  40488e:	4b74      	ldr	r3, [pc, #464]	; (404a60 <main+0x2d4>)
  404890:	210a      	movs	r1, #10
  404892:	486d      	ldr	r0, [pc, #436]	; (404a48 <main+0x2bc>)
  404894:	4798      	blx	r3
	pio_enable_interrupt(PIOA, PIO_PA9);
  404896:	f44f 7100 	mov.w	r1, #512	; 0x200
  40489a:	486b      	ldr	r0, [pc, #428]	; (404a48 <main+0x2bc>)
  40489c:	47d0      	blx	sl
  NVIC->ICPR[((uint32_t)(IRQn) >> 5)] = (1 << ((uint32_t)(IRQn) & 0x1F)); /* Clear pending interrupt */
  40489e:	f44f 6380 	mov.w	r3, #1024	; 0x400
  4048a2:	4866      	ldr	r0, [pc, #408]	; (404a3c <main+0x2b0>)
	pio_set_input(PIOC, PIO_PC13, PIO_PULLUP);
  4048a4:	2201      	movs	r2, #1
  4048a6:	f44f 5100 	mov.w	r1, #8192	; 0x2000
  4048aa:	f8c0 3180 	str.w	r3, [r0, #384]	; 0x180
  NVIC->ISER[(uint32_t)((int32_t)IRQn) >> 5] = (uint32_t)(1 << ((uint32_t)((int32_t)IRQn) & (uint32_t)0x1F)); /* enable interrupt */
  4048ae:	6003      	str	r3, [r0, #0]
  4048b0:	486c      	ldr	r0, [pc, #432]	; (404a64 <main+0x2d8>)
  4048b2:	4b68      	ldr	r3, [pc, #416]	; (404a54 <main+0x2c8>)
  4048b4:	4798      	blx	r3
	pio_set_debounce_filter(PIOC, PIO_PC13, 10);
  4048b6:	220a      	movs	r2, #10
  4048b8:	f44f 5100 	mov.w	r1, #8192	; 0x2000
  4048bc:	4869      	ldr	r0, [pc, #420]	; (404a64 <main+0x2d8>)
  4048be:	4b66      	ldr	r3, [pc, #408]	; (404a58 <main+0x2cc>)
  4048c0:	4798      	blx	r3
	pio_handler_set(PIOC, ID_PIOC, PIO_PC13, PIO_IT_FALL_EDGE, &tap_handler);
  4048c2:	4969      	ldr	r1, [pc, #420]	; (404a68 <main+0x2dc>)
  4048c4:	2350      	movs	r3, #80	; 0x50
  4048c6:	f44f 5200 	mov.w	r2, #8192	; 0x2000
  4048ca:	9100      	str	r1, [sp, #0]
  4048cc:	210c      	movs	r1, #12
  4048ce:	4865      	ldr	r0, [pc, #404]	; (404a64 <main+0x2d8>)
  4048d0:	47b8      	blx	r7
	pio_handler_set_priority(PIOC, PIOC_IRQn, 2);
  4048d2:	2202      	movs	r2, #2
  4048d4:	4b62      	ldr	r3, [pc, #392]	; (404a60 <main+0x2d4>)
  4048d6:	210c      	movs	r1, #12
  4048d8:	4862      	ldr	r0, [pc, #392]	; (404a64 <main+0x2d8>)
  4048da:	4798      	blx	r3
	pio_enable_interrupt(PIOC, PIO_PC13);
  4048dc:	f44f 5100 	mov.w	r1, #8192	; 0x2000
  4048e0:	4860      	ldr	r0, [pc, #384]	; (404a64 <main+0x2d8>)
  4048e2:	47d0      	blx	sl
  NVIC->ICPR[((uint32_t)(IRQn) >> 5)] = (1 << ((uint32_t)(IRQn) & 0x1F)); /* Clear pending interrupt */
  4048e4:	4f55      	ldr	r7, [pc, #340]	; (404a3c <main+0x2b0>)
  4048e6:	f44f 5280 	mov.w	r2, #4096	; 0x1000
 */
__STATIC_INLINE uint32_t SysTick_Config(uint32_t ticks)
{
  if ((ticks - 1) > SysTick_LOAD_RELOAD_Msk)  return (1);      /* Reload value impossible */

  SysTick->LOAD  = ticks - 1;                                  /* set reload register */
  4048ea:	4b60      	ldr	r3, [pc, #384]	; (404a6c <main+0x2e0>)
  4048ec:	4960      	ldr	r1, [pc, #384]	; (404a70 <main+0x2e4>)
    SCB->SHPR[((uint32_t)(IRQn) & 0xF)-4] = ((priority << (8 - __NVIC_PRIO_BITS)) & 0xff); } /* set Priority for Cortex-M  System Interrupts */
  4048ee:	f04f 0ce0 	mov.w	ip, #224	; 0xe0
  NVIC->ICPR[((uint32_t)(IRQn) >> 5)] = (1 << ((uint32_t)(IRQn) & 0x1F)); /* Clear pending interrupt */
  4048f2:	f8c7 2180 	str.w	r2, [r7, #384]	; 0x180
  NVIC_SetPriority (SysTick_IRQn, (1<<__NVIC_PRIO_BITS) - 1);  /* set Priority for Systick Interrupt */
  SysTick->VAL   = 0;                                          /* Load the SysTick Counter Value */
  SysTick->CTRL  = SysTick_CTRL_CLKSOURCE_Msk |
  4048f6:	2007      	movs	r0, #7
  NVIC->ISER[(uint32_t)((int32_t)IRQn) >> 5] = (uint32_t)(1 << ((uint32_t)((int32_t)IRQn) & (uint32_t)0x1F)); /* enable interrupt */
  4048f8:	603a      	str	r2, [r7, #0]
  4048fa:	aa01      	add	r2, sp, #4
    SCB->SHPR[((uint32_t)(IRQn) & 0xF)-4] = ((priority << (8 - __NVIC_PRIO_BITS)) & 0xff); } /* set Priority for Cortex-M  System Interrupts */
  4048fc:	f8df e19c 	ldr.w	lr, [pc, #412]	; 404a9c <main+0x310>
  404900:	9205      	str	r2, [sp, #20]
  SysTick->LOAD  = ticks - 1;                                  /* set reload register */
  404902:	6059      	str	r1, [r3, #4]
    SCB->SHPR[((uint32_t)(IRQn) & 0xF)-4] = ((priority << (8 - __NVIC_PRIO_BITS)) & 0xff); } /* set Priority for Cortex-M  System Interrupts */
  404904:	f88e c023 	strb.w	ip, [lr, #35]	; 0x23
  SysTick->VAL   = 0;                                          /* Load the SysTick Counter Value */
  404908:	f8c3 8008 	str.w	r8, [r3, #8]
  SysTick->CTRL  = SysTick_CTRL_CLKSOURCE_Msk |
  40490c:	6018      	str	r0, [r3, #0]
	uint32_t number_of_events = 0; 
  40490e:	4b59      	ldr	r3, [pc, #356]	; (404a74 <main+0x2e8>)
  404910:	4959      	ldr	r1, [pc, #356]	; (404a78 <main+0x2ec>)
  404912:	446b      	add	r3, sp
	max_power = 100; // minimum initial max power
  404914:	4a59      	ldr	r2, [pc, #356]	; (404a7c <main+0x2f0>)
  404916:	f8df a188 	ldr.w	sl, [pc, #392]	; 404aa0 <main+0x314>
	uint32_t number_of_events = 0; 
  40491a:	f843 8001 	str.w	r8, [r3, r1]
	max_power = 100; // minimum initial max power
  40491e:	2364      	movs	r3, #100	; 0x64
				
				tap = false;
				millisecond_cnt = 0;
			}
		} 
		delay_ms(100); 
  404920:	f8df 8180 	ldr.w	r8, [pc, #384]	; 404aa4 <main+0x318>
	max_power = 100; // minimum initial max power
  404924:	6013      	str	r3, [r2, #0]
			millisecond_cnt_buffer[i] = 0;
  404926:	2200      	movs	r2, #0
  404928:	9608      	str	r6, [sp, #32]
  40492a:	9609      	str	r6, [sp, #36]	; 0x24
					bpm = 60000 / (bpm_total / 4);
  40492c:	f64e 2e60 	movw	lr, #60000	; 0xea60
			millisecond_cnt_buffer[i] = 0;
  404930:	960a      	str	r6, [sp, #40]	; 0x28
  404932:	4610      	mov	r0, r2
  404934:	960b      	str	r6, [sp, #44]	; 0x2c
  404936:	4611      	mov	r1, r2
  404938:	e004      	b.n	404944 <main+0x1b8>
			if (tap)
  40493a:	782b      	ldrb	r3, [r5, #0]
  40493c:	f003 0cff 	and.w	ip, r3, #255	; 0xff
  404940:	2b00      	cmp	r3, #0
  404942:	d13a      	bne.n	4049ba <main+0x22e>
		while(!start)
  404944:	7823      	ldrb	r3, [r4, #0]
  404946:	2b00      	cmp	r3, #0
  404948:	d0f7      	beq.n	40493a <main+0x1ae>
		delay_ms(100); 
  40494a:	4640      	mov	r0, r8
		start = true; 
		DISABLE_SYSTICK(); 
		start_recording(events_in_time, &number_of_events, bpm, (midi_instrument_t)playback_instrument, (time_signature_t)time_sig, (key_signature_t)key_sig, (char *)title);
  40494c:	4f40      	ldr	r7, [pc, #256]	; (404a50 <main+0x2c4>)
		delay_ms(100); 
  40494e:	47d0      	blx	sl
		start = true; 
  404950:	2301      	movs	r3, #1
		start_recording(events_in_time, &number_of_events, bpm, (midi_instrument_t)playback_instrument, (time_signature_t)time_sig, (key_signature_t)key_sig, (char *)title);
  404952:	a907      	add	r1, sp, #28
  404954:	a80c      	add	r0, sp, #48	; 0x30
		start = true; 
  404956:	7023      	strb	r3, [r4, #0]
		DISABLE_SYSTICK(); 
  404958:	4b44      	ldr	r3, [pc, #272]	; (404a6c <main+0x2e0>)
  40495a:	601e      	str	r6, [r3, #0]
		start_recording(events_in_time, &number_of_events, bpm, (midi_instrument_t)playback_instrument, (time_signature_t)time_sig, (key_signature_t)key_sig, (char *)title);
  40495c:	4b39      	ldr	r3, [pc, #228]	; (404a44 <main+0x2b8>)
  40495e:	f8db 2000 	ldr.w	r2, [fp]
  404962:	781b      	ldrb	r3, [r3, #0]
  404964:	f8b7 c000 	ldrh.w	ip, [r7]
  404968:	4f38      	ldr	r7, [pc, #224]	; (404a4c <main+0x2c0>)
  40496a:	f8b7 e000 	ldrh.w	lr, [r7]
  40496e:	4f44      	ldr	r7, [pc, #272]	; (404a80 <main+0x2f4>)
  404970:	9702      	str	r7, [sp, #8]
  404972:	9f05      	ldr	r7, [sp, #20]
  404974:	f8a7 c000 	strh.w	ip, [r7]
  404978:	4f34      	ldr	r7, [pc, #208]	; (404a4c <main+0x2c0>)
  40497a:	f8ad e000 	strh.w	lr, [sp]
  40497e:	f897 e002 	ldrb.w	lr, [r7, #2]
  404982:	4f40      	ldr	r7, [pc, #256]	; (404a84 <main+0x2f8>)
  404984:	f88d e002 	strb.w	lr, [sp, #2]
  404988:	47b8      	blx	r7
		write_midi_file(bpm, (midi_instrument_t)playback_instrument, (time_signature_t *)&time_sig,  (key_signature_t *)&key_sig, (char *)title, events_in_time, number_of_events);
  40498a:	4a2e      	ldr	r2, [pc, #184]	; (404a44 <main+0x2b8>)
  40498c:	f8db 0000 	ldr.w	r0, [fp]
  404990:	7811      	ldrb	r1, [r2, #0]
  404992:	aa0c      	add	r2, sp, #48	; 0x30
  404994:	9b07      	ldr	r3, [sp, #28]
  404996:	9201      	str	r2, [sp, #4]
  404998:	4a39      	ldr	r2, [pc, #228]	; (404a80 <main+0x2f4>)
  40499a:	9302      	str	r3, [sp, #8]
  40499c:	9200      	str	r2, [sp, #0]
  40499e:	4b2c      	ldr	r3, [pc, #176]	; (404a50 <main+0x2c4>)
  4049a0:	4a2a      	ldr	r2, [pc, #168]	; (404a4c <main+0x2c0>)
  4049a2:	4f39      	ldr	r7, [pc, #228]	; (404a88 <main+0x2fc>)
  4049a4:	47b8      	blx	r7
		delay_ms(100); 
  4049a6:	4640      	mov	r0, r8
  4049a8:	47d0      	blx	sl
		start = false; 
		tap = false; 
		millisecond_cnt = 0; 
		ENABLE_SYSTICK(); 
  4049aa:	2307      	movs	r3, #7
  4049ac:	4a2f      	ldr	r2, [pc, #188]	; (404a6c <main+0x2e0>)
		start = false; 
  4049ae:	7026      	strb	r6, [r4, #0]
		tap = false; 
  4049b0:	702e      	strb	r6, [r5, #0]
		millisecond_cnt = 0; 
  4049b2:	f8c9 6000 	str.w	r6, [r9]
		ENABLE_SYSTICK(); 
  4049b6:	6013      	str	r3, [r2, #0]
	{
  4049b8:	e7b5      	b.n	404926 <main+0x19a>
				if (first_tap == true)
  4049ba:	b198      	cbz	r0, 4049e4 <main+0x258>
					millisecond_cnt_buffer[curr_tap_idx] = millisecond_cnt; 
  4049bc:	f8d9 3000 	ldr.w	r3, [r9]
					bpm_total -= millisecond_cnt_buffer[curr_tap_idx];
  4049c0:	a808      	add	r0, sp, #32
					millisecond_cnt_buffer[curr_tap_idx] = millisecond_cnt; 
  4049c2:	af08      	add	r7, sp, #32
					bpm_total -= millisecond_cnt_buffer[curr_tap_idx];
  4049c4:	f850 0022 	ldr.w	r0, [r0, r2, lsl #2]
  4049c8:	4419      	add	r1, r3
					millisecond_cnt_buffer[curr_tap_idx] = millisecond_cnt; 
  4049ca:	f847 3022 	str.w	r3, [r7, r2, lsl #2]
					bpm_total += millisecond_cnt_buffer[curr_tap_idx++];  
  4049ce:	3201      	adds	r2, #1
  4049d0:	1a09      	subs	r1, r1, r0
						curr_tap_idx = 0; 
  4049d2:	2a04      	cmp	r2, #4
					bpm = 60000 / (bpm_total / 4);
  4049d4:	ea4f 0391 	mov.w	r3, r1, lsr #2
						curr_tap_idx = 0; 
  4049d8:	bf08      	it	eq
  4049da:	2200      	moveq	r2, #0
					bpm = 60000 / (bpm_total / 4);
  4049dc:	fbbe f3f3 	udiv	r3, lr, r3
  4049e0:	f8cb 3000 	str.w	r3, [fp]
				tap = false;
  4049e4:	702e      	strb	r6, [r5, #0]
				millisecond_cnt = 0;
  4049e6:	4660      	mov	r0, ip
  4049e8:	f8c9 6000 	str.w	r6, [r9]
  4049ec:	e7aa      	b.n	404944 <main+0x1b8>
  4049ee:	bf00      	nop
  4049f0:	004039ed 	.word	0x004039ed
  4049f4:	00403a5d 	.word	0x00403a5d
  4049f8:	0040052d 	.word	0x0040052d
  4049fc:	0041452c 	.word	0x0041452c
  404a00:	2043b7e8 	.word	0x2043b7e8
  404a04:	2043b7d8 	.word	0x2043b7d8
  404a08:	00403f61 	.word	0x00403f61
  404a0c:	004046fd 	.word	0x004046fd
  404a10:	004041b5 	.word	0x004041b5
  404a14:	0040462d 	.word	0x0040462d
  404a18:	2043b7d4 	.word	0x2043b7d4
  404a1c:	2043b7d0 	.word	0x2043b7d0
  404a20:	2043b7cc 	.word	0x2043b7cc
  404a24:	00404511 	.word	0x00404511
  404a28:	20400054 	.word	0x20400054
  404a2c:	00407011 	.word	0x00407011
  404a30:	00403969 	.word	0x00403969
  404a34:	00403971 	.word	0x00403971
  404a38:	00403979 	.word	0x00403979
  404a3c:	e000e100 	.word	0xe000e100
  404a40:	0041453c 	.word	0x0041453c
  404a44:	2043b7df 	.word	0x2043b7df
  404a48:	400e0e00 	.word	0x400e0e00
  404a4c:	2043b7dc 	.word	0x2043b7dc
  404a50:	2043b7e0 	.word	0x2043b7e0
  404a54:	00403d3d 	.word	0x00403d3d
  404a58:	00403d21 	.word	0x00403d21
  404a5c:	004045ed 	.word	0x004045ed
  404a60:	0040402d 	.word	0x0040402d
  404a64:	400e1200 	.word	0x400e1200
  404a68:	00404609 	.word	0x00404609
  404a6c:	e000e010 	.word	0xe000e010
  404a70:	000493df 	.word	0x000493df
  404a74:	000138b0 	.word	0x000138b0
  404a78:	fffec76c 	.word	0xfffec76c
  404a7c:	20400a64 	.word	0x20400a64
  404a80:	2040002c 	.word	0x2040002c
  404a84:	00400fcd 	.word	0x00400fcd
  404a88:	004009f9 	.word	0x004009f9
  404a8c:	40028000 	.word	0x40028000
  404a90:	2043b7e4 	.word	0x2043b7e4
  404a94:	2043b7ec 	.word	0x2043b7ec
  404a98:	00403d75 	.word	0x00403d75
  404a9c:	e000ed00 	.word	0xe000ed00
  404aa0:	20400001 	.word	0x20400001
  404aa4:	004d2b25 	.word	0x004d2b25

00404aa8 <cosf>:
  404aa8:	b500      	push	{lr}
  404aaa:	4a1c      	ldr	r2, [pc, #112]	; (404b1c <cosf+0x74>)
  404aac:	f020 4300 	bic.w	r3, r0, #2147483648	; 0x80000000
  404ab0:	4293      	cmp	r3, r2
  404ab2:	b083      	sub	sp, #12
  404ab4:	dd18      	ble.n	404ae8 <cosf+0x40>
  404ab6:	f1b3 4fff 	cmp.w	r3, #2139095040	; 0x7f800000
  404aba:	db05      	blt.n	404ac8 <cosf+0x20>
  404abc:	4601      	mov	r1, r0
  404abe:	f001 fc11 	bl	4062e4 <__aeabi_fsub>
  404ac2:	b003      	add	sp, #12
  404ac4:	f85d fb04 	ldr.w	pc, [sp], #4
  404ac8:	4669      	mov	r1, sp
  404aca:	f000 f867 	bl	404b9c <__ieee754_rem_pio2f>
  404ace:	f000 0203 	and.w	r2, r0, #3
  404ad2:	2a01      	cmp	r2, #1
  404ad4:	d015      	beq.n	404b02 <cosf+0x5a>
  404ad6:	2a02      	cmp	r2, #2
  404ad8:	d00c      	beq.n	404af4 <cosf+0x4c>
  404ada:	b1ca      	cbz	r2, 404b10 <cosf+0x68>
  404adc:	2201      	movs	r2, #1
  404ade:	9901      	ldr	r1, [sp, #4]
  404ae0:	9800      	ldr	r0, [sp, #0]
  404ae2:	f000 fe13 	bl	40570c <__kernel_sinf>
  404ae6:	e7ec      	b.n	404ac2 <cosf+0x1a>
  404ae8:	2100      	movs	r1, #0
  404aea:	f000 f9c5 	bl	404e78 <__kernel_cosf>
  404aee:	b003      	add	sp, #12
  404af0:	f85d fb04 	ldr.w	pc, [sp], #4
  404af4:	9901      	ldr	r1, [sp, #4]
  404af6:	9800      	ldr	r0, [sp, #0]
  404af8:	f000 f9be 	bl	404e78 <__kernel_cosf>
  404afc:	f100 4000 	add.w	r0, r0, #2147483648	; 0x80000000
  404b00:	e7df      	b.n	404ac2 <cosf+0x1a>
  404b02:	9901      	ldr	r1, [sp, #4]
  404b04:	9800      	ldr	r0, [sp, #0]
  404b06:	f000 fe01 	bl	40570c <__kernel_sinf>
  404b0a:	f100 4000 	add.w	r0, r0, #2147483648	; 0x80000000
  404b0e:	e7d8      	b.n	404ac2 <cosf+0x1a>
  404b10:	9901      	ldr	r1, [sp, #4]
  404b12:	9800      	ldr	r0, [sp, #0]
  404b14:	f000 f9b0 	bl	404e78 <__kernel_cosf>
  404b18:	e7d3      	b.n	404ac2 <cosf+0x1a>
  404b1a:	bf00      	nop
  404b1c:	3f490fd8 	.word	0x3f490fd8

00404b20 <sinf>:
  404b20:	b500      	push	{lr}
  404b22:	4a1d      	ldr	r2, [pc, #116]	; (404b98 <sinf+0x78>)
  404b24:	f020 4300 	bic.w	r3, r0, #2147483648	; 0x80000000
  404b28:	4293      	cmp	r3, r2
  404b2a:	b083      	sub	sp, #12
  404b2c:	dd19      	ble.n	404b62 <sinf+0x42>
  404b2e:	f1b3 4fff 	cmp.w	r3, #2139095040	; 0x7f800000
  404b32:	db05      	blt.n	404b40 <sinf+0x20>
  404b34:	4601      	mov	r1, r0
  404b36:	f001 fbd5 	bl	4062e4 <__aeabi_fsub>
  404b3a:	b003      	add	sp, #12
  404b3c:	f85d fb04 	ldr.w	pc, [sp], #4
  404b40:	4669      	mov	r1, sp
  404b42:	f000 f82b 	bl	404b9c <__ieee754_rem_pio2f>
  404b46:	f000 0003 	and.w	r0, r0, #3
  404b4a:	2801      	cmp	r0, #1
  404b4c:	d018      	beq.n	404b80 <sinf+0x60>
  404b4e:	2802      	cmp	r0, #2
  404b50:	d00e      	beq.n	404b70 <sinf+0x50>
  404b52:	b1d0      	cbz	r0, 404b8a <sinf+0x6a>
  404b54:	9901      	ldr	r1, [sp, #4]
  404b56:	9800      	ldr	r0, [sp, #0]
  404b58:	f000 f98e 	bl	404e78 <__kernel_cosf>
  404b5c:	f100 4000 	add.w	r0, r0, #2147483648	; 0x80000000
  404b60:	e7eb      	b.n	404b3a <sinf+0x1a>
  404b62:	2200      	movs	r2, #0
  404b64:	2100      	movs	r1, #0
  404b66:	f000 fdd1 	bl	40570c <__kernel_sinf>
  404b6a:	b003      	add	sp, #12
  404b6c:	f85d fb04 	ldr.w	pc, [sp], #4
  404b70:	2201      	movs	r2, #1
  404b72:	9901      	ldr	r1, [sp, #4]
  404b74:	9800      	ldr	r0, [sp, #0]
  404b76:	f000 fdc9 	bl	40570c <__kernel_sinf>
  404b7a:	f100 4000 	add.w	r0, r0, #2147483648	; 0x80000000
  404b7e:	e7dc      	b.n	404b3a <sinf+0x1a>
  404b80:	9901      	ldr	r1, [sp, #4]
  404b82:	9800      	ldr	r0, [sp, #0]
  404b84:	f000 f978 	bl	404e78 <__kernel_cosf>
  404b88:	e7d7      	b.n	404b3a <sinf+0x1a>
  404b8a:	2201      	movs	r2, #1
  404b8c:	9901      	ldr	r1, [sp, #4]
  404b8e:	9800      	ldr	r0, [sp, #0]
  404b90:	f000 fdbc 	bl	40570c <__kernel_sinf>
  404b94:	e7d1      	b.n	404b3a <sinf+0x1a>
  404b96:	bf00      	nop
  404b98:	3f490fd8 	.word	0x3f490fd8

00404b9c <__ieee754_rem_pio2f>:
  404b9c:	e92d 4ff0 	stmdb	sp!, {r4, r5, r6, r7, r8, r9, sl, fp, lr}
  404ba0:	4aa8      	ldr	r2, [pc, #672]	; (404e44 <__ieee754_rem_pio2f+0x2a8>)
  404ba2:	f020 4400 	bic.w	r4, r0, #2147483648	; 0x80000000
  404ba6:	4294      	cmp	r4, r2
  404ba8:	b089      	sub	sp, #36	; 0x24
  404baa:	dd6e      	ble.n	404c8a <__ieee754_rem_pio2f+0xee>
  404bac:	4aa6      	ldr	r2, [pc, #664]	; (404e48 <__ieee754_rem_pio2f+0x2ac>)
  404bae:	4294      	cmp	r4, r2
  404bb0:	4606      	mov	r6, r0
  404bb2:	460d      	mov	r5, r1
  404bb4:	dc1c      	bgt.n	404bf0 <__ieee754_rem_pio2f+0x54>
  404bb6:	2800      	cmp	r0, #0
  404bb8:	49a4      	ldr	r1, [pc, #656]	; (404e4c <__ieee754_rem_pio2f+0x2b0>)
  404bba:	f340 80fc 	ble.w	404db6 <__ieee754_rem_pio2f+0x21a>
  404bbe:	f001 fb91 	bl	4062e4 <__aeabi_fsub>
  404bc2:	4ba3      	ldr	r3, [pc, #652]	; (404e50 <__ieee754_rem_pio2f+0x2b4>)
  404bc4:	f024 040f 	bic.w	r4, r4, #15
  404bc8:	429c      	cmp	r4, r3
  404bca:	4606      	mov	r6, r0
  404bcc:	d06c      	beq.n	404ca8 <__ieee754_rem_pio2f+0x10c>
  404bce:	49a1      	ldr	r1, [pc, #644]	; (404e54 <__ieee754_rem_pio2f+0x2b8>)
  404bd0:	f001 fb88 	bl	4062e4 <__aeabi_fsub>
  404bd4:	4601      	mov	r1, r0
  404bd6:	6028      	str	r0, [r5, #0]
  404bd8:	4630      	mov	r0, r6
  404bda:	f001 fb83 	bl	4062e4 <__aeabi_fsub>
  404bde:	499d      	ldr	r1, [pc, #628]	; (404e54 <__ieee754_rem_pio2f+0x2b8>)
  404be0:	f001 fb80 	bl	4062e4 <__aeabi_fsub>
  404be4:	2701      	movs	r7, #1
  404be6:	6068      	str	r0, [r5, #4]
  404be8:	4638      	mov	r0, r7
  404bea:	b009      	add	sp, #36	; 0x24
  404bec:	e8bd 8ff0 	ldmia.w	sp!, {r4, r5, r6, r7, r8, r9, sl, fp, pc}
  404bf0:	4a99      	ldr	r2, [pc, #612]	; (404e58 <__ieee754_rem_pio2f+0x2bc>)
  404bf2:	4294      	cmp	r4, r2
  404bf4:	dd6a      	ble.n	404ccc <__ieee754_rem_pio2f+0x130>
  404bf6:	f1b4 4fff 	cmp.w	r4, #2139095040	; 0x7f800000
  404bfa:	da4e      	bge.n	404c9a <__ieee754_rem_pio2f+0xfe>
  404bfc:	15e7      	asrs	r7, r4, #23
  404bfe:	3f86      	subs	r7, #134	; 0x86
  404c00:	eba4 54c7 	sub.w	r4, r4, r7, lsl #23
  404c04:	4620      	mov	r0, r4
  404c06:	f001 fe3d 	bl	406884 <__aeabi_f2iz>
  404c0a:	f001 fc21 	bl	406450 <__aeabi_i2f>
  404c0e:	4603      	mov	r3, r0
  404c10:	4601      	mov	r1, r0
  404c12:	4620      	mov	r0, r4
  404c14:	9305      	str	r3, [sp, #20]
  404c16:	f001 fb65 	bl	4062e4 <__aeabi_fsub>
  404c1a:	f04f 4187 	mov.w	r1, #1132462080	; 0x43800000
  404c1e:	f001 fc6b 	bl	4064f8 <__aeabi_fmul>
  404c22:	4680      	mov	r8, r0
  404c24:	f001 fe2e 	bl	406884 <__aeabi_f2iz>
  404c28:	f001 fc12 	bl	406450 <__aeabi_i2f>
  404c2c:	4601      	mov	r1, r0
  404c2e:	4604      	mov	r4, r0
  404c30:	4640      	mov	r0, r8
  404c32:	9406      	str	r4, [sp, #24]
  404c34:	f001 fb56 	bl	4062e4 <__aeabi_fsub>
  404c38:	f04f 4187 	mov.w	r1, #1132462080	; 0x43800000
  404c3c:	f001 fc5c 	bl	4064f8 <__aeabi_fmul>
  404c40:	2100      	movs	r1, #0
  404c42:	9007      	str	r0, [sp, #28]
  404c44:	f001 fdec 	bl	406820 <__aeabi_fcmpeq>
  404c48:	2800      	cmp	r0, #0
  404c4a:	f000 80cb 	beq.w	404de4 <__ieee754_rem_pio2f+0x248>
  404c4e:	4620      	mov	r0, r4
  404c50:	2100      	movs	r1, #0
  404c52:	f001 fde5 	bl	406820 <__aeabi_fcmpeq>
  404c56:	2800      	cmp	r0, #0
  404c58:	bf14      	ite	ne
  404c5a:	2301      	movne	r3, #1
  404c5c:	2302      	moveq	r3, #2
  404c5e:	4a7f      	ldr	r2, [pc, #508]	; (404e5c <__ieee754_rem_pio2f+0x2c0>)
  404c60:	9201      	str	r2, [sp, #4]
  404c62:	2102      	movs	r1, #2
  404c64:	463a      	mov	r2, r7
  404c66:	9100      	str	r1, [sp, #0]
  404c68:	a805      	add	r0, sp, #20
  404c6a:	4629      	mov	r1, r5
  404c6c:	f000 f9c8 	bl	405000 <__kernel_rem_pio2f>
  404c70:	2e00      	cmp	r6, #0
  404c72:	4607      	mov	r7, r0
  404c74:	da0d      	bge.n	404c92 <__ieee754_rem_pio2f+0xf6>
  404c76:	e895 000c 	ldmia.w	r5, {r2, r3}
  404c7a:	f102 4200 	add.w	r2, r2, #2147483648	; 0x80000000
  404c7e:	f103 4300 	add.w	r3, r3, #2147483648	; 0x80000000
  404c82:	4247      	negs	r7, r0
  404c84:	602a      	str	r2, [r5, #0]
  404c86:	606b      	str	r3, [r5, #4]
  404c88:	e003      	b.n	404c92 <__ieee754_rem_pio2f+0xf6>
  404c8a:	2200      	movs	r2, #0
  404c8c:	6008      	str	r0, [r1, #0]
  404c8e:	604a      	str	r2, [r1, #4]
  404c90:	2700      	movs	r7, #0
  404c92:	4638      	mov	r0, r7
  404c94:	b009      	add	sp, #36	; 0x24
  404c96:	e8bd 8ff0 	ldmia.w	sp!, {r4, r5, r6, r7, r8, r9, sl, fp, pc}
  404c9a:	4601      	mov	r1, r0
  404c9c:	f001 fb22 	bl	4062e4 <__aeabi_fsub>
  404ca0:	2700      	movs	r7, #0
  404ca2:	6068      	str	r0, [r5, #4]
  404ca4:	6028      	str	r0, [r5, #0]
  404ca6:	e7f4      	b.n	404c92 <__ieee754_rem_pio2f+0xf6>
  404ca8:	496d      	ldr	r1, [pc, #436]	; (404e60 <__ieee754_rem_pio2f+0x2c4>)
  404caa:	f001 fb1b 	bl	4062e4 <__aeabi_fsub>
  404cae:	496d      	ldr	r1, [pc, #436]	; (404e64 <__ieee754_rem_pio2f+0x2c8>)
  404cb0:	4604      	mov	r4, r0
  404cb2:	f001 fb17 	bl	4062e4 <__aeabi_fsub>
  404cb6:	4601      	mov	r1, r0
  404cb8:	6028      	str	r0, [r5, #0]
  404cba:	4620      	mov	r0, r4
  404cbc:	f001 fb12 	bl	4062e4 <__aeabi_fsub>
  404cc0:	4968      	ldr	r1, [pc, #416]	; (404e64 <__ieee754_rem_pio2f+0x2c8>)
  404cc2:	f001 fb0f 	bl	4062e4 <__aeabi_fsub>
  404cc6:	2701      	movs	r7, #1
  404cc8:	6068      	str	r0, [r5, #4]
  404cca:	e7e2      	b.n	404c92 <__ieee754_rem_pio2f+0xf6>
  404ccc:	f000 fd94 	bl	4057f8 <fabsf>
  404cd0:	4965      	ldr	r1, [pc, #404]	; (404e68 <__ieee754_rem_pio2f+0x2cc>)
  404cd2:	4680      	mov	r8, r0
  404cd4:	f001 fc10 	bl	4064f8 <__aeabi_fmul>
  404cd8:	f04f 517c 	mov.w	r1, #1056964608	; 0x3f000000
  404cdc:	f001 fb04 	bl	4062e8 <__addsf3>
  404ce0:	f001 fdd0 	bl	406884 <__aeabi_f2iz>
  404ce4:	4607      	mov	r7, r0
  404ce6:	f001 fbb3 	bl	406450 <__aeabi_i2f>
  404cea:	4958      	ldr	r1, [pc, #352]	; (404e4c <__ieee754_rem_pio2f+0x2b0>)
  404cec:	4683      	mov	fp, r0
  404cee:	f001 fc03 	bl	4064f8 <__aeabi_fmul>
  404cf2:	4601      	mov	r1, r0
  404cf4:	4640      	mov	r0, r8
  404cf6:	f001 faf5 	bl	4062e4 <__aeabi_fsub>
  404cfa:	4956      	ldr	r1, [pc, #344]	; (404e54 <__ieee754_rem_pio2f+0x2b8>)
  404cfc:	4681      	mov	r9, r0
  404cfe:	4658      	mov	r0, fp
  404d00:	f001 fbfa 	bl	4064f8 <__aeabi_fmul>
  404d04:	2f1f      	cmp	r7, #31
  404d06:	4682      	mov	sl, r0
  404d08:	dc21      	bgt.n	404d4e <__ieee754_rem_pio2f+0x1b2>
  404d0a:	4a58      	ldr	r2, [pc, #352]	; (404e6c <__ieee754_rem_pio2f+0x2d0>)
  404d0c:	1e79      	subs	r1, r7, #1
  404d0e:	f024 03ff 	bic.w	r3, r4, #255	; 0xff
  404d12:	f852 2021 	ldr.w	r2, [r2, r1, lsl #2]
  404d16:	4293      	cmp	r3, r2
  404d18:	d019      	beq.n	404d4e <__ieee754_rem_pio2f+0x1b2>
  404d1a:	4651      	mov	r1, sl
  404d1c:	4648      	mov	r0, r9
  404d1e:	f001 fae1 	bl	4062e4 <__aeabi_fsub>
  404d22:	4680      	mov	r8, r0
  404d24:	f8c5 8000 	str.w	r8, [r5]
  404d28:	4641      	mov	r1, r8
  404d2a:	4648      	mov	r0, r9
  404d2c:	f001 fada 	bl	4062e4 <__aeabi_fsub>
  404d30:	4651      	mov	r1, sl
  404d32:	f001 fad7 	bl	4062e4 <__aeabi_fsub>
  404d36:	2e00      	cmp	r6, #0
  404d38:	6068      	str	r0, [r5, #4]
  404d3a:	daaa      	bge.n	404c92 <__ieee754_rem_pio2f+0xf6>
  404d3c:	f108 4800 	add.w	r8, r8, #2147483648	; 0x80000000
  404d40:	f100 4000 	add.w	r0, r0, #2147483648	; 0x80000000
  404d44:	f8c5 8000 	str.w	r8, [r5]
  404d48:	6068      	str	r0, [r5, #4]
  404d4a:	427f      	negs	r7, r7
  404d4c:	e7a1      	b.n	404c92 <__ieee754_rem_pio2f+0xf6>
  404d4e:	4651      	mov	r1, sl
  404d50:	4648      	mov	r0, r9
  404d52:	f001 fac7 	bl	4062e4 <__aeabi_fsub>
  404d56:	15e2      	asrs	r2, r4, #23
  404d58:	f3c0 53c7 	ubfx	r3, r0, #23, #8
  404d5c:	1ad3      	subs	r3, r2, r3
  404d5e:	2b08      	cmp	r3, #8
  404d60:	4680      	mov	r8, r0
  404d62:	dddf      	ble.n	404d24 <__ieee754_rem_pio2f+0x188>
  404d64:	493e      	ldr	r1, [pc, #248]	; (404e60 <__ieee754_rem_pio2f+0x2c4>)
  404d66:	9203      	str	r2, [sp, #12]
  404d68:	4658      	mov	r0, fp
  404d6a:	f001 fbc5 	bl	4064f8 <__aeabi_fmul>
  404d6e:	4680      	mov	r8, r0
  404d70:	4601      	mov	r1, r0
  404d72:	4648      	mov	r0, r9
  404d74:	f001 fab6 	bl	4062e4 <__aeabi_fsub>
  404d78:	4601      	mov	r1, r0
  404d7a:	4604      	mov	r4, r0
  404d7c:	4648      	mov	r0, r9
  404d7e:	f001 fab1 	bl	4062e4 <__aeabi_fsub>
  404d82:	4641      	mov	r1, r8
  404d84:	f001 faae 	bl	4062e4 <__aeabi_fsub>
  404d88:	4936      	ldr	r1, [pc, #216]	; (404e64 <__ieee754_rem_pio2f+0x2c8>)
  404d8a:	4680      	mov	r8, r0
  404d8c:	4658      	mov	r0, fp
  404d8e:	f001 fbb3 	bl	4064f8 <__aeabi_fmul>
  404d92:	4641      	mov	r1, r8
  404d94:	f001 faa6 	bl	4062e4 <__aeabi_fsub>
  404d98:	4601      	mov	r1, r0
  404d9a:	4682      	mov	sl, r0
  404d9c:	4620      	mov	r0, r4
  404d9e:	f001 faa1 	bl	4062e4 <__aeabi_fsub>
  404da2:	9a03      	ldr	r2, [sp, #12]
  404da4:	f3c0 53c7 	ubfx	r3, r0, #23, #8
  404da8:	1ad2      	subs	r2, r2, r3
  404daa:	2a19      	cmp	r2, #25
  404dac:	4680      	mov	r8, r0
  404dae:	dc2e      	bgt.n	404e0e <__ieee754_rem_pio2f+0x272>
  404db0:	6028      	str	r0, [r5, #0]
  404db2:	46a1      	mov	r9, r4
  404db4:	e7b8      	b.n	404d28 <__ieee754_rem_pio2f+0x18c>
  404db6:	f001 fa97 	bl	4062e8 <__addsf3>
  404dba:	4b25      	ldr	r3, [pc, #148]	; (404e50 <__ieee754_rem_pio2f+0x2b4>)
  404dbc:	f024 040f 	bic.w	r4, r4, #15
  404dc0:	429c      	cmp	r4, r3
  404dc2:	4606      	mov	r6, r0
  404dc4:	d010      	beq.n	404de8 <__ieee754_rem_pio2f+0x24c>
  404dc6:	4923      	ldr	r1, [pc, #140]	; (404e54 <__ieee754_rem_pio2f+0x2b8>)
  404dc8:	f001 fa8e 	bl	4062e8 <__addsf3>
  404dcc:	4601      	mov	r1, r0
  404dce:	6028      	str	r0, [r5, #0]
  404dd0:	4630      	mov	r0, r6
  404dd2:	f001 fa87 	bl	4062e4 <__aeabi_fsub>
  404dd6:	491f      	ldr	r1, [pc, #124]	; (404e54 <__ieee754_rem_pio2f+0x2b8>)
  404dd8:	f001 fa86 	bl	4062e8 <__addsf3>
  404ddc:	f04f 37ff 	mov.w	r7, #4294967295
  404de0:	6068      	str	r0, [r5, #4]
  404de2:	e756      	b.n	404c92 <__ieee754_rem_pio2f+0xf6>
  404de4:	2303      	movs	r3, #3
  404de6:	e73a      	b.n	404c5e <__ieee754_rem_pio2f+0xc2>
  404de8:	491d      	ldr	r1, [pc, #116]	; (404e60 <__ieee754_rem_pio2f+0x2c4>)
  404dea:	f001 fa7d 	bl	4062e8 <__addsf3>
  404dee:	491d      	ldr	r1, [pc, #116]	; (404e64 <__ieee754_rem_pio2f+0x2c8>)
  404df0:	4604      	mov	r4, r0
  404df2:	f001 fa79 	bl	4062e8 <__addsf3>
  404df6:	4601      	mov	r1, r0
  404df8:	6028      	str	r0, [r5, #0]
  404dfa:	4620      	mov	r0, r4
  404dfc:	f001 fa72 	bl	4062e4 <__aeabi_fsub>
  404e00:	4918      	ldr	r1, [pc, #96]	; (404e64 <__ieee754_rem_pio2f+0x2c8>)
  404e02:	f001 fa71 	bl	4062e8 <__addsf3>
  404e06:	f04f 37ff 	mov.w	r7, #4294967295
  404e0a:	6068      	str	r0, [r5, #4]
  404e0c:	e741      	b.n	404c92 <__ieee754_rem_pio2f+0xf6>
  404e0e:	4918      	ldr	r1, [pc, #96]	; (404e70 <__ieee754_rem_pio2f+0x2d4>)
  404e10:	4658      	mov	r0, fp
  404e12:	f001 fb71 	bl	4064f8 <__aeabi_fmul>
  404e16:	4601      	mov	r1, r0
  404e18:	4680      	mov	r8, r0
  404e1a:	4620      	mov	r0, r4
  404e1c:	f001 fa62 	bl	4062e4 <__aeabi_fsub>
  404e20:	4601      	mov	r1, r0
  404e22:	4681      	mov	r9, r0
  404e24:	4620      	mov	r0, r4
  404e26:	f001 fa5d 	bl	4062e4 <__aeabi_fsub>
  404e2a:	4641      	mov	r1, r8
  404e2c:	f001 fa5a 	bl	4062e4 <__aeabi_fsub>
  404e30:	4910      	ldr	r1, [pc, #64]	; (404e74 <__ieee754_rem_pio2f+0x2d8>)
  404e32:	4604      	mov	r4, r0
  404e34:	4658      	mov	r0, fp
  404e36:	f001 fb5f 	bl	4064f8 <__aeabi_fmul>
  404e3a:	4621      	mov	r1, r4
  404e3c:	f001 fa52 	bl	4062e4 <__aeabi_fsub>
  404e40:	4682      	mov	sl, r0
  404e42:	e76a      	b.n	404d1a <__ieee754_rem_pio2f+0x17e>
  404e44:	3f490fd8 	.word	0x3f490fd8
  404e48:	4016cbe3 	.word	0x4016cbe3
  404e4c:	3fc90f80 	.word	0x3fc90f80
  404e50:	3fc90fd0 	.word	0x3fc90fd0
  404e54:	37354443 	.word	0x37354443
  404e58:	43490f80 	.word	0x43490f80
  404e5c:	004145c8 	.word	0x004145c8
  404e60:	37354400 	.word	0x37354400
  404e64:	2e85a308 	.word	0x2e85a308
  404e68:	3f22f984 	.word	0x3f22f984
  404e6c:	00414548 	.word	0x00414548
  404e70:	2e85a300 	.word	0x2e85a300
  404e74:	248d3132 	.word	0x248d3132

00404e78 <__kernel_cosf>:
  404e78:	e92d 43f8 	stmdb	sp!, {r3, r4, r5, r6, r7, r8, r9, lr}
  404e7c:	f020 4400 	bic.w	r4, r0, #2147483648	; 0x80000000
  404e80:	f1b4 5f48 	cmp.w	r4, #838860800	; 0x32000000
  404e84:	4606      	mov	r6, r0
  404e86:	460f      	mov	r7, r1
  404e88:	da49      	bge.n	404f1e <__kernel_cosf+0xa6>
  404e8a:	f001 fcfb 	bl	406884 <__aeabi_f2iz>
  404e8e:	2800      	cmp	r0, #0
  404e90:	f000 809d 	beq.w	404fce <__kernel_cosf+0x156>
  404e94:	4631      	mov	r1, r6
  404e96:	4630      	mov	r0, r6
  404e98:	f001 fb2e 	bl	4064f8 <__aeabi_fmul>
  404e9c:	494e      	ldr	r1, [pc, #312]	; (404fd8 <__kernel_cosf+0x160>)
  404e9e:	4605      	mov	r5, r0
  404ea0:	f001 fb2a 	bl	4064f8 <__aeabi_fmul>
  404ea4:	494d      	ldr	r1, [pc, #308]	; (404fdc <__kernel_cosf+0x164>)
  404ea6:	f001 fa1f 	bl	4062e8 <__addsf3>
  404eaa:	4629      	mov	r1, r5
  404eac:	f001 fb24 	bl	4064f8 <__aeabi_fmul>
  404eb0:	494b      	ldr	r1, [pc, #300]	; (404fe0 <__kernel_cosf+0x168>)
  404eb2:	f001 fa17 	bl	4062e4 <__aeabi_fsub>
  404eb6:	4629      	mov	r1, r5
  404eb8:	f001 fb1e 	bl	4064f8 <__aeabi_fmul>
  404ebc:	4949      	ldr	r1, [pc, #292]	; (404fe4 <__kernel_cosf+0x16c>)
  404ebe:	f001 fa13 	bl	4062e8 <__addsf3>
  404ec2:	4629      	mov	r1, r5
  404ec4:	f001 fb18 	bl	4064f8 <__aeabi_fmul>
  404ec8:	4947      	ldr	r1, [pc, #284]	; (404fe8 <__kernel_cosf+0x170>)
  404eca:	f001 fa0b 	bl	4062e4 <__aeabi_fsub>
  404ece:	4629      	mov	r1, r5
  404ed0:	f001 fb12 	bl	4064f8 <__aeabi_fmul>
  404ed4:	4945      	ldr	r1, [pc, #276]	; (404fec <__kernel_cosf+0x174>)
  404ed6:	f001 fa07 	bl	4062e8 <__addsf3>
  404eda:	4629      	mov	r1, r5
  404edc:	f001 fb0c 	bl	4064f8 <__aeabi_fmul>
  404ee0:	4680      	mov	r8, r0
  404ee2:	f04f 517c 	mov.w	r1, #1056964608	; 0x3f000000
  404ee6:	4628      	mov	r0, r5
  404ee8:	f001 fb06 	bl	4064f8 <__aeabi_fmul>
  404eec:	4641      	mov	r1, r8
  404eee:	4604      	mov	r4, r0
  404ef0:	4628      	mov	r0, r5
  404ef2:	f001 fb01 	bl	4064f8 <__aeabi_fmul>
  404ef6:	4639      	mov	r1, r7
  404ef8:	4605      	mov	r5, r0
  404efa:	4630      	mov	r0, r6
  404efc:	f001 fafc 	bl	4064f8 <__aeabi_fmul>
  404f00:	4601      	mov	r1, r0
  404f02:	4628      	mov	r0, r5
  404f04:	f001 f9ee 	bl	4062e4 <__aeabi_fsub>
  404f08:	4601      	mov	r1, r0
  404f0a:	4620      	mov	r0, r4
  404f0c:	f001 f9ea 	bl	4062e4 <__aeabi_fsub>
  404f10:	4601      	mov	r1, r0
  404f12:	f04f 507e 	mov.w	r0, #1065353216	; 0x3f800000
  404f16:	f001 f9e5 	bl	4062e4 <__aeabi_fsub>
  404f1a:	e8bd 83f8 	ldmia.w	sp!, {r3, r4, r5, r6, r7, r8, r9, pc}
  404f1e:	4601      	mov	r1, r0
  404f20:	f001 faea 	bl	4064f8 <__aeabi_fmul>
  404f24:	492c      	ldr	r1, [pc, #176]	; (404fd8 <__kernel_cosf+0x160>)
  404f26:	4605      	mov	r5, r0
  404f28:	f001 fae6 	bl	4064f8 <__aeabi_fmul>
  404f2c:	492b      	ldr	r1, [pc, #172]	; (404fdc <__kernel_cosf+0x164>)
  404f2e:	f001 f9db 	bl	4062e8 <__addsf3>
  404f32:	4629      	mov	r1, r5
  404f34:	f001 fae0 	bl	4064f8 <__aeabi_fmul>
  404f38:	4929      	ldr	r1, [pc, #164]	; (404fe0 <__kernel_cosf+0x168>)
  404f3a:	f001 f9d3 	bl	4062e4 <__aeabi_fsub>
  404f3e:	4629      	mov	r1, r5
  404f40:	f001 fada 	bl	4064f8 <__aeabi_fmul>
  404f44:	4927      	ldr	r1, [pc, #156]	; (404fe4 <__kernel_cosf+0x16c>)
  404f46:	f001 f9cf 	bl	4062e8 <__addsf3>
  404f4a:	4629      	mov	r1, r5
  404f4c:	f001 fad4 	bl	4064f8 <__aeabi_fmul>
  404f50:	4925      	ldr	r1, [pc, #148]	; (404fe8 <__kernel_cosf+0x170>)
  404f52:	f001 f9c7 	bl	4062e4 <__aeabi_fsub>
  404f56:	4629      	mov	r1, r5
  404f58:	f001 face 	bl	4064f8 <__aeabi_fmul>
  404f5c:	4923      	ldr	r1, [pc, #140]	; (404fec <__kernel_cosf+0x174>)
  404f5e:	f001 f9c3 	bl	4062e8 <__addsf3>
  404f62:	4629      	mov	r1, r5
  404f64:	f001 fac8 	bl	4064f8 <__aeabi_fmul>
  404f68:	4b21      	ldr	r3, [pc, #132]	; (404ff0 <__kernel_cosf+0x178>)
  404f6a:	429c      	cmp	r4, r3
  404f6c:	4680      	mov	r8, r0
  404f6e:	ddb8      	ble.n	404ee2 <__kernel_cosf+0x6a>
  404f70:	4b20      	ldr	r3, [pc, #128]	; (404ff4 <__kernel_cosf+0x17c>)
  404f72:	429c      	cmp	r4, r3
  404f74:	dc27      	bgt.n	404fc6 <__kernel_cosf+0x14e>
  404f76:	f104 447f 	add.w	r4, r4, #4278190080	; 0xff000000
  404f7a:	4621      	mov	r1, r4
  404f7c:	f04f 507e 	mov.w	r0, #1065353216	; 0x3f800000
  404f80:	f001 f9b0 	bl	4062e4 <__aeabi_fsub>
  404f84:	4681      	mov	r9, r0
  404f86:	f04f 517c 	mov.w	r1, #1056964608	; 0x3f000000
  404f8a:	4628      	mov	r0, r5
  404f8c:	f001 fab4 	bl	4064f8 <__aeabi_fmul>
  404f90:	4621      	mov	r1, r4
  404f92:	f001 f9a7 	bl	4062e4 <__aeabi_fsub>
  404f96:	4641      	mov	r1, r8
  404f98:	4604      	mov	r4, r0
  404f9a:	4628      	mov	r0, r5
  404f9c:	f001 faac 	bl	4064f8 <__aeabi_fmul>
  404fa0:	4639      	mov	r1, r7
  404fa2:	4605      	mov	r5, r0
  404fa4:	4630      	mov	r0, r6
  404fa6:	f001 faa7 	bl	4064f8 <__aeabi_fmul>
  404faa:	4601      	mov	r1, r0
  404fac:	4628      	mov	r0, r5
  404fae:	f001 f999 	bl	4062e4 <__aeabi_fsub>
  404fb2:	4601      	mov	r1, r0
  404fb4:	4620      	mov	r0, r4
  404fb6:	f001 f995 	bl	4062e4 <__aeabi_fsub>
  404fba:	4601      	mov	r1, r0
  404fbc:	4648      	mov	r0, r9
  404fbe:	f001 f991 	bl	4062e4 <__aeabi_fsub>
  404fc2:	e8bd 83f8 	ldmia.w	sp!, {r3, r4, r5, r6, r7, r8, r9, pc}
  404fc6:	f8df 9034 	ldr.w	r9, [pc, #52]	; 404ffc <__kernel_cosf+0x184>
  404fca:	4c0b      	ldr	r4, [pc, #44]	; (404ff8 <__kernel_cosf+0x180>)
  404fcc:	e7db      	b.n	404f86 <__kernel_cosf+0x10e>
  404fce:	f04f 507e 	mov.w	r0, #1065353216	; 0x3f800000
  404fd2:	e8bd 83f8 	ldmia.w	sp!, {r3, r4, r5, r6, r7, r8, r9, pc}
  404fd6:	bf00      	nop
  404fd8:	ad47d74e 	.word	0xad47d74e
  404fdc:	310f74f6 	.word	0x310f74f6
  404fe0:	3493f27c 	.word	0x3493f27c
  404fe4:	37d00d01 	.word	0x37d00d01
  404fe8:	3ab60b61 	.word	0x3ab60b61
  404fec:	3d2aaaab 	.word	0x3d2aaaab
  404ff0:	3e999999 	.word	0x3e999999
  404ff4:	3f480000 	.word	0x3f480000
  404ff8:	3e900000 	.word	0x3e900000
  404ffc:	3f380000 	.word	0x3f380000

00405000 <__kernel_rem_pio2f>:
  405000:	e92d 4ff0 	stmdb	sp!, {r4, r5, r6, r7, r8, r9, sl, fp, lr}
  405004:	b0dd      	sub	sp, #372	; 0x174
  405006:	4c90      	ldr	r4, [pc, #576]	; (405248 <__kernel_rem_pio2f+0x248>)
  405008:	9308      	str	r3, [sp, #32]
  40500a:	3b01      	subs	r3, #1
  40500c:	9301      	str	r3, [sp, #4]
  40500e:	1ed3      	subs	r3, r2, #3
  405010:	bf48      	it	mi
  405012:	1d13      	addmi	r3, r2, #4
  405014:	9d66      	ldr	r5, [sp, #408]	; 0x198
  405016:	9107      	str	r1, [sp, #28]
  405018:	10db      	asrs	r3, r3, #3
  40501a:	ea23 73e3 	bic.w	r3, r3, r3, asr #31
  40501e:	f854 4025 	ldr.w	r4, [r4, r5, lsl #2]
  405022:	9309      	str	r3, [sp, #36]	; 0x24
  405024:	4619      	mov	r1, r3
  405026:	3301      	adds	r3, #1
  405028:	eba2 03c3 	sub.w	r3, r2, r3, lsl #3
  40502c:	9405      	str	r4, [sp, #20]
  40502e:	9a01      	ldr	r2, [sp, #4]
  405030:	9304      	str	r3, [sp, #16]
  405032:	9b05      	ldr	r3, [sp, #20]
  405034:	9002      	str	r0, [sp, #8]
  405036:	189c      	adds	r4, r3, r2
  405038:	eba1 0602 	sub.w	r6, r1, r2
  40503c:	d417      	bmi.n	40506e <__kernel_rem_pio2f+0x6e>
  40503e:	4434      	add	r4, r6
  405040:	2500      	movs	r5, #0
  405042:	3401      	adds	r4, #1
  405044:	af1f      	add	r7, sp, #124	; 0x7c
  405046:	f8dd 819c 	ldr.w	r8, [sp, #412]	; 0x19c
  40504a:	e008      	b.n	40505e <__kernel_rem_pio2f+0x5e>
  40504c:	f858 0026 	ldr.w	r0, [r8, r6, lsl #2]
  405050:	f001 f9fe 	bl	406450 <__aeabi_i2f>
  405054:	3601      	adds	r6, #1
  405056:	42a6      	cmp	r6, r4
  405058:	f847 0f04 	str.w	r0, [r7, #4]!
  40505c:	d007      	beq.n	40506e <__kernel_rem_pio2f+0x6e>
  40505e:	2e00      	cmp	r6, #0
  405060:	daf4      	bge.n	40504c <__kernel_rem_pio2f+0x4c>
  405062:	3601      	adds	r6, #1
  405064:	4628      	mov	r0, r5
  405066:	42a6      	cmp	r6, r4
  405068:	f847 0f04 	str.w	r0, [r7, #4]!
  40506c:	d1f7      	bne.n	40505e <__kernel_rem_pio2f+0x5e>
  40506e:	9b05      	ldr	r3, [sp, #20]
  405070:	2b00      	cmp	r3, #0
  405072:	db28      	blt.n	4050c6 <__kernel_rem_pio2f+0xc6>
  405074:	9b08      	ldr	r3, [sp, #32]
  405076:	009e      	lsls	r6, r3, #2
  405078:	9b02      	ldr	r3, [sp, #8]
  40507a:	1f35      	subs	r5, r6, #4
  40507c:	441d      	add	r5, r3
  40507e:	ab20      	add	r3, sp, #128	; 0x80
  405080:	441e      	add	r6, r3
  405082:	9b05      	ldr	r3, [sp, #20]
  405084:	aa48      	add	r2, sp, #288	; 0x120
  405086:	f04f 0900 	mov.w	r9, #0
  40508a:	eb02 0883 	add.w	r8, r2, r3, lsl #2
  40508e:	af47      	add	r7, sp, #284	; 0x11c
  405090:	9b01      	ldr	r3, [sp, #4]
  405092:	2b00      	cmp	r3, #0
  405094:	f2c0 82b9 	blt.w	40560a <__kernel_rem_pio2f+0x60a>
  405098:	9b02      	ldr	r3, [sp, #8]
  40509a:	46b3      	mov	fp, r6
  40509c:	1f1c      	subs	r4, r3, #4
  40509e:	46ca      	mov	sl, r9
  4050a0:	f85b 1d04 	ldr.w	r1, [fp, #-4]!
  4050a4:	f854 0f04 	ldr.w	r0, [r4, #4]!
  4050a8:	f001 fa26 	bl	4064f8 <__aeabi_fmul>
  4050ac:	4601      	mov	r1, r0
  4050ae:	4650      	mov	r0, sl
  4050b0:	f001 f91a 	bl	4062e8 <__addsf3>
  4050b4:	42ac      	cmp	r4, r5
  4050b6:	4682      	mov	sl, r0
  4050b8:	d1f2      	bne.n	4050a0 <__kernel_rem_pio2f+0xa0>
  4050ba:	f847 af04 	str.w	sl, [r7, #4]!
  4050be:	4547      	cmp	r7, r8
  4050c0:	f106 0604 	add.w	r6, r6, #4
  4050c4:	d1e4      	bne.n	405090 <__kernel_rem_pio2f+0x90>
  4050c6:	9805      	ldr	r0, [sp, #20]
  4050c8:	9908      	ldr	r1, [sp, #32]
  4050ca:	9c02      	ldr	r4, [sp, #8]
  4050cc:	f06f 4240 	mvn.w	r2, #3221225472	; 0xc0000000
  4050d0:	4603      	mov	r3, r0
  4050d2:	4413      	add	r3, r2
  4050d4:	009b      	lsls	r3, r3, #2
  4050d6:	440a      	add	r2, r1
  4050d8:	f10d 0a30 	add.w	sl, sp, #48	; 0x30
  4050dc:	1f19      	subs	r1, r3, #4
  4050de:	eb04 0582 	add.w	r5, r4, r2, lsl #2
  4050e2:	4453      	add	r3, sl
  4050e4:	eb0a 0201 	add.w	r2, sl, r1
  4050e8:	920a      	str	r2, [sp, #40]	; 0x28
  4050ea:	930b      	str	r3, [sp, #44]	; 0x2c
  4050ec:	4680      	mov	r8, r0
  4050ee:	ea4f 0388 	mov.w	r3, r8, lsl #2
  4050f2:	aa5c      	add	r2, sp, #368	; 0x170
  4050f4:	9303      	str	r3, [sp, #12]
  4050f6:	18d3      	adds	r3, r2, r3
  4050f8:	f1b8 0f00 	cmp.w	r8, #0
  4050fc:	f853 9c50 	ldr.w	r9, [r3, #-80]
  405100:	dd22      	ble.n	405148 <__kernel_rem_pio2f+0x148>
  405102:	eb02 0488 	add.w	r4, r2, r8, lsl #2
  405106:	3c54      	subs	r4, #84	; 0x54
  405108:	ae0b      	add	r6, sp, #44	; 0x2c
  40510a:	af47      	add	r7, sp, #284	; 0x11c
  40510c:	f04f 516e 	mov.w	r1, #998244352	; 0x3b800000
  405110:	4648      	mov	r0, r9
  405112:	f001 f9f1 	bl	4064f8 <__aeabi_fmul>
  405116:	f001 fbb5 	bl	406884 <__aeabi_f2iz>
  40511a:	f001 f999 	bl	406450 <__aeabi_i2f>
  40511e:	f04f 4187 	mov.w	r1, #1132462080	; 0x43800000
  405122:	4683      	mov	fp, r0
  405124:	f001 f9e8 	bl	4064f8 <__aeabi_fmul>
  405128:	4601      	mov	r1, r0
  40512a:	4648      	mov	r0, r9
  40512c:	f001 f8da 	bl	4062e4 <__aeabi_fsub>
  405130:	f001 fba8 	bl	406884 <__aeabi_f2iz>
  405134:	f854 1904 	ldr.w	r1, [r4], #-4
  405138:	f846 0f04 	str.w	r0, [r6, #4]!
  40513c:	4658      	mov	r0, fp
  40513e:	f001 f8d3 	bl	4062e8 <__addsf3>
  405142:	42bc      	cmp	r4, r7
  405144:	4681      	mov	r9, r0
  405146:	d1e1      	bne.n	40510c <__kernel_rem_pio2f+0x10c>
  405148:	9e04      	ldr	r6, [sp, #16]
  40514a:	4648      	mov	r0, r9
  40514c:	4631      	mov	r1, r6
  40514e:	f000 fb9d 	bl	40588c <scalbnf>
  405152:	f04f 5178 	mov.w	r1, #1040187392	; 0x3e000000
  405156:	4604      	mov	r4, r0
  405158:	f001 f9ce 	bl	4064f8 <__aeabi_fmul>
  40515c:	f000 fb50 	bl	405800 <floorf>
  405160:	f04f 4182 	mov.w	r1, #1090519040	; 0x41000000
  405164:	f001 f9c8 	bl	4064f8 <__aeabi_fmul>
  405168:	4601      	mov	r1, r0
  40516a:	4620      	mov	r0, r4
  40516c:	f001 f8ba 	bl	4062e4 <__aeabi_fsub>
  405170:	4604      	mov	r4, r0
  405172:	f001 fb87 	bl	406884 <__aeabi_f2iz>
  405176:	4681      	mov	r9, r0
  405178:	9006      	str	r0, [sp, #24]
  40517a:	f001 f969 	bl	406450 <__aeabi_i2f>
  40517e:	4601      	mov	r1, r0
  405180:	4620      	mov	r0, r4
  405182:	f001 f8af 	bl	4062e4 <__aeabi_fsub>
  405186:	2e00      	cmp	r6, #0
  405188:	4607      	mov	r7, r0
  40518a:	f340 80e6 	ble.w	40535a <__kernel_rem_pio2f+0x35a>
  40518e:	f108 31ff 	add.w	r1, r8, #4294967295
  405192:	f1c6 0308 	rsb	r3, r6, #8
  405196:	f85a 2021 	ldr.w	r2, [sl, r1, lsl #2]
  40519a:	fa42 f003 	asr.w	r0, r2, r3
  40519e:	fa00 f303 	lsl.w	r3, r0, r3
  4051a2:	1ad3      	subs	r3, r2, r3
  4051a4:	464a      	mov	r2, r9
  4051a6:	f1c6 0407 	rsb	r4, r6, #7
  4051aa:	4402      	add	r2, r0
  4051ac:	f84a 3021 	str.w	r3, [sl, r1, lsl #2]
  4051b0:	9206      	str	r2, [sp, #24]
  4051b2:	fa43 f404 	asr.w	r4, r3, r4
  4051b6:	2c00      	cmp	r4, #0
  4051b8:	dd5b      	ble.n	405272 <__kernel_rem_pio2f+0x272>
  4051ba:	9b06      	ldr	r3, [sp, #24]
  4051bc:	f1b8 0f00 	cmp.w	r8, #0
  4051c0:	f103 0301 	add.w	r3, r3, #1
  4051c4:	9306      	str	r3, [sp, #24]
  4051c6:	f340 823b 	ble.w	405640 <__kernel_rem_pio2f+0x640>
  4051ca:	f8da 6000 	ldr.w	r6, [sl]
  4051ce:	2e00      	cmp	r6, #0
  4051d0:	f040 8294 	bne.w	4056fc <__kernel_rem_pio2f+0x6fc>
  4051d4:	f1b8 0f01 	cmp.w	r8, #1
  4051d8:	f340 8255 	ble.w	405686 <__kernel_rem_pio2f+0x686>
  4051dc:	4652      	mov	r2, sl
  4051de:	2301      	movs	r3, #1
  4051e0:	f852 6f04 	ldr.w	r6, [r2, #4]!
  4051e4:	2e00      	cmp	r6, #0
  4051e6:	f000 824a 	beq.w	40567e <__kernel_rem_pio2f+0x67e>
  4051ea:	1c59      	adds	r1, r3, #1
  4051ec:	f5c6 7680 	rsb	r6, r6, #256	; 0x100
  4051f0:	4588      	cmp	r8, r1
  4051f2:	f84a 6023 	str.w	r6, [sl, r3, lsl #2]
  4051f6:	dd14      	ble.n	405222 <__kernel_rem_pio2f+0x222>
  4051f8:	f85a 2021 	ldr.w	r2, [sl, r1, lsl #2]
  4051fc:	3302      	adds	r3, #2
  4051fe:	f1c2 02ff 	rsb	r2, r2, #255	; 0xff
  405202:	4598      	cmp	r8, r3
  405204:	f84a 2021 	str.w	r2, [sl, r1, lsl #2]
  405208:	dd0b      	ble.n	405222 <__kernel_rem_pio2f+0x222>
  40520a:	9a03      	ldr	r2, [sp, #12]
  40520c:	4452      	add	r2, sl
  40520e:	eb0a 0383 	add.w	r3, sl, r3, lsl #2
  405212:	4691      	mov	r9, r2
  405214:	681a      	ldr	r2, [r3, #0]
  405216:	f1c2 02ff 	rsb	r2, r2, #255	; 0xff
  40521a:	f843 2b04 	str.w	r2, [r3], #4
  40521e:	454b      	cmp	r3, r9
  405220:	d1f8      	bne.n	405214 <__kernel_rem_pio2f+0x214>
  405222:	9b04      	ldr	r3, [sp, #16]
  405224:	2b00      	cmp	r3, #0
  405226:	dd11      	ble.n	40524c <__kernel_rem_pio2f+0x24c>
  405228:	9b04      	ldr	r3, [sp, #16]
  40522a:	2b01      	cmp	r3, #1
  40522c:	f04f 0601 	mov.w	r6, #1
  405230:	f040 820e 	bne.w	405650 <__kernel_rem_pio2f+0x650>
  405234:	f108 32ff 	add.w	r2, r8, #4294967295
  405238:	f85a 3022 	ldr.w	r3, [sl, r2, lsl #2]
  40523c:	f003 037f 	and.w	r3, r3, #127	; 0x7f
  405240:	f84a 3022 	str.w	r3, [sl, r2, lsl #2]
  405244:	e20e      	b.n	405664 <__kernel_rem_pio2f+0x664>
  405246:	bf00      	nop
  405248:	0041490c 	.word	0x0041490c
  40524c:	2c02      	cmp	r4, #2
  40524e:	d110      	bne.n	405272 <__kernel_rem_pio2f+0x272>
  405250:	4639      	mov	r1, r7
  405252:	f04f 507e 	mov.w	r0, #1065353216	; 0x3f800000
  405256:	f001 f845 	bl	4062e4 <__aeabi_fsub>
  40525a:	4607      	mov	r7, r0
  40525c:	9904      	ldr	r1, [sp, #16]
  40525e:	f04f 507e 	mov.w	r0, #1065353216	; 0x3f800000
  405262:	f000 fb13 	bl	40588c <scalbnf>
  405266:	4601      	mov	r1, r0
  405268:	4638      	mov	r0, r7
  40526a:	f001 f83b 	bl	4062e4 <__aeabi_fsub>
  40526e:	2402      	movs	r4, #2
  405270:	4607      	mov	r7, r0
  405272:	2100      	movs	r1, #0
  405274:	4638      	mov	r0, r7
  405276:	f001 fad3 	bl	406820 <__aeabi_fcmpeq>
  40527a:	2800      	cmp	r0, #0
  40527c:	f000 8083 	beq.w	405386 <__kernel_rem_pio2f+0x386>
  405280:	9b05      	ldr	r3, [sp, #20]
  405282:	f108 37ff 	add.w	r7, r8, #4294967295
  405286:	42bb      	cmp	r3, r7
  405288:	dc0f      	bgt.n	4052aa <__kernel_rem_pio2f+0x2aa>
  40528a:	f108 4380 	add.w	r3, r8, #1073741824	; 0x40000000
  40528e:	3b01      	subs	r3, #1
  405290:	980b      	ldr	r0, [sp, #44]	; 0x2c
  405292:	eb0a 0383 	add.w	r3, sl, r3, lsl #2
  405296:	2200      	movs	r2, #0
  405298:	f853 1904 	ldr.w	r1, [r3], #-4
  40529c:	4283      	cmp	r3, r0
  40529e:	ea42 0201 	orr.w	r2, r2, r1
  4052a2:	d1f9      	bne.n	405298 <__kernel_rem_pio2f+0x298>
  4052a4:	2a00      	cmp	r2, #0
  4052a6:	f040 809d 	bne.w	4053e4 <__kernel_rem_pio2f+0x3e4>
  4052aa:	9b05      	ldr	r3, [sp, #20]
  4052ac:	3b01      	subs	r3, #1
  4052ae:	f85a 3023 	ldr.w	r3, [sl, r3, lsl #2]
  4052b2:	2b00      	cmp	r3, #0
  4052b4:	f040 81f4 	bne.w	4056a0 <__kernel_rem_pio2f+0x6a0>
  4052b8:	9a0a      	ldr	r2, [sp, #40]	; 0x28
  4052ba:	2301      	movs	r3, #1
  4052bc:	f852 1904 	ldr.w	r1, [r2], #-4
  4052c0:	3301      	adds	r3, #1
  4052c2:	2900      	cmp	r1, #0
  4052c4:	d0fa      	beq.n	4052bc <__kernel_rem_pio2f+0x2bc>
  4052c6:	4443      	add	r3, r8
  4052c8:	461a      	mov	r2, r3
  4052ca:	9306      	str	r3, [sp, #24]
  4052cc:	f108 0301 	add.w	r3, r8, #1
  4052d0:	4293      	cmp	r3, r2
  4052d2:	dc37      	bgt.n	405344 <__kernel_rem_pio2f+0x344>
  4052d4:	9908      	ldr	r1, [sp, #32]
  4052d6:	9a09      	ldr	r2, [sp, #36]	; 0x24
  4052d8:	eb01 0708 	add.w	r7, r1, r8
  4052dc:	a920      	add	r1, sp, #128	; 0x80
  4052de:	eb01 0787 	add.w	r7, r1, r7, lsl #2
  4052e2:	9906      	ldr	r1, [sp, #24]
  4052e4:	189e      	adds	r6, r3, r2
  4052e6:	eb01 0902 	add.w	r9, r1, r2
  4052ea:	f106 4680 	add.w	r6, r6, #1073741824	; 0x40000000
  4052ee:	9a67      	ldr	r2, [sp, #412]	; 0x19c
  4052f0:	3e01      	subs	r6, #1
  4052f2:	eb02 0686 	add.w	r6, r2, r6, lsl #2
  4052f6:	aa48      	add	r2, sp, #288	; 0x120
  4052f8:	eb02 0883 	add.w	r8, r2, r3, lsl #2
  4052fc:	9b67      	ldr	r3, [sp, #412]	; 0x19c
  4052fe:	eb03 0389 	add.w	r3, r3, r9, lsl #2
  405302:	9303      	str	r3, [sp, #12]
  405304:	f856 0f04 	ldr.w	r0, [r6, #4]!
  405308:	f001 f8a2 	bl	406450 <__aeabi_i2f>
  40530c:	9b01      	ldr	r3, [sp, #4]
  40530e:	f847 0b04 	str.w	r0, [r7], #4
  405312:	2b00      	cmp	r3, #0
  405314:	db19      	blt.n	40534a <__kernel_rem_pio2f+0x34a>
  405316:	9b02      	ldr	r3, [sp, #8]
  405318:	46bb      	mov	fp, r7
  40531a:	1f1c      	subs	r4, r3, #4
  40531c:	f04f 0900 	mov.w	r9, #0
  405320:	f85b 1d04 	ldr.w	r1, [fp, #-4]!
  405324:	f854 0f04 	ldr.w	r0, [r4, #4]!
  405328:	f001 f8e6 	bl	4064f8 <__aeabi_fmul>
  40532c:	4601      	mov	r1, r0
  40532e:	4648      	mov	r0, r9
  405330:	f000 ffda 	bl	4062e8 <__addsf3>
  405334:	42ac      	cmp	r4, r5
  405336:	4681      	mov	r9, r0
  405338:	d1f2      	bne.n	405320 <__kernel_rem_pio2f+0x320>
  40533a:	9b03      	ldr	r3, [sp, #12]
  40533c:	f848 9b04 	str.w	r9, [r8], #4
  405340:	429e      	cmp	r6, r3
  405342:	d1df      	bne.n	405304 <__kernel_rem_pio2f+0x304>
  405344:	f8dd 8018 	ldr.w	r8, [sp, #24]
  405348:	e6d1      	b.n	4050ee <__kernel_rem_pio2f+0xee>
  40534a:	9b03      	ldr	r3, [sp, #12]
  40534c:	f04f 0900 	mov.w	r9, #0
  405350:	429e      	cmp	r6, r3
  405352:	f848 9b04 	str.w	r9, [r8], #4
  405356:	d1d5      	bne.n	405304 <__kernel_rem_pio2f+0x304>
  405358:	e7f4      	b.n	405344 <__kernel_rem_pio2f+0x344>
  40535a:	d105      	bne.n	405368 <__kernel_rem_pio2f+0x368>
  40535c:	f108 33ff 	add.w	r3, r8, #4294967295
  405360:	f85a 4023 	ldr.w	r4, [sl, r3, lsl #2]
  405364:	1224      	asrs	r4, r4, #8
  405366:	e726      	b.n	4051b6 <__kernel_rem_pio2f+0x1b6>
  405368:	f04f 517c 	mov.w	r1, #1056964608	; 0x3f000000
  40536c:	f001 fa76 	bl	40685c <__aeabi_fcmpge>
  405370:	2800      	cmp	r0, #0
  405372:	f040 8153 	bne.w	40561c <__kernel_rem_pio2f+0x61c>
  405376:	4604      	mov	r4, r0
  405378:	2100      	movs	r1, #0
  40537a:	4638      	mov	r0, r7
  40537c:	f001 fa50 	bl	406820 <__aeabi_fcmpeq>
  405380:	2800      	cmp	r0, #0
  405382:	f47f af7d 	bne.w	405280 <__kernel_rem_pio2f+0x280>
  405386:	9e04      	ldr	r6, [sp, #16]
  405388:	4638      	mov	r0, r7
  40538a:	4271      	negs	r1, r6
  40538c:	f000 fa7e 	bl	40588c <scalbnf>
  405390:	f04f 4187 	mov.w	r1, #1132462080	; 0x43800000
  405394:	46a1      	mov	r9, r4
  405396:	4604      	mov	r4, r0
  405398:	f001 fa60 	bl	40685c <__aeabi_fcmpge>
  40539c:	2800      	cmp	r0, #0
  40539e:	f000 818d 	beq.w	4056bc <__kernel_rem_pio2f+0x6bc>
  4053a2:	f04f 516e 	mov.w	r1, #998244352	; 0x3b800000
  4053a6:	4620      	mov	r0, r4
  4053a8:	f001 f8a6 	bl	4064f8 <__aeabi_fmul>
  4053ac:	f001 fa6a 	bl	406884 <__aeabi_f2iz>
  4053b0:	f001 f84e 	bl	406450 <__aeabi_i2f>
  4053b4:	f04f 4187 	mov.w	r1, #1132462080	; 0x43800000
  4053b8:	4605      	mov	r5, r0
  4053ba:	f001 f89d 	bl	4064f8 <__aeabi_fmul>
  4053be:	4601      	mov	r1, r0
  4053c0:	4620      	mov	r0, r4
  4053c2:	f000 ff8f 	bl	4062e4 <__aeabi_fsub>
  4053c6:	f001 fa5d 	bl	406884 <__aeabi_f2iz>
  4053ca:	f84a 0028 	str.w	r0, [sl, r8, lsl #2]
  4053ce:	4628      	mov	r0, r5
  4053d0:	f001 fa58 	bl	406884 <__aeabi_f2iz>
  4053d4:	f108 0701 	add.w	r7, r8, #1
  4053d8:	4633      	mov	r3, r6
  4053da:	3308      	adds	r3, #8
  4053dc:	9304      	str	r3, [sp, #16]
  4053de:	f84a 0027 	str.w	r0, [sl, r7, lsl #2]
  4053e2:	e012      	b.n	40540a <__kernel_rem_pio2f+0x40a>
  4053e4:	9a04      	ldr	r2, [sp, #16]
  4053e6:	f85a 3027 	ldr.w	r3, [sl, r7, lsl #2]
  4053ea:	3a08      	subs	r2, #8
  4053ec:	46a1      	mov	r9, r4
  4053ee:	9204      	str	r2, [sp, #16]
  4053f0:	b95b      	cbnz	r3, 40540a <__kernel_rem_pio2f+0x40a>
  4053f2:	f107 4380 	add.w	r3, r7, #1073741824	; 0x40000000
  4053f6:	3b01      	subs	r3, #1
  4053f8:	eb0a 0383 	add.w	r3, sl, r3, lsl #2
  4053fc:	f853 1904 	ldr.w	r1, [r3], #-4
  405400:	3f01      	subs	r7, #1
  405402:	3a08      	subs	r2, #8
  405404:	2900      	cmp	r1, #0
  405406:	d0f9      	beq.n	4053fc <__kernel_rem_pio2f+0x3fc>
  405408:	9204      	str	r2, [sp, #16]
  40540a:	9904      	ldr	r1, [sp, #16]
  40540c:	f04f 507e 	mov.w	r0, #1065353216	; 0x3f800000
  405410:	f000 fa3c 	bl	40588c <scalbnf>
  405414:	2f00      	cmp	r7, #0
  405416:	4604      	mov	r4, r0
  405418:	f2c0 815c 	blt.w	4056d4 <__kernel_rem_pio2f+0x6d4>
  40541c:	00bb      	lsls	r3, r7, #2
  40541e:	a948      	add	r1, sp, #288	; 0x120
  405420:	1d1a      	adds	r2, r3, #4
  405422:	eb01 0803 	add.w	r8, r1, r3
  405426:	9301      	str	r3, [sp, #4]
  405428:	9202      	str	r2, [sp, #8]
  40542a:	f04f 566e 	mov.w	r6, #998244352	; 0x3b800000
  40542e:	eb0a 0b02 	add.w	fp, sl, r2
  405432:	f108 0504 	add.w	r5, r8, #4
  405436:	f85b 0d04 	ldr.w	r0, [fp, #-4]!
  40543a:	f001 f809 	bl	406450 <__aeabi_i2f>
  40543e:	4621      	mov	r1, r4
  405440:	f001 f85a 	bl	4064f8 <__aeabi_fmul>
  405444:	4631      	mov	r1, r6
  405446:	f845 0d04 	str.w	r0, [r5, #-4]!
  40544a:	4620      	mov	r0, r4
  40544c:	f001 f854 	bl	4064f8 <__aeabi_fmul>
  405450:	45d3      	cmp	fp, sl
  405452:	4604      	mov	r4, r0
  405454:	d1ef      	bne.n	405436 <__kernel_rem_pio2f+0x436>
  405456:	2600      	movs	r6, #0
  405458:	f8dd b014 	ldr.w	fp, [sp, #20]
  40545c:	9703      	str	r7, [sp, #12]
  40545e:	f1a8 0804 	sub.w	r8, r8, #4
  405462:	46b2      	mov	sl, r6
  405464:	f1bb 0f00 	cmp.w	fp, #0
  405468:	bfb8      	it	lt
  40546a:	2500      	movlt	r5, #0
  40546c:	db15      	blt.n	40549a <__kernel_rem_pio2f+0x49a>
  40546e:	4ea5      	ldr	r6, [pc, #660]	; (405704 <__kernel_rem_pio2f+0x704>)
  405470:	48a5      	ldr	r0, [pc, #660]	; (405708 <__kernel_rem_pio2f+0x708>)
  405472:	4647      	mov	r7, r8
  405474:	2500      	movs	r5, #0
  405476:	2400      	movs	r4, #0
  405478:	e003      	b.n	405482 <__kernel_rem_pio2f+0x482>
  40547a:	4554      	cmp	r4, sl
  40547c:	dc0d      	bgt.n	40549a <__kernel_rem_pio2f+0x49a>
  40547e:	f856 0f04 	ldr.w	r0, [r6, #4]!
  405482:	f857 1f04 	ldr.w	r1, [r7, #4]!
  405486:	f001 f837 	bl	4064f8 <__aeabi_fmul>
  40548a:	4601      	mov	r1, r0
  40548c:	4628      	mov	r0, r5
  40548e:	f000 ff2b 	bl	4062e8 <__addsf3>
  405492:	3401      	adds	r4, #1
  405494:	45a3      	cmp	fp, r4
  405496:	4605      	mov	r5, r0
  405498:	daef      	bge.n	40547a <__kernel_rem_pio2f+0x47a>
  40549a:	ab5c      	add	r3, sp, #368	; 0x170
  40549c:	eb03 038a 	add.w	r3, r3, sl, lsl #2
  4054a0:	f1a8 0804 	sub.w	r8, r8, #4
  4054a4:	f843 5ca0 	str.w	r5, [r3, #-160]
  4054a8:	ab46      	add	r3, sp, #280	; 0x118
  4054aa:	4543      	cmp	r3, r8
  4054ac:	f10a 0a01 	add.w	sl, sl, #1
  4054b0:	d1d8      	bne.n	405464 <__kernel_rem_pio2f+0x464>
  4054b2:	9b66      	ldr	r3, [sp, #408]	; 0x198
  4054b4:	9f03      	ldr	r7, [sp, #12]
  4054b6:	2b03      	cmp	r3, #3
  4054b8:	d85a      	bhi.n	405570 <__kernel_rem_pio2f+0x570>
  4054ba:	e8df f003 	tbb	[pc, r3]
  4054be:	5f8e      	.short	0x5f8e
  4054c0:	025f      	.short	0x025f
  4054c2:	2f00      	cmp	r7, #0
  4054c4:	f340 8104 	ble.w	4056d0 <__kernel_rem_pio2f+0x6d0>
  4054c8:	9a01      	ldr	r2, [sp, #4]
  4054ca:	a95c      	add	r1, sp, #368	; 0x170
  4054cc:	188b      	adds	r3, r1, r2
  4054ce:	ac34      	add	r4, sp, #208	; 0xd0
  4054d0:	f853 6ca0 	ldr.w	r6, [r3, #-160]
  4054d4:	18a5      	adds	r5, r4, r2
  4054d6:	f855 ac04 	ldr.w	sl, [r5, #-4]
  4054da:	4631      	mov	r1, r6
  4054dc:	4650      	mov	r0, sl
  4054de:	f000 ff03 	bl	4062e8 <__addsf3>
  4054e2:	4680      	mov	r8, r0
  4054e4:	4601      	mov	r1, r0
  4054e6:	4650      	mov	r0, sl
  4054e8:	f000 fefc 	bl	4062e4 <__aeabi_fsub>
  4054ec:	4631      	mov	r1, r6
  4054ee:	f000 fefb 	bl	4062e8 <__addsf3>
  4054f2:	6028      	str	r0, [r5, #0]
  4054f4:	f845 8d04 	str.w	r8, [r5, #-4]!
  4054f8:	42ac      	cmp	r4, r5
  4054fa:	4646      	mov	r6, r8
  4054fc:	d1eb      	bne.n	4054d6 <__kernel_rem_pio2f+0x4d6>
  4054fe:	2f01      	cmp	r7, #1
  405500:	f340 80e6 	ble.w	4056d0 <__kernel_rem_pio2f+0x6d0>
  405504:	9a01      	ldr	r2, [sp, #4]
  405506:	a95c      	add	r1, sp, #368	; 0x170
  405508:	188b      	adds	r3, r1, r2
  40550a:	4414      	add	r4, r2
  40550c:	f853 6ca0 	ldr.w	r6, [r3, #-160]
  405510:	4625      	mov	r5, r4
  405512:	f10d 0ad4 	add.w	sl, sp, #212	; 0xd4
  405516:	f855 8c04 	ldr.w	r8, [r5, #-4]
  40551a:	4631      	mov	r1, r6
  40551c:	4640      	mov	r0, r8
  40551e:	f000 fee3 	bl	4062e8 <__addsf3>
  405522:	4607      	mov	r7, r0
  405524:	4601      	mov	r1, r0
  405526:	4640      	mov	r0, r8
  405528:	f000 fedc 	bl	4062e4 <__aeabi_fsub>
  40552c:	4631      	mov	r1, r6
  40552e:	f000 fedb 	bl	4062e8 <__addsf3>
  405532:	6028      	str	r0, [r5, #0]
  405534:	f845 7d04 	str.w	r7, [r5, #-4]!
  405538:	45aa      	cmp	sl, r5
  40553a:	463e      	mov	r6, r7
  40553c:	d1eb      	bne.n	405516 <__kernel_rem_pio2f+0x516>
  40553e:	2000      	movs	r0, #0
  405540:	3404      	adds	r4, #4
  405542:	ad36      	add	r5, sp, #216	; 0xd8
  405544:	f854 1d04 	ldr.w	r1, [r4, #-4]!
  405548:	f000 fece 	bl	4062e8 <__addsf3>
  40554c:	42a5      	cmp	r5, r4
  40554e:	d1f9      	bne.n	405544 <__kernel_rem_pio2f+0x544>
  405550:	f1b9 0f00 	cmp.w	r9, #0
  405554:	f000 80b9 	beq.w	4056ca <__kernel_rem_pio2f+0x6ca>
  405558:	9a34      	ldr	r2, [sp, #208]	; 0xd0
  40555a:	9b35      	ldr	r3, [sp, #212]	; 0xd4
  40555c:	f100 4000 	add.w	r0, r0, #2147483648	; 0x80000000
  405560:	f102 4200 	add.w	r2, r2, #2147483648	; 0x80000000
  405564:	f103 4300 	add.w	r3, r3, #2147483648	; 0x80000000
  405568:	9c07      	ldr	r4, [sp, #28]
  40556a:	60a0      	str	r0, [r4, #8]
  40556c:	6022      	str	r2, [r4, #0]
  40556e:	6063      	str	r3, [r4, #4]
  405570:	9b06      	ldr	r3, [sp, #24]
  405572:	f003 0007 	and.w	r0, r3, #7
  405576:	b05d      	add	sp, #372	; 0x174
  405578:	e8bd 8ff0 	ldmia.w	sp!, {r4, r5, r6, r7, r8, r9, sl, fp, pc}
  40557c:	9c01      	ldr	r4, [sp, #4]
  40557e:	ad34      	add	r5, sp, #208	; 0xd0
  405580:	3404      	adds	r4, #4
  405582:	442c      	add	r4, r5
  405584:	2000      	movs	r0, #0
  405586:	f854 1d04 	ldr.w	r1, [r4, #-4]!
  40558a:	f000 fead 	bl	4062e8 <__addsf3>
  40558e:	42ac      	cmp	r4, r5
  405590:	d1f9      	bne.n	405586 <__kernel_rem_pio2f+0x586>
  405592:	f1b9 0f00 	cmp.w	r9, #0
  405596:	f000 8085 	beq.w	4056a4 <__kernel_rem_pio2f+0x6a4>
  40559a:	9a07      	ldr	r2, [sp, #28]
  40559c:	f100 4300 	add.w	r3, r0, #2147483648	; 0x80000000
  4055a0:	4601      	mov	r1, r0
  4055a2:	6013      	str	r3, [r2, #0]
  4055a4:	9834      	ldr	r0, [sp, #208]	; 0xd0
  4055a6:	f000 fe9d 	bl	4062e4 <__aeabi_fsub>
  4055aa:	2f00      	cmp	r7, #0
  4055ac:	dd0b      	ble.n	4055c6 <__kernel_rem_pio2f+0x5c6>
  4055ae:	ad34      	add	r5, sp, #208	; 0xd0
  4055b0:	2401      	movs	r4, #1
  4055b2:	3401      	adds	r4, #1
  4055b4:	f855 1f04 	ldr.w	r1, [r5, #4]!
  4055b8:	f000 fe96 	bl	4062e8 <__addsf3>
  4055bc:	42a7      	cmp	r7, r4
  4055be:	daf8      	bge.n	4055b2 <__kernel_rem_pio2f+0x5b2>
  4055c0:	f1b9 0f00 	cmp.w	r9, #0
  4055c4:	d001      	beq.n	4055ca <__kernel_rem_pio2f+0x5ca>
  4055c6:	f100 4000 	add.w	r0, r0, #2147483648	; 0x80000000
  4055ca:	9b07      	ldr	r3, [sp, #28]
  4055cc:	6058      	str	r0, [r3, #4]
  4055ce:	9b06      	ldr	r3, [sp, #24]
  4055d0:	f003 0007 	and.w	r0, r3, #7
  4055d4:	b05d      	add	sp, #372	; 0x174
  4055d6:	e8bd 8ff0 	ldmia.w	sp!, {r4, r5, r6, r7, r8, r9, sl, fp, pc}
  4055da:	9b02      	ldr	r3, [sp, #8]
  4055dc:	ad34      	add	r5, sp, #208	; 0xd0
  4055de:	442b      	add	r3, r5
  4055e0:	2000      	movs	r0, #0
  4055e2:	461c      	mov	r4, r3
  4055e4:	f854 1d04 	ldr.w	r1, [r4, #-4]!
  4055e8:	f000 fe7e 	bl	4062e8 <__addsf3>
  4055ec:	42a5      	cmp	r5, r4
  4055ee:	d1f9      	bne.n	4055e4 <__kernel_rem_pio2f+0x5e4>
  4055f0:	f1b9 0f00 	cmp.w	r9, #0
  4055f4:	d001      	beq.n	4055fa <__kernel_rem_pio2f+0x5fa>
  4055f6:	f100 4000 	add.w	r0, r0, #2147483648	; 0x80000000
  4055fa:	9b07      	ldr	r3, [sp, #28]
  4055fc:	6018      	str	r0, [r3, #0]
  4055fe:	9b06      	ldr	r3, [sp, #24]
  405600:	f003 0007 	and.w	r0, r3, #7
  405604:	b05d      	add	sp, #372	; 0x174
  405606:	e8bd 8ff0 	ldmia.w	sp!, {r4, r5, r6, r7, r8, r9, sl, fp, pc}
  40560a:	46ca      	mov	sl, r9
  40560c:	f847 af04 	str.w	sl, [r7, #4]!
  405610:	4547      	cmp	r7, r8
  405612:	f106 0604 	add.w	r6, r6, #4
  405616:	f47f ad3b 	bne.w	405090 <__kernel_rem_pio2f+0x90>
  40561a:	e554      	b.n	4050c6 <__kernel_rem_pio2f+0xc6>
  40561c:	9b06      	ldr	r3, [sp, #24]
  40561e:	f1b8 0f00 	cmp.w	r8, #0
  405622:	f103 0301 	add.w	r3, r3, #1
  405626:	9306      	str	r3, [sp, #24]
  405628:	bfc8      	it	gt
  40562a:	2402      	movgt	r4, #2
  40562c:	f73f adcd 	bgt.w	4051ca <__kernel_rem_pio2f+0x1ca>
  405630:	4639      	mov	r1, r7
  405632:	f04f 507e 	mov.w	r0, #1065353216	; 0x3f800000
  405636:	f000 fe55 	bl	4062e4 <__aeabi_fsub>
  40563a:	2402      	movs	r4, #2
  40563c:	4607      	mov	r7, r0
  40563e:	e618      	b.n	405272 <__kernel_rem_pio2f+0x272>
  405640:	9b04      	ldr	r3, [sp, #16]
  405642:	2b00      	cmp	r3, #0
  405644:	dd22      	ble.n	40568c <__kernel_rem_pio2f+0x68c>
  405646:	2600      	movs	r6, #0
  405648:	9b04      	ldr	r3, [sp, #16]
  40564a:	2b01      	cmp	r3, #1
  40564c:	f43f adf2 	beq.w	405234 <__kernel_rem_pio2f+0x234>
  405650:	2b02      	cmp	r3, #2
  405652:	d107      	bne.n	405664 <__kernel_rem_pio2f+0x664>
  405654:	f108 32ff 	add.w	r2, r8, #4294967295
  405658:	f85a 3022 	ldr.w	r3, [sl, r2, lsl #2]
  40565c:	f003 033f 	and.w	r3, r3, #63	; 0x3f
  405660:	f84a 3022 	str.w	r3, [sl, r2, lsl #2]
  405664:	2c02      	cmp	r4, #2
  405666:	f47f ae04 	bne.w	405272 <__kernel_rem_pio2f+0x272>
  40566a:	4639      	mov	r1, r7
  40566c:	f04f 507e 	mov.w	r0, #1065353216	; 0x3f800000
  405670:	f000 fe38 	bl	4062e4 <__aeabi_fsub>
  405674:	4607      	mov	r7, r0
  405676:	2e00      	cmp	r6, #0
  405678:	f43f adfb 	beq.w	405272 <__kernel_rem_pio2f+0x272>
  40567c:	e5ee      	b.n	40525c <__kernel_rem_pio2f+0x25c>
  40567e:	3301      	adds	r3, #1
  405680:	4598      	cmp	r8, r3
  405682:	f47f adad 	bne.w	4051e0 <__kernel_rem_pio2f+0x1e0>
  405686:	9b04      	ldr	r3, [sp, #16]
  405688:	2b00      	cmp	r3, #0
  40568a:	dcdd      	bgt.n	405648 <__kernel_rem_pio2f+0x648>
  40568c:	2c02      	cmp	r4, #2
  40568e:	f47f adf0 	bne.w	405272 <__kernel_rem_pio2f+0x272>
  405692:	4639      	mov	r1, r7
  405694:	f04f 507e 	mov.w	r0, #1065353216	; 0x3f800000
  405698:	f000 fe24 	bl	4062e4 <__aeabi_fsub>
  40569c:	4607      	mov	r7, r0
  40569e:	e5e8      	b.n	405272 <__kernel_rem_pio2f+0x272>
  4056a0:	2301      	movs	r3, #1
  4056a2:	e610      	b.n	4052c6 <__kernel_rem_pio2f+0x2c6>
  4056a4:	9b07      	ldr	r3, [sp, #28]
  4056a6:	4601      	mov	r1, r0
  4056a8:	6018      	str	r0, [r3, #0]
  4056aa:	9834      	ldr	r0, [sp, #208]	; 0xd0
  4056ac:	f000 fe1a 	bl	4062e4 <__aeabi_fsub>
  4056b0:	2f00      	cmp	r7, #0
  4056b2:	f73f af7c 	bgt.w	4055ae <__kernel_rem_pio2f+0x5ae>
  4056b6:	9b07      	ldr	r3, [sp, #28]
  4056b8:	6058      	str	r0, [r3, #4]
  4056ba:	e788      	b.n	4055ce <__kernel_rem_pio2f+0x5ce>
  4056bc:	4620      	mov	r0, r4
  4056be:	f001 f8e1 	bl	406884 <__aeabi_f2iz>
  4056c2:	4647      	mov	r7, r8
  4056c4:	f84a 0028 	str.w	r0, [sl, r8, lsl #2]
  4056c8:	e69f      	b.n	40540a <__kernel_rem_pio2f+0x40a>
  4056ca:	9a34      	ldr	r2, [sp, #208]	; 0xd0
  4056cc:	9b35      	ldr	r3, [sp, #212]	; 0xd4
  4056ce:	e74b      	b.n	405568 <__kernel_rem_pio2f+0x568>
  4056d0:	2000      	movs	r0, #0
  4056d2:	e73d      	b.n	405550 <__kernel_rem_pio2f+0x550>
  4056d4:	9b66      	ldr	r3, [sp, #408]	; 0x198
  4056d6:	2b03      	cmp	r3, #3
  4056d8:	f63f af4a 	bhi.w	405570 <__kernel_rem_pio2f+0x570>
  4056dc:	a201      	add	r2, pc, #4	; (adr r2, 4056e4 <__kernel_rem_pio2f+0x6e4>)
  4056de:	f852 f023 	ldr.w	pc, [r2, r3, lsl #2]
  4056e2:	bf00      	nop
  4056e4:	004056f9 	.word	0x004056f9
  4056e8:	004056f5 	.word	0x004056f5
  4056ec:	004056f5 	.word	0x004056f5
  4056f0:	004056d1 	.word	0x004056d1
  4056f4:	2000      	movs	r0, #0
  4056f6:	e74c      	b.n	405592 <__kernel_rem_pio2f+0x592>
  4056f8:	2000      	movs	r0, #0
  4056fa:	e779      	b.n	4055f0 <__kernel_rem_pio2f+0x5f0>
  4056fc:	2101      	movs	r1, #1
  4056fe:	2300      	movs	r3, #0
  405700:	e574      	b.n	4051ec <__kernel_rem_pio2f+0x1ec>
  405702:	bf00      	nop
  405704:	004148e0 	.word	0x004148e0
  405708:	3fc90000 	.word	0x3fc90000

0040570c <__kernel_sinf>:
  40570c:	e92d 43f8 	stmdb	sp!, {r3, r4, r5, r6, r7, r8, r9, lr}
  405710:	f020 4300 	bic.w	r3, r0, #2147483648	; 0x80000000
  405714:	f1b3 5f48 	cmp.w	r3, #838860800	; 0x32000000
  405718:	4604      	mov	r4, r0
  40571a:	460f      	mov	r7, r1
  40571c:	4690      	mov	r8, r2
  40571e:	da03      	bge.n	405728 <__kernel_sinf+0x1c>
  405720:	f001 f8b0 	bl	406884 <__aeabi_f2iz>
  405724:	2800      	cmp	r0, #0
  405726:	d058      	beq.n	4057da <__kernel_sinf+0xce>
  405728:	4621      	mov	r1, r4
  40572a:	4620      	mov	r0, r4
  40572c:	f000 fee4 	bl	4064f8 <__aeabi_fmul>
  405730:	4605      	mov	r5, r0
  405732:	4601      	mov	r1, r0
  405734:	4620      	mov	r0, r4
  405736:	f000 fedf 	bl	4064f8 <__aeabi_fmul>
  40573a:	4929      	ldr	r1, [pc, #164]	; (4057e0 <__kernel_sinf+0xd4>)
  40573c:	4606      	mov	r6, r0
  40573e:	4628      	mov	r0, r5
  405740:	f000 feda 	bl	4064f8 <__aeabi_fmul>
  405744:	4927      	ldr	r1, [pc, #156]	; (4057e4 <__kernel_sinf+0xd8>)
  405746:	f000 fdcd 	bl	4062e4 <__aeabi_fsub>
  40574a:	4629      	mov	r1, r5
  40574c:	f000 fed4 	bl	4064f8 <__aeabi_fmul>
  405750:	4925      	ldr	r1, [pc, #148]	; (4057e8 <__kernel_sinf+0xdc>)
  405752:	f000 fdc9 	bl	4062e8 <__addsf3>
  405756:	4629      	mov	r1, r5
  405758:	f000 fece 	bl	4064f8 <__aeabi_fmul>
  40575c:	4923      	ldr	r1, [pc, #140]	; (4057ec <__kernel_sinf+0xe0>)
  40575e:	f000 fdc1 	bl	4062e4 <__aeabi_fsub>
  405762:	4629      	mov	r1, r5
  405764:	f000 fec8 	bl	4064f8 <__aeabi_fmul>
  405768:	4921      	ldr	r1, [pc, #132]	; (4057f0 <__kernel_sinf+0xe4>)
  40576a:	f000 fdbd 	bl	4062e8 <__addsf3>
  40576e:	4681      	mov	r9, r0
  405770:	f1b8 0f00 	cmp.w	r8, #0
  405774:	d022      	beq.n	4057bc <__kernel_sinf+0xb0>
  405776:	f04f 517c 	mov.w	r1, #1056964608	; 0x3f000000
  40577a:	4638      	mov	r0, r7
  40577c:	f000 febc 	bl	4064f8 <__aeabi_fmul>
  405780:	4649      	mov	r1, r9
  405782:	4680      	mov	r8, r0
  405784:	4630      	mov	r0, r6
  405786:	f000 feb7 	bl	4064f8 <__aeabi_fmul>
  40578a:	4601      	mov	r1, r0
  40578c:	4640      	mov	r0, r8
  40578e:	f000 fda9 	bl	4062e4 <__aeabi_fsub>
  405792:	4629      	mov	r1, r5
  405794:	f000 feb0 	bl	4064f8 <__aeabi_fmul>
  405798:	4639      	mov	r1, r7
  40579a:	f000 fda3 	bl	4062e4 <__aeabi_fsub>
  40579e:	4915      	ldr	r1, [pc, #84]	; (4057f4 <__kernel_sinf+0xe8>)
  4057a0:	4605      	mov	r5, r0
  4057a2:	4630      	mov	r0, r6
  4057a4:	f000 fea8 	bl	4064f8 <__aeabi_fmul>
  4057a8:	4601      	mov	r1, r0
  4057aa:	4628      	mov	r0, r5
  4057ac:	f000 fd9c 	bl	4062e8 <__addsf3>
  4057b0:	4601      	mov	r1, r0
  4057b2:	4620      	mov	r0, r4
  4057b4:	f000 fd96 	bl	4062e4 <__aeabi_fsub>
  4057b8:	e8bd 83f8 	ldmia.w	sp!, {r3, r4, r5, r6, r7, r8, r9, pc}
  4057bc:	4601      	mov	r1, r0
  4057be:	4628      	mov	r0, r5
  4057c0:	f000 fe9a 	bl	4064f8 <__aeabi_fmul>
  4057c4:	490b      	ldr	r1, [pc, #44]	; (4057f4 <__kernel_sinf+0xe8>)
  4057c6:	f000 fd8d 	bl	4062e4 <__aeabi_fsub>
  4057ca:	4631      	mov	r1, r6
  4057cc:	f000 fe94 	bl	4064f8 <__aeabi_fmul>
  4057d0:	4621      	mov	r1, r4
  4057d2:	f000 fd89 	bl	4062e8 <__addsf3>
  4057d6:	e8bd 83f8 	ldmia.w	sp!, {r3, r4, r5, r6, r7, r8, r9, pc}
  4057da:	4620      	mov	r0, r4
  4057dc:	e8bd 83f8 	ldmia.w	sp!, {r3, r4, r5, r6, r7, r8, r9, pc}
  4057e0:	2f2ec9d3 	.word	0x2f2ec9d3
  4057e4:	32d72f34 	.word	0x32d72f34
  4057e8:	3638ef1b 	.word	0x3638ef1b
  4057ec:	39500d01 	.word	0x39500d01
  4057f0:	3c088889 	.word	0x3c088889
  4057f4:	3e2aaaab 	.word	0x3e2aaaab

004057f8 <fabsf>:
  4057f8:	f020 4000 	bic.w	r0, r0, #2147483648	; 0x80000000
  4057fc:	4770      	bx	lr
  4057fe:	bf00      	nop

00405800 <floorf>:
  405800:	e92d 41f0 	stmdb	sp!, {r4, r5, r6, r7, r8, lr}
  405804:	f020 4700 	bic.w	r7, r0, #2147483648	; 0x80000000
  405808:	0dfc      	lsrs	r4, r7, #23
  40580a:	3c7f      	subs	r4, #127	; 0x7f
  40580c:	2c16      	cmp	r4, #22
  40580e:	4605      	mov	r5, r0
  405810:	dc13      	bgt.n	40583a <floorf+0x3a>
  405812:	2c00      	cmp	r4, #0
  405814:	4680      	mov	r8, r0
  405816:	db1b      	blt.n	405850 <floorf+0x50>
  405818:	4f19      	ldr	r7, [pc, #100]	; (405880 <floorf+0x80>)
  40581a:	4127      	asrs	r7, r4
  40581c:	4238      	tst	r0, r7
  40581e:	d014      	beq.n	40584a <floorf+0x4a>
  405820:	4918      	ldr	r1, [pc, #96]	; (405884 <floorf+0x84>)
  405822:	f000 fd61 	bl	4062e8 <__addsf3>
  405826:	2100      	movs	r1, #0
  405828:	f001 f822 	bl	406870 <__aeabi_fcmpgt>
  40582c:	b168      	cbz	r0, 40584a <floorf+0x4a>
  40582e:	2d00      	cmp	r5, #0
  405830:	db1b      	blt.n	40586a <floorf+0x6a>
  405832:	ea28 0007 	bic.w	r0, r8, r7
  405836:	e8bd 81f0 	ldmia.w	sp!, {r4, r5, r6, r7, r8, pc}
  40583a:	f1b7 4fff 	cmp.w	r7, #2139095040	; 0x7f800000
  40583e:	d304      	bcc.n	40584a <floorf+0x4a>
  405840:	4601      	mov	r1, r0
  405842:	f000 fd51 	bl	4062e8 <__addsf3>
  405846:	e8bd 81f0 	ldmia.w	sp!, {r4, r5, r6, r7, r8, pc}
  40584a:	4628      	mov	r0, r5
  40584c:	e8bd 81f0 	ldmia.w	sp!, {r4, r5, r6, r7, r8, pc}
  405850:	490c      	ldr	r1, [pc, #48]	; (405884 <floorf+0x84>)
  405852:	f000 fd49 	bl	4062e8 <__addsf3>
  405856:	2100      	movs	r1, #0
  405858:	f001 f80a 	bl	406870 <__aeabi_fcmpgt>
  40585c:	2800      	cmp	r0, #0
  40585e:	d0f4      	beq.n	40584a <floorf+0x4a>
  405860:	2d00      	cmp	r5, #0
  405862:	db08      	blt.n	405876 <floorf+0x76>
  405864:	2000      	movs	r0, #0
  405866:	e8bd 81f0 	ldmia.w	sp!, {r4, r5, r6, r7, r8, pc}
  40586a:	f44f 0300 	mov.w	r3, #8388608	; 0x800000
  40586e:	fa43 f404 	asr.w	r4, r3, r4
  405872:	44a0      	add	r8, r4
  405874:	e7dd      	b.n	405832 <floorf+0x32>
  405876:	2f00      	cmp	r7, #0
  405878:	d0e7      	beq.n	40584a <floorf+0x4a>
  40587a:	4803      	ldr	r0, [pc, #12]	; (405888 <floorf+0x88>)
  40587c:	e8bd 81f0 	ldmia.w	sp!, {r4, r5, r6, r7, r8, pc}
  405880:	007fffff 	.word	0x007fffff
  405884:	7149f2ca 	.word	0x7149f2ca
  405888:	bf800000 	.word	0xbf800000

0040588c <scalbnf>:
  40588c:	f030 4200 	bics.w	r2, r0, #2147483648	; 0x80000000
  405890:	b538      	push	{r3, r4, r5, lr}
  405892:	4603      	mov	r3, r0
  405894:	d016      	beq.n	4058c4 <scalbnf+0x38>
  405896:	f1b2 4fff 	cmp.w	r2, #2139095040	; 0x7f800000
  40589a:	d20f      	bcs.n	4058bc <scalbnf+0x30>
  40589c:	f5b2 0f00 	cmp.w	r2, #8388608	; 0x800000
  4058a0:	460d      	mov	r5, r1
  4058a2:	d310      	bcc.n	4058c6 <scalbnf+0x3a>
  4058a4:	4604      	mov	r4, r0
  4058a6:	0dd0      	lsrs	r0, r2, #23
  4058a8:	4428      	add	r0, r5
  4058aa:	28fe      	cmp	r0, #254	; 0xfe
  4058ac:	dc2e      	bgt.n	40590c <scalbnf+0x80>
  4058ae:	2800      	cmp	r0, #0
  4058b0:	dd1d      	ble.n	4058ee <scalbnf+0x62>
  4058b2:	f024 44ff 	bic.w	r4, r4, #2139095040	; 0x7f800000
  4058b6:	ea44 50c0 	orr.w	r0, r4, r0, lsl #23
  4058ba:	bd38      	pop	{r3, r4, r5, pc}
  4058bc:	4601      	mov	r1, r0
  4058be:	f000 fd13 	bl	4062e8 <__addsf3>
  4058c2:	bd38      	pop	{r3, r4, r5, pc}
  4058c4:	bd38      	pop	{r3, r4, r5, pc}
  4058c6:	f04f 4198 	mov.w	r1, #1275068416	; 0x4c000000
  4058ca:	f000 fe15 	bl	4064f8 <__aeabi_fmul>
  4058ce:	4a18      	ldr	r2, [pc, #96]	; (405930 <scalbnf+0xa4>)
  4058d0:	4295      	cmp	r5, r2
  4058d2:	4603      	mov	r3, r0
  4058d4:	db07      	blt.n	4058e6 <scalbnf+0x5a>
  4058d6:	4604      	mov	r4, r0
  4058d8:	f3c0 50c7 	ubfx	r0, r0, #23, #8
  4058dc:	3819      	subs	r0, #25
  4058de:	e7e3      	b.n	4058a8 <scalbnf+0x1c>
  4058e0:	4814      	ldr	r0, [pc, #80]	; (405934 <scalbnf+0xa8>)
  4058e2:	f000 f82b 	bl	40593c <copysignf>
  4058e6:	4913      	ldr	r1, [pc, #76]	; (405934 <scalbnf+0xa8>)
  4058e8:	f000 fe06 	bl	4064f8 <__aeabi_fmul>
  4058ec:	bd38      	pop	{r3, r4, r5, pc}
  4058ee:	f110 0f16 	cmn.w	r0, #22
  4058f2:	da13      	bge.n	40591c <scalbnf+0x90>
  4058f4:	f24c 3250 	movw	r2, #50000	; 0xc350
  4058f8:	4295      	cmp	r5, r2
  4058fa:	4619      	mov	r1, r3
  4058fc:	ddf0      	ble.n	4058e0 <scalbnf+0x54>
  4058fe:	480e      	ldr	r0, [pc, #56]	; (405938 <scalbnf+0xac>)
  405900:	f000 f81c 	bl	40593c <copysignf>
  405904:	490c      	ldr	r1, [pc, #48]	; (405938 <scalbnf+0xac>)
  405906:	f000 fdf7 	bl	4064f8 <__aeabi_fmul>
  40590a:	bd38      	pop	{r3, r4, r5, pc}
  40590c:	4619      	mov	r1, r3
  40590e:	480a      	ldr	r0, [pc, #40]	; (405938 <scalbnf+0xac>)
  405910:	f000 f814 	bl	40593c <copysignf>
  405914:	4908      	ldr	r1, [pc, #32]	; (405938 <scalbnf+0xac>)
  405916:	f000 fdef 	bl	4064f8 <__aeabi_fmul>
  40591a:	bd38      	pop	{r3, r4, r5, pc}
  40591c:	f024 44ff 	bic.w	r4, r4, #2139095040	; 0x7f800000
  405920:	3019      	adds	r0, #25
  405922:	ea44 50c0 	orr.w	r0, r4, r0, lsl #23
  405926:	f04f 514c 	mov.w	r1, #855638016	; 0x33000000
  40592a:	f000 fde5 	bl	4064f8 <__aeabi_fmul>
  40592e:	bd38      	pop	{r3, r4, r5, pc}
  405930:	ffff3cb0 	.word	0xffff3cb0
  405934:	0da24260 	.word	0x0da24260
  405938:	7149f2ca 	.word	0x7149f2ca

0040593c <copysignf>:
  40593c:	f001 4100 	and.w	r1, r1, #2147483648	; 0x80000000
  405940:	f020 4000 	bic.w	r0, r0, #2147483648	; 0x80000000
  405944:	4308      	orrs	r0, r1
  405946:	4770      	bx	lr

00405948 <__aeabi_drsub>:
  405948:	f081 4100 	eor.w	r1, r1, #2147483648	; 0x80000000
  40594c:	e002      	b.n	405954 <__adddf3>
  40594e:	bf00      	nop

00405950 <__aeabi_dsub>:
  405950:	f083 4300 	eor.w	r3, r3, #2147483648	; 0x80000000

00405954 <__adddf3>:
  405954:	b530      	push	{r4, r5, lr}
  405956:	ea4f 0441 	mov.w	r4, r1, lsl #1
  40595a:	ea4f 0543 	mov.w	r5, r3, lsl #1
  40595e:	ea94 0f05 	teq	r4, r5
  405962:	bf08      	it	eq
  405964:	ea90 0f02 	teqeq	r0, r2
  405968:	bf1f      	itttt	ne
  40596a:	ea54 0c00 	orrsne.w	ip, r4, r0
  40596e:	ea55 0c02 	orrsne.w	ip, r5, r2
  405972:	ea7f 5c64 	mvnsne.w	ip, r4, asr #21
  405976:	ea7f 5c65 	mvnsne.w	ip, r5, asr #21
  40597a:	f000 80e2 	beq.w	405b42 <__adddf3+0x1ee>
  40597e:	ea4f 5454 	mov.w	r4, r4, lsr #21
  405982:	ebd4 5555 	rsbs	r5, r4, r5, lsr #21
  405986:	bfb8      	it	lt
  405988:	426d      	neglt	r5, r5
  40598a:	dd0c      	ble.n	4059a6 <__adddf3+0x52>
  40598c:	442c      	add	r4, r5
  40598e:	ea80 0202 	eor.w	r2, r0, r2
  405992:	ea81 0303 	eor.w	r3, r1, r3
  405996:	ea82 0000 	eor.w	r0, r2, r0
  40599a:	ea83 0101 	eor.w	r1, r3, r1
  40599e:	ea80 0202 	eor.w	r2, r0, r2
  4059a2:	ea81 0303 	eor.w	r3, r1, r3
  4059a6:	2d36      	cmp	r5, #54	; 0x36
  4059a8:	bf88      	it	hi
  4059aa:	bd30      	pophi	{r4, r5, pc}
  4059ac:	f011 4f00 	tst.w	r1, #2147483648	; 0x80000000
  4059b0:	ea4f 3101 	mov.w	r1, r1, lsl #12
  4059b4:	f44f 1c80 	mov.w	ip, #1048576	; 0x100000
  4059b8:	ea4c 3111 	orr.w	r1, ip, r1, lsr #12
  4059bc:	d002      	beq.n	4059c4 <__adddf3+0x70>
  4059be:	4240      	negs	r0, r0
  4059c0:	eb61 0141 	sbc.w	r1, r1, r1, lsl #1
  4059c4:	f013 4f00 	tst.w	r3, #2147483648	; 0x80000000
  4059c8:	ea4f 3303 	mov.w	r3, r3, lsl #12
  4059cc:	ea4c 3313 	orr.w	r3, ip, r3, lsr #12
  4059d0:	d002      	beq.n	4059d8 <__adddf3+0x84>
  4059d2:	4252      	negs	r2, r2
  4059d4:	eb63 0343 	sbc.w	r3, r3, r3, lsl #1
  4059d8:	ea94 0f05 	teq	r4, r5
  4059dc:	f000 80a7 	beq.w	405b2e <__adddf3+0x1da>
  4059e0:	f1a4 0401 	sub.w	r4, r4, #1
  4059e4:	f1d5 0e20 	rsbs	lr, r5, #32
  4059e8:	db0d      	blt.n	405a06 <__adddf3+0xb2>
  4059ea:	fa02 fc0e 	lsl.w	ip, r2, lr
  4059ee:	fa22 f205 	lsr.w	r2, r2, r5
  4059f2:	1880      	adds	r0, r0, r2
  4059f4:	f141 0100 	adc.w	r1, r1, #0
  4059f8:	fa03 f20e 	lsl.w	r2, r3, lr
  4059fc:	1880      	adds	r0, r0, r2
  4059fe:	fa43 f305 	asr.w	r3, r3, r5
  405a02:	4159      	adcs	r1, r3
  405a04:	e00e      	b.n	405a24 <__adddf3+0xd0>
  405a06:	f1a5 0520 	sub.w	r5, r5, #32
  405a0a:	f10e 0e20 	add.w	lr, lr, #32
  405a0e:	2a01      	cmp	r2, #1
  405a10:	fa03 fc0e 	lsl.w	ip, r3, lr
  405a14:	bf28      	it	cs
  405a16:	f04c 0c02 	orrcs.w	ip, ip, #2
  405a1a:	fa43 f305 	asr.w	r3, r3, r5
  405a1e:	18c0      	adds	r0, r0, r3
  405a20:	eb51 71e3 	adcs.w	r1, r1, r3, asr #31
  405a24:	f001 4500 	and.w	r5, r1, #2147483648	; 0x80000000
  405a28:	d507      	bpl.n	405a3a <__adddf3+0xe6>
  405a2a:	f04f 0e00 	mov.w	lr, #0
  405a2e:	f1dc 0c00 	rsbs	ip, ip, #0
  405a32:	eb7e 0000 	sbcs.w	r0, lr, r0
  405a36:	eb6e 0101 	sbc.w	r1, lr, r1
  405a3a:	f5b1 1f80 	cmp.w	r1, #1048576	; 0x100000
  405a3e:	d31b      	bcc.n	405a78 <__adddf3+0x124>
  405a40:	f5b1 1f00 	cmp.w	r1, #2097152	; 0x200000
  405a44:	d30c      	bcc.n	405a60 <__adddf3+0x10c>
  405a46:	0849      	lsrs	r1, r1, #1
  405a48:	ea5f 0030 	movs.w	r0, r0, rrx
  405a4c:	ea4f 0c3c 	mov.w	ip, ip, rrx
  405a50:	f104 0401 	add.w	r4, r4, #1
  405a54:	ea4f 5244 	mov.w	r2, r4, lsl #21
  405a58:	f512 0f80 	cmn.w	r2, #4194304	; 0x400000
  405a5c:	f080 809a 	bcs.w	405b94 <__adddf3+0x240>
  405a60:	f1bc 4f00 	cmp.w	ip, #2147483648	; 0x80000000
  405a64:	bf08      	it	eq
  405a66:	ea5f 0c50 	movseq.w	ip, r0, lsr #1
  405a6a:	f150 0000 	adcs.w	r0, r0, #0
  405a6e:	eb41 5104 	adc.w	r1, r1, r4, lsl #20
  405a72:	ea41 0105 	orr.w	r1, r1, r5
  405a76:	bd30      	pop	{r4, r5, pc}
  405a78:	ea5f 0c4c 	movs.w	ip, ip, lsl #1
  405a7c:	4140      	adcs	r0, r0
  405a7e:	eb41 0101 	adc.w	r1, r1, r1
  405a82:	f411 1f80 	tst.w	r1, #1048576	; 0x100000
  405a86:	f1a4 0401 	sub.w	r4, r4, #1
  405a8a:	d1e9      	bne.n	405a60 <__adddf3+0x10c>
  405a8c:	f091 0f00 	teq	r1, #0
  405a90:	bf04      	itt	eq
  405a92:	4601      	moveq	r1, r0
  405a94:	2000      	moveq	r0, #0
  405a96:	fab1 f381 	clz	r3, r1
  405a9a:	bf08      	it	eq
  405a9c:	3320      	addeq	r3, #32
  405a9e:	f1a3 030b 	sub.w	r3, r3, #11
  405aa2:	f1b3 0220 	subs.w	r2, r3, #32
  405aa6:	da0c      	bge.n	405ac2 <__adddf3+0x16e>
  405aa8:	320c      	adds	r2, #12
  405aaa:	dd08      	ble.n	405abe <__adddf3+0x16a>
  405aac:	f102 0c14 	add.w	ip, r2, #20
  405ab0:	f1c2 020c 	rsb	r2, r2, #12
  405ab4:	fa01 f00c 	lsl.w	r0, r1, ip
  405ab8:	fa21 f102 	lsr.w	r1, r1, r2
  405abc:	e00c      	b.n	405ad8 <__adddf3+0x184>
  405abe:	f102 0214 	add.w	r2, r2, #20
  405ac2:	bfd8      	it	le
  405ac4:	f1c2 0c20 	rsble	ip, r2, #32
  405ac8:	fa01 f102 	lsl.w	r1, r1, r2
  405acc:	fa20 fc0c 	lsr.w	ip, r0, ip
  405ad0:	bfdc      	itt	le
  405ad2:	ea41 010c 	orrle.w	r1, r1, ip
  405ad6:	4090      	lslle	r0, r2
  405ad8:	1ae4      	subs	r4, r4, r3
  405ada:	bfa2      	ittt	ge
  405adc:	eb01 5104 	addge.w	r1, r1, r4, lsl #20
  405ae0:	4329      	orrge	r1, r5
  405ae2:	bd30      	popge	{r4, r5, pc}
  405ae4:	ea6f 0404 	mvn.w	r4, r4
  405ae8:	3c1f      	subs	r4, #31
  405aea:	da1c      	bge.n	405b26 <__adddf3+0x1d2>
  405aec:	340c      	adds	r4, #12
  405aee:	dc0e      	bgt.n	405b0e <__adddf3+0x1ba>
  405af0:	f104 0414 	add.w	r4, r4, #20
  405af4:	f1c4 0220 	rsb	r2, r4, #32
  405af8:	fa20 f004 	lsr.w	r0, r0, r4
  405afc:	fa01 f302 	lsl.w	r3, r1, r2
  405b00:	ea40 0003 	orr.w	r0, r0, r3
  405b04:	fa21 f304 	lsr.w	r3, r1, r4
  405b08:	ea45 0103 	orr.w	r1, r5, r3
  405b0c:	bd30      	pop	{r4, r5, pc}
  405b0e:	f1c4 040c 	rsb	r4, r4, #12
  405b12:	f1c4 0220 	rsb	r2, r4, #32
  405b16:	fa20 f002 	lsr.w	r0, r0, r2
  405b1a:	fa01 f304 	lsl.w	r3, r1, r4
  405b1e:	ea40 0003 	orr.w	r0, r0, r3
  405b22:	4629      	mov	r1, r5
  405b24:	bd30      	pop	{r4, r5, pc}
  405b26:	fa21 f004 	lsr.w	r0, r1, r4
  405b2a:	4629      	mov	r1, r5
  405b2c:	bd30      	pop	{r4, r5, pc}
  405b2e:	f094 0f00 	teq	r4, #0
  405b32:	f483 1380 	eor.w	r3, r3, #1048576	; 0x100000
  405b36:	bf06      	itte	eq
  405b38:	f481 1180 	eoreq.w	r1, r1, #1048576	; 0x100000
  405b3c:	3401      	addeq	r4, #1
  405b3e:	3d01      	subne	r5, #1
  405b40:	e74e      	b.n	4059e0 <__adddf3+0x8c>
  405b42:	ea7f 5c64 	mvns.w	ip, r4, asr #21
  405b46:	bf18      	it	ne
  405b48:	ea7f 5c65 	mvnsne.w	ip, r5, asr #21
  405b4c:	d029      	beq.n	405ba2 <__adddf3+0x24e>
  405b4e:	ea94 0f05 	teq	r4, r5
  405b52:	bf08      	it	eq
  405b54:	ea90 0f02 	teqeq	r0, r2
  405b58:	d005      	beq.n	405b66 <__adddf3+0x212>
  405b5a:	ea54 0c00 	orrs.w	ip, r4, r0
  405b5e:	bf04      	itt	eq
  405b60:	4619      	moveq	r1, r3
  405b62:	4610      	moveq	r0, r2
  405b64:	bd30      	pop	{r4, r5, pc}
  405b66:	ea91 0f03 	teq	r1, r3
  405b6a:	bf1e      	ittt	ne
  405b6c:	2100      	movne	r1, #0
  405b6e:	2000      	movne	r0, #0
  405b70:	bd30      	popne	{r4, r5, pc}
  405b72:	ea5f 5c54 	movs.w	ip, r4, lsr #21
  405b76:	d105      	bne.n	405b84 <__adddf3+0x230>
  405b78:	0040      	lsls	r0, r0, #1
  405b7a:	4149      	adcs	r1, r1
  405b7c:	bf28      	it	cs
  405b7e:	f041 4100 	orrcs.w	r1, r1, #2147483648	; 0x80000000
  405b82:	bd30      	pop	{r4, r5, pc}
  405b84:	f514 0480 	adds.w	r4, r4, #4194304	; 0x400000
  405b88:	bf3c      	itt	cc
  405b8a:	f501 1180 	addcc.w	r1, r1, #1048576	; 0x100000
  405b8e:	bd30      	popcc	{r4, r5, pc}
  405b90:	f001 4500 	and.w	r5, r1, #2147483648	; 0x80000000
  405b94:	f045 41fe 	orr.w	r1, r5, #2130706432	; 0x7f000000
  405b98:	f441 0170 	orr.w	r1, r1, #15728640	; 0xf00000
  405b9c:	f04f 0000 	mov.w	r0, #0
  405ba0:	bd30      	pop	{r4, r5, pc}
  405ba2:	ea7f 5c64 	mvns.w	ip, r4, asr #21
  405ba6:	bf1a      	itte	ne
  405ba8:	4619      	movne	r1, r3
  405baa:	4610      	movne	r0, r2
  405bac:	ea7f 5c65 	mvnseq.w	ip, r5, asr #21
  405bb0:	bf1c      	itt	ne
  405bb2:	460b      	movne	r3, r1
  405bb4:	4602      	movne	r2, r0
  405bb6:	ea50 3401 	orrs.w	r4, r0, r1, lsl #12
  405bba:	bf06      	itte	eq
  405bbc:	ea52 3503 	orrseq.w	r5, r2, r3, lsl #12
  405bc0:	ea91 0f03 	teqeq	r1, r3
  405bc4:	f441 2100 	orrne.w	r1, r1, #524288	; 0x80000
  405bc8:	bd30      	pop	{r4, r5, pc}
  405bca:	bf00      	nop

00405bcc <__aeabi_ui2d>:
  405bcc:	f090 0f00 	teq	r0, #0
  405bd0:	bf04      	itt	eq
  405bd2:	2100      	moveq	r1, #0
  405bd4:	4770      	bxeq	lr
  405bd6:	b530      	push	{r4, r5, lr}
  405bd8:	f44f 6480 	mov.w	r4, #1024	; 0x400
  405bdc:	f104 0432 	add.w	r4, r4, #50	; 0x32
  405be0:	f04f 0500 	mov.w	r5, #0
  405be4:	f04f 0100 	mov.w	r1, #0
  405be8:	e750      	b.n	405a8c <__adddf3+0x138>
  405bea:	bf00      	nop

00405bec <__aeabi_i2d>:
  405bec:	f090 0f00 	teq	r0, #0
  405bf0:	bf04      	itt	eq
  405bf2:	2100      	moveq	r1, #0
  405bf4:	4770      	bxeq	lr
  405bf6:	b530      	push	{r4, r5, lr}
  405bf8:	f44f 6480 	mov.w	r4, #1024	; 0x400
  405bfc:	f104 0432 	add.w	r4, r4, #50	; 0x32
  405c00:	f010 4500 	ands.w	r5, r0, #2147483648	; 0x80000000
  405c04:	bf48      	it	mi
  405c06:	4240      	negmi	r0, r0
  405c08:	f04f 0100 	mov.w	r1, #0
  405c0c:	e73e      	b.n	405a8c <__adddf3+0x138>
  405c0e:	bf00      	nop

00405c10 <__aeabi_f2d>:
  405c10:	0042      	lsls	r2, r0, #1
  405c12:	ea4f 01e2 	mov.w	r1, r2, asr #3
  405c16:	ea4f 0131 	mov.w	r1, r1, rrx
  405c1a:	ea4f 7002 	mov.w	r0, r2, lsl #28
  405c1e:	bf1f      	itttt	ne
  405c20:	f012 437f 	andsne.w	r3, r2, #4278190080	; 0xff000000
  405c24:	f093 4f7f 	teqne	r3, #4278190080	; 0xff000000
  405c28:	f081 5160 	eorne.w	r1, r1, #939524096	; 0x38000000
  405c2c:	4770      	bxne	lr
  405c2e:	f092 0f00 	teq	r2, #0
  405c32:	bf14      	ite	ne
  405c34:	f093 4f7f 	teqne	r3, #4278190080	; 0xff000000
  405c38:	4770      	bxeq	lr
  405c3a:	b530      	push	{r4, r5, lr}
  405c3c:	f44f 7460 	mov.w	r4, #896	; 0x380
  405c40:	f001 4500 	and.w	r5, r1, #2147483648	; 0x80000000
  405c44:	f021 4100 	bic.w	r1, r1, #2147483648	; 0x80000000
  405c48:	e720      	b.n	405a8c <__adddf3+0x138>
  405c4a:	bf00      	nop

00405c4c <__aeabi_ul2d>:
  405c4c:	ea50 0201 	orrs.w	r2, r0, r1
  405c50:	bf08      	it	eq
  405c52:	4770      	bxeq	lr
  405c54:	b530      	push	{r4, r5, lr}
  405c56:	f04f 0500 	mov.w	r5, #0
  405c5a:	e00a      	b.n	405c72 <__aeabi_l2d+0x16>

00405c5c <__aeabi_l2d>:
  405c5c:	ea50 0201 	orrs.w	r2, r0, r1
  405c60:	bf08      	it	eq
  405c62:	4770      	bxeq	lr
  405c64:	b530      	push	{r4, r5, lr}
  405c66:	f011 4500 	ands.w	r5, r1, #2147483648	; 0x80000000
  405c6a:	d502      	bpl.n	405c72 <__aeabi_l2d+0x16>
  405c6c:	4240      	negs	r0, r0
  405c6e:	eb61 0141 	sbc.w	r1, r1, r1, lsl #1
  405c72:	f44f 6480 	mov.w	r4, #1024	; 0x400
  405c76:	f104 0432 	add.w	r4, r4, #50	; 0x32
  405c7a:	ea5f 5c91 	movs.w	ip, r1, lsr #22
  405c7e:	f43f aedc 	beq.w	405a3a <__adddf3+0xe6>
  405c82:	f04f 0203 	mov.w	r2, #3
  405c86:	ea5f 0cdc 	movs.w	ip, ip, lsr #3
  405c8a:	bf18      	it	ne
  405c8c:	3203      	addne	r2, #3
  405c8e:	ea5f 0cdc 	movs.w	ip, ip, lsr #3
  405c92:	bf18      	it	ne
  405c94:	3203      	addne	r2, #3
  405c96:	eb02 02dc 	add.w	r2, r2, ip, lsr #3
  405c9a:	f1c2 0320 	rsb	r3, r2, #32
  405c9e:	fa00 fc03 	lsl.w	ip, r0, r3
  405ca2:	fa20 f002 	lsr.w	r0, r0, r2
  405ca6:	fa01 fe03 	lsl.w	lr, r1, r3
  405caa:	ea40 000e 	orr.w	r0, r0, lr
  405cae:	fa21 f102 	lsr.w	r1, r1, r2
  405cb2:	4414      	add	r4, r2
  405cb4:	e6c1      	b.n	405a3a <__adddf3+0xe6>
  405cb6:	bf00      	nop

00405cb8 <__aeabi_dmul>:
  405cb8:	b570      	push	{r4, r5, r6, lr}
  405cba:	f04f 0cff 	mov.w	ip, #255	; 0xff
  405cbe:	f44c 6ce0 	orr.w	ip, ip, #1792	; 0x700
  405cc2:	ea1c 5411 	ands.w	r4, ip, r1, lsr #20
  405cc6:	bf1d      	ittte	ne
  405cc8:	ea1c 5513 	andsne.w	r5, ip, r3, lsr #20
  405ccc:	ea94 0f0c 	teqne	r4, ip
  405cd0:	ea95 0f0c 	teqne	r5, ip
  405cd4:	f000 f8de 	bleq	405e94 <__aeabi_dmul+0x1dc>
  405cd8:	442c      	add	r4, r5
  405cda:	ea81 0603 	eor.w	r6, r1, r3
  405cde:	ea21 514c 	bic.w	r1, r1, ip, lsl #21
  405ce2:	ea23 534c 	bic.w	r3, r3, ip, lsl #21
  405ce6:	ea50 3501 	orrs.w	r5, r0, r1, lsl #12
  405cea:	bf18      	it	ne
  405cec:	ea52 3503 	orrsne.w	r5, r2, r3, lsl #12
  405cf0:	f441 1180 	orr.w	r1, r1, #1048576	; 0x100000
  405cf4:	f443 1380 	orr.w	r3, r3, #1048576	; 0x100000
  405cf8:	d038      	beq.n	405d6c <__aeabi_dmul+0xb4>
  405cfa:	fba0 ce02 	umull	ip, lr, r0, r2
  405cfe:	f04f 0500 	mov.w	r5, #0
  405d02:	fbe1 e502 	umlal	lr, r5, r1, r2
  405d06:	f006 4200 	and.w	r2, r6, #2147483648	; 0x80000000
  405d0a:	fbe0 e503 	umlal	lr, r5, r0, r3
  405d0e:	f04f 0600 	mov.w	r6, #0
  405d12:	fbe1 5603 	umlal	r5, r6, r1, r3
  405d16:	f09c 0f00 	teq	ip, #0
  405d1a:	bf18      	it	ne
  405d1c:	f04e 0e01 	orrne.w	lr, lr, #1
  405d20:	f1a4 04ff 	sub.w	r4, r4, #255	; 0xff
  405d24:	f5b6 7f00 	cmp.w	r6, #512	; 0x200
  405d28:	f564 7440 	sbc.w	r4, r4, #768	; 0x300
  405d2c:	d204      	bcs.n	405d38 <__aeabi_dmul+0x80>
  405d2e:	ea5f 0e4e 	movs.w	lr, lr, lsl #1
  405d32:	416d      	adcs	r5, r5
  405d34:	eb46 0606 	adc.w	r6, r6, r6
  405d38:	ea42 21c6 	orr.w	r1, r2, r6, lsl #11
  405d3c:	ea41 5155 	orr.w	r1, r1, r5, lsr #21
  405d40:	ea4f 20c5 	mov.w	r0, r5, lsl #11
  405d44:	ea40 505e 	orr.w	r0, r0, lr, lsr #21
  405d48:	ea4f 2ece 	mov.w	lr, lr, lsl #11
  405d4c:	f1b4 0cfd 	subs.w	ip, r4, #253	; 0xfd
  405d50:	bf88      	it	hi
  405d52:	f5bc 6fe0 	cmphi.w	ip, #1792	; 0x700
  405d56:	d81e      	bhi.n	405d96 <__aeabi_dmul+0xde>
  405d58:	f1be 4f00 	cmp.w	lr, #2147483648	; 0x80000000
  405d5c:	bf08      	it	eq
  405d5e:	ea5f 0e50 	movseq.w	lr, r0, lsr #1
  405d62:	f150 0000 	adcs.w	r0, r0, #0
  405d66:	eb41 5104 	adc.w	r1, r1, r4, lsl #20
  405d6a:	bd70      	pop	{r4, r5, r6, pc}
  405d6c:	f006 4600 	and.w	r6, r6, #2147483648	; 0x80000000
  405d70:	ea46 0101 	orr.w	r1, r6, r1
  405d74:	ea40 0002 	orr.w	r0, r0, r2
  405d78:	ea81 0103 	eor.w	r1, r1, r3
  405d7c:	ebb4 045c 	subs.w	r4, r4, ip, lsr #1
  405d80:	bfc2      	ittt	gt
  405d82:	ebd4 050c 	rsbsgt	r5, r4, ip
  405d86:	ea41 5104 	orrgt.w	r1, r1, r4, lsl #20
  405d8a:	bd70      	popgt	{r4, r5, r6, pc}
  405d8c:	f441 1180 	orr.w	r1, r1, #1048576	; 0x100000
  405d90:	f04f 0e00 	mov.w	lr, #0
  405d94:	3c01      	subs	r4, #1
  405d96:	f300 80ab 	bgt.w	405ef0 <__aeabi_dmul+0x238>
  405d9a:	f114 0f36 	cmn.w	r4, #54	; 0x36
  405d9e:	bfde      	ittt	le
  405da0:	2000      	movle	r0, #0
  405da2:	f001 4100 	andle.w	r1, r1, #2147483648	; 0x80000000
  405da6:	bd70      	pople	{r4, r5, r6, pc}
  405da8:	f1c4 0400 	rsb	r4, r4, #0
  405dac:	3c20      	subs	r4, #32
  405dae:	da35      	bge.n	405e1c <__aeabi_dmul+0x164>
  405db0:	340c      	adds	r4, #12
  405db2:	dc1b      	bgt.n	405dec <__aeabi_dmul+0x134>
  405db4:	f104 0414 	add.w	r4, r4, #20
  405db8:	f1c4 0520 	rsb	r5, r4, #32
  405dbc:	fa00 f305 	lsl.w	r3, r0, r5
  405dc0:	fa20 f004 	lsr.w	r0, r0, r4
  405dc4:	fa01 f205 	lsl.w	r2, r1, r5
  405dc8:	ea40 0002 	orr.w	r0, r0, r2
  405dcc:	f001 4200 	and.w	r2, r1, #2147483648	; 0x80000000
  405dd0:	f021 4100 	bic.w	r1, r1, #2147483648	; 0x80000000
  405dd4:	eb10 70d3 	adds.w	r0, r0, r3, lsr #31
  405dd8:	fa21 f604 	lsr.w	r6, r1, r4
  405ddc:	eb42 0106 	adc.w	r1, r2, r6
  405de0:	ea5e 0e43 	orrs.w	lr, lr, r3, lsl #1
  405de4:	bf08      	it	eq
  405de6:	ea20 70d3 	biceq.w	r0, r0, r3, lsr #31
  405dea:	bd70      	pop	{r4, r5, r6, pc}
  405dec:	f1c4 040c 	rsb	r4, r4, #12
  405df0:	f1c4 0520 	rsb	r5, r4, #32
  405df4:	fa00 f304 	lsl.w	r3, r0, r4
  405df8:	fa20 f005 	lsr.w	r0, r0, r5
  405dfc:	fa01 f204 	lsl.w	r2, r1, r4
  405e00:	ea40 0002 	orr.w	r0, r0, r2
  405e04:	f001 4100 	and.w	r1, r1, #2147483648	; 0x80000000
  405e08:	eb10 70d3 	adds.w	r0, r0, r3, lsr #31
  405e0c:	f141 0100 	adc.w	r1, r1, #0
  405e10:	ea5e 0e43 	orrs.w	lr, lr, r3, lsl #1
  405e14:	bf08      	it	eq
  405e16:	ea20 70d3 	biceq.w	r0, r0, r3, lsr #31
  405e1a:	bd70      	pop	{r4, r5, r6, pc}
  405e1c:	f1c4 0520 	rsb	r5, r4, #32
  405e20:	fa00 f205 	lsl.w	r2, r0, r5
  405e24:	ea4e 0e02 	orr.w	lr, lr, r2
  405e28:	fa20 f304 	lsr.w	r3, r0, r4
  405e2c:	fa01 f205 	lsl.w	r2, r1, r5
  405e30:	ea43 0302 	orr.w	r3, r3, r2
  405e34:	fa21 f004 	lsr.w	r0, r1, r4
  405e38:	f001 4100 	and.w	r1, r1, #2147483648	; 0x80000000
  405e3c:	fa21 f204 	lsr.w	r2, r1, r4
  405e40:	ea20 0002 	bic.w	r0, r0, r2
  405e44:	eb00 70d3 	add.w	r0, r0, r3, lsr #31
  405e48:	ea5e 0e43 	orrs.w	lr, lr, r3, lsl #1
  405e4c:	bf08      	it	eq
  405e4e:	ea20 70d3 	biceq.w	r0, r0, r3, lsr #31
  405e52:	bd70      	pop	{r4, r5, r6, pc}
  405e54:	f094 0f00 	teq	r4, #0
  405e58:	d10f      	bne.n	405e7a <__aeabi_dmul+0x1c2>
  405e5a:	f001 4600 	and.w	r6, r1, #2147483648	; 0x80000000
  405e5e:	0040      	lsls	r0, r0, #1
  405e60:	eb41 0101 	adc.w	r1, r1, r1
  405e64:	f411 1f80 	tst.w	r1, #1048576	; 0x100000
  405e68:	bf08      	it	eq
  405e6a:	3c01      	subeq	r4, #1
  405e6c:	d0f7      	beq.n	405e5e <__aeabi_dmul+0x1a6>
  405e6e:	ea41 0106 	orr.w	r1, r1, r6
  405e72:	f095 0f00 	teq	r5, #0
  405e76:	bf18      	it	ne
  405e78:	4770      	bxne	lr
  405e7a:	f003 4600 	and.w	r6, r3, #2147483648	; 0x80000000
  405e7e:	0052      	lsls	r2, r2, #1
  405e80:	eb43 0303 	adc.w	r3, r3, r3
  405e84:	f413 1f80 	tst.w	r3, #1048576	; 0x100000
  405e88:	bf08      	it	eq
  405e8a:	3d01      	subeq	r5, #1
  405e8c:	d0f7      	beq.n	405e7e <__aeabi_dmul+0x1c6>
  405e8e:	ea43 0306 	orr.w	r3, r3, r6
  405e92:	4770      	bx	lr
  405e94:	ea94 0f0c 	teq	r4, ip
  405e98:	ea0c 5513 	and.w	r5, ip, r3, lsr #20
  405e9c:	bf18      	it	ne
  405e9e:	ea95 0f0c 	teqne	r5, ip
  405ea2:	d00c      	beq.n	405ebe <__aeabi_dmul+0x206>
  405ea4:	ea50 0641 	orrs.w	r6, r0, r1, lsl #1
  405ea8:	bf18      	it	ne
  405eaa:	ea52 0643 	orrsne.w	r6, r2, r3, lsl #1
  405eae:	d1d1      	bne.n	405e54 <__aeabi_dmul+0x19c>
  405eb0:	ea81 0103 	eor.w	r1, r1, r3
  405eb4:	f001 4100 	and.w	r1, r1, #2147483648	; 0x80000000
  405eb8:	f04f 0000 	mov.w	r0, #0
  405ebc:	bd70      	pop	{r4, r5, r6, pc}
  405ebe:	ea50 0641 	orrs.w	r6, r0, r1, lsl #1
  405ec2:	bf06      	itte	eq
  405ec4:	4610      	moveq	r0, r2
  405ec6:	4619      	moveq	r1, r3
  405ec8:	ea52 0643 	orrsne.w	r6, r2, r3, lsl #1
  405ecc:	d019      	beq.n	405f02 <__aeabi_dmul+0x24a>
  405ece:	ea94 0f0c 	teq	r4, ip
  405ed2:	d102      	bne.n	405eda <__aeabi_dmul+0x222>
  405ed4:	ea50 3601 	orrs.w	r6, r0, r1, lsl #12
  405ed8:	d113      	bne.n	405f02 <__aeabi_dmul+0x24a>
  405eda:	ea95 0f0c 	teq	r5, ip
  405ede:	d105      	bne.n	405eec <__aeabi_dmul+0x234>
  405ee0:	ea52 3603 	orrs.w	r6, r2, r3, lsl #12
  405ee4:	bf1c      	itt	ne
  405ee6:	4610      	movne	r0, r2
  405ee8:	4619      	movne	r1, r3
  405eea:	d10a      	bne.n	405f02 <__aeabi_dmul+0x24a>
  405eec:	ea81 0103 	eor.w	r1, r1, r3
  405ef0:	f001 4100 	and.w	r1, r1, #2147483648	; 0x80000000
  405ef4:	f041 41fe 	orr.w	r1, r1, #2130706432	; 0x7f000000
  405ef8:	f441 0170 	orr.w	r1, r1, #15728640	; 0xf00000
  405efc:	f04f 0000 	mov.w	r0, #0
  405f00:	bd70      	pop	{r4, r5, r6, pc}
  405f02:	f041 41fe 	orr.w	r1, r1, #2130706432	; 0x7f000000
  405f06:	f441 0178 	orr.w	r1, r1, #16252928	; 0xf80000
  405f0a:	bd70      	pop	{r4, r5, r6, pc}

00405f0c <__aeabi_ddiv>:
  405f0c:	b570      	push	{r4, r5, r6, lr}
  405f0e:	f04f 0cff 	mov.w	ip, #255	; 0xff
  405f12:	f44c 6ce0 	orr.w	ip, ip, #1792	; 0x700
  405f16:	ea1c 5411 	ands.w	r4, ip, r1, lsr #20
  405f1a:	bf1d      	ittte	ne
  405f1c:	ea1c 5513 	andsne.w	r5, ip, r3, lsr #20
  405f20:	ea94 0f0c 	teqne	r4, ip
  405f24:	ea95 0f0c 	teqne	r5, ip
  405f28:	f000 f8a7 	bleq	40607a <__aeabi_ddiv+0x16e>
  405f2c:	eba4 0405 	sub.w	r4, r4, r5
  405f30:	ea81 0e03 	eor.w	lr, r1, r3
  405f34:	ea52 3503 	orrs.w	r5, r2, r3, lsl #12
  405f38:	ea4f 3101 	mov.w	r1, r1, lsl #12
  405f3c:	f000 8088 	beq.w	406050 <__aeabi_ddiv+0x144>
  405f40:	ea4f 3303 	mov.w	r3, r3, lsl #12
  405f44:	f04f 5580 	mov.w	r5, #268435456	; 0x10000000
  405f48:	ea45 1313 	orr.w	r3, r5, r3, lsr #4
  405f4c:	ea43 6312 	orr.w	r3, r3, r2, lsr #24
  405f50:	ea4f 2202 	mov.w	r2, r2, lsl #8
  405f54:	ea45 1511 	orr.w	r5, r5, r1, lsr #4
  405f58:	ea45 6510 	orr.w	r5, r5, r0, lsr #24
  405f5c:	ea4f 2600 	mov.w	r6, r0, lsl #8
  405f60:	f00e 4100 	and.w	r1, lr, #2147483648	; 0x80000000
  405f64:	429d      	cmp	r5, r3
  405f66:	bf08      	it	eq
  405f68:	4296      	cmpeq	r6, r2
  405f6a:	f144 04fd 	adc.w	r4, r4, #253	; 0xfd
  405f6e:	f504 7440 	add.w	r4, r4, #768	; 0x300
  405f72:	d202      	bcs.n	405f7a <__aeabi_ddiv+0x6e>
  405f74:	085b      	lsrs	r3, r3, #1
  405f76:	ea4f 0232 	mov.w	r2, r2, rrx
  405f7a:	1ab6      	subs	r6, r6, r2
  405f7c:	eb65 0503 	sbc.w	r5, r5, r3
  405f80:	085b      	lsrs	r3, r3, #1
  405f82:	ea4f 0232 	mov.w	r2, r2, rrx
  405f86:	f44f 1080 	mov.w	r0, #1048576	; 0x100000
  405f8a:	f44f 2c00 	mov.w	ip, #524288	; 0x80000
  405f8e:	ebb6 0e02 	subs.w	lr, r6, r2
  405f92:	eb75 0e03 	sbcs.w	lr, r5, r3
  405f96:	bf22      	ittt	cs
  405f98:	1ab6      	subcs	r6, r6, r2
  405f9a:	4675      	movcs	r5, lr
  405f9c:	ea40 000c 	orrcs.w	r0, r0, ip
  405fa0:	085b      	lsrs	r3, r3, #1
  405fa2:	ea4f 0232 	mov.w	r2, r2, rrx
  405fa6:	ebb6 0e02 	subs.w	lr, r6, r2
  405faa:	eb75 0e03 	sbcs.w	lr, r5, r3
  405fae:	bf22      	ittt	cs
  405fb0:	1ab6      	subcs	r6, r6, r2
  405fb2:	4675      	movcs	r5, lr
  405fb4:	ea40 005c 	orrcs.w	r0, r0, ip, lsr #1
  405fb8:	085b      	lsrs	r3, r3, #1
  405fba:	ea4f 0232 	mov.w	r2, r2, rrx
  405fbe:	ebb6 0e02 	subs.w	lr, r6, r2
  405fc2:	eb75 0e03 	sbcs.w	lr, r5, r3
  405fc6:	bf22      	ittt	cs
  405fc8:	1ab6      	subcs	r6, r6, r2
  405fca:	4675      	movcs	r5, lr
  405fcc:	ea40 009c 	orrcs.w	r0, r0, ip, lsr #2
  405fd0:	085b      	lsrs	r3, r3, #1
  405fd2:	ea4f 0232 	mov.w	r2, r2, rrx
  405fd6:	ebb6 0e02 	subs.w	lr, r6, r2
  405fda:	eb75 0e03 	sbcs.w	lr, r5, r3
  405fde:	bf22      	ittt	cs
  405fe0:	1ab6      	subcs	r6, r6, r2
  405fe2:	4675      	movcs	r5, lr
  405fe4:	ea40 00dc 	orrcs.w	r0, r0, ip, lsr #3
  405fe8:	ea55 0e06 	orrs.w	lr, r5, r6
  405fec:	d018      	beq.n	406020 <__aeabi_ddiv+0x114>
  405fee:	ea4f 1505 	mov.w	r5, r5, lsl #4
  405ff2:	ea45 7516 	orr.w	r5, r5, r6, lsr #28
  405ff6:	ea4f 1606 	mov.w	r6, r6, lsl #4
  405ffa:	ea4f 03c3 	mov.w	r3, r3, lsl #3
  405ffe:	ea43 7352 	orr.w	r3, r3, r2, lsr #29
  406002:	ea4f 02c2 	mov.w	r2, r2, lsl #3
  406006:	ea5f 1c1c 	movs.w	ip, ip, lsr #4
  40600a:	d1c0      	bne.n	405f8e <__aeabi_ddiv+0x82>
  40600c:	f411 1f80 	tst.w	r1, #1048576	; 0x100000
  406010:	d10b      	bne.n	40602a <__aeabi_ddiv+0x11e>
  406012:	ea41 0100 	orr.w	r1, r1, r0
  406016:	f04f 0000 	mov.w	r0, #0
  40601a:	f04f 4c00 	mov.w	ip, #2147483648	; 0x80000000
  40601e:	e7b6      	b.n	405f8e <__aeabi_ddiv+0x82>
  406020:	f411 1f80 	tst.w	r1, #1048576	; 0x100000
  406024:	bf04      	itt	eq
  406026:	4301      	orreq	r1, r0
  406028:	2000      	moveq	r0, #0
  40602a:	f1b4 0cfd 	subs.w	ip, r4, #253	; 0xfd
  40602e:	bf88      	it	hi
  406030:	f5bc 6fe0 	cmphi.w	ip, #1792	; 0x700
  406034:	f63f aeaf 	bhi.w	405d96 <__aeabi_dmul+0xde>
  406038:	ebb5 0c03 	subs.w	ip, r5, r3
  40603c:	bf04      	itt	eq
  40603e:	ebb6 0c02 	subseq.w	ip, r6, r2
  406042:	ea5f 0c50 	movseq.w	ip, r0, lsr #1
  406046:	f150 0000 	adcs.w	r0, r0, #0
  40604a:	eb41 5104 	adc.w	r1, r1, r4, lsl #20
  40604e:	bd70      	pop	{r4, r5, r6, pc}
  406050:	f00e 4e00 	and.w	lr, lr, #2147483648	; 0x80000000
  406054:	ea4e 3111 	orr.w	r1, lr, r1, lsr #12
  406058:	eb14 045c 	adds.w	r4, r4, ip, lsr #1
  40605c:	bfc2      	ittt	gt
  40605e:	ebd4 050c 	rsbsgt	r5, r4, ip
  406062:	ea41 5104 	orrgt.w	r1, r1, r4, lsl #20
  406066:	bd70      	popgt	{r4, r5, r6, pc}
  406068:	f441 1180 	orr.w	r1, r1, #1048576	; 0x100000
  40606c:	f04f 0e00 	mov.w	lr, #0
  406070:	3c01      	subs	r4, #1
  406072:	e690      	b.n	405d96 <__aeabi_dmul+0xde>
  406074:	ea45 0e06 	orr.w	lr, r5, r6
  406078:	e68d      	b.n	405d96 <__aeabi_dmul+0xde>
  40607a:	ea0c 5513 	and.w	r5, ip, r3, lsr #20
  40607e:	ea94 0f0c 	teq	r4, ip
  406082:	bf08      	it	eq
  406084:	ea95 0f0c 	teqeq	r5, ip
  406088:	f43f af3b 	beq.w	405f02 <__aeabi_dmul+0x24a>
  40608c:	ea94 0f0c 	teq	r4, ip
  406090:	d10a      	bne.n	4060a8 <__aeabi_ddiv+0x19c>
  406092:	ea50 3401 	orrs.w	r4, r0, r1, lsl #12
  406096:	f47f af34 	bne.w	405f02 <__aeabi_dmul+0x24a>
  40609a:	ea95 0f0c 	teq	r5, ip
  40609e:	f47f af25 	bne.w	405eec <__aeabi_dmul+0x234>
  4060a2:	4610      	mov	r0, r2
  4060a4:	4619      	mov	r1, r3
  4060a6:	e72c      	b.n	405f02 <__aeabi_dmul+0x24a>
  4060a8:	ea95 0f0c 	teq	r5, ip
  4060ac:	d106      	bne.n	4060bc <__aeabi_ddiv+0x1b0>
  4060ae:	ea52 3503 	orrs.w	r5, r2, r3, lsl #12
  4060b2:	f43f aefd 	beq.w	405eb0 <__aeabi_dmul+0x1f8>
  4060b6:	4610      	mov	r0, r2
  4060b8:	4619      	mov	r1, r3
  4060ba:	e722      	b.n	405f02 <__aeabi_dmul+0x24a>
  4060bc:	ea50 0641 	orrs.w	r6, r0, r1, lsl #1
  4060c0:	bf18      	it	ne
  4060c2:	ea52 0643 	orrsne.w	r6, r2, r3, lsl #1
  4060c6:	f47f aec5 	bne.w	405e54 <__aeabi_dmul+0x19c>
  4060ca:	ea50 0441 	orrs.w	r4, r0, r1, lsl #1
  4060ce:	f47f af0d 	bne.w	405eec <__aeabi_dmul+0x234>
  4060d2:	ea52 0543 	orrs.w	r5, r2, r3, lsl #1
  4060d6:	f47f aeeb 	bne.w	405eb0 <__aeabi_dmul+0x1f8>
  4060da:	e712      	b.n	405f02 <__aeabi_dmul+0x24a>

004060dc <__gedf2>:
  4060dc:	f04f 3cff 	mov.w	ip, #4294967295
  4060e0:	e006      	b.n	4060f0 <__cmpdf2+0x4>
  4060e2:	bf00      	nop

004060e4 <__ledf2>:
  4060e4:	f04f 0c01 	mov.w	ip, #1
  4060e8:	e002      	b.n	4060f0 <__cmpdf2+0x4>
  4060ea:	bf00      	nop

004060ec <__cmpdf2>:
  4060ec:	f04f 0c01 	mov.w	ip, #1
  4060f0:	f84d cd04 	str.w	ip, [sp, #-4]!
  4060f4:	ea4f 0c41 	mov.w	ip, r1, lsl #1
  4060f8:	ea7f 5c6c 	mvns.w	ip, ip, asr #21
  4060fc:	ea4f 0c43 	mov.w	ip, r3, lsl #1
  406100:	bf18      	it	ne
  406102:	ea7f 5c6c 	mvnsne.w	ip, ip, asr #21
  406106:	d01b      	beq.n	406140 <__cmpdf2+0x54>
  406108:	b001      	add	sp, #4
  40610a:	ea50 0c41 	orrs.w	ip, r0, r1, lsl #1
  40610e:	bf0c      	ite	eq
  406110:	ea52 0c43 	orrseq.w	ip, r2, r3, lsl #1
  406114:	ea91 0f03 	teqne	r1, r3
  406118:	bf02      	ittt	eq
  40611a:	ea90 0f02 	teqeq	r0, r2
  40611e:	2000      	moveq	r0, #0
  406120:	4770      	bxeq	lr
  406122:	f110 0f00 	cmn.w	r0, #0
  406126:	ea91 0f03 	teq	r1, r3
  40612a:	bf58      	it	pl
  40612c:	4299      	cmppl	r1, r3
  40612e:	bf08      	it	eq
  406130:	4290      	cmpeq	r0, r2
  406132:	bf2c      	ite	cs
  406134:	17d8      	asrcs	r0, r3, #31
  406136:	ea6f 70e3 	mvncc.w	r0, r3, asr #31
  40613a:	f040 0001 	orr.w	r0, r0, #1
  40613e:	4770      	bx	lr
  406140:	ea4f 0c41 	mov.w	ip, r1, lsl #1
  406144:	ea7f 5c6c 	mvns.w	ip, ip, asr #21
  406148:	d102      	bne.n	406150 <__cmpdf2+0x64>
  40614a:	ea50 3c01 	orrs.w	ip, r0, r1, lsl #12
  40614e:	d107      	bne.n	406160 <__cmpdf2+0x74>
  406150:	ea4f 0c43 	mov.w	ip, r3, lsl #1
  406154:	ea7f 5c6c 	mvns.w	ip, ip, asr #21
  406158:	d1d6      	bne.n	406108 <__cmpdf2+0x1c>
  40615a:	ea52 3c03 	orrs.w	ip, r2, r3, lsl #12
  40615e:	d0d3      	beq.n	406108 <__cmpdf2+0x1c>
  406160:	f85d 0b04 	ldr.w	r0, [sp], #4
  406164:	4770      	bx	lr
  406166:	bf00      	nop

00406168 <__aeabi_cdrcmple>:
  406168:	4684      	mov	ip, r0
  40616a:	4610      	mov	r0, r2
  40616c:	4662      	mov	r2, ip
  40616e:	468c      	mov	ip, r1
  406170:	4619      	mov	r1, r3
  406172:	4663      	mov	r3, ip
  406174:	e000      	b.n	406178 <__aeabi_cdcmpeq>
  406176:	bf00      	nop

00406178 <__aeabi_cdcmpeq>:
  406178:	b501      	push	{r0, lr}
  40617a:	f7ff ffb7 	bl	4060ec <__cmpdf2>
  40617e:	2800      	cmp	r0, #0
  406180:	bf48      	it	mi
  406182:	f110 0f00 	cmnmi.w	r0, #0
  406186:	bd01      	pop	{r0, pc}

00406188 <__aeabi_dcmpeq>:
  406188:	f84d ed08 	str.w	lr, [sp, #-8]!
  40618c:	f7ff fff4 	bl	406178 <__aeabi_cdcmpeq>
  406190:	bf0c      	ite	eq
  406192:	2001      	moveq	r0, #1
  406194:	2000      	movne	r0, #0
  406196:	f85d fb08 	ldr.w	pc, [sp], #8
  40619a:	bf00      	nop

0040619c <__aeabi_dcmplt>:
  40619c:	f84d ed08 	str.w	lr, [sp, #-8]!
  4061a0:	f7ff ffea 	bl	406178 <__aeabi_cdcmpeq>
  4061a4:	bf34      	ite	cc
  4061a6:	2001      	movcc	r0, #1
  4061a8:	2000      	movcs	r0, #0
  4061aa:	f85d fb08 	ldr.w	pc, [sp], #8
  4061ae:	bf00      	nop

004061b0 <__aeabi_dcmple>:
  4061b0:	f84d ed08 	str.w	lr, [sp, #-8]!
  4061b4:	f7ff ffe0 	bl	406178 <__aeabi_cdcmpeq>
  4061b8:	bf94      	ite	ls
  4061ba:	2001      	movls	r0, #1
  4061bc:	2000      	movhi	r0, #0
  4061be:	f85d fb08 	ldr.w	pc, [sp], #8
  4061c2:	bf00      	nop

004061c4 <__aeabi_dcmpge>:
  4061c4:	f84d ed08 	str.w	lr, [sp, #-8]!
  4061c8:	f7ff ffce 	bl	406168 <__aeabi_cdrcmple>
  4061cc:	bf94      	ite	ls
  4061ce:	2001      	movls	r0, #1
  4061d0:	2000      	movhi	r0, #0
  4061d2:	f85d fb08 	ldr.w	pc, [sp], #8
  4061d6:	bf00      	nop

004061d8 <__aeabi_dcmpgt>:
  4061d8:	f84d ed08 	str.w	lr, [sp, #-8]!
  4061dc:	f7ff ffc4 	bl	406168 <__aeabi_cdrcmple>
  4061e0:	bf34      	ite	cc
  4061e2:	2001      	movcc	r0, #1
  4061e4:	2000      	movcs	r0, #0
  4061e6:	f85d fb08 	ldr.w	pc, [sp], #8
  4061ea:	bf00      	nop

004061ec <__aeabi_d2iz>:
  4061ec:	ea4f 0241 	mov.w	r2, r1, lsl #1
  4061f0:	f512 1200 	adds.w	r2, r2, #2097152	; 0x200000
  4061f4:	d215      	bcs.n	406222 <__aeabi_d2iz+0x36>
  4061f6:	d511      	bpl.n	40621c <__aeabi_d2iz+0x30>
  4061f8:	f46f 7378 	mvn.w	r3, #992	; 0x3e0
  4061fc:	ebb3 5262 	subs.w	r2, r3, r2, asr #21
  406200:	d912      	bls.n	406228 <__aeabi_d2iz+0x3c>
  406202:	ea4f 23c1 	mov.w	r3, r1, lsl #11
  406206:	f043 4300 	orr.w	r3, r3, #2147483648	; 0x80000000
  40620a:	ea43 5350 	orr.w	r3, r3, r0, lsr #21
  40620e:	f011 4f00 	tst.w	r1, #2147483648	; 0x80000000
  406212:	fa23 f002 	lsr.w	r0, r3, r2
  406216:	bf18      	it	ne
  406218:	4240      	negne	r0, r0
  40621a:	4770      	bx	lr
  40621c:	f04f 0000 	mov.w	r0, #0
  406220:	4770      	bx	lr
  406222:	ea50 3001 	orrs.w	r0, r0, r1, lsl #12
  406226:	d105      	bne.n	406234 <__aeabi_d2iz+0x48>
  406228:	f011 4000 	ands.w	r0, r1, #2147483648	; 0x80000000
  40622c:	bf08      	it	eq
  40622e:	f06f 4000 	mvneq.w	r0, #2147483648	; 0x80000000
  406232:	4770      	bx	lr
  406234:	f04f 0000 	mov.w	r0, #0
  406238:	4770      	bx	lr
  40623a:	bf00      	nop

0040623c <__aeabi_d2f>:
  40623c:	ea4f 0241 	mov.w	r2, r1, lsl #1
  406240:	f1b2 43e0 	subs.w	r3, r2, #1879048192	; 0x70000000
  406244:	bf24      	itt	cs
  406246:	f5b3 1c00 	subscs.w	ip, r3, #2097152	; 0x200000
  40624a:	f1dc 5cfe 	rsbscs	ip, ip, #532676608	; 0x1fc00000
  40624e:	d90d      	bls.n	40626c <__aeabi_d2f+0x30>
  406250:	f001 4c00 	and.w	ip, r1, #2147483648	; 0x80000000
  406254:	ea4f 02c0 	mov.w	r2, r0, lsl #3
  406258:	ea4c 7050 	orr.w	r0, ip, r0, lsr #29
  40625c:	f1b2 4f00 	cmp.w	r2, #2147483648	; 0x80000000
  406260:	eb40 0083 	adc.w	r0, r0, r3, lsl #2
  406264:	bf08      	it	eq
  406266:	f020 0001 	biceq.w	r0, r0, #1
  40626a:	4770      	bx	lr
  40626c:	f011 4f80 	tst.w	r1, #1073741824	; 0x40000000
  406270:	d121      	bne.n	4062b6 <__aeabi_d2f+0x7a>
  406272:	f113 7238 	adds.w	r2, r3, #48234496	; 0x2e00000
  406276:	bfbc      	itt	lt
  406278:	f001 4000 	andlt.w	r0, r1, #2147483648	; 0x80000000
  40627c:	4770      	bxlt	lr
  40627e:	f441 1180 	orr.w	r1, r1, #1048576	; 0x100000
  406282:	ea4f 5252 	mov.w	r2, r2, lsr #21
  406286:	f1c2 0218 	rsb	r2, r2, #24
  40628a:	f1c2 0c20 	rsb	ip, r2, #32
  40628e:	fa10 f30c 	lsls.w	r3, r0, ip
  406292:	fa20 f002 	lsr.w	r0, r0, r2
  406296:	bf18      	it	ne
  406298:	f040 0001 	orrne.w	r0, r0, #1
  40629c:	ea4f 23c1 	mov.w	r3, r1, lsl #11
  4062a0:	ea4f 23d3 	mov.w	r3, r3, lsr #11
  4062a4:	fa03 fc0c 	lsl.w	ip, r3, ip
  4062a8:	ea40 000c 	orr.w	r0, r0, ip
  4062ac:	fa23 f302 	lsr.w	r3, r3, r2
  4062b0:	ea4f 0343 	mov.w	r3, r3, lsl #1
  4062b4:	e7cc      	b.n	406250 <__aeabi_d2f+0x14>
  4062b6:	ea7f 5362 	mvns.w	r3, r2, asr #21
  4062ba:	d107      	bne.n	4062cc <__aeabi_d2f+0x90>
  4062bc:	ea50 3301 	orrs.w	r3, r0, r1, lsl #12
  4062c0:	bf1e      	ittt	ne
  4062c2:	f04f 40fe 	movne.w	r0, #2130706432	; 0x7f000000
  4062c6:	f440 0040 	orrne.w	r0, r0, #12582912	; 0xc00000
  4062ca:	4770      	bxne	lr
  4062cc:	f001 4000 	and.w	r0, r1, #2147483648	; 0x80000000
  4062d0:	f040 40fe 	orr.w	r0, r0, #2130706432	; 0x7f000000
  4062d4:	f440 0000 	orr.w	r0, r0, #8388608	; 0x800000
  4062d8:	4770      	bx	lr
  4062da:	bf00      	nop

004062dc <__aeabi_frsub>:
  4062dc:	f080 4000 	eor.w	r0, r0, #2147483648	; 0x80000000
  4062e0:	e002      	b.n	4062e8 <__addsf3>
  4062e2:	bf00      	nop

004062e4 <__aeabi_fsub>:
  4062e4:	f081 4100 	eor.w	r1, r1, #2147483648	; 0x80000000

004062e8 <__addsf3>:
  4062e8:	0042      	lsls	r2, r0, #1
  4062ea:	bf1f      	itttt	ne
  4062ec:	ea5f 0341 	movsne.w	r3, r1, lsl #1
  4062f0:	ea92 0f03 	teqne	r2, r3
  4062f4:	ea7f 6c22 	mvnsne.w	ip, r2, asr #24
  4062f8:	ea7f 6c23 	mvnsne.w	ip, r3, asr #24
  4062fc:	d06a      	beq.n	4063d4 <__addsf3+0xec>
  4062fe:	ea4f 6212 	mov.w	r2, r2, lsr #24
  406302:	ebd2 6313 	rsbs	r3, r2, r3, lsr #24
  406306:	bfc1      	itttt	gt
  406308:	18d2      	addgt	r2, r2, r3
  40630a:	4041      	eorgt	r1, r0
  40630c:	4048      	eorgt	r0, r1
  40630e:	4041      	eorgt	r1, r0
  406310:	bfb8      	it	lt
  406312:	425b      	neglt	r3, r3
  406314:	2b19      	cmp	r3, #25
  406316:	bf88      	it	hi
  406318:	4770      	bxhi	lr
  40631a:	f010 4f00 	tst.w	r0, #2147483648	; 0x80000000
  40631e:	f440 0000 	orr.w	r0, r0, #8388608	; 0x800000
  406322:	f020 407f 	bic.w	r0, r0, #4278190080	; 0xff000000
  406326:	bf18      	it	ne
  406328:	4240      	negne	r0, r0
  40632a:	f011 4f00 	tst.w	r1, #2147483648	; 0x80000000
  40632e:	f441 0100 	orr.w	r1, r1, #8388608	; 0x800000
  406332:	f021 417f 	bic.w	r1, r1, #4278190080	; 0xff000000
  406336:	bf18      	it	ne
  406338:	4249      	negne	r1, r1
  40633a:	ea92 0f03 	teq	r2, r3
  40633e:	d03f      	beq.n	4063c0 <__addsf3+0xd8>
  406340:	f1a2 0201 	sub.w	r2, r2, #1
  406344:	fa41 fc03 	asr.w	ip, r1, r3
  406348:	eb10 000c 	adds.w	r0, r0, ip
  40634c:	f1c3 0320 	rsb	r3, r3, #32
  406350:	fa01 f103 	lsl.w	r1, r1, r3
  406354:	f000 4300 	and.w	r3, r0, #2147483648	; 0x80000000
  406358:	d502      	bpl.n	406360 <__addsf3+0x78>
  40635a:	4249      	negs	r1, r1
  40635c:	eb60 0040 	sbc.w	r0, r0, r0, lsl #1
  406360:	f5b0 0f00 	cmp.w	r0, #8388608	; 0x800000
  406364:	d313      	bcc.n	40638e <__addsf3+0xa6>
  406366:	f1b0 7f80 	cmp.w	r0, #16777216	; 0x1000000
  40636a:	d306      	bcc.n	40637a <__addsf3+0x92>
  40636c:	0840      	lsrs	r0, r0, #1
  40636e:	ea4f 0131 	mov.w	r1, r1, rrx
  406372:	f102 0201 	add.w	r2, r2, #1
  406376:	2afe      	cmp	r2, #254	; 0xfe
  406378:	d251      	bcs.n	40641e <__addsf3+0x136>
  40637a:	f1b1 4f00 	cmp.w	r1, #2147483648	; 0x80000000
  40637e:	eb40 50c2 	adc.w	r0, r0, r2, lsl #23
  406382:	bf08      	it	eq
  406384:	f020 0001 	biceq.w	r0, r0, #1
  406388:	ea40 0003 	orr.w	r0, r0, r3
  40638c:	4770      	bx	lr
  40638e:	0049      	lsls	r1, r1, #1
  406390:	eb40 0000 	adc.w	r0, r0, r0
  406394:	f410 0f00 	tst.w	r0, #8388608	; 0x800000
  406398:	f1a2 0201 	sub.w	r2, r2, #1
  40639c:	d1ed      	bne.n	40637a <__addsf3+0x92>
  40639e:	fab0 fc80 	clz	ip, r0
  4063a2:	f1ac 0c08 	sub.w	ip, ip, #8
  4063a6:	ebb2 020c 	subs.w	r2, r2, ip
  4063aa:	fa00 f00c 	lsl.w	r0, r0, ip
  4063ae:	bfaa      	itet	ge
  4063b0:	eb00 50c2 	addge.w	r0, r0, r2, lsl #23
  4063b4:	4252      	neglt	r2, r2
  4063b6:	4318      	orrge	r0, r3
  4063b8:	bfbc      	itt	lt
  4063ba:	40d0      	lsrlt	r0, r2
  4063bc:	4318      	orrlt	r0, r3
  4063be:	4770      	bx	lr
  4063c0:	f092 0f00 	teq	r2, #0
  4063c4:	f481 0100 	eor.w	r1, r1, #8388608	; 0x800000
  4063c8:	bf06      	itte	eq
  4063ca:	f480 0000 	eoreq.w	r0, r0, #8388608	; 0x800000
  4063ce:	3201      	addeq	r2, #1
  4063d0:	3b01      	subne	r3, #1
  4063d2:	e7b5      	b.n	406340 <__addsf3+0x58>
  4063d4:	ea4f 0341 	mov.w	r3, r1, lsl #1
  4063d8:	ea7f 6c22 	mvns.w	ip, r2, asr #24
  4063dc:	bf18      	it	ne
  4063de:	ea7f 6c23 	mvnsne.w	ip, r3, asr #24
  4063e2:	d021      	beq.n	406428 <__addsf3+0x140>
  4063e4:	ea92 0f03 	teq	r2, r3
  4063e8:	d004      	beq.n	4063f4 <__addsf3+0x10c>
  4063ea:	f092 0f00 	teq	r2, #0
  4063ee:	bf08      	it	eq
  4063f0:	4608      	moveq	r0, r1
  4063f2:	4770      	bx	lr
  4063f4:	ea90 0f01 	teq	r0, r1
  4063f8:	bf1c      	itt	ne
  4063fa:	2000      	movne	r0, #0
  4063fc:	4770      	bxne	lr
  4063fe:	f012 4f7f 	tst.w	r2, #4278190080	; 0xff000000
  406402:	d104      	bne.n	40640e <__addsf3+0x126>
  406404:	0040      	lsls	r0, r0, #1
  406406:	bf28      	it	cs
  406408:	f040 4000 	orrcs.w	r0, r0, #2147483648	; 0x80000000
  40640c:	4770      	bx	lr
  40640e:	f112 7200 	adds.w	r2, r2, #33554432	; 0x2000000
  406412:	bf3c      	itt	cc
  406414:	f500 0000 	addcc.w	r0, r0, #8388608	; 0x800000
  406418:	4770      	bxcc	lr
  40641a:	f000 4300 	and.w	r3, r0, #2147483648	; 0x80000000
  40641e:	f043 40fe 	orr.w	r0, r3, #2130706432	; 0x7f000000
  406422:	f440 0000 	orr.w	r0, r0, #8388608	; 0x800000
  406426:	4770      	bx	lr
  406428:	ea7f 6222 	mvns.w	r2, r2, asr #24
  40642c:	bf16      	itet	ne
  40642e:	4608      	movne	r0, r1
  406430:	ea7f 6323 	mvnseq.w	r3, r3, asr #24
  406434:	4601      	movne	r1, r0
  406436:	0242      	lsls	r2, r0, #9
  406438:	bf06      	itte	eq
  40643a:	ea5f 2341 	movseq.w	r3, r1, lsl #9
  40643e:	ea90 0f01 	teqeq	r0, r1
  406442:	f440 0080 	orrne.w	r0, r0, #4194304	; 0x400000
  406446:	4770      	bx	lr

00406448 <__aeabi_ui2f>:
  406448:	f04f 0300 	mov.w	r3, #0
  40644c:	e004      	b.n	406458 <__aeabi_i2f+0x8>
  40644e:	bf00      	nop

00406450 <__aeabi_i2f>:
  406450:	f010 4300 	ands.w	r3, r0, #2147483648	; 0x80000000
  406454:	bf48      	it	mi
  406456:	4240      	negmi	r0, r0
  406458:	ea5f 0c00 	movs.w	ip, r0
  40645c:	bf08      	it	eq
  40645e:	4770      	bxeq	lr
  406460:	f043 4396 	orr.w	r3, r3, #1258291200	; 0x4b000000
  406464:	4601      	mov	r1, r0
  406466:	f04f 0000 	mov.w	r0, #0
  40646a:	e01c      	b.n	4064a6 <__aeabi_l2f+0x2a>

0040646c <__aeabi_ul2f>:
  40646c:	ea50 0201 	orrs.w	r2, r0, r1
  406470:	bf08      	it	eq
  406472:	4770      	bxeq	lr
  406474:	f04f 0300 	mov.w	r3, #0
  406478:	e00a      	b.n	406490 <__aeabi_l2f+0x14>
  40647a:	bf00      	nop

0040647c <__aeabi_l2f>:
  40647c:	ea50 0201 	orrs.w	r2, r0, r1
  406480:	bf08      	it	eq
  406482:	4770      	bxeq	lr
  406484:	f011 4300 	ands.w	r3, r1, #2147483648	; 0x80000000
  406488:	d502      	bpl.n	406490 <__aeabi_l2f+0x14>
  40648a:	4240      	negs	r0, r0
  40648c:	eb61 0141 	sbc.w	r1, r1, r1, lsl #1
  406490:	ea5f 0c01 	movs.w	ip, r1
  406494:	bf02      	ittt	eq
  406496:	4684      	moveq	ip, r0
  406498:	4601      	moveq	r1, r0
  40649a:	2000      	moveq	r0, #0
  40649c:	f043 43b6 	orr.w	r3, r3, #1526726656	; 0x5b000000
  4064a0:	bf08      	it	eq
  4064a2:	f1a3 5380 	subeq.w	r3, r3, #268435456	; 0x10000000
  4064a6:	f5a3 0300 	sub.w	r3, r3, #8388608	; 0x800000
  4064aa:	fabc f28c 	clz	r2, ip
  4064ae:	3a08      	subs	r2, #8
  4064b0:	eba3 53c2 	sub.w	r3, r3, r2, lsl #23
  4064b4:	db10      	blt.n	4064d8 <__aeabi_l2f+0x5c>
  4064b6:	fa01 fc02 	lsl.w	ip, r1, r2
  4064ba:	4463      	add	r3, ip
  4064bc:	fa00 fc02 	lsl.w	ip, r0, r2
  4064c0:	f1c2 0220 	rsb	r2, r2, #32
  4064c4:	f1bc 4f00 	cmp.w	ip, #2147483648	; 0x80000000
  4064c8:	fa20 f202 	lsr.w	r2, r0, r2
  4064cc:	eb43 0002 	adc.w	r0, r3, r2
  4064d0:	bf08      	it	eq
  4064d2:	f020 0001 	biceq.w	r0, r0, #1
  4064d6:	4770      	bx	lr
  4064d8:	f102 0220 	add.w	r2, r2, #32
  4064dc:	fa01 fc02 	lsl.w	ip, r1, r2
  4064e0:	f1c2 0220 	rsb	r2, r2, #32
  4064e4:	ea50 004c 	orrs.w	r0, r0, ip, lsl #1
  4064e8:	fa21 f202 	lsr.w	r2, r1, r2
  4064ec:	eb43 0002 	adc.w	r0, r3, r2
  4064f0:	bf08      	it	eq
  4064f2:	ea20 70dc 	biceq.w	r0, r0, ip, lsr #31
  4064f6:	4770      	bx	lr

004064f8 <__aeabi_fmul>:
  4064f8:	f04f 0cff 	mov.w	ip, #255	; 0xff
  4064fc:	ea1c 52d0 	ands.w	r2, ip, r0, lsr #23
  406500:	bf1e      	ittt	ne
  406502:	ea1c 53d1 	andsne.w	r3, ip, r1, lsr #23
  406506:	ea92 0f0c 	teqne	r2, ip
  40650a:	ea93 0f0c 	teqne	r3, ip
  40650e:	d06f      	beq.n	4065f0 <__aeabi_fmul+0xf8>
  406510:	441a      	add	r2, r3
  406512:	ea80 0c01 	eor.w	ip, r0, r1
  406516:	0240      	lsls	r0, r0, #9
  406518:	bf18      	it	ne
  40651a:	ea5f 2141 	movsne.w	r1, r1, lsl #9
  40651e:	d01e      	beq.n	40655e <__aeabi_fmul+0x66>
  406520:	f04f 6300 	mov.w	r3, #134217728	; 0x8000000
  406524:	ea43 1050 	orr.w	r0, r3, r0, lsr #5
  406528:	ea43 1151 	orr.w	r1, r3, r1, lsr #5
  40652c:	fba0 3101 	umull	r3, r1, r0, r1
  406530:	f00c 4000 	and.w	r0, ip, #2147483648	; 0x80000000
  406534:	f5b1 0f00 	cmp.w	r1, #8388608	; 0x800000
  406538:	bf3e      	ittt	cc
  40653a:	0049      	lslcc	r1, r1, #1
  40653c:	ea41 71d3 	orrcc.w	r1, r1, r3, lsr #31
  406540:	005b      	lslcc	r3, r3, #1
  406542:	ea40 0001 	orr.w	r0, r0, r1
  406546:	f162 027f 	sbc.w	r2, r2, #127	; 0x7f
  40654a:	2afd      	cmp	r2, #253	; 0xfd
  40654c:	d81d      	bhi.n	40658a <__aeabi_fmul+0x92>
  40654e:	f1b3 4f00 	cmp.w	r3, #2147483648	; 0x80000000
  406552:	eb40 50c2 	adc.w	r0, r0, r2, lsl #23
  406556:	bf08      	it	eq
  406558:	f020 0001 	biceq.w	r0, r0, #1
  40655c:	4770      	bx	lr
  40655e:	f090 0f00 	teq	r0, #0
  406562:	f00c 4c00 	and.w	ip, ip, #2147483648	; 0x80000000
  406566:	bf08      	it	eq
  406568:	0249      	lsleq	r1, r1, #9
  40656a:	ea4c 2050 	orr.w	r0, ip, r0, lsr #9
  40656e:	ea40 2051 	orr.w	r0, r0, r1, lsr #9
  406572:	3a7f      	subs	r2, #127	; 0x7f
  406574:	bfc2      	ittt	gt
  406576:	f1d2 03ff 	rsbsgt	r3, r2, #255	; 0xff
  40657a:	ea40 50c2 	orrgt.w	r0, r0, r2, lsl #23
  40657e:	4770      	bxgt	lr
  406580:	f440 0000 	orr.w	r0, r0, #8388608	; 0x800000
  406584:	f04f 0300 	mov.w	r3, #0
  406588:	3a01      	subs	r2, #1
  40658a:	dc5d      	bgt.n	406648 <__aeabi_fmul+0x150>
  40658c:	f112 0f19 	cmn.w	r2, #25
  406590:	bfdc      	itt	le
  406592:	f000 4000 	andle.w	r0, r0, #2147483648	; 0x80000000
  406596:	4770      	bxle	lr
  406598:	f1c2 0200 	rsb	r2, r2, #0
  40659c:	0041      	lsls	r1, r0, #1
  40659e:	fa21 f102 	lsr.w	r1, r1, r2
  4065a2:	f1c2 0220 	rsb	r2, r2, #32
  4065a6:	fa00 fc02 	lsl.w	ip, r0, r2
  4065aa:	ea5f 0031 	movs.w	r0, r1, rrx
  4065ae:	f140 0000 	adc.w	r0, r0, #0
  4065b2:	ea53 034c 	orrs.w	r3, r3, ip, lsl #1
  4065b6:	bf08      	it	eq
  4065b8:	ea20 70dc 	biceq.w	r0, r0, ip, lsr #31
  4065bc:	4770      	bx	lr
  4065be:	f092 0f00 	teq	r2, #0
  4065c2:	f000 4c00 	and.w	ip, r0, #2147483648	; 0x80000000
  4065c6:	bf02      	ittt	eq
  4065c8:	0040      	lsleq	r0, r0, #1
  4065ca:	f410 0f00 	tsteq.w	r0, #8388608	; 0x800000
  4065ce:	3a01      	subeq	r2, #1
  4065d0:	d0f9      	beq.n	4065c6 <__aeabi_fmul+0xce>
  4065d2:	ea40 000c 	orr.w	r0, r0, ip
  4065d6:	f093 0f00 	teq	r3, #0
  4065da:	f001 4c00 	and.w	ip, r1, #2147483648	; 0x80000000
  4065de:	bf02      	ittt	eq
  4065e0:	0049      	lsleq	r1, r1, #1
  4065e2:	f411 0f00 	tsteq.w	r1, #8388608	; 0x800000
  4065e6:	3b01      	subeq	r3, #1
  4065e8:	d0f9      	beq.n	4065de <__aeabi_fmul+0xe6>
  4065ea:	ea41 010c 	orr.w	r1, r1, ip
  4065ee:	e78f      	b.n	406510 <__aeabi_fmul+0x18>
  4065f0:	ea0c 53d1 	and.w	r3, ip, r1, lsr #23
  4065f4:	ea92 0f0c 	teq	r2, ip
  4065f8:	bf18      	it	ne
  4065fa:	ea93 0f0c 	teqne	r3, ip
  4065fe:	d00a      	beq.n	406616 <__aeabi_fmul+0x11e>
  406600:	f030 4c00 	bics.w	ip, r0, #2147483648	; 0x80000000
  406604:	bf18      	it	ne
  406606:	f031 4c00 	bicsne.w	ip, r1, #2147483648	; 0x80000000
  40660a:	d1d8      	bne.n	4065be <__aeabi_fmul+0xc6>
  40660c:	ea80 0001 	eor.w	r0, r0, r1
  406610:	f000 4000 	and.w	r0, r0, #2147483648	; 0x80000000
  406614:	4770      	bx	lr
  406616:	f090 0f00 	teq	r0, #0
  40661a:	bf17      	itett	ne
  40661c:	f090 4f00 	teqne	r0, #2147483648	; 0x80000000
  406620:	4608      	moveq	r0, r1
  406622:	f091 0f00 	teqne	r1, #0
  406626:	f091 4f00 	teqne	r1, #2147483648	; 0x80000000
  40662a:	d014      	beq.n	406656 <__aeabi_fmul+0x15e>
  40662c:	ea92 0f0c 	teq	r2, ip
  406630:	d101      	bne.n	406636 <__aeabi_fmul+0x13e>
  406632:	0242      	lsls	r2, r0, #9
  406634:	d10f      	bne.n	406656 <__aeabi_fmul+0x15e>
  406636:	ea93 0f0c 	teq	r3, ip
  40663a:	d103      	bne.n	406644 <__aeabi_fmul+0x14c>
  40663c:	024b      	lsls	r3, r1, #9
  40663e:	bf18      	it	ne
  406640:	4608      	movne	r0, r1
  406642:	d108      	bne.n	406656 <__aeabi_fmul+0x15e>
  406644:	ea80 0001 	eor.w	r0, r0, r1
  406648:	f000 4000 	and.w	r0, r0, #2147483648	; 0x80000000
  40664c:	f040 40fe 	orr.w	r0, r0, #2130706432	; 0x7f000000
  406650:	f440 0000 	orr.w	r0, r0, #8388608	; 0x800000
  406654:	4770      	bx	lr
  406656:	f040 40fe 	orr.w	r0, r0, #2130706432	; 0x7f000000
  40665a:	f440 0040 	orr.w	r0, r0, #12582912	; 0xc00000
  40665e:	4770      	bx	lr

00406660 <__aeabi_fdiv>:
  406660:	f04f 0cff 	mov.w	ip, #255	; 0xff
  406664:	ea1c 52d0 	ands.w	r2, ip, r0, lsr #23
  406668:	bf1e      	ittt	ne
  40666a:	ea1c 53d1 	andsne.w	r3, ip, r1, lsr #23
  40666e:	ea92 0f0c 	teqne	r2, ip
  406672:	ea93 0f0c 	teqne	r3, ip
  406676:	d069      	beq.n	40674c <__aeabi_fdiv+0xec>
  406678:	eba2 0203 	sub.w	r2, r2, r3
  40667c:	ea80 0c01 	eor.w	ip, r0, r1
  406680:	0249      	lsls	r1, r1, #9
  406682:	ea4f 2040 	mov.w	r0, r0, lsl #9
  406686:	d037      	beq.n	4066f8 <__aeabi_fdiv+0x98>
  406688:	f04f 5380 	mov.w	r3, #268435456	; 0x10000000
  40668c:	ea43 1111 	orr.w	r1, r3, r1, lsr #4
  406690:	ea43 1310 	orr.w	r3, r3, r0, lsr #4
  406694:	f00c 4000 	and.w	r0, ip, #2147483648	; 0x80000000
  406698:	428b      	cmp	r3, r1
  40669a:	bf38      	it	cc
  40669c:	005b      	lslcc	r3, r3, #1
  40669e:	f142 027d 	adc.w	r2, r2, #125	; 0x7d
  4066a2:	f44f 0c00 	mov.w	ip, #8388608	; 0x800000
  4066a6:	428b      	cmp	r3, r1
  4066a8:	bf24      	itt	cs
  4066aa:	1a5b      	subcs	r3, r3, r1
  4066ac:	ea40 000c 	orrcs.w	r0, r0, ip
  4066b0:	ebb3 0f51 	cmp.w	r3, r1, lsr #1
  4066b4:	bf24      	itt	cs
  4066b6:	eba3 0351 	subcs.w	r3, r3, r1, lsr #1
  4066ba:	ea40 005c 	orrcs.w	r0, r0, ip, lsr #1
  4066be:	ebb3 0f91 	cmp.w	r3, r1, lsr #2
  4066c2:	bf24      	itt	cs
  4066c4:	eba3 0391 	subcs.w	r3, r3, r1, lsr #2
  4066c8:	ea40 009c 	orrcs.w	r0, r0, ip, lsr #2
  4066cc:	ebb3 0fd1 	cmp.w	r3, r1, lsr #3
  4066d0:	bf24      	itt	cs
  4066d2:	eba3 03d1 	subcs.w	r3, r3, r1, lsr #3
  4066d6:	ea40 00dc 	orrcs.w	r0, r0, ip, lsr #3
  4066da:	011b      	lsls	r3, r3, #4
  4066dc:	bf18      	it	ne
  4066de:	ea5f 1c1c 	movsne.w	ip, ip, lsr #4
  4066e2:	d1e0      	bne.n	4066a6 <__aeabi_fdiv+0x46>
  4066e4:	2afd      	cmp	r2, #253	; 0xfd
  4066e6:	f63f af50 	bhi.w	40658a <__aeabi_fmul+0x92>
  4066ea:	428b      	cmp	r3, r1
  4066ec:	eb40 50c2 	adc.w	r0, r0, r2, lsl #23
  4066f0:	bf08      	it	eq
  4066f2:	f020 0001 	biceq.w	r0, r0, #1
  4066f6:	4770      	bx	lr
  4066f8:	f00c 4c00 	and.w	ip, ip, #2147483648	; 0x80000000
  4066fc:	ea4c 2050 	orr.w	r0, ip, r0, lsr #9
  406700:	327f      	adds	r2, #127	; 0x7f
  406702:	bfc2      	ittt	gt
  406704:	f1d2 03ff 	rsbsgt	r3, r2, #255	; 0xff
  406708:	ea40 50c2 	orrgt.w	r0, r0, r2, lsl #23
  40670c:	4770      	bxgt	lr
  40670e:	f440 0000 	orr.w	r0, r0, #8388608	; 0x800000
  406712:	f04f 0300 	mov.w	r3, #0
  406716:	3a01      	subs	r2, #1
  406718:	e737      	b.n	40658a <__aeabi_fmul+0x92>
  40671a:	f092 0f00 	teq	r2, #0
  40671e:	f000 4c00 	and.w	ip, r0, #2147483648	; 0x80000000
  406722:	bf02      	ittt	eq
  406724:	0040      	lsleq	r0, r0, #1
  406726:	f410 0f00 	tsteq.w	r0, #8388608	; 0x800000
  40672a:	3a01      	subeq	r2, #1
  40672c:	d0f9      	beq.n	406722 <__aeabi_fdiv+0xc2>
  40672e:	ea40 000c 	orr.w	r0, r0, ip
  406732:	f093 0f00 	teq	r3, #0
  406736:	f001 4c00 	and.w	ip, r1, #2147483648	; 0x80000000
  40673a:	bf02      	ittt	eq
  40673c:	0049      	lsleq	r1, r1, #1
  40673e:	f411 0f00 	tsteq.w	r1, #8388608	; 0x800000
  406742:	3b01      	subeq	r3, #1
  406744:	d0f9      	beq.n	40673a <__aeabi_fdiv+0xda>
  406746:	ea41 010c 	orr.w	r1, r1, ip
  40674a:	e795      	b.n	406678 <__aeabi_fdiv+0x18>
  40674c:	ea0c 53d1 	and.w	r3, ip, r1, lsr #23
  406750:	ea92 0f0c 	teq	r2, ip
  406754:	d108      	bne.n	406768 <__aeabi_fdiv+0x108>
  406756:	0242      	lsls	r2, r0, #9
  406758:	f47f af7d 	bne.w	406656 <__aeabi_fmul+0x15e>
  40675c:	ea93 0f0c 	teq	r3, ip
  406760:	f47f af70 	bne.w	406644 <__aeabi_fmul+0x14c>
  406764:	4608      	mov	r0, r1
  406766:	e776      	b.n	406656 <__aeabi_fmul+0x15e>
  406768:	ea93 0f0c 	teq	r3, ip
  40676c:	d104      	bne.n	406778 <__aeabi_fdiv+0x118>
  40676e:	024b      	lsls	r3, r1, #9
  406770:	f43f af4c 	beq.w	40660c <__aeabi_fmul+0x114>
  406774:	4608      	mov	r0, r1
  406776:	e76e      	b.n	406656 <__aeabi_fmul+0x15e>
  406778:	f030 4c00 	bics.w	ip, r0, #2147483648	; 0x80000000
  40677c:	bf18      	it	ne
  40677e:	f031 4c00 	bicsne.w	ip, r1, #2147483648	; 0x80000000
  406782:	d1ca      	bne.n	40671a <__aeabi_fdiv+0xba>
  406784:	f030 4200 	bics.w	r2, r0, #2147483648	; 0x80000000
  406788:	f47f af5c 	bne.w	406644 <__aeabi_fmul+0x14c>
  40678c:	f031 4300 	bics.w	r3, r1, #2147483648	; 0x80000000
  406790:	f47f af3c 	bne.w	40660c <__aeabi_fmul+0x114>
  406794:	e75f      	b.n	406656 <__aeabi_fmul+0x15e>
  406796:	bf00      	nop

00406798 <__gesf2>:
  406798:	f04f 3cff 	mov.w	ip, #4294967295
  40679c:	e006      	b.n	4067ac <__cmpsf2+0x4>
  40679e:	bf00      	nop

004067a0 <__lesf2>:
  4067a0:	f04f 0c01 	mov.w	ip, #1
  4067a4:	e002      	b.n	4067ac <__cmpsf2+0x4>
  4067a6:	bf00      	nop

004067a8 <__cmpsf2>:
  4067a8:	f04f 0c01 	mov.w	ip, #1
  4067ac:	f84d cd04 	str.w	ip, [sp, #-4]!
  4067b0:	ea4f 0240 	mov.w	r2, r0, lsl #1
  4067b4:	ea4f 0341 	mov.w	r3, r1, lsl #1
  4067b8:	ea7f 6c22 	mvns.w	ip, r2, asr #24
  4067bc:	bf18      	it	ne
  4067be:	ea7f 6c23 	mvnsne.w	ip, r3, asr #24
  4067c2:	d011      	beq.n	4067e8 <__cmpsf2+0x40>
  4067c4:	b001      	add	sp, #4
  4067c6:	ea52 0c53 	orrs.w	ip, r2, r3, lsr #1
  4067ca:	bf18      	it	ne
  4067cc:	ea90 0f01 	teqne	r0, r1
  4067d0:	bf58      	it	pl
  4067d2:	ebb2 0003 	subspl.w	r0, r2, r3
  4067d6:	bf88      	it	hi
  4067d8:	17c8      	asrhi	r0, r1, #31
  4067da:	bf38      	it	cc
  4067dc:	ea6f 70e1 	mvncc.w	r0, r1, asr #31
  4067e0:	bf18      	it	ne
  4067e2:	f040 0001 	orrne.w	r0, r0, #1
  4067e6:	4770      	bx	lr
  4067e8:	ea7f 6c22 	mvns.w	ip, r2, asr #24
  4067ec:	d102      	bne.n	4067f4 <__cmpsf2+0x4c>
  4067ee:	ea5f 2c40 	movs.w	ip, r0, lsl #9
  4067f2:	d105      	bne.n	406800 <__cmpsf2+0x58>
  4067f4:	ea7f 6c23 	mvns.w	ip, r3, asr #24
  4067f8:	d1e4      	bne.n	4067c4 <__cmpsf2+0x1c>
  4067fa:	ea5f 2c41 	movs.w	ip, r1, lsl #9
  4067fe:	d0e1      	beq.n	4067c4 <__cmpsf2+0x1c>
  406800:	f85d 0b04 	ldr.w	r0, [sp], #4
  406804:	4770      	bx	lr
  406806:	bf00      	nop

00406808 <__aeabi_cfrcmple>:
  406808:	4684      	mov	ip, r0
  40680a:	4608      	mov	r0, r1
  40680c:	4661      	mov	r1, ip
  40680e:	e7ff      	b.n	406810 <__aeabi_cfcmpeq>

00406810 <__aeabi_cfcmpeq>:
  406810:	b50f      	push	{r0, r1, r2, r3, lr}
  406812:	f7ff ffc9 	bl	4067a8 <__cmpsf2>
  406816:	2800      	cmp	r0, #0
  406818:	bf48      	it	mi
  40681a:	f110 0f00 	cmnmi.w	r0, #0
  40681e:	bd0f      	pop	{r0, r1, r2, r3, pc}

00406820 <__aeabi_fcmpeq>:
  406820:	f84d ed08 	str.w	lr, [sp, #-8]!
  406824:	f7ff fff4 	bl	406810 <__aeabi_cfcmpeq>
  406828:	bf0c      	ite	eq
  40682a:	2001      	moveq	r0, #1
  40682c:	2000      	movne	r0, #0
  40682e:	f85d fb08 	ldr.w	pc, [sp], #8
  406832:	bf00      	nop

00406834 <__aeabi_fcmplt>:
  406834:	f84d ed08 	str.w	lr, [sp, #-8]!
  406838:	f7ff ffea 	bl	406810 <__aeabi_cfcmpeq>
  40683c:	bf34      	ite	cc
  40683e:	2001      	movcc	r0, #1
  406840:	2000      	movcs	r0, #0
  406842:	f85d fb08 	ldr.w	pc, [sp], #8
  406846:	bf00      	nop

00406848 <__aeabi_fcmple>:
  406848:	f84d ed08 	str.w	lr, [sp, #-8]!
  40684c:	f7ff ffe0 	bl	406810 <__aeabi_cfcmpeq>
  406850:	bf94      	ite	ls
  406852:	2001      	movls	r0, #1
  406854:	2000      	movhi	r0, #0
  406856:	f85d fb08 	ldr.w	pc, [sp], #8
  40685a:	bf00      	nop

0040685c <__aeabi_fcmpge>:
  40685c:	f84d ed08 	str.w	lr, [sp, #-8]!
  406860:	f7ff ffd2 	bl	406808 <__aeabi_cfrcmple>
  406864:	bf94      	ite	ls
  406866:	2001      	movls	r0, #1
  406868:	2000      	movhi	r0, #0
  40686a:	f85d fb08 	ldr.w	pc, [sp], #8
  40686e:	bf00      	nop

00406870 <__aeabi_fcmpgt>:
  406870:	f84d ed08 	str.w	lr, [sp, #-8]!
  406874:	f7ff ffc8 	bl	406808 <__aeabi_cfrcmple>
  406878:	bf34      	ite	cc
  40687a:	2001      	movcc	r0, #1
  40687c:	2000      	movcs	r0, #0
  40687e:	f85d fb08 	ldr.w	pc, [sp], #8
  406882:	bf00      	nop

00406884 <__aeabi_f2iz>:
  406884:	ea4f 0240 	mov.w	r2, r0, lsl #1
  406888:	f1b2 4ffe 	cmp.w	r2, #2130706432	; 0x7f000000
  40688c:	d30f      	bcc.n	4068ae <__aeabi_f2iz+0x2a>
  40688e:	f04f 039e 	mov.w	r3, #158	; 0x9e
  406892:	ebb3 6212 	subs.w	r2, r3, r2, lsr #24
  406896:	d90d      	bls.n	4068b4 <__aeabi_f2iz+0x30>
  406898:	ea4f 2300 	mov.w	r3, r0, lsl #8
  40689c:	f043 4300 	orr.w	r3, r3, #2147483648	; 0x80000000
  4068a0:	f010 4f00 	tst.w	r0, #2147483648	; 0x80000000
  4068a4:	fa23 f002 	lsr.w	r0, r3, r2
  4068a8:	bf18      	it	ne
  4068aa:	4240      	negne	r0, r0
  4068ac:	4770      	bx	lr
  4068ae:	f04f 0000 	mov.w	r0, #0
  4068b2:	4770      	bx	lr
  4068b4:	f112 0f61 	cmn.w	r2, #97	; 0x61
  4068b8:	d101      	bne.n	4068be <__aeabi_f2iz+0x3a>
  4068ba:	0242      	lsls	r2, r0, #9
  4068bc:	d105      	bne.n	4068ca <__aeabi_f2iz+0x46>
  4068be:	f010 4000 	ands.w	r0, r0, #2147483648	; 0x80000000
  4068c2:	bf08      	it	eq
  4068c4:	f06f 4000 	mvneq.w	r0, #2147483648	; 0x80000000
  4068c8:	4770      	bx	lr
  4068ca:	f04f 0000 	mov.w	r0, #0
  4068ce:	4770      	bx	lr

004068d0 <calloc>:
  4068d0:	4b02      	ldr	r3, [pc, #8]	; (4068dc <calloc+0xc>)
  4068d2:	460a      	mov	r2, r1
  4068d4:	4601      	mov	r1, r0
  4068d6:	6818      	ldr	r0, [r3, #0]
  4068d8:	f000 b802 	b.w	4068e0 <_calloc_r>
  4068dc:	20400054 	.word	0x20400054

004068e0 <_calloc_r>:
  4068e0:	b510      	push	{r4, lr}
  4068e2:	fb02 f101 	mul.w	r1, r2, r1
  4068e6:	f000 f877 	bl	4069d8 <_malloc_r>
  4068ea:	4604      	mov	r4, r0
  4068ec:	b1d8      	cbz	r0, 406926 <_calloc_r+0x46>
  4068ee:	f850 2c04 	ldr.w	r2, [r0, #-4]
  4068f2:	f022 0203 	bic.w	r2, r2, #3
  4068f6:	3a04      	subs	r2, #4
  4068f8:	2a24      	cmp	r2, #36	; 0x24
  4068fa:	d818      	bhi.n	40692e <_calloc_r+0x4e>
  4068fc:	2a13      	cmp	r2, #19
  4068fe:	d914      	bls.n	40692a <_calloc_r+0x4a>
  406900:	2300      	movs	r3, #0
  406902:	2a1b      	cmp	r2, #27
  406904:	6003      	str	r3, [r0, #0]
  406906:	6043      	str	r3, [r0, #4]
  406908:	d916      	bls.n	406938 <_calloc_r+0x58>
  40690a:	2a24      	cmp	r2, #36	; 0x24
  40690c:	6083      	str	r3, [r0, #8]
  40690e:	60c3      	str	r3, [r0, #12]
  406910:	bf11      	iteee	ne
  406912:	f100 0210 	addne.w	r2, r0, #16
  406916:	6103      	streq	r3, [r0, #16]
  406918:	6143      	streq	r3, [r0, #20]
  40691a:	f100 0218 	addeq.w	r2, r0, #24
  40691e:	2300      	movs	r3, #0
  406920:	6013      	str	r3, [r2, #0]
  406922:	6053      	str	r3, [r2, #4]
  406924:	6093      	str	r3, [r2, #8]
  406926:	4620      	mov	r0, r4
  406928:	bd10      	pop	{r4, pc}
  40692a:	4602      	mov	r2, r0
  40692c:	e7f7      	b.n	40691e <_calloc_r+0x3e>
  40692e:	2100      	movs	r1, #0
  406930:	f000 fb02 	bl	406f38 <memset>
  406934:	4620      	mov	r0, r4
  406936:	bd10      	pop	{r4, pc}
  406938:	f100 0208 	add.w	r2, r0, #8
  40693c:	e7ef      	b.n	40691e <_calloc_r+0x3e>
  40693e:	bf00      	nop

00406940 <__libc_init_array>:
  406940:	b570      	push	{r4, r5, r6, lr}
  406942:	4e0f      	ldr	r6, [pc, #60]	; (406980 <__libc_init_array+0x40>)
  406944:	4d0f      	ldr	r5, [pc, #60]	; (406984 <__libc_init_array+0x44>)
  406946:	1b76      	subs	r6, r6, r5
  406948:	10b6      	asrs	r6, r6, #2
  40694a:	bf18      	it	ne
  40694c:	2400      	movne	r4, #0
  40694e:	d005      	beq.n	40695c <__libc_init_array+0x1c>
  406950:	3401      	adds	r4, #1
  406952:	f855 3b04 	ldr.w	r3, [r5], #4
  406956:	4798      	blx	r3
  406958:	42a6      	cmp	r6, r4
  40695a:	d1f9      	bne.n	406950 <__libc_init_array+0x10>
  40695c:	4e0a      	ldr	r6, [pc, #40]	; (406988 <__libc_init_array+0x48>)
  40695e:	4d0b      	ldr	r5, [pc, #44]	; (40698c <__libc_init_array+0x4c>)
  406960:	1b76      	subs	r6, r6, r5
  406962:	f00e f88d 	bl	414a80 <_init>
  406966:	10b6      	asrs	r6, r6, #2
  406968:	bf18      	it	ne
  40696a:	2400      	movne	r4, #0
  40696c:	d006      	beq.n	40697c <__libc_init_array+0x3c>
  40696e:	3401      	adds	r4, #1
  406970:	f855 3b04 	ldr.w	r3, [r5], #4
  406974:	4798      	blx	r3
  406976:	42a6      	cmp	r6, r4
  406978:	d1f9      	bne.n	40696e <__libc_init_array+0x2e>
  40697a:	bd70      	pop	{r4, r5, r6, pc}
  40697c:	bd70      	pop	{r4, r5, r6, pc}
  40697e:	bf00      	nop
  406980:	00414a8c 	.word	0x00414a8c
  406984:	00414a8c 	.word	0x00414a8c
  406988:	00414a94 	.word	0x00414a94
  40698c:	00414a8c 	.word	0x00414a8c

00406990 <iprintf>:
  406990:	b40f      	push	{r0, r1, r2, r3}
  406992:	b500      	push	{lr}
  406994:	4907      	ldr	r1, [pc, #28]	; (4069b4 <iprintf+0x24>)
  406996:	b083      	sub	sp, #12
  406998:	ab04      	add	r3, sp, #16
  40699a:	6808      	ldr	r0, [r1, #0]
  40699c:	f853 2b04 	ldr.w	r2, [r3], #4
  4069a0:	6881      	ldr	r1, [r0, #8]
  4069a2:	9301      	str	r3, [sp, #4]
  4069a4:	f000 fc44 	bl	407230 <_vfiprintf_r>
  4069a8:	b003      	add	sp, #12
  4069aa:	f85d eb04 	ldr.w	lr, [sp], #4
  4069ae:	b004      	add	sp, #16
  4069b0:	4770      	bx	lr
  4069b2:	bf00      	nop
  4069b4:	20400054 	.word	0x20400054

004069b8 <malloc>:
  4069b8:	4b02      	ldr	r3, [pc, #8]	; (4069c4 <malloc+0xc>)
  4069ba:	4601      	mov	r1, r0
  4069bc:	6818      	ldr	r0, [r3, #0]
  4069be:	f000 b80b 	b.w	4069d8 <_malloc_r>
  4069c2:	bf00      	nop
  4069c4:	20400054 	.word	0x20400054

004069c8 <free>:
  4069c8:	4b02      	ldr	r3, [pc, #8]	; (4069d4 <free+0xc>)
  4069ca:	4601      	mov	r1, r0
  4069cc:	6818      	ldr	r0, [r3, #0]
  4069ce:	f001 bd4b 	b.w	408468 <_free_r>
  4069d2:	bf00      	nop
  4069d4:	20400054 	.word	0x20400054

004069d8 <_malloc_r>:
  4069d8:	e92d 4ff0 	stmdb	sp!, {r4, r5, r6, r7, r8, r9, sl, fp, lr}
  4069dc:	f101 060b 	add.w	r6, r1, #11
  4069e0:	2e16      	cmp	r6, #22
  4069e2:	b083      	sub	sp, #12
  4069e4:	4605      	mov	r5, r0
  4069e6:	f240 809e 	bls.w	406b26 <_malloc_r+0x14e>
  4069ea:	f036 0607 	bics.w	r6, r6, #7
  4069ee:	f100 80bd 	bmi.w	406b6c <_malloc_r+0x194>
  4069f2:	42b1      	cmp	r1, r6
  4069f4:	f200 80ba 	bhi.w	406b6c <_malloc_r+0x194>
  4069f8:	f000 faec 	bl	406fd4 <__malloc_lock>
  4069fc:	f5b6 7ffc 	cmp.w	r6, #504	; 0x1f8
  406a00:	f0c0 8293 	bcc.w	406f2a <_malloc_r+0x552>
  406a04:	0a73      	lsrs	r3, r6, #9
  406a06:	f000 80b8 	beq.w	406b7a <_malloc_r+0x1a2>
  406a0a:	2b04      	cmp	r3, #4
  406a0c:	f200 8179 	bhi.w	406d02 <_malloc_r+0x32a>
  406a10:	09b3      	lsrs	r3, r6, #6
  406a12:	f103 0039 	add.w	r0, r3, #57	; 0x39
  406a16:	f103 0e38 	add.w	lr, r3, #56	; 0x38
  406a1a:	00c3      	lsls	r3, r0, #3
  406a1c:	4fbf      	ldr	r7, [pc, #764]	; (406d1c <_malloc_r+0x344>)
  406a1e:	443b      	add	r3, r7
  406a20:	f1a3 0108 	sub.w	r1, r3, #8
  406a24:	685c      	ldr	r4, [r3, #4]
  406a26:	42a1      	cmp	r1, r4
  406a28:	d106      	bne.n	406a38 <_malloc_r+0x60>
  406a2a:	e00c      	b.n	406a46 <_malloc_r+0x6e>
  406a2c:	2a00      	cmp	r2, #0
  406a2e:	f280 80aa 	bge.w	406b86 <_malloc_r+0x1ae>
  406a32:	68e4      	ldr	r4, [r4, #12]
  406a34:	42a1      	cmp	r1, r4
  406a36:	d006      	beq.n	406a46 <_malloc_r+0x6e>
  406a38:	6863      	ldr	r3, [r4, #4]
  406a3a:	f023 0303 	bic.w	r3, r3, #3
  406a3e:	1b9a      	subs	r2, r3, r6
  406a40:	2a0f      	cmp	r2, #15
  406a42:	ddf3      	ble.n	406a2c <_malloc_r+0x54>
  406a44:	4670      	mov	r0, lr
  406a46:	693c      	ldr	r4, [r7, #16]
  406a48:	f8df e2e4 	ldr.w	lr, [pc, #740]	; 406d30 <_malloc_r+0x358>
  406a4c:	4574      	cmp	r4, lr
  406a4e:	f000 81ab 	beq.w	406da8 <_malloc_r+0x3d0>
  406a52:	6863      	ldr	r3, [r4, #4]
  406a54:	f023 0303 	bic.w	r3, r3, #3
  406a58:	1b9a      	subs	r2, r3, r6
  406a5a:	2a0f      	cmp	r2, #15
  406a5c:	f300 8190 	bgt.w	406d80 <_malloc_r+0x3a8>
  406a60:	2a00      	cmp	r2, #0
  406a62:	f8c7 e014 	str.w	lr, [r7, #20]
  406a66:	f8c7 e010 	str.w	lr, [r7, #16]
  406a6a:	f280 809d 	bge.w	406ba8 <_malloc_r+0x1d0>
  406a6e:	f5b3 7f00 	cmp.w	r3, #512	; 0x200
  406a72:	f080 8161 	bcs.w	406d38 <_malloc_r+0x360>
  406a76:	08db      	lsrs	r3, r3, #3
  406a78:	f103 0c01 	add.w	ip, r3, #1
  406a7c:	1099      	asrs	r1, r3, #2
  406a7e:	687a      	ldr	r2, [r7, #4]
  406a80:	f857 803c 	ldr.w	r8, [r7, ip, lsl #3]
  406a84:	f8c4 8008 	str.w	r8, [r4, #8]
  406a88:	2301      	movs	r3, #1
  406a8a:	408b      	lsls	r3, r1
  406a8c:	eb07 01cc 	add.w	r1, r7, ip, lsl #3
  406a90:	4313      	orrs	r3, r2
  406a92:	3908      	subs	r1, #8
  406a94:	60e1      	str	r1, [r4, #12]
  406a96:	607b      	str	r3, [r7, #4]
  406a98:	f847 403c 	str.w	r4, [r7, ip, lsl #3]
  406a9c:	f8c8 400c 	str.w	r4, [r8, #12]
  406aa0:	1082      	asrs	r2, r0, #2
  406aa2:	2401      	movs	r4, #1
  406aa4:	4094      	lsls	r4, r2
  406aa6:	429c      	cmp	r4, r3
  406aa8:	f200 808b 	bhi.w	406bc2 <_malloc_r+0x1ea>
  406aac:	421c      	tst	r4, r3
  406aae:	d106      	bne.n	406abe <_malloc_r+0xe6>
  406ab0:	f020 0003 	bic.w	r0, r0, #3
  406ab4:	0064      	lsls	r4, r4, #1
  406ab6:	421c      	tst	r4, r3
  406ab8:	f100 0004 	add.w	r0, r0, #4
  406abc:	d0fa      	beq.n	406ab4 <_malloc_r+0xdc>
  406abe:	eb07 09c0 	add.w	r9, r7, r0, lsl #3
  406ac2:	46cc      	mov	ip, r9
  406ac4:	4680      	mov	r8, r0
  406ac6:	f8dc 300c 	ldr.w	r3, [ip, #12]
  406aca:	459c      	cmp	ip, r3
  406acc:	d107      	bne.n	406ade <_malloc_r+0x106>
  406ace:	e16d      	b.n	406dac <_malloc_r+0x3d4>
  406ad0:	2a00      	cmp	r2, #0
  406ad2:	f280 817b 	bge.w	406dcc <_malloc_r+0x3f4>
  406ad6:	68db      	ldr	r3, [r3, #12]
  406ad8:	459c      	cmp	ip, r3
  406ada:	f000 8167 	beq.w	406dac <_malloc_r+0x3d4>
  406ade:	6859      	ldr	r1, [r3, #4]
  406ae0:	f021 0103 	bic.w	r1, r1, #3
  406ae4:	1b8a      	subs	r2, r1, r6
  406ae6:	2a0f      	cmp	r2, #15
  406ae8:	ddf2      	ble.n	406ad0 <_malloc_r+0xf8>
  406aea:	f8d3 c00c 	ldr.w	ip, [r3, #12]
  406aee:	f8d3 8008 	ldr.w	r8, [r3, #8]
  406af2:	9300      	str	r3, [sp, #0]
  406af4:	199c      	adds	r4, r3, r6
  406af6:	4628      	mov	r0, r5
  406af8:	f046 0601 	orr.w	r6, r6, #1
  406afc:	f042 0501 	orr.w	r5, r2, #1
  406b00:	605e      	str	r6, [r3, #4]
  406b02:	f8c8 c00c 	str.w	ip, [r8, #12]
  406b06:	f8cc 8008 	str.w	r8, [ip, #8]
  406b0a:	617c      	str	r4, [r7, #20]
  406b0c:	613c      	str	r4, [r7, #16]
  406b0e:	f8c4 e00c 	str.w	lr, [r4, #12]
  406b12:	f8c4 e008 	str.w	lr, [r4, #8]
  406b16:	6065      	str	r5, [r4, #4]
  406b18:	505a      	str	r2, [r3, r1]
  406b1a:	f000 fa61 	bl	406fe0 <__malloc_unlock>
  406b1e:	9b00      	ldr	r3, [sp, #0]
  406b20:	f103 0408 	add.w	r4, r3, #8
  406b24:	e01e      	b.n	406b64 <_malloc_r+0x18c>
  406b26:	2910      	cmp	r1, #16
  406b28:	d820      	bhi.n	406b6c <_malloc_r+0x194>
  406b2a:	f000 fa53 	bl	406fd4 <__malloc_lock>
  406b2e:	2610      	movs	r6, #16
  406b30:	2318      	movs	r3, #24
  406b32:	2002      	movs	r0, #2
  406b34:	4f79      	ldr	r7, [pc, #484]	; (406d1c <_malloc_r+0x344>)
  406b36:	443b      	add	r3, r7
  406b38:	f1a3 0208 	sub.w	r2, r3, #8
  406b3c:	685c      	ldr	r4, [r3, #4]
  406b3e:	4294      	cmp	r4, r2
  406b40:	f000 813d 	beq.w	406dbe <_malloc_r+0x3e6>
  406b44:	6863      	ldr	r3, [r4, #4]
  406b46:	68e1      	ldr	r1, [r4, #12]
  406b48:	68a6      	ldr	r6, [r4, #8]
  406b4a:	f023 0303 	bic.w	r3, r3, #3
  406b4e:	4423      	add	r3, r4
  406b50:	4628      	mov	r0, r5
  406b52:	685a      	ldr	r2, [r3, #4]
  406b54:	60f1      	str	r1, [r6, #12]
  406b56:	f042 0201 	orr.w	r2, r2, #1
  406b5a:	608e      	str	r6, [r1, #8]
  406b5c:	605a      	str	r2, [r3, #4]
  406b5e:	f000 fa3f 	bl	406fe0 <__malloc_unlock>
  406b62:	3408      	adds	r4, #8
  406b64:	4620      	mov	r0, r4
  406b66:	b003      	add	sp, #12
  406b68:	e8bd 8ff0 	ldmia.w	sp!, {r4, r5, r6, r7, r8, r9, sl, fp, pc}
  406b6c:	2400      	movs	r4, #0
  406b6e:	230c      	movs	r3, #12
  406b70:	4620      	mov	r0, r4
  406b72:	602b      	str	r3, [r5, #0]
  406b74:	b003      	add	sp, #12
  406b76:	e8bd 8ff0 	ldmia.w	sp!, {r4, r5, r6, r7, r8, r9, sl, fp, pc}
  406b7a:	2040      	movs	r0, #64	; 0x40
  406b7c:	f44f 7300 	mov.w	r3, #512	; 0x200
  406b80:	f04f 0e3f 	mov.w	lr, #63	; 0x3f
  406b84:	e74a      	b.n	406a1c <_malloc_r+0x44>
  406b86:	4423      	add	r3, r4
  406b88:	68e1      	ldr	r1, [r4, #12]
  406b8a:	685a      	ldr	r2, [r3, #4]
  406b8c:	68a6      	ldr	r6, [r4, #8]
  406b8e:	f042 0201 	orr.w	r2, r2, #1
  406b92:	60f1      	str	r1, [r6, #12]
  406b94:	4628      	mov	r0, r5
  406b96:	608e      	str	r6, [r1, #8]
  406b98:	605a      	str	r2, [r3, #4]
  406b9a:	f000 fa21 	bl	406fe0 <__malloc_unlock>
  406b9e:	3408      	adds	r4, #8
  406ba0:	4620      	mov	r0, r4
  406ba2:	b003      	add	sp, #12
  406ba4:	e8bd 8ff0 	ldmia.w	sp!, {r4, r5, r6, r7, r8, r9, sl, fp, pc}
  406ba8:	4423      	add	r3, r4
  406baa:	4628      	mov	r0, r5
  406bac:	685a      	ldr	r2, [r3, #4]
  406bae:	f042 0201 	orr.w	r2, r2, #1
  406bb2:	605a      	str	r2, [r3, #4]
  406bb4:	f000 fa14 	bl	406fe0 <__malloc_unlock>
  406bb8:	3408      	adds	r4, #8
  406bba:	4620      	mov	r0, r4
  406bbc:	b003      	add	sp, #12
  406bbe:	e8bd 8ff0 	ldmia.w	sp!, {r4, r5, r6, r7, r8, r9, sl, fp, pc}
  406bc2:	68bc      	ldr	r4, [r7, #8]
  406bc4:	6863      	ldr	r3, [r4, #4]
  406bc6:	f023 0803 	bic.w	r8, r3, #3
  406bca:	45b0      	cmp	r8, r6
  406bcc:	d304      	bcc.n	406bd8 <_malloc_r+0x200>
  406bce:	eba8 0306 	sub.w	r3, r8, r6
  406bd2:	2b0f      	cmp	r3, #15
  406bd4:	f300 8085 	bgt.w	406ce2 <_malloc_r+0x30a>
  406bd8:	f8df 9158 	ldr.w	r9, [pc, #344]	; 406d34 <_malloc_r+0x35c>
  406bdc:	4b50      	ldr	r3, [pc, #320]	; (406d20 <_malloc_r+0x348>)
  406bde:	f8d9 2000 	ldr.w	r2, [r9]
  406be2:	681b      	ldr	r3, [r3, #0]
  406be4:	3201      	adds	r2, #1
  406be6:	4433      	add	r3, r6
  406be8:	eb04 0a08 	add.w	sl, r4, r8
  406bec:	f000 8155 	beq.w	406e9a <_malloc_r+0x4c2>
  406bf0:	f503 5380 	add.w	r3, r3, #4096	; 0x1000
  406bf4:	330f      	adds	r3, #15
  406bf6:	f423 6b7f 	bic.w	fp, r3, #4080	; 0xff0
  406bfa:	f02b 0b0f 	bic.w	fp, fp, #15
  406bfe:	4659      	mov	r1, fp
  406c00:	4628      	mov	r0, r5
  406c02:	f000 f9f3 	bl	406fec <_sbrk_r>
  406c06:	1c41      	adds	r1, r0, #1
  406c08:	4602      	mov	r2, r0
  406c0a:	f000 80fc 	beq.w	406e06 <_malloc_r+0x42e>
  406c0e:	4582      	cmp	sl, r0
  406c10:	f200 80f7 	bhi.w	406e02 <_malloc_r+0x42a>
  406c14:	4b43      	ldr	r3, [pc, #268]	; (406d24 <_malloc_r+0x34c>)
  406c16:	6819      	ldr	r1, [r3, #0]
  406c18:	4459      	add	r1, fp
  406c1a:	6019      	str	r1, [r3, #0]
  406c1c:	f000 814d 	beq.w	406eba <_malloc_r+0x4e2>
  406c20:	f8d9 0000 	ldr.w	r0, [r9]
  406c24:	3001      	adds	r0, #1
  406c26:	bf1b      	ittet	ne
  406c28:	eba2 0a0a 	subne.w	sl, r2, sl
  406c2c:	4451      	addne	r1, sl
  406c2e:	f8c9 2000 	streq.w	r2, [r9]
  406c32:	6019      	strne	r1, [r3, #0]
  406c34:	f012 0107 	ands.w	r1, r2, #7
  406c38:	f000 8115 	beq.w	406e66 <_malloc_r+0x48e>
  406c3c:	f1c1 0008 	rsb	r0, r1, #8
  406c40:	f5c1 5180 	rsb	r1, r1, #4096	; 0x1000
  406c44:	4402      	add	r2, r0
  406c46:	3108      	adds	r1, #8
  406c48:	eb02 090b 	add.w	r9, r2, fp
  406c4c:	f3c9 090b 	ubfx	r9, r9, #0, #12
  406c50:	eba1 0909 	sub.w	r9, r1, r9
  406c54:	4649      	mov	r1, r9
  406c56:	4628      	mov	r0, r5
  406c58:	9301      	str	r3, [sp, #4]
  406c5a:	9200      	str	r2, [sp, #0]
  406c5c:	f000 f9c6 	bl	406fec <_sbrk_r>
  406c60:	1c43      	adds	r3, r0, #1
  406c62:	e89d 000c 	ldmia.w	sp, {r2, r3}
  406c66:	f000 8143 	beq.w	406ef0 <_malloc_r+0x518>
  406c6a:	1a80      	subs	r0, r0, r2
  406c6c:	4448      	add	r0, r9
  406c6e:	f040 0001 	orr.w	r0, r0, #1
  406c72:	6819      	ldr	r1, [r3, #0]
  406c74:	60ba      	str	r2, [r7, #8]
  406c76:	4449      	add	r1, r9
  406c78:	42bc      	cmp	r4, r7
  406c7a:	6050      	str	r0, [r2, #4]
  406c7c:	6019      	str	r1, [r3, #0]
  406c7e:	d017      	beq.n	406cb0 <_malloc_r+0x2d8>
  406c80:	f1b8 0f0f 	cmp.w	r8, #15
  406c84:	f240 80fb 	bls.w	406e7e <_malloc_r+0x4a6>
  406c88:	6860      	ldr	r0, [r4, #4]
  406c8a:	f1a8 020c 	sub.w	r2, r8, #12
  406c8e:	f022 0207 	bic.w	r2, r2, #7
  406c92:	eb04 0e02 	add.w	lr, r4, r2
  406c96:	f000 0001 	and.w	r0, r0, #1
  406c9a:	f04f 0c05 	mov.w	ip, #5
  406c9e:	4310      	orrs	r0, r2
  406ca0:	2a0f      	cmp	r2, #15
  406ca2:	6060      	str	r0, [r4, #4]
  406ca4:	f8ce c004 	str.w	ip, [lr, #4]
  406ca8:	f8ce c008 	str.w	ip, [lr, #8]
  406cac:	f200 8117 	bhi.w	406ede <_malloc_r+0x506>
  406cb0:	4b1d      	ldr	r3, [pc, #116]	; (406d28 <_malloc_r+0x350>)
  406cb2:	68bc      	ldr	r4, [r7, #8]
  406cb4:	681a      	ldr	r2, [r3, #0]
  406cb6:	4291      	cmp	r1, r2
  406cb8:	bf88      	it	hi
  406cba:	6019      	strhi	r1, [r3, #0]
  406cbc:	4b1b      	ldr	r3, [pc, #108]	; (406d2c <_malloc_r+0x354>)
  406cbe:	681a      	ldr	r2, [r3, #0]
  406cc0:	4291      	cmp	r1, r2
  406cc2:	6862      	ldr	r2, [r4, #4]
  406cc4:	bf88      	it	hi
  406cc6:	6019      	strhi	r1, [r3, #0]
  406cc8:	f022 0203 	bic.w	r2, r2, #3
  406ccc:	4296      	cmp	r6, r2
  406cce:	eba2 0306 	sub.w	r3, r2, r6
  406cd2:	d801      	bhi.n	406cd8 <_malloc_r+0x300>
  406cd4:	2b0f      	cmp	r3, #15
  406cd6:	dc04      	bgt.n	406ce2 <_malloc_r+0x30a>
  406cd8:	4628      	mov	r0, r5
  406cda:	f000 f981 	bl	406fe0 <__malloc_unlock>
  406cde:	2400      	movs	r4, #0
  406ce0:	e740      	b.n	406b64 <_malloc_r+0x18c>
  406ce2:	19a2      	adds	r2, r4, r6
  406ce4:	f043 0301 	orr.w	r3, r3, #1
  406ce8:	f046 0601 	orr.w	r6, r6, #1
  406cec:	6066      	str	r6, [r4, #4]
  406cee:	4628      	mov	r0, r5
  406cf0:	60ba      	str	r2, [r7, #8]
  406cf2:	6053      	str	r3, [r2, #4]
  406cf4:	f000 f974 	bl	406fe0 <__malloc_unlock>
  406cf8:	3408      	adds	r4, #8
  406cfa:	4620      	mov	r0, r4
  406cfc:	b003      	add	sp, #12
  406cfe:	e8bd 8ff0 	ldmia.w	sp!, {r4, r5, r6, r7, r8, r9, sl, fp, pc}
  406d02:	2b14      	cmp	r3, #20
  406d04:	d971      	bls.n	406dea <_malloc_r+0x412>
  406d06:	2b54      	cmp	r3, #84	; 0x54
  406d08:	f200 80a3 	bhi.w	406e52 <_malloc_r+0x47a>
  406d0c:	0b33      	lsrs	r3, r6, #12
  406d0e:	f103 006f 	add.w	r0, r3, #111	; 0x6f
  406d12:	f103 0e6e 	add.w	lr, r3, #110	; 0x6e
  406d16:	00c3      	lsls	r3, r0, #3
  406d18:	e680      	b.n	406a1c <_malloc_r+0x44>
  406d1a:	bf00      	nop
  406d1c:	20400480 	.word	0x20400480
  406d20:	20402d28 	.word	0x20402d28
  406d24:	20402cf8 	.word	0x20402cf8
  406d28:	20402d20 	.word	0x20402d20
  406d2c:	20402d24 	.word	0x20402d24
  406d30:	20400488 	.word	0x20400488
  406d34:	20400888 	.word	0x20400888
  406d38:	0a5a      	lsrs	r2, r3, #9
  406d3a:	2a04      	cmp	r2, #4
  406d3c:	d95b      	bls.n	406df6 <_malloc_r+0x41e>
  406d3e:	2a14      	cmp	r2, #20
  406d40:	f200 80ae 	bhi.w	406ea0 <_malloc_r+0x4c8>
  406d44:	f102 015c 	add.w	r1, r2, #92	; 0x5c
  406d48:	00c9      	lsls	r1, r1, #3
  406d4a:	325b      	adds	r2, #91	; 0x5b
  406d4c:	eb07 0c01 	add.w	ip, r7, r1
  406d50:	5879      	ldr	r1, [r7, r1]
  406d52:	f1ac 0c08 	sub.w	ip, ip, #8
  406d56:	458c      	cmp	ip, r1
  406d58:	f000 8088 	beq.w	406e6c <_malloc_r+0x494>
  406d5c:	684a      	ldr	r2, [r1, #4]
  406d5e:	f022 0203 	bic.w	r2, r2, #3
  406d62:	4293      	cmp	r3, r2
  406d64:	d273      	bcs.n	406e4e <_malloc_r+0x476>
  406d66:	6889      	ldr	r1, [r1, #8]
  406d68:	458c      	cmp	ip, r1
  406d6a:	d1f7      	bne.n	406d5c <_malloc_r+0x384>
  406d6c:	f8dc 200c 	ldr.w	r2, [ip, #12]
  406d70:	687b      	ldr	r3, [r7, #4]
  406d72:	60e2      	str	r2, [r4, #12]
  406d74:	f8c4 c008 	str.w	ip, [r4, #8]
  406d78:	6094      	str	r4, [r2, #8]
  406d7a:	f8cc 400c 	str.w	r4, [ip, #12]
  406d7e:	e68f      	b.n	406aa0 <_malloc_r+0xc8>
  406d80:	19a1      	adds	r1, r4, r6
  406d82:	f046 0c01 	orr.w	ip, r6, #1
  406d86:	f042 0601 	orr.w	r6, r2, #1
  406d8a:	f8c4 c004 	str.w	ip, [r4, #4]
  406d8e:	4628      	mov	r0, r5
  406d90:	6179      	str	r1, [r7, #20]
  406d92:	6139      	str	r1, [r7, #16]
  406d94:	f8c1 e00c 	str.w	lr, [r1, #12]
  406d98:	f8c1 e008 	str.w	lr, [r1, #8]
  406d9c:	604e      	str	r6, [r1, #4]
  406d9e:	50e2      	str	r2, [r4, r3]
  406da0:	f000 f91e 	bl	406fe0 <__malloc_unlock>
  406da4:	3408      	adds	r4, #8
  406da6:	e6dd      	b.n	406b64 <_malloc_r+0x18c>
  406da8:	687b      	ldr	r3, [r7, #4]
  406daa:	e679      	b.n	406aa0 <_malloc_r+0xc8>
  406dac:	f108 0801 	add.w	r8, r8, #1
  406db0:	f018 0f03 	tst.w	r8, #3
  406db4:	f10c 0c08 	add.w	ip, ip, #8
  406db8:	f47f ae85 	bne.w	406ac6 <_malloc_r+0xee>
  406dbc:	e02d      	b.n	406e1a <_malloc_r+0x442>
  406dbe:	68dc      	ldr	r4, [r3, #12]
  406dc0:	42a3      	cmp	r3, r4
  406dc2:	bf08      	it	eq
  406dc4:	3002      	addeq	r0, #2
  406dc6:	f43f ae3e 	beq.w	406a46 <_malloc_r+0x6e>
  406dca:	e6bb      	b.n	406b44 <_malloc_r+0x16c>
  406dcc:	4419      	add	r1, r3
  406dce:	461c      	mov	r4, r3
  406dd0:	684a      	ldr	r2, [r1, #4]
  406dd2:	68db      	ldr	r3, [r3, #12]
  406dd4:	f854 6f08 	ldr.w	r6, [r4, #8]!
  406dd8:	f042 0201 	orr.w	r2, r2, #1
  406ddc:	604a      	str	r2, [r1, #4]
  406dde:	4628      	mov	r0, r5
  406de0:	60f3      	str	r3, [r6, #12]
  406de2:	609e      	str	r6, [r3, #8]
  406de4:	f000 f8fc 	bl	406fe0 <__malloc_unlock>
  406de8:	e6bc      	b.n	406b64 <_malloc_r+0x18c>
  406dea:	f103 005c 	add.w	r0, r3, #92	; 0x5c
  406dee:	f103 0e5b 	add.w	lr, r3, #91	; 0x5b
  406df2:	00c3      	lsls	r3, r0, #3
  406df4:	e612      	b.n	406a1c <_malloc_r+0x44>
  406df6:	099a      	lsrs	r2, r3, #6
  406df8:	f102 0139 	add.w	r1, r2, #57	; 0x39
  406dfc:	00c9      	lsls	r1, r1, #3
  406dfe:	3238      	adds	r2, #56	; 0x38
  406e00:	e7a4      	b.n	406d4c <_malloc_r+0x374>
  406e02:	42bc      	cmp	r4, r7
  406e04:	d054      	beq.n	406eb0 <_malloc_r+0x4d8>
  406e06:	68bc      	ldr	r4, [r7, #8]
  406e08:	6862      	ldr	r2, [r4, #4]
  406e0a:	f022 0203 	bic.w	r2, r2, #3
  406e0e:	e75d      	b.n	406ccc <_malloc_r+0x2f4>
  406e10:	f859 3908 	ldr.w	r3, [r9], #-8
  406e14:	4599      	cmp	r9, r3
  406e16:	f040 8086 	bne.w	406f26 <_malloc_r+0x54e>
  406e1a:	f010 0f03 	tst.w	r0, #3
  406e1e:	f100 30ff 	add.w	r0, r0, #4294967295
  406e22:	d1f5      	bne.n	406e10 <_malloc_r+0x438>
  406e24:	687b      	ldr	r3, [r7, #4]
  406e26:	ea23 0304 	bic.w	r3, r3, r4
  406e2a:	607b      	str	r3, [r7, #4]
  406e2c:	0064      	lsls	r4, r4, #1
  406e2e:	429c      	cmp	r4, r3
  406e30:	f63f aec7 	bhi.w	406bc2 <_malloc_r+0x1ea>
  406e34:	2c00      	cmp	r4, #0
  406e36:	f43f aec4 	beq.w	406bc2 <_malloc_r+0x1ea>
  406e3a:	421c      	tst	r4, r3
  406e3c:	4640      	mov	r0, r8
  406e3e:	f47f ae3e 	bne.w	406abe <_malloc_r+0xe6>
  406e42:	0064      	lsls	r4, r4, #1
  406e44:	421c      	tst	r4, r3
  406e46:	f100 0004 	add.w	r0, r0, #4
  406e4a:	d0fa      	beq.n	406e42 <_malloc_r+0x46a>
  406e4c:	e637      	b.n	406abe <_malloc_r+0xe6>
  406e4e:	468c      	mov	ip, r1
  406e50:	e78c      	b.n	406d6c <_malloc_r+0x394>
  406e52:	f5b3 7faa 	cmp.w	r3, #340	; 0x154
  406e56:	d815      	bhi.n	406e84 <_malloc_r+0x4ac>
  406e58:	0bf3      	lsrs	r3, r6, #15
  406e5a:	f103 0078 	add.w	r0, r3, #120	; 0x78
  406e5e:	f103 0e77 	add.w	lr, r3, #119	; 0x77
  406e62:	00c3      	lsls	r3, r0, #3
  406e64:	e5da      	b.n	406a1c <_malloc_r+0x44>
  406e66:	f44f 5180 	mov.w	r1, #4096	; 0x1000
  406e6a:	e6ed      	b.n	406c48 <_malloc_r+0x270>
  406e6c:	687b      	ldr	r3, [r7, #4]
  406e6e:	1092      	asrs	r2, r2, #2
  406e70:	2101      	movs	r1, #1
  406e72:	fa01 f202 	lsl.w	r2, r1, r2
  406e76:	4313      	orrs	r3, r2
  406e78:	607b      	str	r3, [r7, #4]
  406e7a:	4662      	mov	r2, ip
  406e7c:	e779      	b.n	406d72 <_malloc_r+0x39a>
  406e7e:	2301      	movs	r3, #1
  406e80:	6053      	str	r3, [r2, #4]
  406e82:	e729      	b.n	406cd8 <_malloc_r+0x300>
  406e84:	f240 5254 	movw	r2, #1364	; 0x554
  406e88:	4293      	cmp	r3, r2
  406e8a:	d822      	bhi.n	406ed2 <_malloc_r+0x4fa>
  406e8c:	0cb3      	lsrs	r3, r6, #18
  406e8e:	f103 007d 	add.w	r0, r3, #125	; 0x7d
  406e92:	f103 0e7c 	add.w	lr, r3, #124	; 0x7c
  406e96:	00c3      	lsls	r3, r0, #3
  406e98:	e5c0      	b.n	406a1c <_malloc_r+0x44>
  406e9a:	f103 0b10 	add.w	fp, r3, #16
  406e9e:	e6ae      	b.n	406bfe <_malloc_r+0x226>
  406ea0:	2a54      	cmp	r2, #84	; 0x54
  406ea2:	d829      	bhi.n	406ef8 <_malloc_r+0x520>
  406ea4:	0b1a      	lsrs	r2, r3, #12
  406ea6:	f102 016f 	add.w	r1, r2, #111	; 0x6f
  406eaa:	00c9      	lsls	r1, r1, #3
  406eac:	326e      	adds	r2, #110	; 0x6e
  406eae:	e74d      	b.n	406d4c <_malloc_r+0x374>
  406eb0:	4b20      	ldr	r3, [pc, #128]	; (406f34 <_malloc_r+0x55c>)
  406eb2:	6819      	ldr	r1, [r3, #0]
  406eb4:	4459      	add	r1, fp
  406eb6:	6019      	str	r1, [r3, #0]
  406eb8:	e6b2      	b.n	406c20 <_malloc_r+0x248>
  406eba:	f3ca 000b 	ubfx	r0, sl, #0, #12
  406ebe:	2800      	cmp	r0, #0
  406ec0:	f47f aeae 	bne.w	406c20 <_malloc_r+0x248>
  406ec4:	eb08 030b 	add.w	r3, r8, fp
  406ec8:	68ba      	ldr	r2, [r7, #8]
  406eca:	f043 0301 	orr.w	r3, r3, #1
  406ece:	6053      	str	r3, [r2, #4]
  406ed0:	e6ee      	b.n	406cb0 <_malloc_r+0x2d8>
  406ed2:	207f      	movs	r0, #127	; 0x7f
  406ed4:	f44f 737e 	mov.w	r3, #1016	; 0x3f8
  406ed8:	f04f 0e7e 	mov.w	lr, #126	; 0x7e
  406edc:	e59e      	b.n	406a1c <_malloc_r+0x44>
  406ede:	f104 0108 	add.w	r1, r4, #8
  406ee2:	4628      	mov	r0, r5
  406ee4:	9300      	str	r3, [sp, #0]
  406ee6:	f001 fabf 	bl	408468 <_free_r>
  406eea:	9b00      	ldr	r3, [sp, #0]
  406eec:	6819      	ldr	r1, [r3, #0]
  406eee:	e6df      	b.n	406cb0 <_malloc_r+0x2d8>
  406ef0:	2001      	movs	r0, #1
  406ef2:	f04f 0900 	mov.w	r9, #0
  406ef6:	e6bc      	b.n	406c72 <_malloc_r+0x29a>
  406ef8:	f5b2 7faa 	cmp.w	r2, #340	; 0x154
  406efc:	d805      	bhi.n	406f0a <_malloc_r+0x532>
  406efe:	0bda      	lsrs	r2, r3, #15
  406f00:	f102 0178 	add.w	r1, r2, #120	; 0x78
  406f04:	00c9      	lsls	r1, r1, #3
  406f06:	3277      	adds	r2, #119	; 0x77
  406f08:	e720      	b.n	406d4c <_malloc_r+0x374>
  406f0a:	f240 5154 	movw	r1, #1364	; 0x554
  406f0e:	428a      	cmp	r2, r1
  406f10:	d805      	bhi.n	406f1e <_malloc_r+0x546>
  406f12:	0c9a      	lsrs	r2, r3, #18
  406f14:	f102 017d 	add.w	r1, r2, #125	; 0x7d
  406f18:	00c9      	lsls	r1, r1, #3
  406f1a:	327c      	adds	r2, #124	; 0x7c
  406f1c:	e716      	b.n	406d4c <_malloc_r+0x374>
  406f1e:	f44f 717e 	mov.w	r1, #1016	; 0x3f8
  406f22:	227e      	movs	r2, #126	; 0x7e
  406f24:	e712      	b.n	406d4c <_malloc_r+0x374>
  406f26:	687b      	ldr	r3, [r7, #4]
  406f28:	e780      	b.n	406e2c <_malloc_r+0x454>
  406f2a:	08f0      	lsrs	r0, r6, #3
  406f2c:	f106 0308 	add.w	r3, r6, #8
  406f30:	e600      	b.n	406b34 <_malloc_r+0x15c>
  406f32:	bf00      	nop
  406f34:	20402cf8 	.word	0x20402cf8

00406f38 <memset>:
  406f38:	b470      	push	{r4, r5, r6}
  406f3a:	0786      	lsls	r6, r0, #30
  406f3c:	d046      	beq.n	406fcc <memset+0x94>
  406f3e:	1e54      	subs	r4, r2, #1
  406f40:	2a00      	cmp	r2, #0
  406f42:	d041      	beq.n	406fc8 <memset+0x90>
  406f44:	b2ca      	uxtb	r2, r1
  406f46:	4603      	mov	r3, r0
  406f48:	e002      	b.n	406f50 <memset+0x18>
  406f4a:	f114 34ff 	adds.w	r4, r4, #4294967295
  406f4e:	d33b      	bcc.n	406fc8 <memset+0x90>
  406f50:	f803 2b01 	strb.w	r2, [r3], #1
  406f54:	079d      	lsls	r5, r3, #30
  406f56:	d1f8      	bne.n	406f4a <memset+0x12>
  406f58:	2c03      	cmp	r4, #3
  406f5a:	d92e      	bls.n	406fba <memset+0x82>
  406f5c:	b2cd      	uxtb	r5, r1
  406f5e:	ea45 2505 	orr.w	r5, r5, r5, lsl #8
  406f62:	2c0f      	cmp	r4, #15
  406f64:	ea45 4505 	orr.w	r5, r5, r5, lsl #16
  406f68:	d919      	bls.n	406f9e <memset+0x66>
  406f6a:	f103 0210 	add.w	r2, r3, #16
  406f6e:	4626      	mov	r6, r4
  406f70:	3e10      	subs	r6, #16
  406f72:	2e0f      	cmp	r6, #15
  406f74:	f842 5c10 	str.w	r5, [r2, #-16]
  406f78:	f842 5c0c 	str.w	r5, [r2, #-12]
  406f7c:	f842 5c08 	str.w	r5, [r2, #-8]
  406f80:	f842 5c04 	str.w	r5, [r2, #-4]
  406f84:	f102 0210 	add.w	r2, r2, #16
  406f88:	d8f2      	bhi.n	406f70 <memset+0x38>
  406f8a:	f1a4 0210 	sub.w	r2, r4, #16
  406f8e:	f022 020f 	bic.w	r2, r2, #15
  406f92:	f004 040f 	and.w	r4, r4, #15
  406f96:	3210      	adds	r2, #16
  406f98:	2c03      	cmp	r4, #3
  406f9a:	4413      	add	r3, r2
  406f9c:	d90d      	bls.n	406fba <memset+0x82>
  406f9e:	461e      	mov	r6, r3
  406fa0:	4622      	mov	r2, r4
  406fa2:	3a04      	subs	r2, #4
  406fa4:	2a03      	cmp	r2, #3
  406fa6:	f846 5b04 	str.w	r5, [r6], #4
  406faa:	d8fa      	bhi.n	406fa2 <memset+0x6a>
  406fac:	1f22      	subs	r2, r4, #4
  406fae:	f022 0203 	bic.w	r2, r2, #3
  406fb2:	3204      	adds	r2, #4
  406fb4:	4413      	add	r3, r2
  406fb6:	f004 0403 	and.w	r4, r4, #3
  406fba:	b12c      	cbz	r4, 406fc8 <memset+0x90>
  406fbc:	b2c9      	uxtb	r1, r1
  406fbe:	441c      	add	r4, r3
  406fc0:	f803 1b01 	strb.w	r1, [r3], #1
  406fc4:	429c      	cmp	r4, r3
  406fc6:	d1fb      	bne.n	406fc0 <memset+0x88>
  406fc8:	bc70      	pop	{r4, r5, r6}
  406fca:	4770      	bx	lr
  406fcc:	4614      	mov	r4, r2
  406fce:	4603      	mov	r3, r0
  406fd0:	e7c2      	b.n	406f58 <memset+0x20>
  406fd2:	bf00      	nop

00406fd4 <__malloc_lock>:
  406fd4:	4801      	ldr	r0, [pc, #4]	; (406fdc <__malloc_lock+0x8>)
  406fd6:	f001 bce1 	b.w	40899c <__retarget_lock_acquire_recursive>
  406fda:	bf00      	nop
  406fdc:	2043b800 	.word	0x2043b800

00406fe0 <__malloc_unlock>:
  406fe0:	4801      	ldr	r0, [pc, #4]	; (406fe8 <__malloc_unlock+0x8>)
  406fe2:	f001 bcdd 	b.w	4089a0 <__retarget_lock_release_recursive>
  406fe6:	bf00      	nop
  406fe8:	2043b800 	.word	0x2043b800

00406fec <_sbrk_r>:
  406fec:	b538      	push	{r3, r4, r5, lr}
  406fee:	4c07      	ldr	r4, [pc, #28]	; (40700c <_sbrk_r+0x20>)
  406ff0:	2300      	movs	r3, #0
  406ff2:	4605      	mov	r5, r0
  406ff4:	4608      	mov	r0, r1
  406ff6:	6023      	str	r3, [r4, #0]
  406ff8:	f7fd fa5a 	bl	4044b0 <_sbrk>
  406ffc:	1c43      	adds	r3, r0, #1
  406ffe:	d000      	beq.n	407002 <_sbrk_r+0x16>
  407000:	bd38      	pop	{r3, r4, r5, pc}
  407002:	6823      	ldr	r3, [r4, #0]
  407004:	2b00      	cmp	r3, #0
  407006:	d0fb      	beq.n	407000 <_sbrk_r+0x14>
  407008:	602b      	str	r3, [r5, #0]
  40700a:	bd38      	pop	{r3, r4, r5, pc}
  40700c:	2043b814 	.word	0x2043b814

00407010 <setbuf>:
  407010:	2900      	cmp	r1, #0
  407012:	bf0c      	ite	eq
  407014:	2202      	moveq	r2, #2
  407016:	2200      	movne	r2, #0
  407018:	f44f 6380 	mov.w	r3, #1024	; 0x400
  40701c:	f000 b800 	b.w	407020 <setvbuf>

00407020 <setvbuf>:
  407020:	e92d 43f0 	stmdb	sp!, {r4, r5, r6, r7, r8, r9, lr}
  407024:	4c61      	ldr	r4, [pc, #388]	; (4071ac <setvbuf+0x18c>)
  407026:	6825      	ldr	r5, [r4, #0]
  407028:	b083      	sub	sp, #12
  40702a:	4604      	mov	r4, r0
  40702c:	460f      	mov	r7, r1
  40702e:	4690      	mov	r8, r2
  407030:	461e      	mov	r6, r3
  407032:	b115      	cbz	r5, 40703a <setvbuf+0x1a>
  407034:	6bab      	ldr	r3, [r5, #56]	; 0x38
  407036:	2b00      	cmp	r3, #0
  407038:	d064      	beq.n	407104 <setvbuf+0xe4>
  40703a:	f1b8 0f02 	cmp.w	r8, #2
  40703e:	d006      	beq.n	40704e <setvbuf+0x2e>
  407040:	f1b8 0f01 	cmp.w	r8, #1
  407044:	f200 809f 	bhi.w	407186 <setvbuf+0x166>
  407048:	2e00      	cmp	r6, #0
  40704a:	f2c0 809c 	blt.w	407186 <setvbuf+0x166>
  40704e:	6e63      	ldr	r3, [r4, #100]	; 0x64
  407050:	07d8      	lsls	r0, r3, #31
  407052:	d534      	bpl.n	4070be <setvbuf+0x9e>
  407054:	4621      	mov	r1, r4
  407056:	4628      	mov	r0, r5
  407058:	f001 f888 	bl	40816c <_fflush_r>
  40705c:	6b21      	ldr	r1, [r4, #48]	; 0x30
  40705e:	b141      	cbz	r1, 407072 <setvbuf+0x52>
  407060:	f104 0340 	add.w	r3, r4, #64	; 0x40
  407064:	4299      	cmp	r1, r3
  407066:	d002      	beq.n	40706e <setvbuf+0x4e>
  407068:	4628      	mov	r0, r5
  40706a:	f001 f9fd 	bl	408468 <_free_r>
  40706e:	2300      	movs	r3, #0
  407070:	6323      	str	r3, [r4, #48]	; 0x30
  407072:	f9b4 300c 	ldrsh.w	r3, [r4, #12]
  407076:	2200      	movs	r2, #0
  407078:	61a2      	str	r2, [r4, #24]
  40707a:	6062      	str	r2, [r4, #4]
  40707c:	061a      	lsls	r2, r3, #24
  40707e:	d43a      	bmi.n	4070f6 <setvbuf+0xd6>
  407080:	f423 634a 	bic.w	r3, r3, #3232	; 0xca0
  407084:	f023 0303 	bic.w	r3, r3, #3
  407088:	f1b8 0f02 	cmp.w	r8, #2
  40708c:	81a3      	strh	r3, [r4, #12]
  40708e:	d01d      	beq.n	4070cc <setvbuf+0xac>
  407090:	ab01      	add	r3, sp, #4
  407092:	466a      	mov	r2, sp
  407094:	4621      	mov	r1, r4
  407096:	4628      	mov	r0, r5
  407098:	f001 fc84 	bl	4089a4 <__swhatbuf_r>
  40709c:	89a3      	ldrh	r3, [r4, #12]
  40709e:	4318      	orrs	r0, r3
  4070a0:	81a0      	strh	r0, [r4, #12]
  4070a2:	2e00      	cmp	r6, #0
  4070a4:	d132      	bne.n	40710c <setvbuf+0xec>
  4070a6:	9e00      	ldr	r6, [sp, #0]
  4070a8:	4630      	mov	r0, r6
  4070aa:	f7ff fc85 	bl	4069b8 <malloc>
  4070ae:	4607      	mov	r7, r0
  4070b0:	2800      	cmp	r0, #0
  4070b2:	d06b      	beq.n	40718c <setvbuf+0x16c>
  4070b4:	89a3      	ldrh	r3, [r4, #12]
  4070b6:	f043 0380 	orr.w	r3, r3, #128	; 0x80
  4070ba:	81a3      	strh	r3, [r4, #12]
  4070bc:	e028      	b.n	407110 <setvbuf+0xf0>
  4070be:	89a3      	ldrh	r3, [r4, #12]
  4070c0:	0599      	lsls	r1, r3, #22
  4070c2:	d4c7      	bmi.n	407054 <setvbuf+0x34>
  4070c4:	6da0      	ldr	r0, [r4, #88]	; 0x58
  4070c6:	f001 fc69 	bl	40899c <__retarget_lock_acquire_recursive>
  4070ca:	e7c3      	b.n	407054 <setvbuf+0x34>
  4070cc:	2500      	movs	r5, #0
  4070ce:	6e61      	ldr	r1, [r4, #100]	; 0x64
  4070d0:	2600      	movs	r6, #0
  4070d2:	f104 0243 	add.w	r2, r4, #67	; 0x43
  4070d6:	f043 0302 	orr.w	r3, r3, #2
  4070da:	2001      	movs	r0, #1
  4070dc:	60a6      	str	r6, [r4, #8]
  4070de:	07ce      	lsls	r6, r1, #31
  4070e0:	81a3      	strh	r3, [r4, #12]
  4070e2:	6022      	str	r2, [r4, #0]
  4070e4:	6122      	str	r2, [r4, #16]
  4070e6:	6160      	str	r0, [r4, #20]
  4070e8:	d401      	bmi.n	4070ee <setvbuf+0xce>
  4070ea:	0598      	lsls	r0, r3, #22
  4070ec:	d53e      	bpl.n	40716c <setvbuf+0x14c>
  4070ee:	4628      	mov	r0, r5
  4070f0:	b003      	add	sp, #12
  4070f2:	e8bd 83f0 	ldmia.w	sp!, {r4, r5, r6, r7, r8, r9, pc}
  4070f6:	6921      	ldr	r1, [r4, #16]
  4070f8:	4628      	mov	r0, r5
  4070fa:	f001 f9b5 	bl	408468 <_free_r>
  4070fe:	f9b4 300c 	ldrsh.w	r3, [r4, #12]
  407102:	e7bd      	b.n	407080 <setvbuf+0x60>
  407104:	4628      	mov	r0, r5
  407106:	f001 f889 	bl	40821c <__sinit>
  40710a:	e796      	b.n	40703a <setvbuf+0x1a>
  40710c:	2f00      	cmp	r7, #0
  40710e:	d0cb      	beq.n	4070a8 <setvbuf+0x88>
  407110:	6bab      	ldr	r3, [r5, #56]	; 0x38
  407112:	2b00      	cmp	r3, #0
  407114:	d033      	beq.n	40717e <setvbuf+0x15e>
  407116:	9b00      	ldr	r3, [sp, #0]
  407118:	f9b4 200c 	ldrsh.w	r2, [r4, #12]
  40711c:	6027      	str	r7, [r4, #0]
  40711e:	429e      	cmp	r6, r3
  407120:	bf1c      	itt	ne
  407122:	f442 6200 	orrne.w	r2, r2, #2048	; 0x800
  407126:	81a2      	strhne	r2, [r4, #12]
  407128:	f1b8 0f01 	cmp.w	r8, #1
  40712c:	bf04      	itt	eq
  40712e:	f042 0201 	orreq.w	r2, r2, #1
  407132:	81a2      	strheq	r2, [r4, #12]
  407134:	b292      	uxth	r2, r2
  407136:	f012 0308 	ands.w	r3, r2, #8
  40713a:	6127      	str	r7, [r4, #16]
  40713c:	6166      	str	r6, [r4, #20]
  40713e:	d00e      	beq.n	40715e <setvbuf+0x13e>
  407140:	07d1      	lsls	r1, r2, #31
  407142:	d51a      	bpl.n	40717a <setvbuf+0x15a>
  407144:	6e65      	ldr	r5, [r4, #100]	; 0x64
  407146:	4276      	negs	r6, r6
  407148:	2300      	movs	r3, #0
  40714a:	f015 0501 	ands.w	r5, r5, #1
  40714e:	61a6      	str	r6, [r4, #24]
  407150:	60a3      	str	r3, [r4, #8]
  407152:	d009      	beq.n	407168 <setvbuf+0x148>
  407154:	2500      	movs	r5, #0
  407156:	4628      	mov	r0, r5
  407158:	b003      	add	sp, #12
  40715a:	e8bd 83f0 	ldmia.w	sp!, {r4, r5, r6, r7, r8, r9, pc}
  40715e:	60a3      	str	r3, [r4, #8]
  407160:	6e65      	ldr	r5, [r4, #100]	; 0x64
  407162:	f015 0501 	ands.w	r5, r5, #1
  407166:	d1f5      	bne.n	407154 <setvbuf+0x134>
  407168:	0593      	lsls	r3, r2, #22
  40716a:	d4c0      	bmi.n	4070ee <setvbuf+0xce>
  40716c:	6da0      	ldr	r0, [r4, #88]	; 0x58
  40716e:	f001 fc17 	bl	4089a0 <__retarget_lock_release_recursive>
  407172:	4628      	mov	r0, r5
  407174:	b003      	add	sp, #12
  407176:	e8bd 83f0 	ldmia.w	sp!, {r4, r5, r6, r7, r8, r9, pc}
  40717a:	60a6      	str	r6, [r4, #8]
  40717c:	e7f0      	b.n	407160 <setvbuf+0x140>
  40717e:	4628      	mov	r0, r5
  407180:	f001 f84c 	bl	40821c <__sinit>
  407184:	e7c7      	b.n	407116 <setvbuf+0xf6>
  407186:	f04f 35ff 	mov.w	r5, #4294967295
  40718a:	e7b0      	b.n	4070ee <setvbuf+0xce>
  40718c:	f8dd 9000 	ldr.w	r9, [sp]
  407190:	45b1      	cmp	r9, r6
  407192:	d004      	beq.n	40719e <setvbuf+0x17e>
  407194:	4648      	mov	r0, r9
  407196:	f7ff fc0f 	bl	4069b8 <malloc>
  40719a:	4607      	mov	r7, r0
  40719c:	b920      	cbnz	r0, 4071a8 <setvbuf+0x188>
  40719e:	f9b4 300c 	ldrsh.w	r3, [r4, #12]
  4071a2:	f04f 35ff 	mov.w	r5, #4294967295
  4071a6:	e792      	b.n	4070ce <setvbuf+0xae>
  4071a8:	464e      	mov	r6, r9
  4071aa:	e783      	b.n	4070b4 <setvbuf+0x94>
  4071ac:	20400054 	.word	0x20400054

004071b0 <__sprint_r.part.0>:
  4071b0:	e92d 4ff8 	stmdb	sp!, {r3, r4, r5, r6, r7, r8, r9, sl, fp, lr}
  4071b4:	6e4b      	ldr	r3, [r1, #100]	; 0x64
  4071b6:	049c      	lsls	r4, r3, #18
  4071b8:	4693      	mov	fp, r2
  4071ba:	d52f      	bpl.n	40721c <__sprint_r.part.0+0x6c>
  4071bc:	6893      	ldr	r3, [r2, #8]
  4071be:	6812      	ldr	r2, [r2, #0]
  4071c0:	b353      	cbz	r3, 407218 <__sprint_r.part.0+0x68>
  4071c2:	460e      	mov	r6, r1
  4071c4:	4607      	mov	r7, r0
  4071c6:	f102 0908 	add.w	r9, r2, #8
  4071ca:	e919 0420 	ldmdb	r9, {r5, sl}
  4071ce:	ea5f 089a 	movs.w	r8, sl, lsr #2
  4071d2:	d017      	beq.n	407204 <__sprint_r.part.0+0x54>
  4071d4:	3d04      	subs	r5, #4
  4071d6:	2400      	movs	r4, #0
  4071d8:	e001      	b.n	4071de <__sprint_r.part.0+0x2e>
  4071da:	45a0      	cmp	r8, r4
  4071dc:	d010      	beq.n	407200 <__sprint_r.part.0+0x50>
  4071de:	4632      	mov	r2, r6
  4071e0:	f855 1f04 	ldr.w	r1, [r5, #4]!
  4071e4:	4638      	mov	r0, r7
  4071e6:	f001 f8bb 	bl	408360 <_fputwc_r>
  4071ea:	1c43      	adds	r3, r0, #1
  4071ec:	f104 0401 	add.w	r4, r4, #1
  4071f0:	d1f3      	bne.n	4071da <__sprint_r.part.0+0x2a>
  4071f2:	2300      	movs	r3, #0
  4071f4:	f8cb 3008 	str.w	r3, [fp, #8]
  4071f8:	f8cb 3004 	str.w	r3, [fp, #4]
  4071fc:	e8bd 8ff8 	ldmia.w	sp!, {r3, r4, r5, r6, r7, r8, r9, sl, fp, pc}
  407200:	f8db 3008 	ldr.w	r3, [fp, #8]
  407204:	f02a 0a03 	bic.w	sl, sl, #3
  407208:	eba3 030a 	sub.w	r3, r3, sl
  40720c:	f8cb 3008 	str.w	r3, [fp, #8]
  407210:	f109 0908 	add.w	r9, r9, #8
  407214:	2b00      	cmp	r3, #0
  407216:	d1d8      	bne.n	4071ca <__sprint_r.part.0+0x1a>
  407218:	2000      	movs	r0, #0
  40721a:	e7ea      	b.n	4071f2 <__sprint_r.part.0+0x42>
  40721c:	f001 fa0a 	bl	408634 <__sfvwrite_r>
  407220:	2300      	movs	r3, #0
  407222:	f8cb 3008 	str.w	r3, [fp, #8]
  407226:	f8cb 3004 	str.w	r3, [fp, #4]
  40722a:	e8bd 8ff8 	ldmia.w	sp!, {r3, r4, r5, r6, r7, r8, r9, sl, fp, pc}
  40722e:	bf00      	nop

00407230 <_vfiprintf_r>:
  407230:	e92d 4ff0 	stmdb	sp!, {r4, r5, r6, r7, r8, r9, sl, fp, lr}
  407234:	b0ad      	sub	sp, #180	; 0xb4
  407236:	461d      	mov	r5, r3
  407238:	468b      	mov	fp, r1
  40723a:	4690      	mov	r8, r2
  40723c:	9307      	str	r3, [sp, #28]
  40723e:	9006      	str	r0, [sp, #24]
  407240:	b118      	cbz	r0, 40724a <_vfiprintf_r+0x1a>
  407242:	6b83      	ldr	r3, [r0, #56]	; 0x38
  407244:	2b00      	cmp	r3, #0
  407246:	f000 80f3 	beq.w	407430 <_vfiprintf_r+0x200>
  40724a:	f8db 3064 	ldr.w	r3, [fp, #100]	; 0x64
  40724e:	f9bb 000c 	ldrsh.w	r0, [fp, #12]
  407252:	07df      	lsls	r7, r3, #31
  407254:	b281      	uxth	r1, r0
  407256:	d402      	bmi.n	40725e <_vfiprintf_r+0x2e>
  407258:	058e      	lsls	r6, r1, #22
  40725a:	f140 80fc 	bpl.w	407456 <_vfiprintf_r+0x226>
  40725e:	048c      	lsls	r4, r1, #18
  407260:	d40a      	bmi.n	407278 <_vfiprintf_r+0x48>
  407262:	f8db 3064 	ldr.w	r3, [fp, #100]	; 0x64
  407266:	f440 5100 	orr.w	r1, r0, #8192	; 0x2000
  40726a:	f423 5300 	bic.w	r3, r3, #8192	; 0x2000
  40726e:	f8ab 100c 	strh.w	r1, [fp, #12]
  407272:	f8cb 3064 	str.w	r3, [fp, #100]	; 0x64
  407276:	b289      	uxth	r1, r1
  407278:	0708      	lsls	r0, r1, #28
  40727a:	f140 80b3 	bpl.w	4073e4 <_vfiprintf_r+0x1b4>
  40727e:	f8db 3010 	ldr.w	r3, [fp, #16]
  407282:	2b00      	cmp	r3, #0
  407284:	f000 80ae 	beq.w	4073e4 <_vfiprintf_r+0x1b4>
  407288:	f001 031a 	and.w	r3, r1, #26
  40728c:	2b0a      	cmp	r3, #10
  40728e:	f000 80b5 	beq.w	4073fc <_vfiprintf_r+0x1cc>
  407292:	2300      	movs	r3, #0
  407294:	f10d 0970 	add.w	r9, sp, #112	; 0x70
  407298:	930b      	str	r3, [sp, #44]	; 0x2c
  40729a:	9311      	str	r3, [sp, #68]	; 0x44
  40729c:	9310      	str	r3, [sp, #64]	; 0x40
  40729e:	9303      	str	r3, [sp, #12]
  4072a0:	f8cd 903c 	str.w	r9, [sp, #60]	; 0x3c
  4072a4:	46ca      	mov	sl, r9
  4072a6:	f8cd b010 	str.w	fp, [sp, #16]
  4072aa:	f898 3000 	ldrb.w	r3, [r8]
  4072ae:	4644      	mov	r4, r8
  4072b0:	b1fb      	cbz	r3, 4072f2 <_vfiprintf_r+0xc2>
  4072b2:	2b25      	cmp	r3, #37	; 0x25
  4072b4:	d102      	bne.n	4072bc <_vfiprintf_r+0x8c>
  4072b6:	e01c      	b.n	4072f2 <_vfiprintf_r+0xc2>
  4072b8:	2b25      	cmp	r3, #37	; 0x25
  4072ba:	d003      	beq.n	4072c4 <_vfiprintf_r+0x94>
  4072bc:	f814 3f01 	ldrb.w	r3, [r4, #1]!
  4072c0:	2b00      	cmp	r3, #0
  4072c2:	d1f9      	bne.n	4072b8 <_vfiprintf_r+0x88>
  4072c4:	eba4 0508 	sub.w	r5, r4, r8
  4072c8:	b19d      	cbz	r5, 4072f2 <_vfiprintf_r+0xc2>
  4072ca:	9b10      	ldr	r3, [sp, #64]	; 0x40
  4072cc:	9a11      	ldr	r2, [sp, #68]	; 0x44
  4072ce:	f8ca 8000 	str.w	r8, [sl]
  4072d2:	3301      	adds	r3, #1
  4072d4:	442a      	add	r2, r5
  4072d6:	2b07      	cmp	r3, #7
  4072d8:	f8ca 5004 	str.w	r5, [sl, #4]
  4072dc:	9211      	str	r2, [sp, #68]	; 0x44
  4072de:	9310      	str	r3, [sp, #64]	; 0x40
  4072e0:	dd7a      	ble.n	4073d8 <_vfiprintf_r+0x1a8>
  4072e2:	2a00      	cmp	r2, #0
  4072e4:	f040 84b0 	bne.w	407c48 <_vfiprintf_r+0xa18>
  4072e8:	9b03      	ldr	r3, [sp, #12]
  4072ea:	9210      	str	r2, [sp, #64]	; 0x40
  4072ec:	442b      	add	r3, r5
  4072ee:	46ca      	mov	sl, r9
  4072f0:	9303      	str	r3, [sp, #12]
  4072f2:	7823      	ldrb	r3, [r4, #0]
  4072f4:	2b00      	cmp	r3, #0
  4072f6:	f000 83e0 	beq.w	407aba <_vfiprintf_r+0x88a>
  4072fa:	2000      	movs	r0, #0
  4072fc:	f04f 0300 	mov.w	r3, #0
  407300:	f88d 3037 	strb.w	r3, [sp, #55]	; 0x37
  407304:	f104 0801 	add.w	r8, r4, #1
  407308:	7862      	ldrb	r2, [r4, #1]
  40730a:	4605      	mov	r5, r0
  40730c:	4606      	mov	r6, r0
  40730e:	4603      	mov	r3, r0
  407310:	f04f 34ff 	mov.w	r4, #4294967295
  407314:	f108 0801 	add.w	r8, r8, #1
  407318:	f1a2 0120 	sub.w	r1, r2, #32
  40731c:	2958      	cmp	r1, #88	; 0x58
  40731e:	f200 82de 	bhi.w	4078de <_vfiprintf_r+0x6ae>
  407322:	e8df f011 	tbh	[pc, r1, lsl #1]
  407326:	0221      	.short	0x0221
  407328:	02dc02dc 	.word	0x02dc02dc
  40732c:	02dc0229 	.word	0x02dc0229
  407330:	02dc02dc 	.word	0x02dc02dc
  407334:	02dc02dc 	.word	0x02dc02dc
  407338:	028902dc 	.word	0x028902dc
  40733c:	02dc0295 	.word	0x02dc0295
  407340:	02bd00a2 	.word	0x02bd00a2
  407344:	019f02dc 	.word	0x019f02dc
  407348:	01a401a4 	.word	0x01a401a4
  40734c:	01a401a4 	.word	0x01a401a4
  407350:	01a401a4 	.word	0x01a401a4
  407354:	01a401a4 	.word	0x01a401a4
  407358:	02dc01a4 	.word	0x02dc01a4
  40735c:	02dc02dc 	.word	0x02dc02dc
  407360:	02dc02dc 	.word	0x02dc02dc
  407364:	02dc02dc 	.word	0x02dc02dc
  407368:	02dc02dc 	.word	0x02dc02dc
  40736c:	01b202dc 	.word	0x01b202dc
  407370:	02dc02dc 	.word	0x02dc02dc
  407374:	02dc02dc 	.word	0x02dc02dc
  407378:	02dc02dc 	.word	0x02dc02dc
  40737c:	02dc02dc 	.word	0x02dc02dc
  407380:	02dc02dc 	.word	0x02dc02dc
  407384:	02dc0197 	.word	0x02dc0197
  407388:	02dc02dc 	.word	0x02dc02dc
  40738c:	02dc02dc 	.word	0x02dc02dc
  407390:	02dc019b 	.word	0x02dc019b
  407394:	025302dc 	.word	0x025302dc
  407398:	02dc02dc 	.word	0x02dc02dc
  40739c:	02dc02dc 	.word	0x02dc02dc
  4073a0:	02dc02dc 	.word	0x02dc02dc
  4073a4:	02dc02dc 	.word	0x02dc02dc
  4073a8:	02dc02dc 	.word	0x02dc02dc
  4073ac:	021b025a 	.word	0x021b025a
  4073b0:	02dc02dc 	.word	0x02dc02dc
  4073b4:	026e02dc 	.word	0x026e02dc
  4073b8:	02dc021b 	.word	0x02dc021b
  4073bc:	027302dc 	.word	0x027302dc
  4073c0:	01f502dc 	.word	0x01f502dc
  4073c4:	02090182 	.word	0x02090182
  4073c8:	02dc02d7 	.word	0x02dc02d7
  4073cc:	02dc029a 	.word	0x02dc029a
  4073d0:	02dc00a7 	.word	0x02dc00a7
  4073d4:	022e02dc 	.word	0x022e02dc
  4073d8:	f10a 0a08 	add.w	sl, sl, #8
  4073dc:	9b03      	ldr	r3, [sp, #12]
  4073de:	442b      	add	r3, r5
  4073e0:	9303      	str	r3, [sp, #12]
  4073e2:	e786      	b.n	4072f2 <_vfiprintf_r+0xc2>
  4073e4:	4659      	mov	r1, fp
  4073e6:	9806      	ldr	r0, [sp, #24]
  4073e8:	f000 fdac 	bl	407f44 <__swsetup_r>
  4073ec:	bb18      	cbnz	r0, 407436 <_vfiprintf_r+0x206>
  4073ee:	f8bb 100c 	ldrh.w	r1, [fp, #12]
  4073f2:	f001 031a 	and.w	r3, r1, #26
  4073f6:	2b0a      	cmp	r3, #10
  4073f8:	f47f af4b 	bne.w	407292 <_vfiprintf_r+0x62>
  4073fc:	f9bb 300e 	ldrsh.w	r3, [fp, #14]
  407400:	2b00      	cmp	r3, #0
  407402:	f6ff af46 	blt.w	407292 <_vfiprintf_r+0x62>
  407406:	f8db 3064 	ldr.w	r3, [fp, #100]	; 0x64
  40740a:	07db      	lsls	r3, r3, #31
  40740c:	d405      	bmi.n	40741a <_vfiprintf_r+0x1ea>
  40740e:	058f      	lsls	r7, r1, #22
  407410:	d403      	bmi.n	40741a <_vfiprintf_r+0x1ea>
  407412:	f8db 0058 	ldr.w	r0, [fp, #88]	; 0x58
  407416:	f001 fac3 	bl	4089a0 <__retarget_lock_release_recursive>
  40741a:	462b      	mov	r3, r5
  40741c:	4642      	mov	r2, r8
  40741e:	4659      	mov	r1, fp
  407420:	9806      	ldr	r0, [sp, #24]
  407422:	f000 fd4d 	bl	407ec0 <__sbprintf>
  407426:	9003      	str	r0, [sp, #12]
  407428:	9803      	ldr	r0, [sp, #12]
  40742a:	b02d      	add	sp, #180	; 0xb4
  40742c:	e8bd 8ff0 	ldmia.w	sp!, {r4, r5, r6, r7, r8, r9, sl, fp, pc}
  407430:	f000 fef4 	bl	40821c <__sinit>
  407434:	e709      	b.n	40724a <_vfiprintf_r+0x1a>
  407436:	f8db 3064 	ldr.w	r3, [fp, #100]	; 0x64
  40743a:	07d9      	lsls	r1, r3, #31
  40743c:	d404      	bmi.n	407448 <_vfiprintf_r+0x218>
  40743e:	f8bb 300c 	ldrh.w	r3, [fp, #12]
  407442:	059a      	lsls	r2, r3, #22
  407444:	f140 84aa 	bpl.w	407d9c <_vfiprintf_r+0xb6c>
  407448:	f04f 33ff 	mov.w	r3, #4294967295
  40744c:	9303      	str	r3, [sp, #12]
  40744e:	9803      	ldr	r0, [sp, #12]
  407450:	b02d      	add	sp, #180	; 0xb4
  407452:	e8bd 8ff0 	ldmia.w	sp!, {r4, r5, r6, r7, r8, r9, sl, fp, pc}
  407456:	f8db 0058 	ldr.w	r0, [fp, #88]	; 0x58
  40745a:	f001 fa9f 	bl	40899c <__retarget_lock_acquire_recursive>
  40745e:	f9bb 000c 	ldrsh.w	r0, [fp, #12]
  407462:	b281      	uxth	r1, r0
  407464:	e6fb      	b.n	40725e <_vfiprintf_r+0x2e>
  407466:	4276      	negs	r6, r6
  407468:	9207      	str	r2, [sp, #28]
  40746a:	f043 0304 	orr.w	r3, r3, #4
  40746e:	f898 2000 	ldrb.w	r2, [r8]
  407472:	e74f      	b.n	407314 <_vfiprintf_r+0xe4>
  407474:	9608      	str	r6, [sp, #32]
  407476:	069e      	lsls	r6, r3, #26
  407478:	f100 8450 	bmi.w	407d1c <_vfiprintf_r+0xaec>
  40747c:	9907      	ldr	r1, [sp, #28]
  40747e:	06dd      	lsls	r5, r3, #27
  407480:	460a      	mov	r2, r1
  407482:	f100 83ef 	bmi.w	407c64 <_vfiprintf_r+0xa34>
  407486:	0658      	lsls	r0, r3, #25
  407488:	f140 83ec 	bpl.w	407c64 <_vfiprintf_r+0xa34>
  40748c:	880e      	ldrh	r6, [r1, #0]
  40748e:	3104      	adds	r1, #4
  407490:	2700      	movs	r7, #0
  407492:	2201      	movs	r2, #1
  407494:	9107      	str	r1, [sp, #28]
  407496:	f04f 0100 	mov.w	r1, #0
  40749a:	f88d 1037 	strb.w	r1, [sp, #55]	; 0x37
  40749e:	2500      	movs	r5, #0
  4074a0:	1c61      	adds	r1, r4, #1
  4074a2:	f000 8116 	beq.w	4076d2 <_vfiprintf_r+0x4a2>
  4074a6:	f023 0180 	bic.w	r1, r3, #128	; 0x80
  4074aa:	9102      	str	r1, [sp, #8]
  4074ac:	ea56 0107 	orrs.w	r1, r6, r7
  4074b0:	f040 8114 	bne.w	4076dc <_vfiprintf_r+0x4ac>
  4074b4:	2c00      	cmp	r4, #0
  4074b6:	f040 835c 	bne.w	407b72 <_vfiprintf_r+0x942>
  4074ba:	2a00      	cmp	r2, #0
  4074bc:	f040 83b7 	bne.w	407c2e <_vfiprintf_r+0x9fe>
  4074c0:	f013 0301 	ands.w	r3, r3, #1
  4074c4:	9305      	str	r3, [sp, #20]
  4074c6:	f000 8457 	beq.w	407d78 <_vfiprintf_r+0xb48>
  4074ca:	f10d 0bb0 	add.w	fp, sp, #176	; 0xb0
  4074ce:	2330      	movs	r3, #48	; 0x30
  4074d0:	f80b 3d41 	strb.w	r3, [fp, #-65]!
  4074d4:	9b05      	ldr	r3, [sp, #20]
  4074d6:	42a3      	cmp	r3, r4
  4074d8:	bfb8      	it	lt
  4074da:	4623      	movlt	r3, r4
  4074dc:	9301      	str	r3, [sp, #4]
  4074de:	b10d      	cbz	r5, 4074e4 <_vfiprintf_r+0x2b4>
  4074e0:	3301      	adds	r3, #1
  4074e2:	9301      	str	r3, [sp, #4]
  4074e4:	9b02      	ldr	r3, [sp, #8]
  4074e6:	f013 0302 	ands.w	r3, r3, #2
  4074ea:	9309      	str	r3, [sp, #36]	; 0x24
  4074ec:	d002      	beq.n	4074f4 <_vfiprintf_r+0x2c4>
  4074ee:	9b01      	ldr	r3, [sp, #4]
  4074f0:	3302      	adds	r3, #2
  4074f2:	9301      	str	r3, [sp, #4]
  4074f4:	9b02      	ldr	r3, [sp, #8]
  4074f6:	f013 0384 	ands.w	r3, r3, #132	; 0x84
  4074fa:	930a      	str	r3, [sp, #40]	; 0x28
  4074fc:	f040 8217 	bne.w	40792e <_vfiprintf_r+0x6fe>
  407500:	9b08      	ldr	r3, [sp, #32]
  407502:	9a01      	ldr	r2, [sp, #4]
  407504:	1a9d      	subs	r5, r3, r2
  407506:	2d00      	cmp	r5, #0
  407508:	f340 8211 	ble.w	40792e <_vfiprintf_r+0x6fe>
  40750c:	2d10      	cmp	r5, #16
  40750e:	f340 8490 	ble.w	407e32 <_vfiprintf_r+0xc02>
  407512:	9b10      	ldr	r3, [sp, #64]	; 0x40
  407514:	9a11      	ldr	r2, [sp, #68]	; 0x44
  407516:	4ec4      	ldr	r6, [pc, #784]	; (407828 <_vfiprintf_r+0x5f8>)
  407518:	46d6      	mov	lr, sl
  40751a:	2710      	movs	r7, #16
  40751c:	46a2      	mov	sl, r4
  40751e:	4619      	mov	r1, r3
  407520:	9c06      	ldr	r4, [sp, #24]
  407522:	e007      	b.n	407534 <_vfiprintf_r+0x304>
  407524:	f101 0c02 	add.w	ip, r1, #2
  407528:	f10e 0e08 	add.w	lr, lr, #8
  40752c:	4601      	mov	r1, r0
  40752e:	3d10      	subs	r5, #16
  407530:	2d10      	cmp	r5, #16
  407532:	dd11      	ble.n	407558 <_vfiprintf_r+0x328>
  407534:	1c48      	adds	r0, r1, #1
  407536:	3210      	adds	r2, #16
  407538:	2807      	cmp	r0, #7
  40753a:	9211      	str	r2, [sp, #68]	; 0x44
  40753c:	e88e 00c0 	stmia.w	lr, {r6, r7}
  407540:	9010      	str	r0, [sp, #64]	; 0x40
  407542:	ddef      	ble.n	407524 <_vfiprintf_r+0x2f4>
  407544:	2a00      	cmp	r2, #0
  407546:	f040 81e4 	bne.w	407912 <_vfiprintf_r+0x6e2>
  40754a:	3d10      	subs	r5, #16
  40754c:	2d10      	cmp	r5, #16
  40754e:	4611      	mov	r1, r2
  407550:	f04f 0c01 	mov.w	ip, #1
  407554:	46ce      	mov	lr, r9
  407556:	dced      	bgt.n	407534 <_vfiprintf_r+0x304>
  407558:	4654      	mov	r4, sl
  40755a:	4661      	mov	r1, ip
  40755c:	46f2      	mov	sl, lr
  40755e:	442a      	add	r2, r5
  407560:	2907      	cmp	r1, #7
  407562:	9211      	str	r2, [sp, #68]	; 0x44
  407564:	f8ca 6000 	str.w	r6, [sl]
  407568:	f8ca 5004 	str.w	r5, [sl, #4]
  40756c:	9110      	str	r1, [sp, #64]	; 0x40
  40756e:	f300 82ec 	bgt.w	407b4a <_vfiprintf_r+0x91a>
  407572:	f89d 5037 	ldrb.w	r5, [sp, #55]	; 0x37
  407576:	f10a 0a08 	add.w	sl, sl, #8
  40757a:	1c48      	adds	r0, r1, #1
  40757c:	2d00      	cmp	r5, #0
  40757e:	f040 81de 	bne.w	40793e <_vfiprintf_r+0x70e>
  407582:	9b09      	ldr	r3, [sp, #36]	; 0x24
  407584:	2b00      	cmp	r3, #0
  407586:	f000 81f8 	beq.w	40797a <_vfiprintf_r+0x74a>
  40758a:	3202      	adds	r2, #2
  40758c:	a90e      	add	r1, sp, #56	; 0x38
  40758e:	2302      	movs	r3, #2
  407590:	2807      	cmp	r0, #7
  407592:	9211      	str	r2, [sp, #68]	; 0x44
  407594:	9010      	str	r0, [sp, #64]	; 0x40
  407596:	e88a 000a 	stmia.w	sl, {r1, r3}
  40759a:	f340 81ea 	ble.w	407972 <_vfiprintf_r+0x742>
  40759e:	2a00      	cmp	r2, #0
  4075a0:	f040 838c 	bne.w	407cbc <_vfiprintf_r+0xa8c>
  4075a4:	9b0a      	ldr	r3, [sp, #40]	; 0x28
  4075a6:	2b80      	cmp	r3, #128	; 0x80
  4075a8:	f04f 0001 	mov.w	r0, #1
  4075ac:	4611      	mov	r1, r2
  4075ae:	46ca      	mov	sl, r9
  4075b0:	f040 81e7 	bne.w	407982 <_vfiprintf_r+0x752>
  4075b4:	9b08      	ldr	r3, [sp, #32]
  4075b6:	9d01      	ldr	r5, [sp, #4]
  4075b8:	1b5e      	subs	r6, r3, r5
  4075ba:	2e00      	cmp	r6, #0
  4075bc:	f340 81e1 	ble.w	407982 <_vfiprintf_r+0x752>
  4075c0:	2e10      	cmp	r6, #16
  4075c2:	4d9a      	ldr	r5, [pc, #616]	; (40782c <_vfiprintf_r+0x5fc>)
  4075c4:	f340 8450 	ble.w	407e68 <_vfiprintf_r+0xc38>
  4075c8:	46d4      	mov	ip, sl
  4075ca:	2710      	movs	r7, #16
  4075cc:	46a2      	mov	sl, r4
  4075ce:	9c06      	ldr	r4, [sp, #24]
  4075d0:	e007      	b.n	4075e2 <_vfiprintf_r+0x3b2>
  4075d2:	f101 0e02 	add.w	lr, r1, #2
  4075d6:	f10c 0c08 	add.w	ip, ip, #8
  4075da:	4601      	mov	r1, r0
  4075dc:	3e10      	subs	r6, #16
  4075de:	2e10      	cmp	r6, #16
  4075e0:	dd11      	ble.n	407606 <_vfiprintf_r+0x3d6>
  4075e2:	1c48      	adds	r0, r1, #1
  4075e4:	3210      	adds	r2, #16
  4075e6:	2807      	cmp	r0, #7
  4075e8:	9211      	str	r2, [sp, #68]	; 0x44
  4075ea:	e88c 00a0 	stmia.w	ip, {r5, r7}
  4075ee:	9010      	str	r0, [sp, #64]	; 0x40
  4075f0:	ddef      	ble.n	4075d2 <_vfiprintf_r+0x3a2>
  4075f2:	2a00      	cmp	r2, #0
  4075f4:	f040 829d 	bne.w	407b32 <_vfiprintf_r+0x902>
  4075f8:	3e10      	subs	r6, #16
  4075fa:	2e10      	cmp	r6, #16
  4075fc:	f04f 0e01 	mov.w	lr, #1
  407600:	4611      	mov	r1, r2
  407602:	46cc      	mov	ip, r9
  407604:	dced      	bgt.n	4075e2 <_vfiprintf_r+0x3b2>
  407606:	4654      	mov	r4, sl
  407608:	46e2      	mov	sl, ip
  40760a:	4432      	add	r2, r6
  40760c:	f1be 0f07 	cmp.w	lr, #7
  407610:	9211      	str	r2, [sp, #68]	; 0x44
  407612:	e88a 0060 	stmia.w	sl, {r5, r6}
  407616:	f8cd e040 	str.w	lr, [sp, #64]	; 0x40
  40761a:	f300 8369 	bgt.w	407cf0 <_vfiprintf_r+0xac0>
  40761e:	f10a 0a08 	add.w	sl, sl, #8
  407622:	f10e 0001 	add.w	r0, lr, #1
  407626:	4671      	mov	r1, lr
  407628:	e1ab      	b.n	407982 <_vfiprintf_r+0x752>
  40762a:	9608      	str	r6, [sp, #32]
  40762c:	f013 0220 	ands.w	r2, r3, #32
  407630:	f040 838c 	bne.w	407d4c <_vfiprintf_r+0xb1c>
  407634:	f013 0110 	ands.w	r1, r3, #16
  407638:	f040 831a 	bne.w	407c70 <_vfiprintf_r+0xa40>
  40763c:	f013 0240 	ands.w	r2, r3, #64	; 0x40
  407640:	f000 8316 	beq.w	407c70 <_vfiprintf_r+0xa40>
  407644:	9807      	ldr	r0, [sp, #28]
  407646:	460a      	mov	r2, r1
  407648:	4601      	mov	r1, r0
  40764a:	3104      	adds	r1, #4
  40764c:	8806      	ldrh	r6, [r0, #0]
  40764e:	9107      	str	r1, [sp, #28]
  407650:	2700      	movs	r7, #0
  407652:	e720      	b.n	407496 <_vfiprintf_r+0x266>
  407654:	9608      	str	r6, [sp, #32]
  407656:	f043 0310 	orr.w	r3, r3, #16
  40765a:	e7e7      	b.n	40762c <_vfiprintf_r+0x3fc>
  40765c:	9608      	str	r6, [sp, #32]
  40765e:	f043 0310 	orr.w	r3, r3, #16
  407662:	e708      	b.n	407476 <_vfiprintf_r+0x246>
  407664:	f043 0380 	orr.w	r3, r3, #128	; 0x80
  407668:	f898 2000 	ldrb.w	r2, [r8]
  40766c:	e652      	b.n	407314 <_vfiprintf_r+0xe4>
  40766e:	f1a2 0130 	sub.w	r1, r2, #48	; 0x30
  407672:	2600      	movs	r6, #0
  407674:	f818 2b01 	ldrb.w	r2, [r8], #1
  407678:	eb06 0686 	add.w	r6, r6, r6, lsl #2
  40767c:	eb01 0646 	add.w	r6, r1, r6, lsl #1
  407680:	f1a2 0130 	sub.w	r1, r2, #48	; 0x30
  407684:	2909      	cmp	r1, #9
  407686:	d9f5      	bls.n	407674 <_vfiprintf_r+0x444>
  407688:	e646      	b.n	407318 <_vfiprintf_r+0xe8>
  40768a:	9608      	str	r6, [sp, #32]
  40768c:	2800      	cmp	r0, #0
  40768e:	f040 8408 	bne.w	407ea2 <_vfiprintf_r+0xc72>
  407692:	f043 0310 	orr.w	r3, r3, #16
  407696:	069e      	lsls	r6, r3, #26
  407698:	f100 834c 	bmi.w	407d34 <_vfiprintf_r+0xb04>
  40769c:	06dd      	lsls	r5, r3, #27
  40769e:	f100 82f3 	bmi.w	407c88 <_vfiprintf_r+0xa58>
  4076a2:	0658      	lsls	r0, r3, #25
  4076a4:	f140 82f0 	bpl.w	407c88 <_vfiprintf_r+0xa58>
  4076a8:	9d07      	ldr	r5, [sp, #28]
  4076aa:	f9b5 6000 	ldrsh.w	r6, [r5]
  4076ae:	462a      	mov	r2, r5
  4076b0:	17f7      	asrs	r7, r6, #31
  4076b2:	3204      	adds	r2, #4
  4076b4:	4630      	mov	r0, r6
  4076b6:	4639      	mov	r1, r7
  4076b8:	9207      	str	r2, [sp, #28]
  4076ba:	2800      	cmp	r0, #0
  4076bc:	f171 0200 	sbcs.w	r2, r1, #0
  4076c0:	f2c0 835d 	blt.w	407d7e <_vfiprintf_r+0xb4e>
  4076c4:	1c61      	adds	r1, r4, #1
  4076c6:	f89d 5037 	ldrb.w	r5, [sp, #55]	; 0x37
  4076ca:	f04f 0201 	mov.w	r2, #1
  4076ce:	f47f aeea 	bne.w	4074a6 <_vfiprintf_r+0x276>
  4076d2:	ea56 0107 	orrs.w	r1, r6, r7
  4076d6:	f000 824d 	beq.w	407b74 <_vfiprintf_r+0x944>
  4076da:	9302      	str	r3, [sp, #8]
  4076dc:	2a01      	cmp	r2, #1
  4076de:	f000 828c 	beq.w	407bfa <_vfiprintf_r+0x9ca>
  4076e2:	2a02      	cmp	r2, #2
  4076e4:	f040 825c 	bne.w	407ba0 <_vfiprintf_r+0x970>
  4076e8:	980b      	ldr	r0, [sp, #44]	; 0x2c
  4076ea:	46cb      	mov	fp, r9
  4076ec:	0933      	lsrs	r3, r6, #4
  4076ee:	f006 010f 	and.w	r1, r6, #15
  4076f2:	ea43 7307 	orr.w	r3, r3, r7, lsl #28
  4076f6:	093a      	lsrs	r2, r7, #4
  4076f8:	461e      	mov	r6, r3
  4076fa:	4617      	mov	r7, r2
  4076fc:	5c43      	ldrb	r3, [r0, r1]
  4076fe:	f80b 3d01 	strb.w	r3, [fp, #-1]!
  407702:	ea56 0307 	orrs.w	r3, r6, r7
  407706:	d1f1      	bne.n	4076ec <_vfiprintf_r+0x4bc>
  407708:	eba9 030b 	sub.w	r3, r9, fp
  40770c:	9305      	str	r3, [sp, #20]
  40770e:	e6e1      	b.n	4074d4 <_vfiprintf_r+0x2a4>
  407710:	2800      	cmp	r0, #0
  407712:	f040 83c0 	bne.w	407e96 <_vfiprintf_r+0xc66>
  407716:	0699      	lsls	r1, r3, #26
  407718:	f100 8367 	bmi.w	407dea <_vfiprintf_r+0xbba>
  40771c:	06da      	lsls	r2, r3, #27
  40771e:	f100 80f1 	bmi.w	407904 <_vfiprintf_r+0x6d4>
  407722:	065b      	lsls	r3, r3, #25
  407724:	f140 80ee 	bpl.w	407904 <_vfiprintf_r+0x6d4>
  407728:	9a07      	ldr	r2, [sp, #28]
  40772a:	6813      	ldr	r3, [r2, #0]
  40772c:	3204      	adds	r2, #4
  40772e:	9207      	str	r2, [sp, #28]
  407730:	f8bd 200c 	ldrh.w	r2, [sp, #12]
  407734:	801a      	strh	r2, [r3, #0]
  407736:	e5b8      	b.n	4072aa <_vfiprintf_r+0x7a>
  407738:	9807      	ldr	r0, [sp, #28]
  40773a:	4a3d      	ldr	r2, [pc, #244]	; (407830 <_vfiprintf_r+0x600>)
  40773c:	9608      	str	r6, [sp, #32]
  40773e:	920b      	str	r2, [sp, #44]	; 0x2c
  407740:	6806      	ldr	r6, [r0, #0]
  407742:	2278      	movs	r2, #120	; 0x78
  407744:	2130      	movs	r1, #48	; 0x30
  407746:	3004      	adds	r0, #4
  407748:	f88d 2039 	strb.w	r2, [sp, #57]	; 0x39
  40774c:	f043 0302 	orr.w	r3, r3, #2
  407750:	9007      	str	r0, [sp, #28]
  407752:	2700      	movs	r7, #0
  407754:	f88d 1038 	strb.w	r1, [sp, #56]	; 0x38
  407758:	2202      	movs	r2, #2
  40775a:	e69c      	b.n	407496 <_vfiprintf_r+0x266>
  40775c:	9608      	str	r6, [sp, #32]
  40775e:	2800      	cmp	r0, #0
  407760:	d099      	beq.n	407696 <_vfiprintf_r+0x466>
  407762:	f88d 5037 	strb.w	r5, [sp, #55]	; 0x37
  407766:	e796      	b.n	407696 <_vfiprintf_r+0x466>
  407768:	f898 2000 	ldrb.w	r2, [r8]
  40776c:	2d00      	cmp	r5, #0
  40776e:	f47f add1 	bne.w	407314 <_vfiprintf_r+0xe4>
  407772:	2001      	movs	r0, #1
  407774:	2520      	movs	r5, #32
  407776:	e5cd      	b.n	407314 <_vfiprintf_r+0xe4>
  407778:	f043 0301 	orr.w	r3, r3, #1
  40777c:	f898 2000 	ldrb.w	r2, [r8]
  407780:	e5c8      	b.n	407314 <_vfiprintf_r+0xe4>
  407782:	9608      	str	r6, [sp, #32]
  407784:	2800      	cmp	r0, #0
  407786:	f040 8393 	bne.w	407eb0 <_vfiprintf_r+0xc80>
  40778a:	4929      	ldr	r1, [pc, #164]	; (407830 <_vfiprintf_r+0x600>)
  40778c:	910b      	str	r1, [sp, #44]	; 0x2c
  40778e:	069f      	lsls	r7, r3, #26
  407790:	f100 82e8 	bmi.w	407d64 <_vfiprintf_r+0xb34>
  407794:	9807      	ldr	r0, [sp, #28]
  407796:	06de      	lsls	r6, r3, #27
  407798:	4601      	mov	r1, r0
  40779a:	f100 8270 	bmi.w	407c7e <_vfiprintf_r+0xa4e>
  40779e:	065d      	lsls	r5, r3, #25
  4077a0:	f140 826d 	bpl.w	407c7e <_vfiprintf_r+0xa4e>
  4077a4:	3104      	adds	r1, #4
  4077a6:	8806      	ldrh	r6, [r0, #0]
  4077a8:	9107      	str	r1, [sp, #28]
  4077aa:	2700      	movs	r7, #0
  4077ac:	07d8      	lsls	r0, r3, #31
  4077ae:	f140 8222 	bpl.w	407bf6 <_vfiprintf_r+0x9c6>
  4077b2:	ea56 0107 	orrs.w	r1, r6, r7
  4077b6:	f000 821e 	beq.w	407bf6 <_vfiprintf_r+0x9c6>
  4077ba:	2130      	movs	r1, #48	; 0x30
  4077bc:	f88d 2039 	strb.w	r2, [sp, #57]	; 0x39
  4077c0:	f043 0302 	orr.w	r3, r3, #2
  4077c4:	f88d 1038 	strb.w	r1, [sp, #56]	; 0x38
  4077c8:	2202      	movs	r2, #2
  4077ca:	e664      	b.n	407496 <_vfiprintf_r+0x266>
  4077cc:	9608      	str	r6, [sp, #32]
  4077ce:	2800      	cmp	r0, #0
  4077d0:	f040 836b 	bne.w	407eaa <_vfiprintf_r+0xc7a>
  4077d4:	4917      	ldr	r1, [pc, #92]	; (407834 <_vfiprintf_r+0x604>)
  4077d6:	910b      	str	r1, [sp, #44]	; 0x2c
  4077d8:	e7d9      	b.n	40778e <_vfiprintf_r+0x55e>
  4077da:	9907      	ldr	r1, [sp, #28]
  4077dc:	9608      	str	r6, [sp, #32]
  4077de:	680a      	ldr	r2, [r1, #0]
  4077e0:	f88d 2048 	strb.w	r2, [sp, #72]	; 0x48
  4077e4:	f04f 0000 	mov.w	r0, #0
  4077e8:	460a      	mov	r2, r1
  4077ea:	f88d 0037 	strb.w	r0, [sp, #55]	; 0x37
  4077ee:	3204      	adds	r2, #4
  4077f0:	2001      	movs	r0, #1
  4077f2:	9001      	str	r0, [sp, #4]
  4077f4:	9207      	str	r2, [sp, #28]
  4077f6:	9005      	str	r0, [sp, #20]
  4077f8:	f10d 0b48 	add.w	fp, sp, #72	; 0x48
  4077fc:	9302      	str	r3, [sp, #8]
  4077fe:	2400      	movs	r4, #0
  407800:	e670      	b.n	4074e4 <_vfiprintf_r+0x2b4>
  407802:	f043 0340 	orr.w	r3, r3, #64	; 0x40
  407806:	f898 2000 	ldrb.w	r2, [r8]
  40780a:	e583      	b.n	407314 <_vfiprintf_r+0xe4>
  40780c:	f898 2000 	ldrb.w	r2, [r8]
  407810:	2a6c      	cmp	r2, #108	; 0x6c
  407812:	bf03      	ittte	eq
  407814:	f898 2001 	ldrbeq.w	r2, [r8, #1]
  407818:	f043 0320 	orreq.w	r3, r3, #32
  40781c:	f108 0801 	addeq.w	r8, r8, #1
  407820:	f043 0310 	orrne.w	r3, r3, #16
  407824:	e576      	b.n	407314 <_vfiprintf_r+0xe4>
  407826:	bf00      	nop
  407828:	0041494c 	.word	0x0041494c
  40782c:	0041495c 	.word	0x0041495c
  407830:	00414930 	.word	0x00414930
  407834:	0041491c 	.word	0x0041491c
  407838:	9907      	ldr	r1, [sp, #28]
  40783a:	680e      	ldr	r6, [r1, #0]
  40783c:	460a      	mov	r2, r1
  40783e:	2e00      	cmp	r6, #0
  407840:	f102 0204 	add.w	r2, r2, #4
  407844:	f6ff ae0f 	blt.w	407466 <_vfiprintf_r+0x236>
  407848:	9207      	str	r2, [sp, #28]
  40784a:	f898 2000 	ldrb.w	r2, [r8]
  40784e:	e561      	b.n	407314 <_vfiprintf_r+0xe4>
  407850:	f898 2000 	ldrb.w	r2, [r8]
  407854:	2001      	movs	r0, #1
  407856:	252b      	movs	r5, #43	; 0x2b
  407858:	e55c      	b.n	407314 <_vfiprintf_r+0xe4>
  40785a:	9907      	ldr	r1, [sp, #28]
  40785c:	9608      	str	r6, [sp, #32]
  40785e:	f8d1 b000 	ldr.w	fp, [r1]
  407862:	f04f 0200 	mov.w	r2, #0
  407866:	f88d 2037 	strb.w	r2, [sp, #55]	; 0x37
  40786a:	1d0e      	adds	r6, r1, #4
  40786c:	f1bb 0f00 	cmp.w	fp, #0
  407870:	f000 82e5 	beq.w	407e3e <_vfiprintf_r+0xc0e>
  407874:	1c67      	adds	r7, r4, #1
  407876:	f000 82c4 	beq.w	407e02 <_vfiprintf_r+0xbd2>
  40787a:	4622      	mov	r2, r4
  40787c:	2100      	movs	r1, #0
  40787e:	4658      	mov	r0, fp
  407880:	9301      	str	r3, [sp, #4]
  407882:	f001 f91d 	bl	408ac0 <memchr>
  407886:	9b01      	ldr	r3, [sp, #4]
  407888:	2800      	cmp	r0, #0
  40788a:	f000 82e5 	beq.w	407e58 <_vfiprintf_r+0xc28>
  40788e:	eba0 020b 	sub.w	r2, r0, fp
  407892:	9205      	str	r2, [sp, #20]
  407894:	9607      	str	r6, [sp, #28]
  407896:	9302      	str	r3, [sp, #8]
  407898:	f89d 5037 	ldrb.w	r5, [sp, #55]	; 0x37
  40789c:	2400      	movs	r4, #0
  40789e:	e619      	b.n	4074d4 <_vfiprintf_r+0x2a4>
  4078a0:	f898 2000 	ldrb.w	r2, [r8]
  4078a4:	2a2a      	cmp	r2, #42	; 0x2a
  4078a6:	f108 0701 	add.w	r7, r8, #1
  4078aa:	f000 82e9 	beq.w	407e80 <_vfiprintf_r+0xc50>
  4078ae:	f1a2 0130 	sub.w	r1, r2, #48	; 0x30
  4078b2:	2909      	cmp	r1, #9
  4078b4:	46b8      	mov	r8, r7
  4078b6:	f04f 0400 	mov.w	r4, #0
  4078ba:	f63f ad2d 	bhi.w	407318 <_vfiprintf_r+0xe8>
  4078be:	f818 2b01 	ldrb.w	r2, [r8], #1
  4078c2:	eb04 0484 	add.w	r4, r4, r4, lsl #2
  4078c6:	eb01 0444 	add.w	r4, r1, r4, lsl #1
  4078ca:	f1a2 0130 	sub.w	r1, r2, #48	; 0x30
  4078ce:	2909      	cmp	r1, #9
  4078d0:	d9f5      	bls.n	4078be <_vfiprintf_r+0x68e>
  4078d2:	e521      	b.n	407318 <_vfiprintf_r+0xe8>
  4078d4:	f043 0320 	orr.w	r3, r3, #32
  4078d8:	f898 2000 	ldrb.w	r2, [r8]
  4078dc:	e51a      	b.n	407314 <_vfiprintf_r+0xe4>
  4078de:	9608      	str	r6, [sp, #32]
  4078e0:	2800      	cmp	r0, #0
  4078e2:	f040 82db 	bne.w	407e9c <_vfiprintf_r+0xc6c>
  4078e6:	2a00      	cmp	r2, #0
  4078e8:	f000 80e7 	beq.w	407aba <_vfiprintf_r+0x88a>
  4078ec:	2101      	movs	r1, #1
  4078ee:	f88d 2048 	strb.w	r2, [sp, #72]	; 0x48
  4078f2:	f04f 0200 	mov.w	r2, #0
  4078f6:	9101      	str	r1, [sp, #4]
  4078f8:	f88d 2037 	strb.w	r2, [sp, #55]	; 0x37
  4078fc:	9105      	str	r1, [sp, #20]
  4078fe:	f10d 0b48 	add.w	fp, sp, #72	; 0x48
  407902:	e77b      	b.n	4077fc <_vfiprintf_r+0x5cc>
  407904:	9a07      	ldr	r2, [sp, #28]
  407906:	6813      	ldr	r3, [r2, #0]
  407908:	3204      	adds	r2, #4
  40790a:	9207      	str	r2, [sp, #28]
  40790c:	9a03      	ldr	r2, [sp, #12]
  40790e:	601a      	str	r2, [r3, #0]
  407910:	e4cb      	b.n	4072aa <_vfiprintf_r+0x7a>
  407912:	aa0f      	add	r2, sp, #60	; 0x3c
  407914:	9904      	ldr	r1, [sp, #16]
  407916:	4620      	mov	r0, r4
  407918:	f7ff fc4a 	bl	4071b0 <__sprint_r.part.0>
  40791c:	2800      	cmp	r0, #0
  40791e:	f040 8139 	bne.w	407b94 <_vfiprintf_r+0x964>
  407922:	9910      	ldr	r1, [sp, #64]	; 0x40
  407924:	9a11      	ldr	r2, [sp, #68]	; 0x44
  407926:	f101 0c01 	add.w	ip, r1, #1
  40792a:	46ce      	mov	lr, r9
  40792c:	e5ff      	b.n	40752e <_vfiprintf_r+0x2fe>
  40792e:	9910      	ldr	r1, [sp, #64]	; 0x40
  407930:	9a11      	ldr	r2, [sp, #68]	; 0x44
  407932:	1c48      	adds	r0, r1, #1
  407934:	f89d 5037 	ldrb.w	r5, [sp, #55]	; 0x37
  407938:	2d00      	cmp	r5, #0
  40793a:	f43f ae22 	beq.w	407582 <_vfiprintf_r+0x352>
  40793e:	3201      	adds	r2, #1
  407940:	f10d 0537 	add.w	r5, sp, #55	; 0x37
  407944:	2101      	movs	r1, #1
  407946:	2807      	cmp	r0, #7
  407948:	9211      	str	r2, [sp, #68]	; 0x44
  40794a:	9010      	str	r0, [sp, #64]	; 0x40
  40794c:	f8ca 5000 	str.w	r5, [sl]
  407950:	f8ca 1004 	str.w	r1, [sl, #4]
  407954:	f340 8108 	ble.w	407b68 <_vfiprintf_r+0x938>
  407958:	2a00      	cmp	r2, #0
  40795a:	f040 81bc 	bne.w	407cd6 <_vfiprintf_r+0xaa6>
  40795e:	9b09      	ldr	r3, [sp, #36]	; 0x24
  407960:	2b00      	cmp	r3, #0
  407962:	f43f ae1f 	beq.w	4075a4 <_vfiprintf_r+0x374>
  407966:	ab0e      	add	r3, sp, #56	; 0x38
  407968:	2202      	movs	r2, #2
  40796a:	4608      	mov	r0, r1
  40796c:	931c      	str	r3, [sp, #112]	; 0x70
  40796e:	921d      	str	r2, [sp, #116]	; 0x74
  407970:	46ca      	mov	sl, r9
  407972:	4601      	mov	r1, r0
  407974:	f10a 0a08 	add.w	sl, sl, #8
  407978:	3001      	adds	r0, #1
  40797a:	9b0a      	ldr	r3, [sp, #40]	; 0x28
  40797c:	2b80      	cmp	r3, #128	; 0x80
  40797e:	f43f ae19 	beq.w	4075b4 <_vfiprintf_r+0x384>
  407982:	9b05      	ldr	r3, [sp, #20]
  407984:	1ae4      	subs	r4, r4, r3
  407986:	2c00      	cmp	r4, #0
  407988:	dd2e      	ble.n	4079e8 <_vfiprintf_r+0x7b8>
  40798a:	2c10      	cmp	r4, #16
  40798c:	4db3      	ldr	r5, [pc, #716]	; (407c5c <_vfiprintf_r+0xa2c>)
  40798e:	dd1e      	ble.n	4079ce <_vfiprintf_r+0x79e>
  407990:	46d6      	mov	lr, sl
  407992:	2610      	movs	r6, #16
  407994:	9f06      	ldr	r7, [sp, #24]
  407996:	f8dd a010 	ldr.w	sl, [sp, #16]
  40799a:	e006      	b.n	4079aa <_vfiprintf_r+0x77a>
  40799c:	1c88      	adds	r0, r1, #2
  40799e:	f10e 0e08 	add.w	lr, lr, #8
  4079a2:	4619      	mov	r1, r3
  4079a4:	3c10      	subs	r4, #16
  4079a6:	2c10      	cmp	r4, #16
  4079a8:	dd10      	ble.n	4079cc <_vfiprintf_r+0x79c>
  4079aa:	1c4b      	adds	r3, r1, #1
  4079ac:	3210      	adds	r2, #16
  4079ae:	2b07      	cmp	r3, #7
  4079b0:	9211      	str	r2, [sp, #68]	; 0x44
  4079b2:	e88e 0060 	stmia.w	lr, {r5, r6}
  4079b6:	9310      	str	r3, [sp, #64]	; 0x40
  4079b8:	ddf0      	ble.n	40799c <_vfiprintf_r+0x76c>
  4079ba:	2a00      	cmp	r2, #0
  4079bc:	d165      	bne.n	407a8a <_vfiprintf_r+0x85a>
  4079be:	3c10      	subs	r4, #16
  4079c0:	2c10      	cmp	r4, #16
  4079c2:	f04f 0001 	mov.w	r0, #1
  4079c6:	4611      	mov	r1, r2
  4079c8:	46ce      	mov	lr, r9
  4079ca:	dcee      	bgt.n	4079aa <_vfiprintf_r+0x77a>
  4079cc:	46f2      	mov	sl, lr
  4079ce:	4422      	add	r2, r4
  4079d0:	2807      	cmp	r0, #7
  4079d2:	9211      	str	r2, [sp, #68]	; 0x44
  4079d4:	f8ca 5000 	str.w	r5, [sl]
  4079d8:	f8ca 4004 	str.w	r4, [sl, #4]
  4079dc:	9010      	str	r0, [sp, #64]	; 0x40
  4079de:	f300 8085 	bgt.w	407aec <_vfiprintf_r+0x8bc>
  4079e2:	f10a 0a08 	add.w	sl, sl, #8
  4079e6:	3001      	adds	r0, #1
  4079e8:	9905      	ldr	r1, [sp, #20]
  4079ea:	f8ca b000 	str.w	fp, [sl]
  4079ee:	440a      	add	r2, r1
  4079f0:	2807      	cmp	r0, #7
  4079f2:	9211      	str	r2, [sp, #68]	; 0x44
  4079f4:	f8ca 1004 	str.w	r1, [sl, #4]
  4079f8:	9010      	str	r0, [sp, #64]	; 0x40
  4079fa:	f340 8082 	ble.w	407b02 <_vfiprintf_r+0x8d2>
  4079fe:	2a00      	cmp	r2, #0
  407a00:	f040 8118 	bne.w	407c34 <_vfiprintf_r+0xa04>
  407a04:	9b02      	ldr	r3, [sp, #8]
  407a06:	9210      	str	r2, [sp, #64]	; 0x40
  407a08:	0758      	lsls	r0, r3, #29
  407a0a:	d535      	bpl.n	407a78 <_vfiprintf_r+0x848>
  407a0c:	9b08      	ldr	r3, [sp, #32]
  407a0e:	9901      	ldr	r1, [sp, #4]
  407a10:	1a5c      	subs	r4, r3, r1
  407a12:	2c00      	cmp	r4, #0
  407a14:	f340 80e7 	ble.w	407be6 <_vfiprintf_r+0x9b6>
  407a18:	46ca      	mov	sl, r9
  407a1a:	2c10      	cmp	r4, #16
  407a1c:	f340 8218 	ble.w	407e50 <_vfiprintf_r+0xc20>
  407a20:	9910      	ldr	r1, [sp, #64]	; 0x40
  407a22:	4e8f      	ldr	r6, [pc, #572]	; (407c60 <_vfiprintf_r+0xa30>)
  407a24:	9f06      	ldr	r7, [sp, #24]
  407a26:	f8dd b010 	ldr.w	fp, [sp, #16]
  407a2a:	2510      	movs	r5, #16
  407a2c:	e006      	b.n	407a3c <_vfiprintf_r+0x80c>
  407a2e:	1c88      	adds	r0, r1, #2
  407a30:	f10a 0a08 	add.w	sl, sl, #8
  407a34:	4619      	mov	r1, r3
  407a36:	3c10      	subs	r4, #16
  407a38:	2c10      	cmp	r4, #16
  407a3a:	dd11      	ble.n	407a60 <_vfiprintf_r+0x830>
  407a3c:	1c4b      	adds	r3, r1, #1
  407a3e:	3210      	adds	r2, #16
  407a40:	2b07      	cmp	r3, #7
  407a42:	9211      	str	r2, [sp, #68]	; 0x44
  407a44:	f8ca 6000 	str.w	r6, [sl]
  407a48:	f8ca 5004 	str.w	r5, [sl, #4]
  407a4c:	9310      	str	r3, [sp, #64]	; 0x40
  407a4e:	ddee      	ble.n	407a2e <_vfiprintf_r+0x7fe>
  407a50:	bb42      	cbnz	r2, 407aa4 <_vfiprintf_r+0x874>
  407a52:	3c10      	subs	r4, #16
  407a54:	2c10      	cmp	r4, #16
  407a56:	f04f 0001 	mov.w	r0, #1
  407a5a:	4611      	mov	r1, r2
  407a5c:	46ca      	mov	sl, r9
  407a5e:	dced      	bgt.n	407a3c <_vfiprintf_r+0x80c>
  407a60:	4422      	add	r2, r4
  407a62:	2807      	cmp	r0, #7
  407a64:	9211      	str	r2, [sp, #68]	; 0x44
  407a66:	f8ca 6000 	str.w	r6, [sl]
  407a6a:	f8ca 4004 	str.w	r4, [sl, #4]
  407a6e:	9010      	str	r0, [sp, #64]	; 0x40
  407a70:	dd51      	ble.n	407b16 <_vfiprintf_r+0x8e6>
  407a72:	2a00      	cmp	r2, #0
  407a74:	f040 819b 	bne.w	407dae <_vfiprintf_r+0xb7e>
  407a78:	9b03      	ldr	r3, [sp, #12]
  407a7a:	9a08      	ldr	r2, [sp, #32]
  407a7c:	9901      	ldr	r1, [sp, #4]
  407a7e:	428a      	cmp	r2, r1
  407a80:	bfac      	ite	ge
  407a82:	189b      	addge	r3, r3, r2
  407a84:	185b      	addlt	r3, r3, r1
  407a86:	9303      	str	r3, [sp, #12]
  407a88:	e04e      	b.n	407b28 <_vfiprintf_r+0x8f8>
  407a8a:	aa0f      	add	r2, sp, #60	; 0x3c
  407a8c:	4651      	mov	r1, sl
  407a8e:	4638      	mov	r0, r7
  407a90:	f7ff fb8e 	bl	4071b0 <__sprint_r.part.0>
  407a94:	2800      	cmp	r0, #0
  407a96:	f040 813f 	bne.w	407d18 <_vfiprintf_r+0xae8>
  407a9a:	9910      	ldr	r1, [sp, #64]	; 0x40
  407a9c:	9a11      	ldr	r2, [sp, #68]	; 0x44
  407a9e:	1c48      	adds	r0, r1, #1
  407aa0:	46ce      	mov	lr, r9
  407aa2:	e77f      	b.n	4079a4 <_vfiprintf_r+0x774>
  407aa4:	aa0f      	add	r2, sp, #60	; 0x3c
  407aa6:	4659      	mov	r1, fp
  407aa8:	4638      	mov	r0, r7
  407aaa:	f7ff fb81 	bl	4071b0 <__sprint_r.part.0>
  407aae:	b960      	cbnz	r0, 407aca <_vfiprintf_r+0x89a>
  407ab0:	9910      	ldr	r1, [sp, #64]	; 0x40
  407ab2:	9a11      	ldr	r2, [sp, #68]	; 0x44
  407ab4:	1c48      	adds	r0, r1, #1
  407ab6:	46ca      	mov	sl, r9
  407ab8:	e7bd      	b.n	407a36 <_vfiprintf_r+0x806>
  407aba:	9b11      	ldr	r3, [sp, #68]	; 0x44
  407abc:	f8dd b010 	ldr.w	fp, [sp, #16]
  407ac0:	2b00      	cmp	r3, #0
  407ac2:	f040 81d4 	bne.w	407e6e <_vfiprintf_r+0xc3e>
  407ac6:	2300      	movs	r3, #0
  407ac8:	9310      	str	r3, [sp, #64]	; 0x40
  407aca:	f8db 3064 	ldr.w	r3, [fp, #100]	; 0x64
  407ace:	f013 0f01 	tst.w	r3, #1
  407ad2:	f8bb 300c 	ldrh.w	r3, [fp, #12]
  407ad6:	d102      	bne.n	407ade <_vfiprintf_r+0x8ae>
  407ad8:	059a      	lsls	r2, r3, #22
  407ada:	f140 80de 	bpl.w	407c9a <_vfiprintf_r+0xa6a>
  407ade:	065b      	lsls	r3, r3, #25
  407ae0:	f53f acb2 	bmi.w	407448 <_vfiprintf_r+0x218>
  407ae4:	9803      	ldr	r0, [sp, #12]
  407ae6:	b02d      	add	sp, #180	; 0xb4
  407ae8:	e8bd 8ff0 	ldmia.w	sp!, {r4, r5, r6, r7, r8, r9, sl, fp, pc}
  407aec:	2a00      	cmp	r2, #0
  407aee:	f040 8106 	bne.w	407cfe <_vfiprintf_r+0xace>
  407af2:	9a05      	ldr	r2, [sp, #20]
  407af4:	921d      	str	r2, [sp, #116]	; 0x74
  407af6:	2301      	movs	r3, #1
  407af8:	9211      	str	r2, [sp, #68]	; 0x44
  407afa:	f8cd b070 	str.w	fp, [sp, #112]	; 0x70
  407afe:	9310      	str	r3, [sp, #64]	; 0x40
  407b00:	46ca      	mov	sl, r9
  407b02:	f10a 0a08 	add.w	sl, sl, #8
  407b06:	9b02      	ldr	r3, [sp, #8]
  407b08:	0759      	lsls	r1, r3, #29
  407b0a:	d504      	bpl.n	407b16 <_vfiprintf_r+0x8e6>
  407b0c:	9b08      	ldr	r3, [sp, #32]
  407b0e:	9901      	ldr	r1, [sp, #4]
  407b10:	1a5c      	subs	r4, r3, r1
  407b12:	2c00      	cmp	r4, #0
  407b14:	dc81      	bgt.n	407a1a <_vfiprintf_r+0x7ea>
  407b16:	9b03      	ldr	r3, [sp, #12]
  407b18:	9908      	ldr	r1, [sp, #32]
  407b1a:	9801      	ldr	r0, [sp, #4]
  407b1c:	4281      	cmp	r1, r0
  407b1e:	bfac      	ite	ge
  407b20:	185b      	addge	r3, r3, r1
  407b22:	181b      	addlt	r3, r3, r0
  407b24:	9303      	str	r3, [sp, #12]
  407b26:	bb72      	cbnz	r2, 407b86 <_vfiprintf_r+0x956>
  407b28:	2300      	movs	r3, #0
  407b2a:	9310      	str	r3, [sp, #64]	; 0x40
  407b2c:	46ca      	mov	sl, r9
  407b2e:	f7ff bbbc 	b.w	4072aa <_vfiprintf_r+0x7a>
  407b32:	aa0f      	add	r2, sp, #60	; 0x3c
  407b34:	9904      	ldr	r1, [sp, #16]
  407b36:	4620      	mov	r0, r4
  407b38:	f7ff fb3a 	bl	4071b0 <__sprint_r.part.0>
  407b3c:	bb50      	cbnz	r0, 407b94 <_vfiprintf_r+0x964>
  407b3e:	9910      	ldr	r1, [sp, #64]	; 0x40
  407b40:	9a11      	ldr	r2, [sp, #68]	; 0x44
  407b42:	f101 0e01 	add.w	lr, r1, #1
  407b46:	46cc      	mov	ip, r9
  407b48:	e548      	b.n	4075dc <_vfiprintf_r+0x3ac>
  407b4a:	2a00      	cmp	r2, #0
  407b4c:	f040 8140 	bne.w	407dd0 <_vfiprintf_r+0xba0>
  407b50:	f89d 1037 	ldrb.w	r1, [sp, #55]	; 0x37
  407b54:	2900      	cmp	r1, #0
  407b56:	f000 811b 	beq.w	407d90 <_vfiprintf_r+0xb60>
  407b5a:	2201      	movs	r2, #1
  407b5c:	f10d 0137 	add.w	r1, sp, #55	; 0x37
  407b60:	4610      	mov	r0, r2
  407b62:	921d      	str	r2, [sp, #116]	; 0x74
  407b64:	911c      	str	r1, [sp, #112]	; 0x70
  407b66:	46ca      	mov	sl, r9
  407b68:	4601      	mov	r1, r0
  407b6a:	f10a 0a08 	add.w	sl, sl, #8
  407b6e:	3001      	adds	r0, #1
  407b70:	e507      	b.n	407582 <_vfiprintf_r+0x352>
  407b72:	9b02      	ldr	r3, [sp, #8]
  407b74:	2a01      	cmp	r2, #1
  407b76:	f000 8098 	beq.w	407caa <_vfiprintf_r+0xa7a>
  407b7a:	2a02      	cmp	r2, #2
  407b7c:	d10d      	bne.n	407b9a <_vfiprintf_r+0x96a>
  407b7e:	9302      	str	r3, [sp, #8]
  407b80:	2600      	movs	r6, #0
  407b82:	2700      	movs	r7, #0
  407b84:	e5b0      	b.n	4076e8 <_vfiprintf_r+0x4b8>
  407b86:	aa0f      	add	r2, sp, #60	; 0x3c
  407b88:	9904      	ldr	r1, [sp, #16]
  407b8a:	9806      	ldr	r0, [sp, #24]
  407b8c:	f7ff fb10 	bl	4071b0 <__sprint_r.part.0>
  407b90:	2800      	cmp	r0, #0
  407b92:	d0c9      	beq.n	407b28 <_vfiprintf_r+0x8f8>
  407b94:	f8dd b010 	ldr.w	fp, [sp, #16]
  407b98:	e797      	b.n	407aca <_vfiprintf_r+0x89a>
  407b9a:	9302      	str	r3, [sp, #8]
  407b9c:	2600      	movs	r6, #0
  407b9e:	2700      	movs	r7, #0
  407ba0:	4649      	mov	r1, r9
  407ba2:	e000      	b.n	407ba6 <_vfiprintf_r+0x976>
  407ba4:	4659      	mov	r1, fp
  407ba6:	08f2      	lsrs	r2, r6, #3
  407ba8:	ea42 7247 	orr.w	r2, r2, r7, lsl #29
  407bac:	08f8      	lsrs	r0, r7, #3
  407bae:	f006 0307 	and.w	r3, r6, #7
  407bb2:	4607      	mov	r7, r0
  407bb4:	4616      	mov	r6, r2
  407bb6:	3330      	adds	r3, #48	; 0x30
  407bb8:	ea56 0207 	orrs.w	r2, r6, r7
  407bbc:	f801 3c01 	strb.w	r3, [r1, #-1]
  407bc0:	f101 3bff 	add.w	fp, r1, #4294967295
  407bc4:	d1ee      	bne.n	407ba4 <_vfiprintf_r+0x974>
  407bc6:	9a02      	ldr	r2, [sp, #8]
  407bc8:	07d6      	lsls	r6, r2, #31
  407bca:	f57f ad9d 	bpl.w	407708 <_vfiprintf_r+0x4d8>
  407bce:	2b30      	cmp	r3, #48	; 0x30
  407bd0:	f43f ad9a 	beq.w	407708 <_vfiprintf_r+0x4d8>
  407bd4:	3902      	subs	r1, #2
  407bd6:	2330      	movs	r3, #48	; 0x30
  407bd8:	f80b 3c01 	strb.w	r3, [fp, #-1]
  407bdc:	eba9 0301 	sub.w	r3, r9, r1
  407be0:	9305      	str	r3, [sp, #20]
  407be2:	468b      	mov	fp, r1
  407be4:	e476      	b.n	4074d4 <_vfiprintf_r+0x2a4>
  407be6:	9b03      	ldr	r3, [sp, #12]
  407be8:	9a08      	ldr	r2, [sp, #32]
  407bea:	428a      	cmp	r2, r1
  407bec:	bfac      	ite	ge
  407bee:	189b      	addge	r3, r3, r2
  407bf0:	185b      	addlt	r3, r3, r1
  407bf2:	9303      	str	r3, [sp, #12]
  407bf4:	e798      	b.n	407b28 <_vfiprintf_r+0x8f8>
  407bf6:	2202      	movs	r2, #2
  407bf8:	e44d      	b.n	407496 <_vfiprintf_r+0x266>
  407bfa:	2f00      	cmp	r7, #0
  407bfc:	bf08      	it	eq
  407bfe:	2e0a      	cmpeq	r6, #10
  407c00:	d352      	bcc.n	407ca8 <_vfiprintf_r+0xa78>
  407c02:	46cb      	mov	fp, r9
  407c04:	4630      	mov	r0, r6
  407c06:	4639      	mov	r1, r7
  407c08:	220a      	movs	r2, #10
  407c0a:	2300      	movs	r3, #0
  407c0c:	f001 fcd4 	bl	4095b8 <__aeabi_uldivmod>
  407c10:	3230      	adds	r2, #48	; 0x30
  407c12:	f80b 2d01 	strb.w	r2, [fp, #-1]!
  407c16:	4630      	mov	r0, r6
  407c18:	4639      	mov	r1, r7
  407c1a:	2300      	movs	r3, #0
  407c1c:	220a      	movs	r2, #10
  407c1e:	f001 fccb 	bl	4095b8 <__aeabi_uldivmod>
  407c22:	4606      	mov	r6, r0
  407c24:	460f      	mov	r7, r1
  407c26:	ea56 0307 	orrs.w	r3, r6, r7
  407c2a:	d1eb      	bne.n	407c04 <_vfiprintf_r+0x9d4>
  407c2c:	e56c      	b.n	407708 <_vfiprintf_r+0x4d8>
  407c2e:	9405      	str	r4, [sp, #20]
  407c30:	46cb      	mov	fp, r9
  407c32:	e44f      	b.n	4074d4 <_vfiprintf_r+0x2a4>
  407c34:	aa0f      	add	r2, sp, #60	; 0x3c
  407c36:	9904      	ldr	r1, [sp, #16]
  407c38:	9806      	ldr	r0, [sp, #24]
  407c3a:	f7ff fab9 	bl	4071b0 <__sprint_r.part.0>
  407c3e:	2800      	cmp	r0, #0
  407c40:	d1a8      	bne.n	407b94 <_vfiprintf_r+0x964>
  407c42:	9a11      	ldr	r2, [sp, #68]	; 0x44
  407c44:	46ca      	mov	sl, r9
  407c46:	e75e      	b.n	407b06 <_vfiprintf_r+0x8d6>
  407c48:	aa0f      	add	r2, sp, #60	; 0x3c
  407c4a:	9904      	ldr	r1, [sp, #16]
  407c4c:	9806      	ldr	r0, [sp, #24]
  407c4e:	f7ff faaf 	bl	4071b0 <__sprint_r.part.0>
  407c52:	2800      	cmp	r0, #0
  407c54:	d19e      	bne.n	407b94 <_vfiprintf_r+0x964>
  407c56:	46ca      	mov	sl, r9
  407c58:	f7ff bbc0 	b.w	4073dc <_vfiprintf_r+0x1ac>
  407c5c:	0041495c 	.word	0x0041495c
  407c60:	0041494c 	.word	0x0041494c
  407c64:	3104      	adds	r1, #4
  407c66:	6816      	ldr	r6, [r2, #0]
  407c68:	9107      	str	r1, [sp, #28]
  407c6a:	2201      	movs	r2, #1
  407c6c:	2700      	movs	r7, #0
  407c6e:	e412      	b.n	407496 <_vfiprintf_r+0x266>
  407c70:	9807      	ldr	r0, [sp, #28]
  407c72:	4601      	mov	r1, r0
  407c74:	3104      	adds	r1, #4
  407c76:	6806      	ldr	r6, [r0, #0]
  407c78:	9107      	str	r1, [sp, #28]
  407c7a:	2700      	movs	r7, #0
  407c7c:	e40b      	b.n	407496 <_vfiprintf_r+0x266>
  407c7e:	680e      	ldr	r6, [r1, #0]
  407c80:	3104      	adds	r1, #4
  407c82:	9107      	str	r1, [sp, #28]
  407c84:	2700      	movs	r7, #0
  407c86:	e591      	b.n	4077ac <_vfiprintf_r+0x57c>
  407c88:	9907      	ldr	r1, [sp, #28]
  407c8a:	680e      	ldr	r6, [r1, #0]
  407c8c:	460a      	mov	r2, r1
  407c8e:	17f7      	asrs	r7, r6, #31
  407c90:	3204      	adds	r2, #4
  407c92:	9207      	str	r2, [sp, #28]
  407c94:	4630      	mov	r0, r6
  407c96:	4639      	mov	r1, r7
  407c98:	e50f      	b.n	4076ba <_vfiprintf_r+0x48a>
  407c9a:	f8db 0058 	ldr.w	r0, [fp, #88]	; 0x58
  407c9e:	f000 fe7f 	bl	4089a0 <__retarget_lock_release_recursive>
  407ca2:	f8bb 300c 	ldrh.w	r3, [fp, #12]
  407ca6:	e71a      	b.n	407ade <_vfiprintf_r+0x8ae>
  407ca8:	9b02      	ldr	r3, [sp, #8]
  407caa:	9302      	str	r3, [sp, #8]
  407cac:	f10d 0bb0 	add.w	fp, sp, #176	; 0xb0
  407cb0:	3630      	adds	r6, #48	; 0x30
  407cb2:	2301      	movs	r3, #1
  407cb4:	f80b 6d41 	strb.w	r6, [fp, #-65]!
  407cb8:	9305      	str	r3, [sp, #20]
  407cba:	e40b      	b.n	4074d4 <_vfiprintf_r+0x2a4>
  407cbc:	aa0f      	add	r2, sp, #60	; 0x3c
  407cbe:	9904      	ldr	r1, [sp, #16]
  407cc0:	9806      	ldr	r0, [sp, #24]
  407cc2:	f7ff fa75 	bl	4071b0 <__sprint_r.part.0>
  407cc6:	2800      	cmp	r0, #0
  407cc8:	f47f af64 	bne.w	407b94 <_vfiprintf_r+0x964>
  407ccc:	9910      	ldr	r1, [sp, #64]	; 0x40
  407cce:	9a11      	ldr	r2, [sp, #68]	; 0x44
  407cd0:	1c48      	adds	r0, r1, #1
  407cd2:	46ca      	mov	sl, r9
  407cd4:	e651      	b.n	40797a <_vfiprintf_r+0x74a>
  407cd6:	aa0f      	add	r2, sp, #60	; 0x3c
  407cd8:	9904      	ldr	r1, [sp, #16]
  407cda:	9806      	ldr	r0, [sp, #24]
  407cdc:	f7ff fa68 	bl	4071b0 <__sprint_r.part.0>
  407ce0:	2800      	cmp	r0, #0
  407ce2:	f47f af57 	bne.w	407b94 <_vfiprintf_r+0x964>
  407ce6:	9910      	ldr	r1, [sp, #64]	; 0x40
  407ce8:	9a11      	ldr	r2, [sp, #68]	; 0x44
  407cea:	1c48      	adds	r0, r1, #1
  407cec:	46ca      	mov	sl, r9
  407cee:	e448      	b.n	407582 <_vfiprintf_r+0x352>
  407cf0:	2a00      	cmp	r2, #0
  407cf2:	f040 8091 	bne.w	407e18 <_vfiprintf_r+0xbe8>
  407cf6:	2001      	movs	r0, #1
  407cf8:	4611      	mov	r1, r2
  407cfa:	46ca      	mov	sl, r9
  407cfc:	e641      	b.n	407982 <_vfiprintf_r+0x752>
  407cfe:	aa0f      	add	r2, sp, #60	; 0x3c
  407d00:	9904      	ldr	r1, [sp, #16]
  407d02:	9806      	ldr	r0, [sp, #24]
  407d04:	f7ff fa54 	bl	4071b0 <__sprint_r.part.0>
  407d08:	2800      	cmp	r0, #0
  407d0a:	f47f af43 	bne.w	407b94 <_vfiprintf_r+0x964>
  407d0e:	9810      	ldr	r0, [sp, #64]	; 0x40
  407d10:	9a11      	ldr	r2, [sp, #68]	; 0x44
  407d12:	3001      	adds	r0, #1
  407d14:	46ca      	mov	sl, r9
  407d16:	e667      	b.n	4079e8 <_vfiprintf_r+0x7b8>
  407d18:	46d3      	mov	fp, sl
  407d1a:	e6d6      	b.n	407aca <_vfiprintf_r+0x89a>
  407d1c:	9e07      	ldr	r6, [sp, #28]
  407d1e:	3607      	adds	r6, #7
  407d20:	f026 0207 	bic.w	r2, r6, #7
  407d24:	f102 0108 	add.w	r1, r2, #8
  407d28:	e9d2 6700 	ldrd	r6, r7, [r2]
  407d2c:	9107      	str	r1, [sp, #28]
  407d2e:	2201      	movs	r2, #1
  407d30:	f7ff bbb1 	b.w	407496 <_vfiprintf_r+0x266>
  407d34:	9e07      	ldr	r6, [sp, #28]
  407d36:	3607      	adds	r6, #7
  407d38:	f026 0607 	bic.w	r6, r6, #7
  407d3c:	e9d6 0100 	ldrd	r0, r1, [r6]
  407d40:	f106 0208 	add.w	r2, r6, #8
  407d44:	9207      	str	r2, [sp, #28]
  407d46:	4606      	mov	r6, r0
  407d48:	460f      	mov	r7, r1
  407d4a:	e4b6      	b.n	4076ba <_vfiprintf_r+0x48a>
  407d4c:	9e07      	ldr	r6, [sp, #28]
  407d4e:	3607      	adds	r6, #7
  407d50:	f026 0207 	bic.w	r2, r6, #7
  407d54:	f102 0108 	add.w	r1, r2, #8
  407d58:	e9d2 6700 	ldrd	r6, r7, [r2]
  407d5c:	9107      	str	r1, [sp, #28]
  407d5e:	2200      	movs	r2, #0
  407d60:	f7ff bb99 	b.w	407496 <_vfiprintf_r+0x266>
  407d64:	9e07      	ldr	r6, [sp, #28]
  407d66:	3607      	adds	r6, #7
  407d68:	f026 0107 	bic.w	r1, r6, #7
  407d6c:	f101 0008 	add.w	r0, r1, #8
  407d70:	9007      	str	r0, [sp, #28]
  407d72:	e9d1 6700 	ldrd	r6, r7, [r1]
  407d76:	e519      	b.n	4077ac <_vfiprintf_r+0x57c>
  407d78:	46cb      	mov	fp, r9
  407d7a:	f7ff bbab 	b.w	4074d4 <_vfiprintf_r+0x2a4>
  407d7e:	252d      	movs	r5, #45	; 0x2d
  407d80:	4276      	negs	r6, r6
  407d82:	eb67 0747 	sbc.w	r7, r7, r7, lsl #1
  407d86:	f88d 5037 	strb.w	r5, [sp, #55]	; 0x37
  407d8a:	2201      	movs	r2, #1
  407d8c:	f7ff bb88 	b.w	4074a0 <_vfiprintf_r+0x270>
  407d90:	9b09      	ldr	r3, [sp, #36]	; 0x24
  407d92:	b9b3      	cbnz	r3, 407dc2 <_vfiprintf_r+0xb92>
  407d94:	4611      	mov	r1, r2
  407d96:	2001      	movs	r0, #1
  407d98:	46ca      	mov	sl, r9
  407d9a:	e5f2      	b.n	407982 <_vfiprintf_r+0x752>
  407d9c:	f8db 0058 	ldr.w	r0, [fp, #88]	; 0x58
  407da0:	f000 fdfe 	bl	4089a0 <__retarget_lock_release_recursive>
  407da4:	f04f 33ff 	mov.w	r3, #4294967295
  407da8:	9303      	str	r3, [sp, #12]
  407daa:	f7ff bb50 	b.w	40744e <_vfiprintf_r+0x21e>
  407dae:	aa0f      	add	r2, sp, #60	; 0x3c
  407db0:	9904      	ldr	r1, [sp, #16]
  407db2:	9806      	ldr	r0, [sp, #24]
  407db4:	f7ff f9fc 	bl	4071b0 <__sprint_r.part.0>
  407db8:	2800      	cmp	r0, #0
  407dba:	f47f aeeb 	bne.w	407b94 <_vfiprintf_r+0x964>
  407dbe:	9a11      	ldr	r2, [sp, #68]	; 0x44
  407dc0:	e6a9      	b.n	407b16 <_vfiprintf_r+0x8e6>
  407dc2:	ab0e      	add	r3, sp, #56	; 0x38
  407dc4:	2202      	movs	r2, #2
  407dc6:	931c      	str	r3, [sp, #112]	; 0x70
  407dc8:	921d      	str	r2, [sp, #116]	; 0x74
  407dca:	2001      	movs	r0, #1
  407dcc:	46ca      	mov	sl, r9
  407dce:	e5d0      	b.n	407972 <_vfiprintf_r+0x742>
  407dd0:	aa0f      	add	r2, sp, #60	; 0x3c
  407dd2:	9904      	ldr	r1, [sp, #16]
  407dd4:	9806      	ldr	r0, [sp, #24]
  407dd6:	f7ff f9eb 	bl	4071b0 <__sprint_r.part.0>
  407dda:	2800      	cmp	r0, #0
  407ddc:	f47f aeda 	bne.w	407b94 <_vfiprintf_r+0x964>
  407de0:	9910      	ldr	r1, [sp, #64]	; 0x40
  407de2:	9a11      	ldr	r2, [sp, #68]	; 0x44
  407de4:	1c48      	adds	r0, r1, #1
  407de6:	46ca      	mov	sl, r9
  407de8:	e5a4      	b.n	407934 <_vfiprintf_r+0x704>
  407dea:	9a07      	ldr	r2, [sp, #28]
  407dec:	9903      	ldr	r1, [sp, #12]
  407dee:	6813      	ldr	r3, [r2, #0]
  407df0:	17cd      	asrs	r5, r1, #31
  407df2:	4608      	mov	r0, r1
  407df4:	3204      	adds	r2, #4
  407df6:	4629      	mov	r1, r5
  407df8:	9207      	str	r2, [sp, #28]
  407dfa:	e9c3 0100 	strd	r0, r1, [r3]
  407dfe:	f7ff ba54 	b.w	4072aa <_vfiprintf_r+0x7a>
  407e02:	4658      	mov	r0, fp
  407e04:	9607      	str	r6, [sp, #28]
  407e06:	9302      	str	r3, [sp, #8]
  407e08:	f001 f99a 	bl	409140 <strlen>
  407e0c:	2400      	movs	r4, #0
  407e0e:	9005      	str	r0, [sp, #20]
  407e10:	f89d 5037 	ldrb.w	r5, [sp, #55]	; 0x37
  407e14:	f7ff bb5e 	b.w	4074d4 <_vfiprintf_r+0x2a4>
  407e18:	aa0f      	add	r2, sp, #60	; 0x3c
  407e1a:	9904      	ldr	r1, [sp, #16]
  407e1c:	9806      	ldr	r0, [sp, #24]
  407e1e:	f7ff f9c7 	bl	4071b0 <__sprint_r.part.0>
  407e22:	2800      	cmp	r0, #0
  407e24:	f47f aeb6 	bne.w	407b94 <_vfiprintf_r+0x964>
  407e28:	9910      	ldr	r1, [sp, #64]	; 0x40
  407e2a:	9a11      	ldr	r2, [sp, #68]	; 0x44
  407e2c:	1c48      	adds	r0, r1, #1
  407e2e:	46ca      	mov	sl, r9
  407e30:	e5a7      	b.n	407982 <_vfiprintf_r+0x752>
  407e32:	9910      	ldr	r1, [sp, #64]	; 0x40
  407e34:	9a11      	ldr	r2, [sp, #68]	; 0x44
  407e36:	4e20      	ldr	r6, [pc, #128]	; (407eb8 <_vfiprintf_r+0xc88>)
  407e38:	3101      	adds	r1, #1
  407e3a:	f7ff bb90 	b.w	40755e <_vfiprintf_r+0x32e>
  407e3e:	2c06      	cmp	r4, #6
  407e40:	bf28      	it	cs
  407e42:	2406      	movcs	r4, #6
  407e44:	9405      	str	r4, [sp, #20]
  407e46:	9607      	str	r6, [sp, #28]
  407e48:	9401      	str	r4, [sp, #4]
  407e4a:	f8df b070 	ldr.w	fp, [pc, #112]	; 407ebc <_vfiprintf_r+0xc8c>
  407e4e:	e4d5      	b.n	4077fc <_vfiprintf_r+0x5cc>
  407e50:	9810      	ldr	r0, [sp, #64]	; 0x40
  407e52:	4e19      	ldr	r6, [pc, #100]	; (407eb8 <_vfiprintf_r+0xc88>)
  407e54:	3001      	adds	r0, #1
  407e56:	e603      	b.n	407a60 <_vfiprintf_r+0x830>
  407e58:	9405      	str	r4, [sp, #20]
  407e5a:	f89d 5037 	ldrb.w	r5, [sp, #55]	; 0x37
  407e5e:	9607      	str	r6, [sp, #28]
  407e60:	9302      	str	r3, [sp, #8]
  407e62:	4604      	mov	r4, r0
  407e64:	f7ff bb36 	b.w	4074d4 <_vfiprintf_r+0x2a4>
  407e68:	4686      	mov	lr, r0
  407e6a:	f7ff bbce 	b.w	40760a <_vfiprintf_r+0x3da>
  407e6e:	9806      	ldr	r0, [sp, #24]
  407e70:	aa0f      	add	r2, sp, #60	; 0x3c
  407e72:	4659      	mov	r1, fp
  407e74:	f7ff f99c 	bl	4071b0 <__sprint_r.part.0>
  407e78:	2800      	cmp	r0, #0
  407e7a:	f43f ae24 	beq.w	407ac6 <_vfiprintf_r+0x896>
  407e7e:	e624      	b.n	407aca <_vfiprintf_r+0x89a>
  407e80:	9907      	ldr	r1, [sp, #28]
  407e82:	f898 2001 	ldrb.w	r2, [r8, #1]
  407e86:	680c      	ldr	r4, [r1, #0]
  407e88:	3104      	adds	r1, #4
  407e8a:	ea44 74e4 	orr.w	r4, r4, r4, asr #31
  407e8e:	46b8      	mov	r8, r7
  407e90:	9107      	str	r1, [sp, #28]
  407e92:	f7ff ba3f 	b.w	407314 <_vfiprintf_r+0xe4>
  407e96:	f88d 5037 	strb.w	r5, [sp, #55]	; 0x37
  407e9a:	e43c      	b.n	407716 <_vfiprintf_r+0x4e6>
  407e9c:	f88d 5037 	strb.w	r5, [sp, #55]	; 0x37
  407ea0:	e521      	b.n	4078e6 <_vfiprintf_r+0x6b6>
  407ea2:	f88d 5037 	strb.w	r5, [sp, #55]	; 0x37
  407ea6:	f7ff bbf4 	b.w	407692 <_vfiprintf_r+0x462>
  407eaa:	f88d 5037 	strb.w	r5, [sp, #55]	; 0x37
  407eae:	e491      	b.n	4077d4 <_vfiprintf_r+0x5a4>
  407eb0:	f88d 5037 	strb.w	r5, [sp, #55]	; 0x37
  407eb4:	e469      	b.n	40778a <_vfiprintf_r+0x55a>
  407eb6:	bf00      	nop
  407eb8:	0041494c 	.word	0x0041494c
  407ebc:	00414944 	.word	0x00414944

00407ec0 <__sbprintf>:
  407ec0:	e92d 41f0 	stmdb	sp!, {r4, r5, r6, r7, r8, lr}
  407ec4:	460c      	mov	r4, r1
  407ec6:	f5ad 6d8d 	sub.w	sp, sp, #1128	; 0x468
  407eca:	8989      	ldrh	r1, [r1, #12]
  407ecc:	6e66      	ldr	r6, [r4, #100]	; 0x64
  407ece:	89e5      	ldrh	r5, [r4, #14]
  407ed0:	9619      	str	r6, [sp, #100]	; 0x64
  407ed2:	f021 0102 	bic.w	r1, r1, #2
  407ed6:	4606      	mov	r6, r0
  407ed8:	69e0      	ldr	r0, [r4, #28]
  407eda:	f8ad 100c 	strh.w	r1, [sp, #12]
  407ede:	4617      	mov	r7, r2
  407ee0:	f44f 6180 	mov.w	r1, #1024	; 0x400
  407ee4:	6a62      	ldr	r2, [r4, #36]	; 0x24
  407ee6:	f8ad 500e 	strh.w	r5, [sp, #14]
  407eea:	4698      	mov	r8, r3
  407eec:	ad1a      	add	r5, sp, #104	; 0x68
  407eee:	2300      	movs	r3, #0
  407ef0:	9007      	str	r0, [sp, #28]
  407ef2:	a816      	add	r0, sp, #88	; 0x58
  407ef4:	9209      	str	r2, [sp, #36]	; 0x24
  407ef6:	9306      	str	r3, [sp, #24]
  407ef8:	9500      	str	r5, [sp, #0]
  407efa:	9504      	str	r5, [sp, #16]
  407efc:	9102      	str	r1, [sp, #8]
  407efe:	9105      	str	r1, [sp, #20]
  407f00:	f000 fd48 	bl	408994 <__retarget_lock_init_recursive>
  407f04:	4643      	mov	r3, r8
  407f06:	463a      	mov	r2, r7
  407f08:	4669      	mov	r1, sp
  407f0a:	4630      	mov	r0, r6
  407f0c:	f7ff f990 	bl	407230 <_vfiprintf_r>
  407f10:	1e05      	subs	r5, r0, #0
  407f12:	db07      	blt.n	407f24 <__sbprintf+0x64>
  407f14:	4630      	mov	r0, r6
  407f16:	4669      	mov	r1, sp
  407f18:	f000 f928 	bl	40816c <_fflush_r>
  407f1c:	2800      	cmp	r0, #0
  407f1e:	bf18      	it	ne
  407f20:	f04f 35ff 	movne.w	r5, #4294967295
  407f24:	f8bd 300c 	ldrh.w	r3, [sp, #12]
  407f28:	065b      	lsls	r3, r3, #25
  407f2a:	d503      	bpl.n	407f34 <__sbprintf+0x74>
  407f2c:	89a3      	ldrh	r3, [r4, #12]
  407f2e:	f043 0340 	orr.w	r3, r3, #64	; 0x40
  407f32:	81a3      	strh	r3, [r4, #12]
  407f34:	9816      	ldr	r0, [sp, #88]	; 0x58
  407f36:	f000 fd2f 	bl	408998 <__retarget_lock_close_recursive>
  407f3a:	4628      	mov	r0, r5
  407f3c:	f50d 6d8d 	add.w	sp, sp, #1128	; 0x468
  407f40:	e8bd 81f0 	ldmia.w	sp!, {r4, r5, r6, r7, r8, pc}

00407f44 <__swsetup_r>:
  407f44:	b538      	push	{r3, r4, r5, lr}
  407f46:	4b30      	ldr	r3, [pc, #192]	; (408008 <__swsetup_r+0xc4>)
  407f48:	681b      	ldr	r3, [r3, #0]
  407f4a:	4605      	mov	r5, r0
  407f4c:	460c      	mov	r4, r1
  407f4e:	b113      	cbz	r3, 407f56 <__swsetup_r+0x12>
  407f50:	6b9a      	ldr	r2, [r3, #56]	; 0x38
  407f52:	2a00      	cmp	r2, #0
  407f54:	d038      	beq.n	407fc8 <__swsetup_r+0x84>
  407f56:	f9b4 200c 	ldrsh.w	r2, [r4, #12]
  407f5a:	b293      	uxth	r3, r2
  407f5c:	0718      	lsls	r0, r3, #28
  407f5e:	d50c      	bpl.n	407f7a <__swsetup_r+0x36>
  407f60:	6920      	ldr	r0, [r4, #16]
  407f62:	b1a8      	cbz	r0, 407f90 <__swsetup_r+0x4c>
  407f64:	f013 0201 	ands.w	r2, r3, #1
  407f68:	d01e      	beq.n	407fa8 <__swsetup_r+0x64>
  407f6a:	6963      	ldr	r3, [r4, #20]
  407f6c:	2200      	movs	r2, #0
  407f6e:	425b      	negs	r3, r3
  407f70:	61a3      	str	r3, [r4, #24]
  407f72:	60a2      	str	r2, [r4, #8]
  407f74:	b1f0      	cbz	r0, 407fb4 <__swsetup_r+0x70>
  407f76:	2000      	movs	r0, #0
  407f78:	bd38      	pop	{r3, r4, r5, pc}
  407f7a:	06d9      	lsls	r1, r3, #27
  407f7c:	d53c      	bpl.n	407ff8 <__swsetup_r+0xb4>
  407f7e:	0758      	lsls	r0, r3, #29
  407f80:	d426      	bmi.n	407fd0 <__swsetup_r+0x8c>
  407f82:	6920      	ldr	r0, [r4, #16]
  407f84:	f042 0308 	orr.w	r3, r2, #8
  407f88:	81a3      	strh	r3, [r4, #12]
  407f8a:	b29b      	uxth	r3, r3
  407f8c:	2800      	cmp	r0, #0
  407f8e:	d1e9      	bne.n	407f64 <__swsetup_r+0x20>
  407f90:	f403 7220 	and.w	r2, r3, #640	; 0x280
  407f94:	f5b2 7f00 	cmp.w	r2, #512	; 0x200
  407f98:	d0e4      	beq.n	407f64 <__swsetup_r+0x20>
  407f9a:	4628      	mov	r0, r5
  407f9c:	4621      	mov	r1, r4
  407f9e:	f000 fd2f 	bl	408a00 <__smakebuf_r>
  407fa2:	89a3      	ldrh	r3, [r4, #12]
  407fa4:	6920      	ldr	r0, [r4, #16]
  407fa6:	e7dd      	b.n	407f64 <__swsetup_r+0x20>
  407fa8:	0799      	lsls	r1, r3, #30
  407faa:	bf58      	it	pl
  407fac:	6962      	ldrpl	r2, [r4, #20]
  407fae:	60a2      	str	r2, [r4, #8]
  407fb0:	2800      	cmp	r0, #0
  407fb2:	d1e0      	bne.n	407f76 <__swsetup_r+0x32>
  407fb4:	f9b4 300c 	ldrsh.w	r3, [r4, #12]
  407fb8:	061a      	lsls	r2, r3, #24
  407fba:	d5dd      	bpl.n	407f78 <__swsetup_r+0x34>
  407fbc:	f043 0340 	orr.w	r3, r3, #64	; 0x40
  407fc0:	81a3      	strh	r3, [r4, #12]
  407fc2:	f04f 30ff 	mov.w	r0, #4294967295
  407fc6:	bd38      	pop	{r3, r4, r5, pc}
  407fc8:	4618      	mov	r0, r3
  407fca:	f000 f927 	bl	40821c <__sinit>
  407fce:	e7c2      	b.n	407f56 <__swsetup_r+0x12>
  407fd0:	6b21      	ldr	r1, [r4, #48]	; 0x30
  407fd2:	b151      	cbz	r1, 407fea <__swsetup_r+0xa6>
  407fd4:	f104 0340 	add.w	r3, r4, #64	; 0x40
  407fd8:	4299      	cmp	r1, r3
  407fda:	d004      	beq.n	407fe6 <__swsetup_r+0xa2>
  407fdc:	4628      	mov	r0, r5
  407fde:	f000 fa43 	bl	408468 <_free_r>
  407fe2:	f9b4 200c 	ldrsh.w	r2, [r4, #12]
  407fe6:	2300      	movs	r3, #0
  407fe8:	6323      	str	r3, [r4, #48]	; 0x30
  407fea:	2300      	movs	r3, #0
  407fec:	6920      	ldr	r0, [r4, #16]
  407fee:	6063      	str	r3, [r4, #4]
  407ff0:	f022 0224 	bic.w	r2, r2, #36	; 0x24
  407ff4:	6020      	str	r0, [r4, #0]
  407ff6:	e7c5      	b.n	407f84 <__swsetup_r+0x40>
  407ff8:	f042 0240 	orr.w	r2, r2, #64	; 0x40
  407ffc:	2309      	movs	r3, #9
  407ffe:	602b      	str	r3, [r5, #0]
  408000:	f04f 30ff 	mov.w	r0, #4294967295
  408004:	81a2      	strh	r2, [r4, #12]
  408006:	bd38      	pop	{r3, r4, r5, pc}
  408008:	20400054 	.word	0x20400054

0040800c <register_fini>:
  40800c:	4b02      	ldr	r3, [pc, #8]	; (408018 <register_fini+0xc>)
  40800e:	b113      	cbz	r3, 408016 <register_fini+0xa>
  408010:	4802      	ldr	r0, [pc, #8]	; (40801c <register_fini+0x10>)
  408012:	f000 b805 	b.w	408020 <atexit>
  408016:	4770      	bx	lr
  408018:	00000000 	.word	0x00000000
  40801c:	0040828d 	.word	0x0040828d

00408020 <atexit>:
  408020:	2300      	movs	r3, #0
  408022:	4601      	mov	r1, r0
  408024:	461a      	mov	r2, r3
  408026:	4618      	mov	r0, r3
  408028:	f001 b99e 	b.w	409368 <__register_exitproc>

0040802c <__sflush_r>:
  40802c:	f9b1 300c 	ldrsh.w	r3, [r1, #12]
  408030:	b29a      	uxth	r2, r3
  408032:	e92d 41f0 	stmdb	sp!, {r4, r5, r6, r7, r8, lr}
  408036:	460d      	mov	r5, r1
  408038:	0711      	lsls	r1, r2, #28
  40803a:	4680      	mov	r8, r0
  40803c:	d43a      	bmi.n	4080b4 <__sflush_r+0x88>
  40803e:	686a      	ldr	r2, [r5, #4]
  408040:	f443 6300 	orr.w	r3, r3, #2048	; 0x800
  408044:	2a00      	cmp	r2, #0
  408046:	81ab      	strh	r3, [r5, #12]
  408048:	dd6f      	ble.n	40812a <__sflush_r+0xfe>
  40804a:	6aac      	ldr	r4, [r5, #40]	; 0x28
  40804c:	2c00      	cmp	r4, #0
  40804e:	d049      	beq.n	4080e4 <__sflush_r+0xb8>
  408050:	2200      	movs	r2, #0
  408052:	b29b      	uxth	r3, r3
  408054:	f8d8 6000 	ldr.w	r6, [r8]
  408058:	f8c8 2000 	str.w	r2, [r8]
  40805c:	f413 5280 	ands.w	r2, r3, #4096	; 0x1000
  408060:	d067      	beq.n	408132 <__sflush_r+0x106>
  408062:	6d2a      	ldr	r2, [r5, #80]	; 0x50
  408064:	075f      	lsls	r7, r3, #29
  408066:	d505      	bpl.n	408074 <__sflush_r+0x48>
  408068:	6869      	ldr	r1, [r5, #4]
  40806a:	6b2b      	ldr	r3, [r5, #48]	; 0x30
  40806c:	1a52      	subs	r2, r2, r1
  40806e:	b10b      	cbz	r3, 408074 <__sflush_r+0x48>
  408070:	6beb      	ldr	r3, [r5, #60]	; 0x3c
  408072:	1ad2      	subs	r2, r2, r3
  408074:	2300      	movs	r3, #0
  408076:	69e9      	ldr	r1, [r5, #28]
  408078:	4640      	mov	r0, r8
  40807a:	47a0      	blx	r4
  40807c:	1c44      	adds	r4, r0, #1
  40807e:	d03c      	beq.n	4080fa <__sflush_r+0xce>
  408080:	f9b5 300c 	ldrsh.w	r3, [r5, #12]
  408084:	692a      	ldr	r2, [r5, #16]
  408086:	602a      	str	r2, [r5, #0]
  408088:	f423 6300 	bic.w	r3, r3, #2048	; 0x800
  40808c:	2200      	movs	r2, #0
  40808e:	81ab      	strh	r3, [r5, #12]
  408090:	04db      	lsls	r3, r3, #19
  408092:	606a      	str	r2, [r5, #4]
  408094:	d447      	bmi.n	408126 <__sflush_r+0xfa>
  408096:	6b29      	ldr	r1, [r5, #48]	; 0x30
  408098:	f8c8 6000 	str.w	r6, [r8]
  40809c:	b311      	cbz	r1, 4080e4 <__sflush_r+0xb8>
  40809e:	f105 0340 	add.w	r3, r5, #64	; 0x40
  4080a2:	4299      	cmp	r1, r3
  4080a4:	d002      	beq.n	4080ac <__sflush_r+0x80>
  4080a6:	4640      	mov	r0, r8
  4080a8:	f000 f9de 	bl	408468 <_free_r>
  4080ac:	2000      	movs	r0, #0
  4080ae:	6328      	str	r0, [r5, #48]	; 0x30
  4080b0:	e8bd 81f0 	ldmia.w	sp!, {r4, r5, r6, r7, r8, pc}
  4080b4:	692e      	ldr	r6, [r5, #16]
  4080b6:	b1ae      	cbz	r6, 4080e4 <__sflush_r+0xb8>
  4080b8:	682c      	ldr	r4, [r5, #0]
  4080ba:	602e      	str	r6, [r5, #0]
  4080bc:	0791      	lsls	r1, r2, #30
  4080be:	bf0c      	ite	eq
  4080c0:	696b      	ldreq	r3, [r5, #20]
  4080c2:	2300      	movne	r3, #0
  4080c4:	1ba4      	subs	r4, r4, r6
  4080c6:	60ab      	str	r3, [r5, #8]
  4080c8:	e00a      	b.n	4080e0 <__sflush_r+0xb4>
  4080ca:	4623      	mov	r3, r4
  4080cc:	4632      	mov	r2, r6
  4080ce:	6a6f      	ldr	r7, [r5, #36]	; 0x24
  4080d0:	69e9      	ldr	r1, [r5, #28]
  4080d2:	4640      	mov	r0, r8
  4080d4:	47b8      	blx	r7
  4080d6:	2800      	cmp	r0, #0
  4080d8:	eba4 0400 	sub.w	r4, r4, r0
  4080dc:	4406      	add	r6, r0
  4080de:	dd04      	ble.n	4080ea <__sflush_r+0xbe>
  4080e0:	2c00      	cmp	r4, #0
  4080e2:	dcf2      	bgt.n	4080ca <__sflush_r+0x9e>
  4080e4:	2000      	movs	r0, #0
  4080e6:	e8bd 81f0 	ldmia.w	sp!, {r4, r5, r6, r7, r8, pc}
  4080ea:	89ab      	ldrh	r3, [r5, #12]
  4080ec:	f043 0340 	orr.w	r3, r3, #64	; 0x40
  4080f0:	81ab      	strh	r3, [r5, #12]
  4080f2:	f04f 30ff 	mov.w	r0, #4294967295
  4080f6:	e8bd 81f0 	ldmia.w	sp!, {r4, r5, r6, r7, r8, pc}
  4080fa:	f8d8 4000 	ldr.w	r4, [r8]
  4080fe:	2c1d      	cmp	r4, #29
  408100:	d8f3      	bhi.n	4080ea <__sflush_r+0xbe>
  408102:	4b19      	ldr	r3, [pc, #100]	; (408168 <__sflush_r+0x13c>)
  408104:	40e3      	lsrs	r3, r4
  408106:	43db      	mvns	r3, r3
  408108:	f013 0301 	ands.w	r3, r3, #1
  40810c:	d1ed      	bne.n	4080ea <__sflush_r+0xbe>
  40810e:	f9b5 200c 	ldrsh.w	r2, [r5, #12]
  408112:	606b      	str	r3, [r5, #4]
  408114:	f422 6300 	bic.w	r3, r2, #2048	; 0x800
  408118:	6929      	ldr	r1, [r5, #16]
  40811a:	81ab      	strh	r3, [r5, #12]
  40811c:	04da      	lsls	r2, r3, #19
  40811e:	6029      	str	r1, [r5, #0]
  408120:	d5b9      	bpl.n	408096 <__sflush_r+0x6a>
  408122:	2c00      	cmp	r4, #0
  408124:	d1b7      	bne.n	408096 <__sflush_r+0x6a>
  408126:	6528      	str	r0, [r5, #80]	; 0x50
  408128:	e7b5      	b.n	408096 <__sflush_r+0x6a>
  40812a:	6bea      	ldr	r2, [r5, #60]	; 0x3c
  40812c:	2a00      	cmp	r2, #0
  40812e:	dc8c      	bgt.n	40804a <__sflush_r+0x1e>
  408130:	e7d8      	b.n	4080e4 <__sflush_r+0xb8>
  408132:	2301      	movs	r3, #1
  408134:	69e9      	ldr	r1, [r5, #28]
  408136:	4640      	mov	r0, r8
  408138:	47a0      	blx	r4
  40813a:	1c43      	adds	r3, r0, #1
  40813c:	4602      	mov	r2, r0
  40813e:	d002      	beq.n	408146 <__sflush_r+0x11a>
  408140:	89ab      	ldrh	r3, [r5, #12]
  408142:	6aac      	ldr	r4, [r5, #40]	; 0x28
  408144:	e78e      	b.n	408064 <__sflush_r+0x38>
  408146:	f8d8 3000 	ldr.w	r3, [r8]
  40814a:	2b00      	cmp	r3, #0
  40814c:	d0f8      	beq.n	408140 <__sflush_r+0x114>
  40814e:	2b1d      	cmp	r3, #29
  408150:	d001      	beq.n	408156 <__sflush_r+0x12a>
  408152:	2b16      	cmp	r3, #22
  408154:	d102      	bne.n	40815c <__sflush_r+0x130>
  408156:	f8c8 6000 	str.w	r6, [r8]
  40815a:	e7c3      	b.n	4080e4 <__sflush_r+0xb8>
  40815c:	89ab      	ldrh	r3, [r5, #12]
  40815e:	f043 0340 	orr.w	r3, r3, #64	; 0x40
  408162:	81ab      	strh	r3, [r5, #12]
  408164:	e8bd 81f0 	ldmia.w	sp!, {r4, r5, r6, r7, r8, pc}
  408168:	20400001 	.word	0x20400001

0040816c <_fflush_r>:
  40816c:	b538      	push	{r3, r4, r5, lr}
  40816e:	460d      	mov	r5, r1
  408170:	4604      	mov	r4, r0
  408172:	b108      	cbz	r0, 408178 <_fflush_r+0xc>
  408174:	6b83      	ldr	r3, [r0, #56]	; 0x38
  408176:	b1bb      	cbz	r3, 4081a8 <_fflush_r+0x3c>
  408178:	f9b5 000c 	ldrsh.w	r0, [r5, #12]
  40817c:	b188      	cbz	r0, 4081a2 <_fflush_r+0x36>
  40817e:	6e6b      	ldr	r3, [r5, #100]	; 0x64
  408180:	07db      	lsls	r3, r3, #31
  408182:	d401      	bmi.n	408188 <_fflush_r+0x1c>
  408184:	0581      	lsls	r1, r0, #22
  408186:	d517      	bpl.n	4081b8 <_fflush_r+0x4c>
  408188:	4620      	mov	r0, r4
  40818a:	4629      	mov	r1, r5
  40818c:	f7ff ff4e 	bl	40802c <__sflush_r>
  408190:	6e6b      	ldr	r3, [r5, #100]	; 0x64
  408192:	07da      	lsls	r2, r3, #31
  408194:	4604      	mov	r4, r0
  408196:	d402      	bmi.n	40819e <_fflush_r+0x32>
  408198:	89ab      	ldrh	r3, [r5, #12]
  40819a:	059b      	lsls	r3, r3, #22
  40819c:	d507      	bpl.n	4081ae <_fflush_r+0x42>
  40819e:	4620      	mov	r0, r4
  4081a0:	bd38      	pop	{r3, r4, r5, pc}
  4081a2:	4604      	mov	r4, r0
  4081a4:	4620      	mov	r0, r4
  4081a6:	bd38      	pop	{r3, r4, r5, pc}
  4081a8:	f000 f838 	bl	40821c <__sinit>
  4081ac:	e7e4      	b.n	408178 <_fflush_r+0xc>
  4081ae:	6da8      	ldr	r0, [r5, #88]	; 0x58
  4081b0:	f000 fbf6 	bl	4089a0 <__retarget_lock_release_recursive>
  4081b4:	4620      	mov	r0, r4
  4081b6:	bd38      	pop	{r3, r4, r5, pc}
  4081b8:	6da8      	ldr	r0, [r5, #88]	; 0x58
  4081ba:	f000 fbef 	bl	40899c <__retarget_lock_acquire_recursive>
  4081be:	e7e3      	b.n	408188 <_fflush_r+0x1c>

004081c0 <_cleanup_r>:
  4081c0:	4901      	ldr	r1, [pc, #4]	; (4081c8 <_cleanup_r+0x8>)
  4081c2:	f000 bbaf 	b.w	408924 <_fwalk_reent>
  4081c6:	bf00      	nop
  4081c8:	00409451 	.word	0x00409451

004081cc <std.isra.0>:
  4081cc:	b510      	push	{r4, lr}
  4081ce:	2300      	movs	r3, #0
  4081d0:	4604      	mov	r4, r0
  4081d2:	8181      	strh	r1, [r0, #12]
  4081d4:	81c2      	strh	r2, [r0, #14]
  4081d6:	6003      	str	r3, [r0, #0]
  4081d8:	6043      	str	r3, [r0, #4]
  4081da:	6083      	str	r3, [r0, #8]
  4081dc:	6643      	str	r3, [r0, #100]	; 0x64
  4081de:	6103      	str	r3, [r0, #16]
  4081e0:	6143      	str	r3, [r0, #20]
  4081e2:	6183      	str	r3, [r0, #24]
  4081e4:	4619      	mov	r1, r3
  4081e6:	2208      	movs	r2, #8
  4081e8:	305c      	adds	r0, #92	; 0x5c
  4081ea:	f7fe fea5 	bl	406f38 <memset>
  4081ee:	4807      	ldr	r0, [pc, #28]	; (40820c <std.isra.0+0x40>)
  4081f0:	4907      	ldr	r1, [pc, #28]	; (408210 <std.isra.0+0x44>)
  4081f2:	4a08      	ldr	r2, [pc, #32]	; (408214 <std.isra.0+0x48>)
  4081f4:	4b08      	ldr	r3, [pc, #32]	; (408218 <std.isra.0+0x4c>)
  4081f6:	6220      	str	r0, [r4, #32]
  4081f8:	61e4      	str	r4, [r4, #28]
  4081fa:	6261      	str	r1, [r4, #36]	; 0x24
  4081fc:	62a2      	str	r2, [r4, #40]	; 0x28
  4081fe:	62e3      	str	r3, [r4, #44]	; 0x2c
  408200:	f104 0058 	add.w	r0, r4, #88	; 0x58
  408204:	e8bd 4010 	ldmia.w	sp!, {r4, lr}
  408208:	f000 bbc4 	b.w	408994 <__retarget_lock_init_recursive>
  40820c:	004090a9 	.word	0x004090a9
  408210:	004090cd 	.word	0x004090cd
  408214:	00409109 	.word	0x00409109
  408218:	00409129 	.word	0x00409129

0040821c <__sinit>:
  40821c:	b510      	push	{r4, lr}
  40821e:	4604      	mov	r4, r0
  408220:	4812      	ldr	r0, [pc, #72]	; (40826c <__sinit+0x50>)
  408222:	f000 fbbb 	bl	40899c <__retarget_lock_acquire_recursive>
  408226:	6ba2      	ldr	r2, [r4, #56]	; 0x38
  408228:	b9d2      	cbnz	r2, 408260 <__sinit+0x44>
  40822a:	f504 733b 	add.w	r3, r4, #748	; 0x2ec
  40822e:	4810      	ldr	r0, [pc, #64]	; (408270 <__sinit+0x54>)
  408230:	f8c4 32e8 	str.w	r3, [r4, #744]	; 0x2e8
  408234:	2103      	movs	r1, #3
  408236:	f8c4 22e0 	str.w	r2, [r4, #736]	; 0x2e0
  40823a:	63e0      	str	r0, [r4, #60]	; 0x3c
  40823c:	f8c4 12e4 	str.w	r1, [r4, #740]	; 0x2e4
  408240:	6860      	ldr	r0, [r4, #4]
  408242:	2104      	movs	r1, #4
  408244:	f7ff ffc2 	bl	4081cc <std.isra.0>
  408248:	2201      	movs	r2, #1
  40824a:	2109      	movs	r1, #9
  40824c:	68a0      	ldr	r0, [r4, #8]
  40824e:	f7ff ffbd 	bl	4081cc <std.isra.0>
  408252:	2202      	movs	r2, #2
  408254:	2112      	movs	r1, #18
  408256:	68e0      	ldr	r0, [r4, #12]
  408258:	f7ff ffb8 	bl	4081cc <std.isra.0>
  40825c:	2301      	movs	r3, #1
  40825e:	63a3      	str	r3, [r4, #56]	; 0x38
  408260:	4802      	ldr	r0, [pc, #8]	; (40826c <__sinit+0x50>)
  408262:	e8bd 4010 	ldmia.w	sp!, {r4, lr}
  408266:	f000 bb9b 	b.w	4089a0 <__retarget_lock_release_recursive>
  40826a:	bf00      	nop
  40826c:	2043b7fc 	.word	0x2043b7fc
  408270:	004081c1 	.word	0x004081c1

00408274 <__sfp_lock_acquire>:
  408274:	4801      	ldr	r0, [pc, #4]	; (40827c <__sfp_lock_acquire+0x8>)
  408276:	f000 bb91 	b.w	40899c <__retarget_lock_acquire_recursive>
  40827a:	bf00      	nop
  40827c:	2043b810 	.word	0x2043b810

00408280 <__sfp_lock_release>:
  408280:	4801      	ldr	r0, [pc, #4]	; (408288 <__sfp_lock_release+0x8>)
  408282:	f000 bb8d 	b.w	4089a0 <__retarget_lock_release_recursive>
  408286:	bf00      	nop
  408288:	2043b810 	.word	0x2043b810

0040828c <__libc_fini_array>:
  40828c:	b538      	push	{r3, r4, r5, lr}
  40828e:	4c0a      	ldr	r4, [pc, #40]	; (4082b8 <__libc_fini_array+0x2c>)
  408290:	4d0a      	ldr	r5, [pc, #40]	; (4082bc <__libc_fini_array+0x30>)
  408292:	1b64      	subs	r4, r4, r5
  408294:	10a4      	asrs	r4, r4, #2
  408296:	d00a      	beq.n	4082ae <__libc_fini_array+0x22>
  408298:	f104 4380 	add.w	r3, r4, #1073741824	; 0x40000000
  40829c:	3b01      	subs	r3, #1
  40829e:	eb05 0583 	add.w	r5, r5, r3, lsl #2
  4082a2:	3c01      	subs	r4, #1
  4082a4:	f855 3904 	ldr.w	r3, [r5], #-4
  4082a8:	4798      	blx	r3
  4082aa:	2c00      	cmp	r4, #0
  4082ac:	d1f9      	bne.n	4082a2 <__libc_fini_array+0x16>
  4082ae:	e8bd 4038 	ldmia.w	sp!, {r3, r4, r5, lr}
  4082b2:	f00c bbef 	b.w	414a94 <_fini>
  4082b6:	bf00      	nop
  4082b8:	00414aa4 	.word	0x00414aa4
  4082bc:	00414aa0 	.word	0x00414aa0

004082c0 <__fputwc>:
  4082c0:	e92d 47f0 	stmdb	sp!, {r4, r5, r6, r7, r8, r9, sl, lr}
  4082c4:	b082      	sub	sp, #8
  4082c6:	4680      	mov	r8, r0
  4082c8:	4689      	mov	r9, r1
  4082ca:	4614      	mov	r4, r2
  4082cc:	f000 fb54 	bl	408978 <__locale_mb_cur_max>
  4082d0:	2801      	cmp	r0, #1
  4082d2:	d036      	beq.n	408342 <__fputwc+0x82>
  4082d4:	464a      	mov	r2, r9
  4082d6:	f104 035c 	add.w	r3, r4, #92	; 0x5c
  4082da:	a901      	add	r1, sp, #4
  4082dc:	4640      	mov	r0, r8
  4082de:	f000 fff5 	bl	4092cc <_wcrtomb_r>
  4082e2:	1c42      	adds	r2, r0, #1
  4082e4:	4606      	mov	r6, r0
  4082e6:	d025      	beq.n	408334 <__fputwc+0x74>
  4082e8:	b3a8      	cbz	r0, 408356 <__fputwc+0x96>
  4082ea:	f89d e004 	ldrb.w	lr, [sp, #4]
  4082ee:	2500      	movs	r5, #0
  4082f0:	f10d 0a04 	add.w	sl, sp, #4
  4082f4:	e009      	b.n	40830a <__fputwc+0x4a>
  4082f6:	6823      	ldr	r3, [r4, #0]
  4082f8:	1c5a      	adds	r2, r3, #1
  4082fa:	6022      	str	r2, [r4, #0]
  4082fc:	f883 e000 	strb.w	lr, [r3]
  408300:	3501      	adds	r5, #1
  408302:	42b5      	cmp	r5, r6
  408304:	d227      	bcs.n	408356 <__fputwc+0x96>
  408306:	f815 e00a 	ldrb.w	lr, [r5, sl]
  40830a:	68a3      	ldr	r3, [r4, #8]
  40830c:	3b01      	subs	r3, #1
  40830e:	2b00      	cmp	r3, #0
  408310:	60a3      	str	r3, [r4, #8]
  408312:	daf0      	bge.n	4082f6 <__fputwc+0x36>
  408314:	69a7      	ldr	r7, [r4, #24]
  408316:	42bb      	cmp	r3, r7
  408318:	4671      	mov	r1, lr
  40831a:	4622      	mov	r2, r4
  40831c:	4640      	mov	r0, r8
  40831e:	db02      	blt.n	408326 <__fputwc+0x66>
  408320:	f1be 0f0a 	cmp.w	lr, #10
  408324:	d1e7      	bne.n	4082f6 <__fputwc+0x36>
  408326:	f000 ff79 	bl	40921c <__swbuf_r>
  40832a:	1c43      	adds	r3, r0, #1
  40832c:	d1e8      	bne.n	408300 <__fputwc+0x40>
  40832e:	b002      	add	sp, #8
  408330:	e8bd 87f0 	ldmia.w	sp!, {r4, r5, r6, r7, r8, r9, sl, pc}
  408334:	89a3      	ldrh	r3, [r4, #12]
  408336:	f043 0340 	orr.w	r3, r3, #64	; 0x40
  40833a:	81a3      	strh	r3, [r4, #12]
  40833c:	b002      	add	sp, #8
  40833e:	e8bd 87f0 	ldmia.w	sp!, {r4, r5, r6, r7, r8, r9, sl, pc}
  408342:	f109 33ff 	add.w	r3, r9, #4294967295
  408346:	2bfe      	cmp	r3, #254	; 0xfe
  408348:	d8c4      	bhi.n	4082d4 <__fputwc+0x14>
  40834a:	fa5f fe89 	uxtb.w	lr, r9
  40834e:	4606      	mov	r6, r0
  408350:	f88d e004 	strb.w	lr, [sp, #4]
  408354:	e7cb      	b.n	4082ee <__fputwc+0x2e>
  408356:	4648      	mov	r0, r9
  408358:	b002      	add	sp, #8
  40835a:	e8bd 87f0 	ldmia.w	sp!, {r4, r5, r6, r7, r8, r9, sl, pc}
  40835e:	bf00      	nop

00408360 <_fputwc_r>:
  408360:	b530      	push	{r4, r5, lr}
  408362:	6e53      	ldr	r3, [r2, #100]	; 0x64
  408364:	f013 0f01 	tst.w	r3, #1
  408368:	f9b2 300c 	ldrsh.w	r3, [r2, #12]
  40836c:	4614      	mov	r4, r2
  40836e:	b083      	sub	sp, #12
  408370:	4605      	mov	r5, r0
  408372:	b29a      	uxth	r2, r3
  408374:	d101      	bne.n	40837a <_fputwc_r+0x1a>
  408376:	0590      	lsls	r0, r2, #22
  408378:	d51c      	bpl.n	4083b4 <_fputwc_r+0x54>
  40837a:	0490      	lsls	r0, r2, #18
  40837c:	d406      	bmi.n	40838c <_fputwc_r+0x2c>
  40837e:	6e62      	ldr	r2, [r4, #100]	; 0x64
  408380:	f443 5300 	orr.w	r3, r3, #8192	; 0x2000
  408384:	f442 5200 	orr.w	r2, r2, #8192	; 0x2000
  408388:	81a3      	strh	r3, [r4, #12]
  40838a:	6662      	str	r2, [r4, #100]	; 0x64
  40838c:	4628      	mov	r0, r5
  40838e:	4622      	mov	r2, r4
  408390:	f7ff ff96 	bl	4082c0 <__fputwc>
  408394:	6e63      	ldr	r3, [r4, #100]	; 0x64
  408396:	07da      	lsls	r2, r3, #31
  408398:	4605      	mov	r5, r0
  40839a:	d402      	bmi.n	4083a2 <_fputwc_r+0x42>
  40839c:	89a3      	ldrh	r3, [r4, #12]
  40839e:	059b      	lsls	r3, r3, #22
  4083a0:	d502      	bpl.n	4083a8 <_fputwc_r+0x48>
  4083a2:	4628      	mov	r0, r5
  4083a4:	b003      	add	sp, #12
  4083a6:	bd30      	pop	{r4, r5, pc}
  4083a8:	6da0      	ldr	r0, [r4, #88]	; 0x58
  4083aa:	f000 faf9 	bl	4089a0 <__retarget_lock_release_recursive>
  4083ae:	4628      	mov	r0, r5
  4083b0:	b003      	add	sp, #12
  4083b2:	bd30      	pop	{r4, r5, pc}
  4083b4:	6da0      	ldr	r0, [r4, #88]	; 0x58
  4083b6:	9101      	str	r1, [sp, #4]
  4083b8:	f000 faf0 	bl	40899c <__retarget_lock_acquire_recursive>
  4083bc:	f9b4 300c 	ldrsh.w	r3, [r4, #12]
  4083c0:	9901      	ldr	r1, [sp, #4]
  4083c2:	b29a      	uxth	r2, r3
  4083c4:	e7d9      	b.n	40837a <_fputwc_r+0x1a>
  4083c6:	bf00      	nop

004083c8 <_malloc_trim_r>:
  4083c8:	b5f8      	push	{r3, r4, r5, r6, r7, lr}
  4083ca:	4f24      	ldr	r7, [pc, #144]	; (40845c <_malloc_trim_r+0x94>)
  4083cc:	460c      	mov	r4, r1
  4083ce:	4606      	mov	r6, r0
  4083d0:	f7fe fe00 	bl	406fd4 <__malloc_lock>
  4083d4:	68bb      	ldr	r3, [r7, #8]
  4083d6:	685d      	ldr	r5, [r3, #4]
  4083d8:	f5c4 617e 	rsb	r1, r4, #4064	; 0xfe0
  4083dc:	310f      	adds	r1, #15
  4083de:	f025 0503 	bic.w	r5, r5, #3
  4083e2:	4429      	add	r1, r5
  4083e4:	f421 617f 	bic.w	r1, r1, #4080	; 0xff0
  4083e8:	f021 010f 	bic.w	r1, r1, #15
  4083ec:	f5a1 5480 	sub.w	r4, r1, #4096	; 0x1000
  4083f0:	f5b4 5f80 	cmp.w	r4, #4096	; 0x1000
  4083f4:	db07      	blt.n	408406 <_malloc_trim_r+0x3e>
  4083f6:	2100      	movs	r1, #0
  4083f8:	4630      	mov	r0, r6
  4083fa:	f7fe fdf7 	bl	406fec <_sbrk_r>
  4083fe:	68bb      	ldr	r3, [r7, #8]
  408400:	442b      	add	r3, r5
  408402:	4298      	cmp	r0, r3
  408404:	d004      	beq.n	408410 <_malloc_trim_r+0x48>
  408406:	4630      	mov	r0, r6
  408408:	f7fe fdea 	bl	406fe0 <__malloc_unlock>
  40840c:	2000      	movs	r0, #0
  40840e:	bdf8      	pop	{r3, r4, r5, r6, r7, pc}
  408410:	4261      	negs	r1, r4
  408412:	4630      	mov	r0, r6
  408414:	f7fe fdea 	bl	406fec <_sbrk_r>
  408418:	3001      	adds	r0, #1
  40841a:	d00d      	beq.n	408438 <_malloc_trim_r+0x70>
  40841c:	4b10      	ldr	r3, [pc, #64]	; (408460 <_malloc_trim_r+0x98>)
  40841e:	68ba      	ldr	r2, [r7, #8]
  408420:	6819      	ldr	r1, [r3, #0]
  408422:	1b2d      	subs	r5, r5, r4
  408424:	f045 0501 	orr.w	r5, r5, #1
  408428:	4630      	mov	r0, r6
  40842a:	1b09      	subs	r1, r1, r4
  40842c:	6055      	str	r5, [r2, #4]
  40842e:	6019      	str	r1, [r3, #0]
  408430:	f7fe fdd6 	bl	406fe0 <__malloc_unlock>
  408434:	2001      	movs	r0, #1
  408436:	bdf8      	pop	{r3, r4, r5, r6, r7, pc}
  408438:	2100      	movs	r1, #0
  40843a:	4630      	mov	r0, r6
  40843c:	f7fe fdd6 	bl	406fec <_sbrk_r>
  408440:	68ba      	ldr	r2, [r7, #8]
  408442:	1a83      	subs	r3, r0, r2
  408444:	2b0f      	cmp	r3, #15
  408446:	ddde      	ble.n	408406 <_malloc_trim_r+0x3e>
  408448:	4c06      	ldr	r4, [pc, #24]	; (408464 <_malloc_trim_r+0x9c>)
  40844a:	4905      	ldr	r1, [pc, #20]	; (408460 <_malloc_trim_r+0x98>)
  40844c:	6824      	ldr	r4, [r4, #0]
  40844e:	f043 0301 	orr.w	r3, r3, #1
  408452:	1b00      	subs	r0, r0, r4
  408454:	6053      	str	r3, [r2, #4]
  408456:	6008      	str	r0, [r1, #0]
  408458:	e7d5      	b.n	408406 <_malloc_trim_r+0x3e>
  40845a:	bf00      	nop
  40845c:	20400480 	.word	0x20400480
  408460:	20402cf8 	.word	0x20402cf8
  408464:	20400888 	.word	0x20400888

00408468 <_free_r>:
  408468:	2900      	cmp	r1, #0
  40846a:	d044      	beq.n	4084f6 <_free_r+0x8e>
  40846c:	e92d 41f0 	stmdb	sp!, {r4, r5, r6, r7, r8, lr}
  408470:	460d      	mov	r5, r1
  408472:	4680      	mov	r8, r0
  408474:	f7fe fdae 	bl	406fd4 <__malloc_lock>
  408478:	f855 7c04 	ldr.w	r7, [r5, #-4]
  40847c:	4969      	ldr	r1, [pc, #420]	; (408624 <_free_r+0x1bc>)
  40847e:	f027 0301 	bic.w	r3, r7, #1
  408482:	f1a5 0408 	sub.w	r4, r5, #8
  408486:	18e2      	adds	r2, r4, r3
  408488:	688e      	ldr	r6, [r1, #8]
  40848a:	6850      	ldr	r0, [r2, #4]
  40848c:	42b2      	cmp	r2, r6
  40848e:	f020 0003 	bic.w	r0, r0, #3
  408492:	d05e      	beq.n	408552 <_free_r+0xea>
  408494:	07fe      	lsls	r6, r7, #31
  408496:	6050      	str	r0, [r2, #4]
  408498:	d40b      	bmi.n	4084b2 <_free_r+0x4a>
  40849a:	f855 7c08 	ldr.w	r7, [r5, #-8]
  40849e:	1be4      	subs	r4, r4, r7
  4084a0:	f101 0e08 	add.w	lr, r1, #8
  4084a4:	68a5      	ldr	r5, [r4, #8]
  4084a6:	4575      	cmp	r5, lr
  4084a8:	443b      	add	r3, r7
  4084aa:	d06d      	beq.n	408588 <_free_r+0x120>
  4084ac:	68e7      	ldr	r7, [r4, #12]
  4084ae:	60ef      	str	r7, [r5, #12]
  4084b0:	60bd      	str	r5, [r7, #8]
  4084b2:	1815      	adds	r5, r2, r0
  4084b4:	686d      	ldr	r5, [r5, #4]
  4084b6:	07ed      	lsls	r5, r5, #31
  4084b8:	d53e      	bpl.n	408538 <_free_r+0xd0>
  4084ba:	f043 0201 	orr.w	r2, r3, #1
  4084be:	6062      	str	r2, [r4, #4]
  4084c0:	50e3      	str	r3, [r4, r3]
  4084c2:	f5b3 7f00 	cmp.w	r3, #512	; 0x200
  4084c6:	d217      	bcs.n	4084f8 <_free_r+0x90>
  4084c8:	08db      	lsrs	r3, r3, #3
  4084ca:	1c58      	adds	r0, r3, #1
  4084cc:	109a      	asrs	r2, r3, #2
  4084ce:	684d      	ldr	r5, [r1, #4]
  4084d0:	f851 7030 	ldr.w	r7, [r1, r0, lsl #3]
  4084d4:	60a7      	str	r7, [r4, #8]
  4084d6:	2301      	movs	r3, #1
  4084d8:	4093      	lsls	r3, r2
  4084da:	eb01 02c0 	add.w	r2, r1, r0, lsl #3
  4084de:	432b      	orrs	r3, r5
  4084e0:	3a08      	subs	r2, #8
  4084e2:	60e2      	str	r2, [r4, #12]
  4084e4:	604b      	str	r3, [r1, #4]
  4084e6:	f841 4030 	str.w	r4, [r1, r0, lsl #3]
  4084ea:	60fc      	str	r4, [r7, #12]
  4084ec:	4640      	mov	r0, r8
  4084ee:	e8bd 41f0 	ldmia.w	sp!, {r4, r5, r6, r7, r8, lr}
  4084f2:	f7fe bd75 	b.w	406fe0 <__malloc_unlock>
  4084f6:	4770      	bx	lr
  4084f8:	0a5a      	lsrs	r2, r3, #9
  4084fa:	2a04      	cmp	r2, #4
  4084fc:	d852      	bhi.n	4085a4 <_free_r+0x13c>
  4084fe:	099a      	lsrs	r2, r3, #6
  408500:	f102 0739 	add.w	r7, r2, #57	; 0x39
  408504:	00ff      	lsls	r7, r7, #3
  408506:	f102 0538 	add.w	r5, r2, #56	; 0x38
  40850a:	19c8      	adds	r0, r1, r7
  40850c:	59ca      	ldr	r2, [r1, r7]
  40850e:	3808      	subs	r0, #8
  408510:	4290      	cmp	r0, r2
  408512:	d04f      	beq.n	4085b4 <_free_r+0x14c>
  408514:	6851      	ldr	r1, [r2, #4]
  408516:	f021 0103 	bic.w	r1, r1, #3
  40851a:	428b      	cmp	r3, r1
  40851c:	d232      	bcs.n	408584 <_free_r+0x11c>
  40851e:	6892      	ldr	r2, [r2, #8]
  408520:	4290      	cmp	r0, r2
  408522:	d1f7      	bne.n	408514 <_free_r+0xac>
  408524:	68c3      	ldr	r3, [r0, #12]
  408526:	60a0      	str	r0, [r4, #8]
  408528:	60e3      	str	r3, [r4, #12]
  40852a:	609c      	str	r4, [r3, #8]
  40852c:	60c4      	str	r4, [r0, #12]
  40852e:	4640      	mov	r0, r8
  408530:	e8bd 41f0 	ldmia.w	sp!, {r4, r5, r6, r7, r8, lr}
  408534:	f7fe bd54 	b.w	406fe0 <__malloc_unlock>
  408538:	6895      	ldr	r5, [r2, #8]
  40853a:	4f3b      	ldr	r7, [pc, #236]	; (408628 <_free_r+0x1c0>)
  40853c:	42bd      	cmp	r5, r7
  40853e:	4403      	add	r3, r0
  408540:	d040      	beq.n	4085c4 <_free_r+0x15c>
  408542:	68d0      	ldr	r0, [r2, #12]
  408544:	60e8      	str	r0, [r5, #12]
  408546:	f043 0201 	orr.w	r2, r3, #1
  40854a:	6085      	str	r5, [r0, #8]
  40854c:	6062      	str	r2, [r4, #4]
  40854e:	50e3      	str	r3, [r4, r3]
  408550:	e7b7      	b.n	4084c2 <_free_r+0x5a>
  408552:	07ff      	lsls	r7, r7, #31
  408554:	4403      	add	r3, r0
  408556:	d407      	bmi.n	408568 <_free_r+0x100>
  408558:	f855 2c08 	ldr.w	r2, [r5, #-8]
  40855c:	1aa4      	subs	r4, r4, r2
  40855e:	4413      	add	r3, r2
  408560:	68a0      	ldr	r0, [r4, #8]
  408562:	68e2      	ldr	r2, [r4, #12]
  408564:	60c2      	str	r2, [r0, #12]
  408566:	6090      	str	r0, [r2, #8]
  408568:	4a30      	ldr	r2, [pc, #192]	; (40862c <_free_r+0x1c4>)
  40856a:	6812      	ldr	r2, [r2, #0]
  40856c:	f043 0001 	orr.w	r0, r3, #1
  408570:	4293      	cmp	r3, r2
  408572:	6060      	str	r0, [r4, #4]
  408574:	608c      	str	r4, [r1, #8]
  408576:	d3b9      	bcc.n	4084ec <_free_r+0x84>
  408578:	4b2d      	ldr	r3, [pc, #180]	; (408630 <_free_r+0x1c8>)
  40857a:	4640      	mov	r0, r8
  40857c:	6819      	ldr	r1, [r3, #0]
  40857e:	f7ff ff23 	bl	4083c8 <_malloc_trim_r>
  408582:	e7b3      	b.n	4084ec <_free_r+0x84>
  408584:	4610      	mov	r0, r2
  408586:	e7cd      	b.n	408524 <_free_r+0xbc>
  408588:	1811      	adds	r1, r2, r0
  40858a:	6849      	ldr	r1, [r1, #4]
  40858c:	07c9      	lsls	r1, r1, #31
  40858e:	d444      	bmi.n	40861a <_free_r+0x1b2>
  408590:	6891      	ldr	r1, [r2, #8]
  408592:	68d2      	ldr	r2, [r2, #12]
  408594:	60ca      	str	r2, [r1, #12]
  408596:	4403      	add	r3, r0
  408598:	f043 0001 	orr.w	r0, r3, #1
  40859c:	6091      	str	r1, [r2, #8]
  40859e:	6060      	str	r0, [r4, #4]
  4085a0:	50e3      	str	r3, [r4, r3]
  4085a2:	e7a3      	b.n	4084ec <_free_r+0x84>
  4085a4:	2a14      	cmp	r2, #20
  4085a6:	d816      	bhi.n	4085d6 <_free_r+0x16e>
  4085a8:	f102 075c 	add.w	r7, r2, #92	; 0x5c
  4085ac:	00ff      	lsls	r7, r7, #3
  4085ae:	f102 055b 	add.w	r5, r2, #91	; 0x5b
  4085b2:	e7aa      	b.n	40850a <_free_r+0xa2>
  4085b4:	10aa      	asrs	r2, r5, #2
  4085b6:	2301      	movs	r3, #1
  4085b8:	684d      	ldr	r5, [r1, #4]
  4085ba:	4093      	lsls	r3, r2
  4085bc:	432b      	orrs	r3, r5
  4085be:	604b      	str	r3, [r1, #4]
  4085c0:	4603      	mov	r3, r0
  4085c2:	e7b0      	b.n	408526 <_free_r+0xbe>
  4085c4:	f043 0201 	orr.w	r2, r3, #1
  4085c8:	614c      	str	r4, [r1, #20]
  4085ca:	610c      	str	r4, [r1, #16]
  4085cc:	60e5      	str	r5, [r4, #12]
  4085ce:	60a5      	str	r5, [r4, #8]
  4085d0:	6062      	str	r2, [r4, #4]
  4085d2:	50e3      	str	r3, [r4, r3]
  4085d4:	e78a      	b.n	4084ec <_free_r+0x84>
  4085d6:	2a54      	cmp	r2, #84	; 0x54
  4085d8:	d806      	bhi.n	4085e8 <_free_r+0x180>
  4085da:	0b1a      	lsrs	r2, r3, #12
  4085dc:	f102 076f 	add.w	r7, r2, #111	; 0x6f
  4085e0:	00ff      	lsls	r7, r7, #3
  4085e2:	f102 056e 	add.w	r5, r2, #110	; 0x6e
  4085e6:	e790      	b.n	40850a <_free_r+0xa2>
  4085e8:	f5b2 7faa 	cmp.w	r2, #340	; 0x154
  4085ec:	d806      	bhi.n	4085fc <_free_r+0x194>
  4085ee:	0bda      	lsrs	r2, r3, #15
  4085f0:	f102 0778 	add.w	r7, r2, #120	; 0x78
  4085f4:	00ff      	lsls	r7, r7, #3
  4085f6:	f102 0577 	add.w	r5, r2, #119	; 0x77
  4085fa:	e786      	b.n	40850a <_free_r+0xa2>
  4085fc:	f240 5054 	movw	r0, #1364	; 0x554
  408600:	4282      	cmp	r2, r0
  408602:	d806      	bhi.n	408612 <_free_r+0x1aa>
  408604:	0c9a      	lsrs	r2, r3, #18
  408606:	f102 077d 	add.w	r7, r2, #125	; 0x7d
  40860a:	00ff      	lsls	r7, r7, #3
  40860c:	f102 057c 	add.w	r5, r2, #124	; 0x7c
  408610:	e77b      	b.n	40850a <_free_r+0xa2>
  408612:	f44f 777e 	mov.w	r7, #1016	; 0x3f8
  408616:	257e      	movs	r5, #126	; 0x7e
  408618:	e777      	b.n	40850a <_free_r+0xa2>
  40861a:	f043 0101 	orr.w	r1, r3, #1
  40861e:	6061      	str	r1, [r4, #4]
  408620:	6013      	str	r3, [r2, #0]
  408622:	e763      	b.n	4084ec <_free_r+0x84>
  408624:	20400480 	.word	0x20400480
  408628:	20400488 	.word	0x20400488
  40862c:	2040088c 	.word	0x2040088c
  408630:	20402d28 	.word	0x20402d28

00408634 <__sfvwrite_r>:
  408634:	6893      	ldr	r3, [r2, #8]
  408636:	2b00      	cmp	r3, #0
  408638:	d073      	beq.n	408722 <__sfvwrite_r+0xee>
  40863a:	e92d 4ff0 	stmdb	sp!, {r4, r5, r6, r7, r8, r9, sl, fp, lr}
  40863e:	898b      	ldrh	r3, [r1, #12]
  408640:	b083      	sub	sp, #12
  408642:	460c      	mov	r4, r1
  408644:	0719      	lsls	r1, r3, #28
  408646:	9000      	str	r0, [sp, #0]
  408648:	4616      	mov	r6, r2
  40864a:	d526      	bpl.n	40869a <__sfvwrite_r+0x66>
  40864c:	6922      	ldr	r2, [r4, #16]
  40864e:	b322      	cbz	r2, 40869a <__sfvwrite_r+0x66>
  408650:	f013 0002 	ands.w	r0, r3, #2
  408654:	6835      	ldr	r5, [r6, #0]
  408656:	d02c      	beq.n	4086b2 <__sfvwrite_r+0x7e>
  408658:	f04f 0900 	mov.w	r9, #0
  40865c:	4fb0      	ldr	r7, [pc, #704]	; (408920 <__sfvwrite_r+0x2ec>)
  40865e:	46c8      	mov	r8, r9
  408660:	46b2      	mov	sl, r6
  408662:	45b8      	cmp	r8, r7
  408664:	4643      	mov	r3, r8
  408666:	464a      	mov	r2, r9
  408668:	bf28      	it	cs
  40866a:	463b      	movcs	r3, r7
  40866c:	9800      	ldr	r0, [sp, #0]
  40866e:	f1b8 0f00 	cmp.w	r8, #0
  408672:	d050      	beq.n	408716 <__sfvwrite_r+0xe2>
  408674:	69e1      	ldr	r1, [r4, #28]
  408676:	6a66      	ldr	r6, [r4, #36]	; 0x24
  408678:	47b0      	blx	r6
  40867a:	2800      	cmp	r0, #0
  40867c:	dd58      	ble.n	408730 <__sfvwrite_r+0xfc>
  40867e:	f8da 3008 	ldr.w	r3, [sl, #8]
  408682:	1a1b      	subs	r3, r3, r0
  408684:	4481      	add	r9, r0
  408686:	eba8 0800 	sub.w	r8, r8, r0
  40868a:	f8ca 3008 	str.w	r3, [sl, #8]
  40868e:	2b00      	cmp	r3, #0
  408690:	d1e7      	bne.n	408662 <__sfvwrite_r+0x2e>
  408692:	2000      	movs	r0, #0
  408694:	b003      	add	sp, #12
  408696:	e8bd 8ff0 	ldmia.w	sp!, {r4, r5, r6, r7, r8, r9, sl, fp, pc}
  40869a:	4621      	mov	r1, r4
  40869c:	9800      	ldr	r0, [sp, #0]
  40869e:	f7ff fc51 	bl	407f44 <__swsetup_r>
  4086a2:	2800      	cmp	r0, #0
  4086a4:	f040 8133 	bne.w	40890e <__sfvwrite_r+0x2da>
  4086a8:	89a3      	ldrh	r3, [r4, #12]
  4086aa:	6835      	ldr	r5, [r6, #0]
  4086ac:	f013 0002 	ands.w	r0, r3, #2
  4086b0:	d1d2      	bne.n	408658 <__sfvwrite_r+0x24>
  4086b2:	f013 0901 	ands.w	r9, r3, #1
  4086b6:	d145      	bne.n	408744 <__sfvwrite_r+0x110>
  4086b8:	464f      	mov	r7, r9
  4086ba:	9601      	str	r6, [sp, #4]
  4086bc:	b337      	cbz	r7, 40870c <__sfvwrite_r+0xd8>
  4086be:	059a      	lsls	r2, r3, #22
  4086c0:	f8d4 8008 	ldr.w	r8, [r4, #8]
  4086c4:	f140 8083 	bpl.w	4087ce <__sfvwrite_r+0x19a>
  4086c8:	4547      	cmp	r7, r8
  4086ca:	46c3      	mov	fp, r8
  4086cc:	f0c0 80ab 	bcc.w	408826 <__sfvwrite_r+0x1f2>
  4086d0:	f413 6f90 	tst.w	r3, #1152	; 0x480
  4086d4:	f040 80ac 	bne.w	408830 <__sfvwrite_r+0x1fc>
  4086d8:	6820      	ldr	r0, [r4, #0]
  4086da:	46ba      	mov	sl, r7
  4086dc:	465a      	mov	r2, fp
  4086de:	4649      	mov	r1, r9
  4086e0:	f000 fad8 	bl	408c94 <memmove>
  4086e4:	68a2      	ldr	r2, [r4, #8]
  4086e6:	6823      	ldr	r3, [r4, #0]
  4086e8:	eba2 0208 	sub.w	r2, r2, r8
  4086ec:	445b      	add	r3, fp
  4086ee:	60a2      	str	r2, [r4, #8]
  4086f0:	6023      	str	r3, [r4, #0]
  4086f2:	9a01      	ldr	r2, [sp, #4]
  4086f4:	6893      	ldr	r3, [r2, #8]
  4086f6:	eba3 030a 	sub.w	r3, r3, sl
  4086fa:	44d1      	add	r9, sl
  4086fc:	eba7 070a 	sub.w	r7, r7, sl
  408700:	6093      	str	r3, [r2, #8]
  408702:	2b00      	cmp	r3, #0
  408704:	d0c5      	beq.n	408692 <__sfvwrite_r+0x5e>
  408706:	89a3      	ldrh	r3, [r4, #12]
  408708:	2f00      	cmp	r7, #0
  40870a:	d1d8      	bne.n	4086be <__sfvwrite_r+0x8a>
  40870c:	f8d5 9000 	ldr.w	r9, [r5]
  408710:	686f      	ldr	r7, [r5, #4]
  408712:	3508      	adds	r5, #8
  408714:	e7d2      	b.n	4086bc <__sfvwrite_r+0x88>
  408716:	f8d5 9000 	ldr.w	r9, [r5]
  40871a:	f8d5 8004 	ldr.w	r8, [r5, #4]
  40871e:	3508      	adds	r5, #8
  408720:	e79f      	b.n	408662 <__sfvwrite_r+0x2e>
  408722:	2000      	movs	r0, #0
  408724:	4770      	bx	lr
  408726:	4621      	mov	r1, r4
  408728:	9800      	ldr	r0, [sp, #0]
  40872a:	f7ff fd1f 	bl	40816c <_fflush_r>
  40872e:	b370      	cbz	r0, 40878e <__sfvwrite_r+0x15a>
  408730:	f9b4 300c 	ldrsh.w	r3, [r4, #12]
  408734:	f043 0340 	orr.w	r3, r3, #64	; 0x40
  408738:	f04f 30ff 	mov.w	r0, #4294967295
  40873c:	81a3      	strh	r3, [r4, #12]
  40873e:	b003      	add	sp, #12
  408740:	e8bd 8ff0 	ldmia.w	sp!, {r4, r5, r6, r7, r8, r9, sl, fp, pc}
  408744:	4681      	mov	r9, r0
  408746:	4633      	mov	r3, r6
  408748:	464e      	mov	r6, r9
  40874a:	46a8      	mov	r8, r5
  40874c:	469a      	mov	sl, r3
  40874e:	464d      	mov	r5, r9
  408750:	b34e      	cbz	r6, 4087a6 <__sfvwrite_r+0x172>
  408752:	b380      	cbz	r0, 4087b6 <__sfvwrite_r+0x182>
  408754:	6820      	ldr	r0, [r4, #0]
  408756:	6923      	ldr	r3, [r4, #16]
  408758:	6962      	ldr	r2, [r4, #20]
  40875a:	45b1      	cmp	r9, r6
  40875c:	46cb      	mov	fp, r9
  40875e:	bf28      	it	cs
  408760:	46b3      	movcs	fp, r6
  408762:	4298      	cmp	r0, r3
  408764:	465f      	mov	r7, fp
  408766:	d904      	bls.n	408772 <__sfvwrite_r+0x13e>
  408768:	68a3      	ldr	r3, [r4, #8]
  40876a:	4413      	add	r3, r2
  40876c:	459b      	cmp	fp, r3
  40876e:	f300 80a6 	bgt.w	4088be <__sfvwrite_r+0x28a>
  408772:	4593      	cmp	fp, r2
  408774:	db4b      	blt.n	40880e <__sfvwrite_r+0x1da>
  408776:	4613      	mov	r3, r2
  408778:	6a67      	ldr	r7, [r4, #36]	; 0x24
  40877a:	69e1      	ldr	r1, [r4, #28]
  40877c:	9800      	ldr	r0, [sp, #0]
  40877e:	462a      	mov	r2, r5
  408780:	47b8      	blx	r7
  408782:	1e07      	subs	r7, r0, #0
  408784:	ddd4      	ble.n	408730 <__sfvwrite_r+0xfc>
  408786:	ebb9 0907 	subs.w	r9, r9, r7
  40878a:	d0cc      	beq.n	408726 <__sfvwrite_r+0xf2>
  40878c:	2001      	movs	r0, #1
  40878e:	f8da 3008 	ldr.w	r3, [sl, #8]
  408792:	1bdb      	subs	r3, r3, r7
  408794:	443d      	add	r5, r7
  408796:	1bf6      	subs	r6, r6, r7
  408798:	f8ca 3008 	str.w	r3, [sl, #8]
  40879c:	2b00      	cmp	r3, #0
  40879e:	f43f af78 	beq.w	408692 <__sfvwrite_r+0x5e>
  4087a2:	2e00      	cmp	r6, #0
  4087a4:	d1d5      	bne.n	408752 <__sfvwrite_r+0x11e>
  4087a6:	f108 0308 	add.w	r3, r8, #8
  4087aa:	e913 0060 	ldmdb	r3, {r5, r6}
  4087ae:	4698      	mov	r8, r3
  4087b0:	3308      	adds	r3, #8
  4087b2:	2e00      	cmp	r6, #0
  4087b4:	d0f9      	beq.n	4087aa <__sfvwrite_r+0x176>
  4087b6:	4632      	mov	r2, r6
  4087b8:	210a      	movs	r1, #10
  4087ba:	4628      	mov	r0, r5
  4087bc:	f000 f980 	bl	408ac0 <memchr>
  4087c0:	2800      	cmp	r0, #0
  4087c2:	f000 80a1 	beq.w	408908 <__sfvwrite_r+0x2d4>
  4087c6:	3001      	adds	r0, #1
  4087c8:	eba0 0905 	sub.w	r9, r0, r5
  4087cc:	e7c2      	b.n	408754 <__sfvwrite_r+0x120>
  4087ce:	6820      	ldr	r0, [r4, #0]
  4087d0:	6923      	ldr	r3, [r4, #16]
  4087d2:	4298      	cmp	r0, r3
  4087d4:	d802      	bhi.n	4087dc <__sfvwrite_r+0x1a8>
  4087d6:	6963      	ldr	r3, [r4, #20]
  4087d8:	429f      	cmp	r7, r3
  4087da:	d25d      	bcs.n	408898 <__sfvwrite_r+0x264>
  4087dc:	45b8      	cmp	r8, r7
  4087de:	bf28      	it	cs
  4087e0:	46b8      	movcs	r8, r7
  4087e2:	4642      	mov	r2, r8
  4087e4:	4649      	mov	r1, r9
  4087e6:	f000 fa55 	bl	408c94 <memmove>
  4087ea:	68a3      	ldr	r3, [r4, #8]
  4087ec:	6822      	ldr	r2, [r4, #0]
  4087ee:	eba3 0308 	sub.w	r3, r3, r8
  4087f2:	4442      	add	r2, r8
  4087f4:	60a3      	str	r3, [r4, #8]
  4087f6:	6022      	str	r2, [r4, #0]
  4087f8:	b10b      	cbz	r3, 4087fe <__sfvwrite_r+0x1ca>
  4087fa:	46c2      	mov	sl, r8
  4087fc:	e779      	b.n	4086f2 <__sfvwrite_r+0xbe>
  4087fe:	4621      	mov	r1, r4
  408800:	9800      	ldr	r0, [sp, #0]
  408802:	f7ff fcb3 	bl	40816c <_fflush_r>
  408806:	2800      	cmp	r0, #0
  408808:	d192      	bne.n	408730 <__sfvwrite_r+0xfc>
  40880a:	46c2      	mov	sl, r8
  40880c:	e771      	b.n	4086f2 <__sfvwrite_r+0xbe>
  40880e:	465a      	mov	r2, fp
  408810:	4629      	mov	r1, r5
  408812:	f000 fa3f 	bl	408c94 <memmove>
  408816:	68a2      	ldr	r2, [r4, #8]
  408818:	6823      	ldr	r3, [r4, #0]
  40881a:	eba2 020b 	sub.w	r2, r2, fp
  40881e:	445b      	add	r3, fp
  408820:	60a2      	str	r2, [r4, #8]
  408822:	6023      	str	r3, [r4, #0]
  408824:	e7af      	b.n	408786 <__sfvwrite_r+0x152>
  408826:	6820      	ldr	r0, [r4, #0]
  408828:	46b8      	mov	r8, r7
  40882a:	46ba      	mov	sl, r7
  40882c:	46bb      	mov	fp, r7
  40882e:	e755      	b.n	4086dc <__sfvwrite_r+0xa8>
  408830:	6962      	ldr	r2, [r4, #20]
  408832:	6820      	ldr	r0, [r4, #0]
  408834:	6921      	ldr	r1, [r4, #16]
  408836:	eb02 0842 	add.w	r8, r2, r2, lsl #1
  40883a:	eba0 0a01 	sub.w	sl, r0, r1
  40883e:	eb08 78d8 	add.w	r8, r8, r8, lsr #31
  408842:	f10a 0001 	add.w	r0, sl, #1
  408846:	ea4f 0868 	mov.w	r8, r8, asr #1
  40884a:	4438      	add	r0, r7
  40884c:	4540      	cmp	r0, r8
  40884e:	4642      	mov	r2, r8
  408850:	bf84      	itt	hi
  408852:	4680      	movhi	r8, r0
  408854:	4642      	movhi	r2, r8
  408856:	055b      	lsls	r3, r3, #21
  408858:	d544      	bpl.n	4088e4 <__sfvwrite_r+0x2b0>
  40885a:	4611      	mov	r1, r2
  40885c:	9800      	ldr	r0, [sp, #0]
  40885e:	f7fe f8bb 	bl	4069d8 <_malloc_r>
  408862:	4683      	mov	fp, r0
  408864:	2800      	cmp	r0, #0
  408866:	d055      	beq.n	408914 <__sfvwrite_r+0x2e0>
  408868:	4652      	mov	r2, sl
  40886a:	6921      	ldr	r1, [r4, #16]
  40886c:	f000 f978 	bl	408b60 <memcpy>
  408870:	89a3      	ldrh	r3, [r4, #12]
  408872:	f423 6390 	bic.w	r3, r3, #1152	; 0x480
  408876:	f043 0380 	orr.w	r3, r3, #128	; 0x80
  40887a:	81a3      	strh	r3, [r4, #12]
  40887c:	eb0b 000a 	add.w	r0, fp, sl
  408880:	eba8 030a 	sub.w	r3, r8, sl
  408884:	f8c4 b010 	str.w	fp, [r4, #16]
  408888:	f8c4 8014 	str.w	r8, [r4, #20]
  40888c:	6020      	str	r0, [r4, #0]
  40888e:	60a3      	str	r3, [r4, #8]
  408890:	46b8      	mov	r8, r7
  408892:	46ba      	mov	sl, r7
  408894:	46bb      	mov	fp, r7
  408896:	e721      	b.n	4086dc <__sfvwrite_r+0xa8>
  408898:	f06f 4100 	mvn.w	r1, #2147483648	; 0x80000000
  40889c:	42b9      	cmp	r1, r7
  40889e:	bf28      	it	cs
  4088a0:	4639      	movcs	r1, r7
  4088a2:	464a      	mov	r2, r9
  4088a4:	fb91 f1f3 	sdiv	r1, r1, r3
  4088a8:	9800      	ldr	r0, [sp, #0]
  4088aa:	6a66      	ldr	r6, [r4, #36]	; 0x24
  4088ac:	fb03 f301 	mul.w	r3, r3, r1
  4088b0:	69e1      	ldr	r1, [r4, #28]
  4088b2:	47b0      	blx	r6
  4088b4:	f1b0 0a00 	subs.w	sl, r0, #0
  4088b8:	f73f af1b 	bgt.w	4086f2 <__sfvwrite_r+0xbe>
  4088bc:	e738      	b.n	408730 <__sfvwrite_r+0xfc>
  4088be:	461a      	mov	r2, r3
  4088c0:	4629      	mov	r1, r5
  4088c2:	9301      	str	r3, [sp, #4]
  4088c4:	f000 f9e6 	bl	408c94 <memmove>
  4088c8:	6822      	ldr	r2, [r4, #0]
  4088ca:	9b01      	ldr	r3, [sp, #4]
  4088cc:	9800      	ldr	r0, [sp, #0]
  4088ce:	441a      	add	r2, r3
  4088d0:	6022      	str	r2, [r4, #0]
  4088d2:	4621      	mov	r1, r4
  4088d4:	f7ff fc4a 	bl	40816c <_fflush_r>
  4088d8:	9b01      	ldr	r3, [sp, #4]
  4088da:	2800      	cmp	r0, #0
  4088dc:	f47f af28 	bne.w	408730 <__sfvwrite_r+0xfc>
  4088e0:	461f      	mov	r7, r3
  4088e2:	e750      	b.n	408786 <__sfvwrite_r+0x152>
  4088e4:	9800      	ldr	r0, [sp, #0]
  4088e6:	f000 fa39 	bl	408d5c <_realloc_r>
  4088ea:	4683      	mov	fp, r0
  4088ec:	2800      	cmp	r0, #0
  4088ee:	d1c5      	bne.n	40887c <__sfvwrite_r+0x248>
  4088f0:	9d00      	ldr	r5, [sp, #0]
  4088f2:	6921      	ldr	r1, [r4, #16]
  4088f4:	4628      	mov	r0, r5
  4088f6:	f7ff fdb7 	bl	408468 <_free_r>
  4088fa:	f9b4 300c 	ldrsh.w	r3, [r4, #12]
  4088fe:	220c      	movs	r2, #12
  408900:	f023 0380 	bic.w	r3, r3, #128	; 0x80
  408904:	602a      	str	r2, [r5, #0]
  408906:	e715      	b.n	408734 <__sfvwrite_r+0x100>
  408908:	f106 0901 	add.w	r9, r6, #1
  40890c:	e722      	b.n	408754 <__sfvwrite_r+0x120>
  40890e:	f04f 30ff 	mov.w	r0, #4294967295
  408912:	e6bf      	b.n	408694 <__sfvwrite_r+0x60>
  408914:	9a00      	ldr	r2, [sp, #0]
  408916:	230c      	movs	r3, #12
  408918:	6013      	str	r3, [r2, #0]
  40891a:	f9b4 300c 	ldrsh.w	r3, [r4, #12]
  40891e:	e709      	b.n	408734 <__sfvwrite_r+0x100>
  408920:	7ffffc00 	.word	0x7ffffc00

00408924 <_fwalk_reent>:
  408924:	e92d 43f8 	stmdb	sp!, {r3, r4, r5, r6, r7, r8, r9, lr}
  408928:	f510 7738 	adds.w	r7, r0, #736	; 0x2e0
  40892c:	d01f      	beq.n	40896e <_fwalk_reent+0x4a>
  40892e:	4688      	mov	r8, r1
  408930:	4606      	mov	r6, r0
  408932:	f04f 0900 	mov.w	r9, #0
  408936:	687d      	ldr	r5, [r7, #4]
  408938:	68bc      	ldr	r4, [r7, #8]
  40893a:	3d01      	subs	r5, #1
  40893c:	d411      	bmi.n	408962 <_fwalk_reent+0x3e>
  40893e:	89a3      	ldrh	r3, [r4, #12]
  408940:	2b01      	cmp	r3, #1
  408942:	f105 35ff 	add.w	r5, r5, #4294967295
  408946:	d908      	bls.n	40895a <_fwalk_reent+0x36>
  408948:	f9b4 300e 	ldrsh.w	r3, [r4, #14]
  40894c:	3301      	adds	r3, #1
  40894e:	4621      	mov	r1, r4
  408950:	4630      	mov	r0, r6
  408952:	d002      	beq.n	40895a <_fwalk_reent+0x36>
  408954:	47c0      	blx	r8
  408956:	ea49 0900 	orr.w	r9, r9, r0
  40895a:	1c6b      	adds	r3, r5, #1
  40895c:	f104 0468 	add.w	r4, r4, #104	; 0x68
  408960:	d1ed      	bne.n	40893e <_fwalk_reent+0x1a>
  408962:	683f      	ldr	r7, [r7, #0]
  408964:	2f00      	cmp	r7, #0
  408966:	d1e6      	bne.n	408936 <_fwalk_reent+0x12>
  408968:	4648      	mov	r0, r9
  40896a:	e8bd 83f8 	ldmia.w	sp!, {r3, r4, r5, r6, r7, r8, r9, pc}
  40896e:	46b9      	mov	r9, r7
  408970:	4648      	mov	r0, r9
  408972:	e8bd 83f8 	ldmia.w	sp!, {r3, r4, r5, r6, r7, r8, r9, pc}
  408976:	bf00      	nop

00408978 <__locale_mb_cur_max>:
  408978:	4b04      	ldr	r3, [pc, #16]	; (40898c <__locale_mb_cur_max+0x14>)
  40897a:	4a05      	ldr	r2, [pc, #20]	; (408990 <__locale_mb_cur_max+0x18>)
  40897c:	681b      	ldr	r3, [r3, #0]
  40897e:	6b5b      	ldr	r3, [r3, #52]	; 0x34
  408980:	2b00      	cmp	r3, #0
  408982:	bf08      	it	eq
  408984:	4613      	moveq	r3, r2
  408986:	f893 0128 	ldrb.w	r0, [r3, #296]	; 0x128
  40898a:	4770      	bx	lr
  40898c:	20400054 	.word	0x20400054
  408990:	20400894 	.word	0x20400894

00408994 <__retarget_lock_init_recursive>:
  408994:	4770      	bx	lr
  408996:	bf00      	nop

00408998 <__retarget_lock_close_recursive>:
  408998:	4770      	bx	lr
  40899a:	bf00      	nop

0040899c <__retarget_lock_acquire_recursive>:
  40899c:	4770      	bx	lr
  40899e:	bf00      	nop

004089a0 <__retarget_lock_release_recursive>:
  4089a0:	4770      	bx	lr
  4089a2:	bf00      	nop

004089a4 <__swhatbuf_r>:
  4089a4:	b570      	push	{r4, r5, r6, lr}
  4089a6:	460c      	mov	r4, r1
  4089a8:	f9b1 100e 	ldrsh.w	r1, [r1, #14]
  4089ac:	2900      	cmp	r1, #0
  4089ae:	b090      	sub	sp, #64	; 0x40
  4089b0:	4615      	mov	r5, r2
  4089b2:	461e      	mov	r6, r3
  4089b4:	db14      	blt.n	4089e0 <__swhatbuf_r+0x3c>
  4089b6:	aa01      	add	r2, sp, #4
  4089b8:	f000 fdac 	bl	409514 <_fstat_r>
  4089bc:	2800      	cmp	r0, #0
  4089be:	db0f      	blt.n	4089e0 <__swhatbuf_r+0x3c>
  4089c0:	9a02      	ldr	r2, [sp, #8]
  4089c2:	f402 4270 	and.w	r2, r2, #61440	; 0xf000
  4089c6:	f5a2 5200 	sub.w	r2, r2, #8192	; 0x2000
  4089ca:	fab2 f282 	clz	r2, r2
  4089ce:	0952      	lsrs	r2, r2, #5
  4089d0:	f44f 6380 	mov.w	r3, #1024	; 0x400
  4089d4:	f44f 6000 	mov.w	r0, #2048	; 0x800
  4089d8:	6032      	str	r2, [r6, #0]
  4089da:	602b      	str	r3, [r5, #0]
  4089dc:	b010      	add	sp, #64	; 0x40
  4089de:	bd70      	pop	{r4, r5, r6, pc}
  4089e0:	89a2      	ldrh	r2, [r4, #12]
  4089e2:	2300      	movs	r3, #0
  4089e4:	f012 0080 	ands.w	r0, r2, #128	; 0x80
  4089e8:	6033      	str	r3, [r6, #0]
  4089ea:	d004      	beq.n	4089f6 <__swhatbuf_r+0x52>
  4089ec:	2240      	movs	r2, #64	; 0x40
  4089ee:	4618      	mov	r0, r3
  4089f0:	602a      	str	r2, [r5, #0]
  4089f2:	b010      	add	sp, #64	; 0x40
  4089f4:	bd70      	pop	{r4, r5, r6, pc}
  4089f6:	f44f 6380 	mov.w	r3, #1024	; 0x400
  4089fa:	602b      	str	r3, [r5, #0]
  4089fc:	b010      	add	sp, #64	; 0x40
  4089fe:	bd70      	pop	{r4, r5, r6, pc}

00408a00 <__smakebuf_r>:
  408a00:	898a      	ldrh	r2, [r1, #12]
  408a02:	0792      	lsls	r2, r2, #30
  408a04:	460b      	mov	r3, r1
  408a06:	d506      	bpl.n	408a16 <__smakebuf_r+0x16>
  408a08:	f101 0243 	add.w	r2, r1, #67	; 0x43
  408a0c:	2101      	movs	r1, #1
  408a0e:	601a      	str	r2, [r3, #0]
  408a10:	611a      	str	r2, [r3, #16]
  408a12:	6159      	str	r1, [r3, #20]
  408a14:	4770      	bx	lr
  408a16:	b5f0      	push	{r4, r5, r6, r7, lr}
  408a18:	b083      	sub	sp, #12
  408a1a:	ab01      	add	r3, sp, #4
  408a1c:	466a      	mov	r2, sp
  408a1e:	460c      	mov	r4, r1
  408a20:	4606      	mov	r6, r0
  408a22:	f7ff ffbf 	bl	4089a4 <__swhatbuf_r>
  408a26:	9900      	ldr	r1, [sp, #0]
  408a28:	4605      	mov	r5, r0
  408a2a:	4630      	mov	r0, r6
  408a2c:	f7fd ffd4 	bl	4069d8 <_malloc_r>
  408a30:	f9b4 300c 	ldrsh.w	r3, [r4, #12]
  408a34:	b1d8      	cbz	r0, 408a6e <__smakebuf_r+0x6e>
  408a36:	9a01      	ldr	r2, [sp, #4]
  408a38:	4f15      	ldr	r7, [pc, #84]	; (408a90 <__smakebuf_r+0x90>)
  408a3a:	9900      	ldr	r1, [sp, #0]
  408a3c:	63f7      	str	r7, [r6, #60]	; 0x3c
  408a3e:	f043 0380 	orr.w	r3, r3, #128	; 0x80
  408a42:	81a3      	strh	r3, [r4, #12]
  408a44:	6020      	str	r0, [r4, #0]
  408a46:	6120      	str	r0, [r4, #16]
  408a48:	6161      	str	r1, [r4, #20]
  408a4a:	b91a      	cbnz	r2, 408a54 <__smakebuf_r+0x54>
  408a4c:	432b      	orrs	r3, r5
  408a4e:	81a3      	strh	r3, [r4, #12]
  408a50:	b003      	add	sp, #12
  408a52:	bdf0      	pop	{r4, r5, r6, r7, pc}
  408a54:	4630      	mov	r0, r6
  408a56:	f9b4 100e 	ldrsh.w	r1, [r4, #14]
  408a5a:	f000 fd6f 	bl	40953c <_isatty_r>
  408a5e:	b1a0      	cbz	r0, 408a8a <__smakebuf_r+0x8a>
  408a60:	89a3      	ldrh	r3, [r4, #12]
  408a62:	f023 0303 	bic.w	r3, r3, #3
  408a66:	f043 0301 	orr.w	r3, r3, #1
  408a6a:	b21b      	sxth	r3, r3
  408a6c:	e7ee      	b.n	408a4c <__smakebuf_r+0x4c>
  408a6e:	059a      	lsls	r2, r3, #22
  408a70:	d4ee      	bmi.n	408a50 <__smakebuf_r+0x50>
  408a72:	f023 0303 	bic.w	r3, r3, #3
  408a76:	f104 0243 	add.w	r2, r4, #67	; 0x43
  408a7a:	f043 0302 	orr.w	r3, r3, #2
  408a7e:	2101      	movs	r1, #1
  408a80:	81a3      	strh	r3, [r4, #12]
  408a82:	6022      	str	r2, [r4, #0]
  408a84:	6122      	str	r2, [r4, #16]
  408a86:	6161      	str	r1, [r4, #20]
  408a88:	e7e2      	b.n	408a50 <__smakebuf_r+0x50>
  408a8a:	f9b4 300c 	ldrsh.w	r3, [r4, #12]
  408a8e:	e7dd      	b.n	408a4c <__smakebuf_r+0x4c>
  408a90:	004081c1 	.word	0x004081c1

00408a94 <__ascii_mbtowc>:
  408a94:	b082      	sub	sp, #8
  408a96:	b149      	cbz	r1, 408aac <__ascii_mbtowc+0x18>
  408a98:	b15a      	cbz	r2, 408ab2 <__ascii_mbtowc+0x1e>
  408a9a:	b16b      	cbz	r3, 408ab8 <__ascii_mbtowc+0x24>
  408a9c:	7813      	ldrb	r3, [r2, #0]
  408a9e:	600b      	str	r3, [r1, #0]
  408aa0:	7812      	ldrb	r2, [r2, #0]
  408aa2:	1c10      	adds	r0, r2, #0
  408aa4:	bf18      	it	ne
  408aa6:	2001      	movne	r0, #1
  408aa8:	b002      	add	sp, #8
  408aaa:	4770      	bx	lr
  408aac:	a901      	add	r1, sp, #4
  408aae:	2a00      	cmp	r2, #0
  408ab0:	d1f3      	bne.n	408a9a <__ascii_mbtowc+0x6>
  408ab2:	4610      	mov	r0, r2
  408ab4:	b002      	add	sp, #8
  408ab6:	4770      	bx	lr
  408ab8:	f06f 0001 	mvn.w	r0, #1
  408abc:	e7f4      	b.n	408aa8 <__ascii_mbtowc+0x14>
  408abe:	bf00      	nop

00408ac0 <memchr>:
  408ac0:	f001 01ff 	and.w	r1, r1, #255	; 0xff
  408ac4:	2a10      	cmp	r2, #16
  408ac6:	db2b      	blt.n	408b20 <memchr+0x60>
  408ac8:	f010 0f07 	tst.w	r0, #7
  408acc:	d008      	beq.n	408ae0 <memchr+0x20>
  408ace:	f810 3b01 	ldrb.w	r3, [r0], #1
  408ad2:	3a01      	subs	r2, #1
  408ad4:	428b      	cmp	r3, r1
  408ad6:	d02d      	beq.n	408b34 <memchr+0x74>
  408ad8:	f010 0f07 	tst.w	r0, #7
  408adc:	b342      	cbz	r2, 408b30 <memchr+0x70>
  408ade:	d1f6      	bne.n	408ace <memchr+0xe>
  408ae0:	b4f0      	push	{r4, r5, r6, r7}
  408ae2:	ea41 2101 	orr.w	r1, r1, r1, lsl #8
  408ae6:	ea41 4101 	orr.w	r1, r1, r1, lsl #16
  408aea:	f022 0407 	bic.w	r4, r2, #7
  408aee:	f07f 0700 	mvns.w	r7, #0
  408af2:	2300      	movs	r3, #0
  408af4:	e8f0 5602 	ldrd	r5, r6, [r0], #8
  408af8:	3c08      	subs	r4, #8
  408afa:	ea85 0501 	eor.w	r5, r5, r1
  408afe:	ea86 0601 	eor.w	r6, r6, r1
  408b02:	fa85 f547 	uadd8	r5, r5, r7
  408b06:	faa3 f587 	sel	r5, r3, r7
  408b0a:	fa86 f647 	uadd8	r6, r6, r7
  408b0e:	faa5 f687 	sel	r6, r5, r7
  408b12:	b98e      	cbnz	r6, 408b38 <memchr+0x78>
  408b14:	d1ee      	bne.n	408af4 <memchr+0x34>
  408b16:	bcf0      	pop	{r4, r5, r6, r7}
  408b18:	f001 01ff 	and.w	r1, r1, #255	; 0xff
  408b1c:	f002 0207 	and.w	r2, r2, #7
  408b20:	b132      	cbz	r2, 408b30 <memchr+0x70>
  408b22:	f810 3b01 	ldrb.w	r3, [r0], #1
  408b26:	3a01      	subs	r2, #1
  408b28:	ea83 0301 	eor.w	r3, r3, r1
  408b2c:	b113      	cbz	r3, 408b34 <memchr+0x74>
  408b2e:	d1f8      	bne.n	408b22 <memchr+0x62>
  408b30:	2000      	movs	r0, #0
  408b32:	4770      	bx	lr
  408b34:	3801      	subs	r0, #1
  408b36:	4770      	bx	lr
  408b38:	2d00      	cmp	r5, #0
  408b3a:	bf06      	itte	eq
  408b3c:	4635      	moveq	r5, r6
  408b3e:	3803      	subeq	r0, #3
  408b40:	3807      	subne	r0, #7
  408b42:	f015 0f01 	tst.w	r5, #1
  408b46:	d107      	bne.n	408b58 <memchr+0x98>
  408b48:	3001      	adds	r0, #1
  408b4a:	f415 7f80 	tst.w	r5, #256	; 0x100
  408b4e:	bf02      	ittt	eq
  408b50:	3001      	addeq	r0, #1
  408b52:	f415 3fc0 	tsteq.w	r5, #98304	; 0x18000
  408b56:	3001      	addeq	r0, #1
  408b58:	bcf0      	pop	{r4, r5, r6, r7}
  408b5a:	3801      	subs	r0, #1
  408b5c:	4770      	bx	lr
  408b5e:	bf00      	nop

00408b60 <memcpy>:
  408b60:	4684      	mov	ip, r0
  408b62:	ea41 0300 	orr.w	r3, r1, r0
  408b66:	f013 0303 	ands.w	r3, r3, #3
  408b6a:	d16d      	bne.n	408c48 <memcpy+0xe8>
  408b6c:	3a40      	subs	r2, #64	; 0x40
  408b6e:	d341      	bcc.n	408bf4 <memcpy+0x94>
  408b70:	f851 3b04 	ldr.w	r3, [r1], #4
  408b74:	f840 3b04 	str.w	r3, [r0], #4
  408b78:	f851 3b04 	ldr.w	r3, [r1], #4
  408b7c:	f840 3b04 	str.w	r3, [r0], #4
  408b80:	f851 3b04 	ldr.w	r3, [r1], #4
  408b84:	f840 3b04 	str.w	r3, [r0], #4
  408b88:	f851 3b04 	ldr.w	r3, [r1], #4
  408b8c:	f840 3b04 	str.w	r3, [r0], #4
  408b90:	f851 3b04 	ldr.w	r3, [r1], #4
  408b94:	f840 3b04 	str.w	r3, [r0], #4
  408b98:	f851 3b04 	ldr.w	r3, [r1], #4
  408b9c:	f840 3b04 	str.w	r3, [r0], #4
  408ba0:	f851 3b04 	ldr.w	r3, [r1], #4
  408ba4:	f840 3b04 	str.w	r3, [r0], #4
  408ba8:	f851 3b04 	ldr.w	r3, [r1], #4
  408bac:	f840 3b04 	str.w	r3, [r0], #4
  408bb0:	f851 3b04 	ldr.w	r3, [r1], #4
  408bb4:	f840 3b04 	str.w	r3, [r0], #4
  408bb8:	f851 3b04 	ldr.w	r3, [r1], #4
  408bbc:	f840 3b04 	str.w	r3, [r0], #4
  408bc0:	f851 3b04 	ldr.w	r3, [r1], #4
  408bc4:	f840 3b04 	str.w	r3, [r0], #4
  408bc8:	f851 3b04 	ldr.w	r3, [r1], #4
  408bcc:	f840 3b04 	str.w	r3, [r0], #4
  408bd0:	f851 3b04 	ldr.w	r3, [r1], #4
  408bd4:	f840 3b04 	str.w	r3, [r0], #4
  408bd8:	f851 3b04 	ldr.w	r3, [r1], #4
  408bdc:	f840 3b04 	str.w	r3, [r0], #4
  408be0:	f851 3b04 	ldr.w	r3, [r1], #4
  408be4:	f840 3b04 	str.w	r3, [r0], #4
  408be8:	f851 3b04 	ldr.w	r3, [r1], #4
  408bec:	f840 3b04 	str.w	r3, [r0], #4
  408bf0:	3a40      	subs	r2, #64	; 0x40
  408bf2:	d2bd      	bcs.n	408b70 <memcpy+0x10>
  408bf4:	3230      	adds	r2, #48	; 0x30
  408bf6:	d311      	bcc.n	408c1c <memcpy+0xbc>
  408bf8:	f851 3b04 	ldr.w	r3, [r1], #4
  408bfc:	f840 3b04 	str.w	r3, [r0], #4
  408c00:	f851 3b04 	ldr.w	r3, [r1], #4
  408c04:	f840 3b04 	str.w	r3, [r0], #4
  408c08:	f851 3b04 	ldr.w	r3, [r1], #4
  408c0c:	f840 3b04 	str.w	r3, [r0], #4
  408c10:	f851 3b04 	ldr.w	r3, [r1], #4
  408c14:	f840 3b04 	str.w	r3, [r0], #4
  408c18:	3a10      	subs	r2, #16
  408c1a:	d2ed      	bcs.n	408bf8 <memcpy+0x98>
  408c1c:	320c      	adds	r2, #12
  408c1e:	d305      	bcc.n	408c2c <memcpy+0xcc>
  408c20:	f851 3b04 	ldr.w	r3, [r1], #4
  408c24:	f840 3b04 	str.w	r3, [r0], #4
  408c28:	3a04      	subs	r2, #4
  408c2a:	d2f9      	bcs.n	408c20 <memcpy+0xc0>
  408c2c:	3204      	adds	r2, #4
  408c2e:	d008      	beq.n	408c42 <memcpy+0xe2>
  408c30:	07d2      	lsls	r2, r2, #31
  408c32:	bf1c      	itt	ne
  408c34:	f811 3b01 	ldrbne.w	r3, [r1], #1
  408c38:	f800 3b01 	strbne.w	r3, [r0], #1
  408c3c:	d301      	bcc.n	408c42 <memcpy+0xe2>
  408c3e:	880b      	ldrh	r3, [r1, #0]
  408c40:	8003      	strh	r3, [r0, #0]
  408c42:	4660      	mov	r0, ip
  408c44:	4770      	bx	lr
  408c46:	bf00      	nop
  408c48:	2a08      	cmp	r2, #8
  408c4a:	d313      	bcc.n	408c74 <memcpy+0x114>
  408c4c:	078b      	lsls	r3, r1, #30
  408c4e:	d08d      	beq.n	408b6c <memcpy+0xc>
  408c50:	f010 0303 	ands.w	r3, r0, #3
  408c54:	d08a      	beq.n	408b6c <memcpy+0xc>
  408c56:	f1c3 0304 	rsb	r3, r3, #4
  408c5a:	1ad2      	subs	r2, r2, r3
  408c5c:	07db      	lsls	r3, r3, #31
  408c5e:	bf1c      	itt	ne
  408c60:	f811 3b01 	ldrbne.w	r3, [r1], #1
  408c64:	f800 3b01 	strbne.w	r3, [r0], #1
  408c68:	d380      	bcc.n	408b6c <memcpy+0xc>
  408c6a:	f831 3b02 	ldrh.w	r3, [r1], #2
  408c6e:	f820 3b02 	strh.w	r3, [r0], #2
  408c72:	e77b      	b.n	408b6c <memcpy+0xc>
  408c74:	3a04      	subs	r2, #4
  408c76:	d3d9      	bcc.n	408c2c <memcpy+0xcc>
  408c78:	3a01      	subs	r2, #1
  408c7a:	f811 3b01 	ldrb.w	r3, [r1], #1
  408c7e:	f800 3b01 	strb.w	r3, [r0], #1
  408c82:	d2f9      	bcs.n	408c78 <memcpy+0x118>
  408c84:	780b      	ldrb	r3, [r1, #0]
  408c86:	7003      	strb	r3, [r0, #0]
  408c88:	784b      	ldrb	r3, [r1, #1]
  408c8a:	7043      	strb	r3, [r0, #1]
  408c8c:	788b      	ldrb	r3, [r1, #2]
  408c8e:	7083      	strb	r3, [r0, #2]
  408c90:	4660      	mov	r0, ip
  408c92:	4770      	bx	lr

00408c94 <memmove>:
  408c94:	4288      	cmp	r0, r1
  408c96:	b5f0      	push	{r4, r5, r6, r7, lr}
  408c98:	d90d      	bls.n	408cb6 <memmove+0x22>
  408c9a:	188b      	adds	r3, r1, r2
  408c9c:	4298      	cmp	r0, r3
  408c9e:	d20a      	bcs.n	408cb6 <memmove+0x22>
  408ca0:	1884      	adds	r4, r0, r2
  408ca2:	2a00      	cmp	r2, #0
  408ca4:	d051      	beq.n	408d4a <memmove+0xb6>
  408ca6:	4622      	mov	r2, r4
  408ca8:	f813 4d01 	ldrb.w	r4, [r3, #-1]!
  408cac:	f802 4d01 	strb.w	r4, [r2, #-1]!
  408cb0:	4299      	cmp	r1, r3
  408cb2:	d1f9      	bne.n	408ca8 <memmove+0x14>
  408cb4:	bdf0      	pop	{r4, r5, r6, r7, pc}
  408cb6:	2a0f      	cmp	r2, #15
  408cb8:	d948      	bls.n	408d4c <memmove+0xb8>
  408cba:	ea41 0300 	orr.w	r3, r1, r0
  408cbe:	079b      	lsls	r3, r3, #30
  408cc0:	d146      	bne.n	408d50 <memmove+0xbc>
  408cc2:	f100 0410 	add.w	r4, r0, #16
  408cc6:	f101 0310 	add.w	r3, r1, #16
  408cca:	4615      	mov	r5, r2
  408ccc:	f853 6c10 	ldr.w	r6, [r3, #-16]
  408cd0:	f844 6c10 	str.w	r6, [r4, #-16]
  408cd4:	f853 6c0c 	ldr.w	r6, [r3, #-12]
  408cd8:	f844 6c0c 	str.w	r6, [r4, #-12]
  408cdc:	f853 6c08 	ldr.w	r6, [r3, #-8]
  408ce0:	f844 6c08 	str.w	r6, [r4, #-8]
  408ce4:	3d10      	subs	r5, #16
  408ce6:	f853 6c04 	ldr.w	r6, [r3, #-4]
  408cea:	f844 6c04 	str.w	r6, [r4, #-4]
  408cee:	2d0f      	cmp	r5, #15
  408cf0:	f103 0310 	add.w	r3, r3, #16
  408cf4:	f104 0410 	add.w	r4, r4, #16
  408cf8:	d8e8      	bhi.n	408ccc <memmove+0x38>
  408cfa:	f1a2 0310 	sub.w	r3, r2, #16
  408cfe:	f023 030f 	bic.w	r3, r3, #15
  408d02:	f002 0e0f 	and.w	lr, r2, #15
  408d06:	3310      	adds	r3, #16
  408d08:	f1be 0f03 	cmp.w	lr, #3
  408d0c:	4419      	add	r1, r3
  408d0e:	4403      	add	r3, r0
  408d10:	d921      	bls.n	408d56 <memmove+0xc2>
  408d12:	1f1e      	subs	r6, r3, #4
  408d14:	460d      	mov	r5, r1
  408d16:	4674      	mov	r4, lr
  408d18:	3c04      	subs	r4, #4
  408d1a:	f855 7b04 	ldr.w	r7, [r5], #4
  408d1e:	f846 7f04 	str.w	r7, [r6, #4]!
  408d22:	2c03      	cmp	r4, #3
  408d24:	d8f8      	bhi.n	408d18 <memmove+0x84>
  408d26:	f1ae 0404 	sub.w	r4, lr, #4
  408d2a:	f024 0403 	bic.w	r4, r4, #3
  408d2e:	3404      	adds	r4, #4
  408d30:	4421      	add	r1, r4
  408d32:	4423      	add	r3, r4
  408d34:	f002 0203 	and.w	r2, r2, #3
  408d38:	b162      	cbz	r2, 408d54 <memmove+0xc0>
  408d3a:	3b01      	subs	r3, #1
  408d3c:	440a      	add	r2, r1
  408d3e:	f811 4b01 	ldrb.w	r4, [r1], #1
  408d42:	f803 4f01 	strb.w	r4, [r3, #1]!
  408d46:	428a      	cmp	r2, r1
  408d48:	d1f9      	bne.n	408d3e <memmove+0xaa>
  408d4a:	bdf0      	pop	{r4, r5, r6, r7, pc}
  408d4c:	4603      	mov	r3, r0
  408d4e:	e7f3      	b.n	408d38 <memmove+0xa4>
  408d50:	4603      	mov	r3, r0
  408d52:	e7f2      	b.n	408d3a <memmove+0xa6>
  408d54:	bdf0      	pop	{r4, r5, r6, r7, pc}
  408d56:	4672      	mov	r2, lr
  408d58:	e7ee      	b.n	408d38 <memmove+0xa4>
  408d5a:	bf00      	nop

00408d5c <_realloc_r>:
  408d5c:	2900      	cmp	r1, #0
  408d5e:	f000 8095 	beq.w	408e8c <_realloc_r+0x130>
  408d62:	e92d 4ff0 	stmdb	sp!, {r4, r5, r6, r7, r8, r9, sl, fp, lr}
  408d66:	460d      	mov	r5, r1
  408d68:	4616      	mov	r6, r2
  408d6a:	b083      	sub	sp, #12
  408d6c:	4680      	mov	r8, r0
  408d6e:	f106 070b 	add.w	r7, r6, #11
  408d72:	f7fe f92f 	bl	406fd4 <__malloc_lock>
  408d76:	f855 ec04 	ldr.w	lr, [r5, #-4]
  408d7a:	2f16      	cmp	r7, #22
  408d7c:	f02e 0403 	bic.w	r4, lr, #3
  408d80:	f1a5 0908 	sub.w	r9, r5, #8
  408d84:	d83c      	bhi.n	408e00 <_realloc_r+0xa4>
  408d86:	2210      	movs	r2, #16
  408d88:	4617      	mov	r7, r2
  408d8a:	42be      	cmp	r6, r7
  408d8c:	d83d      	bhi.n	408e0a <_realloc_r+0xae>
  408d8e:	4294      	cmp	r4, r2
  408d90:	da43      	bge.n	408e1a <_realloc_r+0xbe>
  408d92:	4bc4      	ldr	r3, [pc, #784]	; (4090a4 <_realloc_r+0x348>)
  408d94:	6899      	ldr	r1, [r3, #8]
  408d96:	eb09 0004 	add.w	r0, r9, r4
  408d9a:	4288      	cmp	r0, r1
  408d9c:	f000 80b4 	beq.w	408f08 <_realloc_r+0x1ac>
  408da0:	6843      	ldr	r3, [r0, #4]
  408da2:	f023 0101 	bic.w	r1, r3, #1
  408da6:	4401      	add	r1, r0
  408da8:	6849      	ldr	r1, [r1, #4]
  408daa:	07c9      	lsls	r1, r1, #31
  408dac:	d54c      	bpl.n	408e48 <_realloc_r+0xec>
  408dae:	f01e 0f01 	tst.w	lr, #1
  408db2:	f000 809b 	beq.w	408eec <_realloc_r+0x190>
  408db6:	4631      	mov	r1, r6
  408db8:	4640      	mov	r0, r8
  408dba:	f7fd fe0d 	bl	4069d8 <_malloc_r>
  408dbe:	4606      	mov	r6, r0
  408dc0:	2800      	cmp	r0, #0
  408dc2:	d03a      	beq.n	408e3a <_realloc_r+0xde>
  408dc4:	f855 3c04 	ldr.w	r3, [r5, #-4]
  408dc8:	f023 0301 	bic.w	r3, r3, #1
  408dcc:	444b      	add	r3, r9
  408dce:	f1a0 0208 	sub.w	r2, r0, #8
  408dd2:	429a      	cmp	r2, r3
  408dd4:	f000 8121 	beq.w	40901a <_realloc_r+0x2be>
  408dd8:	1f22      	subs	r2, r4, #4
  408dda:	2a24      	cmp	r2, #36	; 0x24
  408ddc:	f200 8107 	bhi.w	408fee <_realloc_r+0x292>
  408de0:	2a13      	cmp	r2, #19
  408de2:	f200 80db 	bhi.w	408f9c <_realloc_r+0x240>
  408de6:	4603      	mov	r3, r0
  408de8:	462a      	mov	r2, r5
  408dea:	6811      	ldr	r1, [r2, #0]
  408dec:	6019      	str	r1, [r3, #0]
  408dee:	6851      	ldr	r1, [r2, #4]
  408df0:	6059      	str	r1, [r3, #4]
  408df2:	6892      	ldr	r2, [r2, #8]
  408df4:	609a      	str	r2, [r3, #8]
  408df6:	4629      	mov	r1, r5
  408df8:	4640      	mov	r0, r8
  408dfa:	f7ff fb35 	bl	408468 <_free_r>
  408dfe:	e01c      	b.n	408e3a <_realloc_r+0xde>
  408e00:	f027 0707 	bic.w	r7, r7, #7
  408e04:	2f00      	cmp	r7, #0
  408e06:	463a      	mov	r2, r7
  408e08:	dabf      	bge.n	408d8a <_realloc_r+0x2e>
  408e0a:	2600      	movs	r6, #0
  408e0c:	230c      	movs	r3, #12
  408e0e:	4630      	mov	r0, r6
  408e10:	f8c8 3000 	str.w	r3, [r8]
  408e14:	b003      	add	sp, #12
  408e16:	e8bd 8ff0 	ldmia.w	sp!, {r4, r5, r6, r7, r8, r9, sl, fp, pc}
  408e1a:	462e      	mov	r6, r5
  408e1c:	1be3      	subs	r3, r4, r7
  408e1e:	2b0f      	cmp	r3, #15
  408e20:	d81e      	bhi.n	408e60 <_realloc_r+0x104>
  408e22:	f8d9 3004 	ldr.w	r3, [r9, #4]
  408e26:	f003 0301 	and.w	r3, r3, #1
  408e2a:	4323      	orrs	r3, r4
  408e2c:	444c      	add	r4, r9
  408e2e:	f8c9 3004 	str.w	r3, [r9, #4]
  408e32:	6863      	ldr	r3, [r4, #4]
  408e34:	f043 0301 	orr.w	r3, r3, #1
  408e38:	6063      	str	r3, [r4, #4]
  408e3a:	4640      	mov	r0, r8
  408e3c:	f7fe f8d0 	bl	406fe0 <__malloc_unlock>
  408e40:	4630      	mov	r0, r6
  408e42:	b003      	add	sp, #12
  408e44:	e8bd 8ff0 	ldmia.w	sp!, {r4, r5, r6, r7, r8, r9, sl, fp, pc}
  408e48:	f023 0303 	bic.w	r3, r3, #3
  408e4c:	18e1      	adds	r1, r4, r3
  408e4e:	4291      	cmp	r1, r2
  408e50:	db1f      	blt.n	408e92 <_realloc_r+0x136>
  408e52:	68c3      	ldr	r3, [r0, #12]
  408e54:	6882      	ldr	r2, [r0, #8]
  408e56:	462e      	mov	r6, r5
  408e58:	60d3      	str	r3, [r2, #12]
  408e5a:	460c      	mov	r4, r1
  408e5c:	609a      	str	r2, [r3, #8]
  408e5e:	e7dd      	b.n	408e1c <_realloc_r+0xc0>
  408e60:	f8d9 2004 	ldr.w	r2, [r9, #4]
  408e64:	eb09 0107 	add.w	r1, r9, r7
  408e68:	f002 0201 	and.w	r2, r2, #1
  408e6c:	444c      	add	r4, r9
  408e6e:	f043 0301 	orr.w	r3, r3, #1
  408e72:	4317      	orrs	r7, r2
  408e74:	f8c9 7004 	str.w	r7, [r9, #4]
  408e78:	604b      	str	r3, [r1, #4]
  408e7a:	6863      	ldr	r3, [r4, #4]
  408e7c:	f043 0301 	orr.w	r3, r3, #1
  408e80:	3108      	adds	r1, #8
  408e82:	6063      	str	r3, [r4, #4]
  408e84:	4640      	mov	r0, r8
  408e86:	f7ff faef 	bl	408468 <_free_r>
  408e8a:	e7d6      	b.n	408e3a <_realloc_r+0xde>
  408e8c:	4611      	mov	r1, r2
  408e8e:	f7fd bda3 	b.w	4069d8 <_malloc_r>
  408e92:	f01e 0f01 	tst.w	lr, #1
  408e96:	d18e      	bne.n	408db6 <_realloc_r+0x5a>
  408e98:	f855 1c08 	ldr.w	r1, [r5, #-8]
  408e9c:	eba9 0a01 	sub.w	sl, r9, r1
  408ea0:	f8da 1004 	ldr.w	r1, [sl, #4]
  408ea4:	f021 0103 	bic.w	r1, r1, #3
  408ea8:	440b      	add	r3, r1
  408eaa:	4423      	add	r3, r4
  408eac:	4293      	cmp	r3, r2
  408eae:	db25      	blt.n	408efc <_realloc_r+0x1a0>
  408eb0:	68c2      	ldr	r2, [r0, #12]
  408eb2:	6881      	ldr	r1, [r0, #8]
  408eb4:	4656      	mov	r6, sl
  408eb6:	60ca      	str	r2, [r1, #12]
  408eb8:	6091      	str	r1, [r2, #8]
  408eba:	f8da 100c 	ldr.w	r1, [sl, #12]
  408ebe:	f856 0f08 	ldr.w	r0, [r6, #8]!
  408ec2:	1f22      	subs	r2, r4, #4
  408ec4:	2a24      	cmp	r2, #36	; 0x24
  408ec6:	60c1      	str	r1, [r0, #12]
  408ec8:	6088      	str	r0, [r1, #8]
  408eca:	f200 8094 	bhi.w	408ff6 <_realloc_r+0x29a>
  408ece:	2a13      	cmp	r2, #19
  408ed0:	d96f      	bls.n	408fb2 <_realloc_r+0x256>
  408ed2:	6829      	ldr	r1, [r5, #0]
  408ed4:	f8ca 1008 	str.w	r1, [sl, #8]
  408ed8:	6869      	ldr	r1, [r5, #4]
  408eda:	f8ca 100c 	str.w	r1, [sl, #12]
  408ede:	2a1b      	cmp	r2, #27
  408ee0:	f200 80a2 	bhi.w	409028 <_realloc_r+0x2cc>
  408ee4:	3508      	adds	r5, #8
  408ee6:	f10a 0210 	add.w	r2, sl, #16
  408eea:	e063      	b.n	408fb4 <_realloc_r+0x258>
  408eec:	f855 3c08 	ldr.w	r3, [r5, #-8]
  408ef0:	eba9 0a03 	sub.w	sl, r9, r3
  408ef4:	f8da 1004 	ldr.w	r1, [sl, #4]
  408ef8:	f021 0103 	bic.w	r1, r1, #3
  408efc:	1863      	adds	r3, r4, r1
  408efe:	4293      	cmp	r3, r2
  408f00:	f6ff af59 	blt.w	408db6 <_realloc_r+0x5a>
  408f04:	4656      	mov	r6, sl
  408f06:	e7d8      	b.n	408eba <_realloc_r+0x15e>
  408f08:	6841      	ldr	r1, [r0, #4]
  408f0a:	f021 0b03 	bic.w	fp, r1, #3
  408f0e:	44a3      	add	fp, r4
  408f10:	f107 0010 	add.w	r0, r7, #16
  408f14:	4583      	cmp	fp, r0
  408f16:	da56      	bge.n	408fc6 <_realloc_r+0x26a>
  408f18:	f01e 0f01 	tst.w	lr, #1
  408f1c:	f47f af4b 	bne.w	408db6 <_realloc_r+0x5a>
  408f20:	f855 1c08 	ldr.w	r1, [r5, #-8]
  408f24:	eba9 0a01 	sub.w	sl, r9, r1
  408f28:	f8da 1004 	ldr.w	r1, [sl, #4]
  408f2c:	f021 0103 	bic.w	r1, r1, #3
  408f30:	448b      	add	fp, r1
  408f32:	4558      	cmp	r0, fp
  408f34:	dce2      	bgt.n	408efc <_realloc_r+0x1a0>
  408f36:	4656      	mov	r6, sl
  408f38:	f8da 100c 	ldr.w	r1, [sl, #12]
  408f3c:	f856 0f08 	ldr.w	r0, [r6, #8]!
  408f40:	1f22      	subs	r2, r4, #4
  408f42:	2a24      	cmp	r2, #36	; 0x24
  408f44:	60c1      	str	r1, [r0, #12]
  408f46:	6088      	str	r0, [r1, #8]
  408f48:	f200 808f 	bhi.w	40906a <_realloc_r+0x30e>
  408f4c:	2a13      	cmp	r2, #19
  408f4e:	f240 808a 	bls.w	409066 <_realloc_r+0x30a>
  408f52:	6829      	ldr	r1, [r5, #0]
  408f54:	f8ca 1008 	str.w	r1, [sl, #8]
  408f58:	6869      	ldr	r1, [r5, #4]
  408f5a:	f8ca 100c 	str.w	r1, [sl, #12]
  408f5e:	2a1b      	cmp	r2, #27
  408f60:	f200 808a 	bhi.w	409078 <_realloc_r+0x31c>
  408f64:	3508      	adds	r5, #8
  408f66:	f10a 0210 	add.w	r2, sl, #16
  408f6a:	6829      	ldr	r1, [r5, #0]
  408f6c:	6011      	str	r1, [r2, #0]
  408f6e:	6869      	ldr	r1, [r5, #4]
  408f70:	6051      	str	r1, [r2, #4]
  408f72:	68a9      	ldr	r1, [r5, #8]
  408f74:	6091      	str	r1, [r2, #8]
  408f76:	eb0a 0107 	add.w	r1, sl, r7
  408f7a:	ebab 0207 	sub.w	r2, fp, r7
  408f7e:	f042 0201 	orr.w	r2, r2, #1
  408f82:	6099      	str	r1, [r3, #8]
  408f84:	604a      	str	r2, [r1, #4]
  408f86:	f8da 3004 	ldr.w	r3, [sl, #4]
  408f8a:	f003 0301 	and.w	r3, r3, #1
  408f8e:	431f      	orrs	r7, r3
  408f90:	4640      	mov	r0, r8
  408f92:	f8ca 7004 	str.w	r7, [sl, #4]
  408f96:	f7fe f823 	bl	406fe0 <__malloc_unlock>
  408f9a:	e751      	b.n	408e40 <_realloc_r+0xe4>
  408f9c:	682b      	ldr	r3, [r5, #0]
  408f9e:	6003      	str	r3, [r0, #0]
  408fa0:	686b      	ldr	r3, [r5, #4]
  408fa2:	6043      	str	r3, [r0, #4]
  408fa4:	2a1b      	cmp	r2, #27
  408fa6:	d82d      	bhi.n	409004 <_realloc_r+0x2a8>
  408fa8:	f100 0308 	add.w	r3, r0, #8
  408fac:	f105 0208 	add.w	r2, r5, #8
  408fb0:	e71b      	b.n	408dea <_realloc_r+0x8e>
  408fb2:	4632      	mov	r2, r6
  408fb4:	6829      	ldr	r1, [r5, #0]
  408fb6:	6011      	str	r1, [r2, #0]
  408fb8:	6869      	ldr	r1, [r5, #4]
  408fba:	6051      	str	r1, [r2, #4]
  408fbc:	68a9      	ldr	r1, [r5, #8]
  408fbe:	6091      	str	r1, [r2, #8]
  408fc0:	461c      	mov	r4, r3
  408fc2:	46d1      	mov	r9, sl
  408fc4:	e72a      	b.n	408e1c <_realloc_r+0xc0>
  408fc6:	eb09 0107 	add.w	r1, r9, r7
  408fca:	ebab 0b07 	sub.w	fp, fp, r7
  408fce:	f04b 0201 	orr.w	r2, fp, #1
  408fd2:	6099      	str	r1, [r3, #8]
  408fd4:	604a      	str	r2, [r1, #4]
  408fd6:	f855 3c04 	ldr.w	r3, [r5, #-4]
  408fda:	f003 0301 	and.w	r3, r3, #1
  408fde:	431f      	orrs	r7, r3
  408fe0:	4640      	mov	r0, r8
  408fe2:	f845 7c04 	str.w	r7, [r5, #-4]
  408fe6:	f7fd fffb 	bl	406fe0 <__malloc_unlock>
  408fea:	462e      	mov	r6, r5
  408fec:	e728      	b.n	408e40 <_realloc_r+0xe4>
  408fee:	4629      	mov	r1, r5
  408ff0:	f7ff fe50 	bl	408c94 <memmove>
  408ff4:	e6ff      	b.n	408df6 <_realloc_r+0x9a>
  408ff6:	4629      	mov	r1, r5
  408ff8:	4630      	mov	r0, r6
  408ffa:	461c      	mov	r4, r3
  408ffc:	46d1      	mov	r9, sl
  408ffe:	f7ff fe49 	bl	408c94 <memmove>
  409002:	e70b      	b.n	408e1c <_realloc_r+0xc0>
  409004:	68ab      	ldr	r3, [r5, #8]
  409006:	6083      	str	r3, [r0, #8]
  409008:	68eb      	ldr	r3, [r5, #12]
  40900a:	60c3      	str	r3, [r0, #12]
  40900c:	2a24      	cmp	r2, #36	; 0x24
  40900e:	d017      	beq.n	409040 <_realloc_r+0x2e4>
  409010:	f100 0310 	add.w	r3, r0, #16
  409014:	f105 0210 	add.w	r2, r5, #16
  409018:	e6e7      	b.n	408dea <_realloc_r+0x8e>
  40901a:	f850 3c04 	ldr.w	r3, [r0, #-4]
  40901e:	f023 0303 	bic.w	r3, r3, #3
  409022:	441c      	add	r4, r3
  409024:	462e      	mov	r6, r5
  409026:	e6f9      	b.n	408e1c <_realloc_r+0xc0>
  409028:	68a9      	ldr	r1, [r5, #8]
  40902a:	f8ca 1010 	str.w	r1, [sl, #16]
  40902e:	68e9      	ldr	r1, [r5, #12]
  409030:	f8ca 1014 	str.w	r1, [sl, #20]
  409034:	2a24      	cmp	r2, #36	; 0x24
  409036:	d00c      	beq.n	409052 <_realloc_r+0x2f6>
  409038:	3510      	adds	r5, #16
  40903a:	f10a 0218 	add.w	r2, sl, #24
  40903e:	e7b9      	b.n	408fb4 <_realloc_r+0x258>
  409040:	692b      	ldr	r3, [r5, #16]
  409042:	6103      	str	r3, [r0, #16]
  409044:	696b      	ldr	r3, [r5, #20]
  409046:	6143      	str	r3, [r0, #20]
  409048:	f105 0218 	add.w	r2, r5, #24
  40904c:	f100 0318 	add.w	r3, r0, #24
  409050:	e6cb      	b.n	408dea <_realloc_r+0x8e>
  409052:	692a      	ldr	r2, [r5, #16]
  409054:	f8ca 2018 	str.w	r2, [sl, #24]
  409058:	696a      	ldr	r2, [r5, #20]
  40905a:	f8ca 201c 	str.w	r2, [sl, #28]
  40905e:	3518      	adds	r5, #24
  409060:	f10a 0220 	add.w	r2, sl, #32
  409064:	e7a6      	b.n	408fb4 <_realloc_r+0x258>
  409066:	4632      	mov	r2, r6
  409068:	e77f      	b.n	408f6a <_realloc_r+0x20e>
  40906a:	4629      	mov	r1, r5
  40906c:	4630      	mov	r0, r6
  40906e:	9301      	str	r3, [sp, #4]
  409070:	f7ff fe10 	bl	408c94 <memmove>
  409074:	9b01      	ldr	r3, [sp, #4]
  409076:	e77e      	b.n	408f76 <_realloc_r+0x21a>
  409078:	68a9      	ldr	r1, [r5, #8]
  40907a:	f8ca 1010 	str.w	r1, [sl, #16]
  40907e:	68e9      	ldr	r1, [r5, #12]
  409080:	f8ca 1014 	str.w	r1, [sl, #20]
  409084:	2a24      	cmp	r2, #36	; 0x24
  409086:	d003      	beq.n	409090 <_realloc_r+0x334>
  409088:	3510      	adds	r5, #16
  40908a:	f10a 0218 	add.w	r2, sl, #24
  40908e:	e76c      	b.n	408f6a <_realloc_r+0x20e>
  409090:	692a      	ldr	r2, [r5, #16]
  409092:	f8ca 2018 	str.w	r2, [sl, #24]
  409096:	696a      	ldr	r2, [r5, #20]
  409098:	f8ca 201c 	str.w	r2, [sl, #28]
  40909c:	3518      	adds	r5, #24
  40909e:	f10a 0220 	add.w	r2, sl, #32
  4090a2:	e762      	b.n	408f6a <_realloc_r+0x20e>
  4090a4:	20400480 	.word	0x20400480

004090a8 <__sread>:
  4090a8:	b510      	push	{r4, lr}
  4090aa:	460c      	mov	r4, r1
  4090ac:	f9b1 100e 	ldrsh.w	r1, [r1, #14]
  4090b0:	f000 fa6c 	bl	40958c <_read_r>
  4090b4:	2800      	cmp	r0, #0
  4090b6:	db03      	blt.n	4090c0 <__sread+0x18>
  4090b8:	6d23      	ldr	r3, [r4, #80]	; 0x50
  4090ba:	4403      	add	r3, r0
  4090bc:	6523      	str	r3, [r4, #80]	; 0x50
  4090be:	bd10      	pop	{r4, pc}
  4090c0:	89a3      	ldrh	r3, [r4, #12]
  4090c2:	f423 5380 	bic.w	r3, r3, #4096	; 0x1000
  4090c6:	81a3      	strh	r3, [r4, #12]
  4090c8:	bd10      	pop	{r4, pc}
  4090ca:	bf00      	nop

004090cc <__swrite>:
  4090cc:	e92d 41f0 	stmdb	sp!, {r4, r5, r6, r7, r8, lr}
  4090d0:	4616      	mov	r6, r2
  4090d2:	f9b1 200c 	ldrsh.w	r2, [r1, #12]
  4090d6:	461f      	mov	r7, r3
  4090d8:	05d3      	lsls	r3, r2, #23
  4090da:	460c      	mov	r4, r1
  4090dc:	4605      	mov	r5, r0
  4090de:	d507      	bpl.n	4090f0 <__swrite+0x24>
  4090e0:	2200      	movs	r2, #0
  4090e2:	2302      	movs	r3, #2
  4090e4:	f9b1 100e 	ldrsh.w	r1, [r1, #14]
  4090e8:	f000 fa3a 	bl	409560 <_lseek_r>
  4090ec:	f9b4 200c 	ldrsh.w	r2, [r4, #12]
  4090f0:	f9b4 100e 	ldrsh.w	r1, [r4, #14]
  4090f4:	f422 5280 	bic.w	r2, r2, #4096	; 0x1000
  4090f8:	81a2      	strh	r2, [r4, #12]
  4090fa:	463b      	mov	r3, r7
  4090fc:	4632      	mov	r2, r6
  4090fe:	4628      	mov	r0, r5
  409100:	e8bd 41f0 	ldmia.w	sp!, {r4, r5, r6, r7, r8, lr}
  409104:	f000 b91a 	b.w	40933c <_write_r>

00409108 <__sseek>:
  409108:	b510      	push	{r4, lr}
  40910a:	460c      	mov	r4, r1
  40910c:	f9b1 100e 	ldrsh.w	r1, [r1, #14]
  409110:	f000 fa26 	bl	409560 <_lseek_r>
  409114:	89a3      	ldrh	r3, [r4, #12]
  409116:	1c42      	adds	r2, r0, #1
  409118:	bf0e      	itee	eq
  40911a:	f423 5380 	biceq.w	r3, r3, #4096	; 0x1000
  40911e:	f443 5380 	orrne.w	r3, r3, #4096	; 0x1000
  409122:	6520      	strne	r0, [r4, #80]	; 0x50
  409124:	81a3      	strh	r3, [r4, #12]
  409126:	bd10      	pop	{r4, pc}

00409128 <__sclose>:
  409128:	f9b1 100e 	ldrsh.w	r1, [r1, #14]
  40912c:	f000 b97e 	b.w	40942c <_close_r>
	...

00409140 <strlen>:
  409140:	f890 f000 	pld	[r0]
  409144:	e96d 4502 	strd	r4, r5, [sp, #-8]!
  409148:	f020 0107 	bic.w	r1, r0, #7
  40914c:	f06f 0c00 	mvn.w	ip, #0
  409150:	f010 0407 	ands.w	r4, r0, #7
  409154:	f891 f020 	pld	[r1, #32]
  409158:	f040 8049 	bne.w	4091ee <strlen+0xae>
  40915c:	f04f 0400 	mov.w	r4, #0
  409160:	f06f 0007 	mvn.w	r0, #7
  409164:	e9d1 2300 	ldrd	r2, r3, [r1]
  409168:	f891 f040 	pld	[r1, #64]	; 0x40
  40916c:	f100 0008 	add.w	r0, r0, #8
  409170:	fa82 f24c 	uadd8	r2, r2, ip
  409174:	faa4 f28c 	sel	r2, r4, ip
  409178:	fa83 f34c 	uadd8	r3, r3, ip
  40917c:	faa2 f38c 	sel	r3, r2, ip
  409180:	bb4b      	cbnz	r3, 4091d6 <strlen+0x96>
  409182:	e9d1 2302 	ldrd	r2, r3, [r1, #8]
  409186:	fa82 f24c 	uadd8	r2, r2, ip
  40918a:	f100 0008 	add.w	r0, r0, #8
  40918e:	faa4 f28c 	sel	r2, r4, ip
  409192:	fa83 f34c 	uadd8	r3, r3, ip
  409196:	faa2 f38c 	sel	r3, r2, ip
  40919a:	b9e3      	cbnz	r3, 4091d6 <strlen+0x96>
  40919c:	e9d1 2304 	ldrd	r2, r3, [r1, #16]
  4091a0:	fa82 f24c 	uadd8	r2, r2, ip
  4091a4:	f100 0008 	add.w	r0, r0, #8
  4091a8:	faa4 f28c 	sel	r2, r4, ip
  4091ac:	fa83 f34c 	uadd8	r3, r3, ip
  4091b0:	faa2 f38c 	sel	r3, r2, ip
  4091b4:	b97b      	cbnz	r3, 4091d6 <strlen+0x96>
  4091b6:	e9d1 2306 	ldrd	r2, r3, [r1, #24]
  4091ba:	f101 0120 	add.w	r1, r1, #32
  4091be:	fa82 f24c 	uadd8	r2, r2, ip
  4091c2:	f100 0008 	add.w	r0, r0, #8
  4091c6:	faa4 f28c 	sel	r2, r4, ip
  4091ca:	fa83 f34c 	uadd8	r3, r3, ip
  4091ce:	faa2 f38c 	sel	r3, r2, ip
  4091d2:	2b00      	cmp	r3, #0
  4091d4:	d0c6      	beq.n	409164 <strlen+0x24>
  4091d6:	2a00      	cmp	r2, #0
  4091d8:	bf04      	itt	eq
  4091da:	3004      	addeq	r0, #4
  4091dc:	461a      	moveq	r2, r3
  4091de:	ba12      	rev	r2, r2
  4091e0:	fab2 f282 	clz	r2, r2
  4091e4:	e8fd 4502 	ldrd	r4, r5, [sp], #8
  4091e8:	eb00 00d2 	add.w	r0, r0, r2, lsr #3
  4091ec:	4770      	bx	lr
  4091ee:	e9d1 2300 	ldrd	r2, r3, [r1]
  4091f2:	f004 0503 	and.w	r5, r4, #3
  4091f6:	f1c4 0000 	rsb	r0, r4, #0
  4091fa:	ea4f 05c5 	mov.w	r5, r5, lsl #3
  4091fe:	f014 0f04 	tst.w	r4, #4
  409202:	f891 f040 	pld	[r1, #64]	; 0x40
  409206:	fa0c f505 	lsl.w	r5, ip, r5
  40920a:	ea62 0205 	orn	r2, r2, r5
  40920e:	bf1c      	itt	ne
  409210:	ea63 0305 	ornne	r3, r3, r5
  409214:	4662      	movne	r2, ip
  409216:	f04f 0400 	mov.w	r4, #0
  40921a:	e7a9      	b.n	409170 <strlen+0x30>

0040921c <__swbuf_r>:
  40921c:	b5f8      	push	{r3, r4, r5, r6, r7, lr}
  40921e:	460d      	mov	r5, r1
  409220:	4614      	mov	r4, r2
  409222:	4606      	mov	r6, r0
  409224:	b110      	cbz	r0, 40922c <__swbuf_r+0x10>
  409226:	6b83      	ldr	r3, [r0, #56]	; 0x38
  409228:	2b00      	cmp	r3, #0
  40922a:	d04b      	beq.n	4092c4 <__swbuf_r+0xa8>
  40922c:	f9b4 200c 	ldrsh.w	r2, [r4, #12]
  409230:	69a3      	ldr	r3, [r4, #24]
  409232:	60a3      	str	r3, [r4, #8]
  409234:	b291      	uxth	r1, r2
  409236:	0708      	lsls	r0, r1, #28
  409238:	d539      	bpl.n	4092ae <__swbuf_r+0x92>
  40923a:	6923      	ldr	r3, [r4, #16]
  40923c:	2b00      	cmp	r3, #0
  40923e:	d036      	beq.n	4092ae <__swbuf_r+0x92>
  409240:	b2ed      	uxtb	r5, r5
  409242:	0489      	lsls	r1, r1, #18
  409244:	462f      	mov	r7, r5
  409246:	d515      	bpl.n	409274 <__swbuf_r+0x58>
  409248:	6822      	ldr	r2, [r4, #0]
  40924a:	6961      	ldr	r1, [r4, #20]
  40924c:	1ad3      	subs	r3, r2, r3
  40924e:	428b      	cmp	r3, r1
  409250:	da1c      	bge.n	40928c <__swbuf_r+0x70>
  409252:	3301      	adds	r3, #1
  409254:	68a1      	ldr	r1, [r4, #8]
  409256:	1c50      	adds	r0, r2, #1
  409258:	3901      	subs	r1, #1
  40925a:	60a1      	str	r1, [r4, #8]
  40925c:	6020      	str	r0, [r4, #0]
  40925e:	7015      	strb	r5, [r2, #0]
  409260:	6962      	ldr	r2, [r4, #20]
  409262:	429a      	cmp	r2, r3
  409264:	d01a      	beq.n	40929c <__swbuf_r+0x80>
  409266:	89a3      	ldrh	r3, [r4, #12]
  409268:	07db      	lsls	r3, r3, #31
  40926a:	d501      	bpl.n	409270 <__swbuf_r+0x54>
  40926c:	2d0a      	cmp	r5, #10
  40926e:	d015      	beq.n	40929c <__swbuf_r+0x80>
  409270:	4638      	mov	r0, r7
  409272:	bdf8      	pop	{r3, r4, r5, r6, r7, pc}
  409274:	6e61      	ldr	r1, [r4, #100]	; 0x64
  409276:	f442 5200 	orr.w	r2, r2, #8192	; 0x2000
  40927a:	f421 5100 	bic.w	r1, r1, #8192	; 0x2000
  40927e:	81a2      	strh	r2, [r4, #12]
  409280:	6822      	ldr	r2, [r4, #0]
  409282:	6661      	str	r1, [r4, #100]	; 0x64
  409284:	6961      	ldr	r1, [r4, #20]
  409286:	1ad3      	subs	r3, r2, r3
  409288:	428b      	cmp	r3, r1
  40928a:	dbe2      	blt.n	409252 <__swbuf_r+0x36>
  40928c:	4621      	mov	r1, r4
  40928e:	4630      	mov	r0, r6
  409290:	f7fe ff6c 	bl	40816c <_fflush_r>
  409294:	b940      	cbnz	r0, 4092a8 <__swbuf_r+0x8c>
  409296:	6822      	ldr	r2, [r4, #0]
  409298:	2301      	movs	r3, #1
  40929a:	e7db      	b.n	409254 <__swbuf_r+0x38>
  40929c:	4621      	mov	r1, r4
  40929e:	4630      	mov	r0, r6
  4092a0:	f7fe ff64 	bl	40816c <_fflush_r>
  4092a4:	2800      	cmp	r0, #0
  4092a6:	d0e3      	beq.n	409270 <__swbuf_r+0x54>
  4092a8:	f04f 37ff 	mov.w	r7, #4294967295
  4092ac:	e7e0      	b.n	409270 <__swbuf_r+0x54>
  4092ae:	4621      	mov	r1, r4
  4092b0:	4630      	mov	r0, r6
  4092b2:	f7fe fe47 	bl	407f44 <__swsetup_r>
  4092b6:	2800      	cmp	r0, #0
  4092b8:	d1f6      	bne.n	4092a8 <__swbuf_r+0x8c>
  4092ba:	f9b4 200c 	ldrsh.w	r2, [r4, #12]
  4092be:	6923      	ldr	r3, [r4, #16]
  4092c0:	b291      	uxth	r1, r2
  4092c2:	e7bd      	b.n	409240 <__swbuf_r+0x24>
  4092c4:	f7fe ffaa 	bl	40821c <__sinit>
  4092c8:	e7b0      	b.n	40922c <__swbuf_r+0x10>
  4092ca:	bf00      	nop

004092cc <_wcrtomb_r>:
  4092cc:	b5f0      	push	{r4, r5, r6, r7, lr}
  4092ce:	4606      	mov	r6, r0
  4092d0:	b085      	sub	sp, #20
  4092d2:	461f      	mov	r7, r3
  4092d4:	b189      	cbz	r1, 4092fa <_wcrtomb_r+0x2e>
  4092d6:	4c10      	ldr	r4, [pc, #64]	; (409318 <_wcrtomb_r+0x4c>)
  4092d8:	4d10      	ldr	r5, [pc, #64]	; (40931c <_wcrtomb_r+0x50>)
  4092da:	6824      	ldr	r4, [r4, #0]
  4092dc:	6b64      	ldr	r4, [r4, #52]	; 0x34
  4092de:	2c00      	cmp	r4, #0
  4092e0:	bf08      	it	eq
  4092e2:	462c      	moveq	r4, r5
  4092e4:	f8d4 40e0 	ldr.w	r4, [r4, #224]	; 0xe0
  4092e8:	47a0      	blx	r4
  4092ea:	1c43      	adds	r3, r0, #1
  4092ec:	d103      	bne.n	4092f6 <_wcrtomb_r+0x2a>
  4092ee:	2200      	movs	r2, #0
  4092f0:	238a      	movs	r3, #138	; 0x8a
  4092f2:	603a      	str	r2, [r7, #0]
  4092f4:	6033      	str	r3, [r6, #0]
  4092f6:	b005      	add	sp, #20
  4092f8:	bdf0      	pop	{r4, r5, r6, r7, pc}
  4092fa:	460c      	mov	r4, r1
  4092fc:	4906      	ldr	r1, [pc, #24]	; (409318 <_wcrtomb_r+0x4c>)
  4092fe:	4a07      	ldr	r2, [pc, #28]	; (40931c <_wcrtomb_r+0x50>)
  409300:	6809      	ldr	r1, [r1, #0]
  409302:	6b49      	ldr	r1, [r1, #52]	; 0x34
  409304:	2900      	cmp	r1, #0
  409306:	bf08      	it	eq
  409308:	4611      	moveq	r1, r2
  40930a:	4622      	mov	r2, r4
  40930c:	f8d1 40e0 	ldr.w	r4, [r1, #224]	; 0xe0
  409310:	a901      	add	r1, sp, #4
  409312:	47a0      	blx	r4
  409314:	e7e9      	b.n	4092ea <_wcrtomb_r+0x1e>
  409316:	bf00      	nop
  409318:	20400054 	.word	0x20400054
  40931c:	20400894 	.word	0x20400894

00409320 <__ascii_wctomb>:
  409320:	b121      	cbz	r1, 40932c <__ascii_wctomb+0xc>
  409322:	2aff      	cmp	r2, #255	; 0xff
  409324:	d804      	bhi.n	409330 <__ascii_wctomb+0x10>
  409326:	700a      	strb	r2, [r1, #0]
  409328:	2001      	movs	r0, #1
  40932a:	4770      	bx	lr
  40932c:	4608      	mov	r0, r1
  40932e:	4770      	bx	lr
  409330:	238a      	movs	r3, #138	; 0x8a
  409332:	6003      	str	r3, [r0, #0]
  409334:	f04f 30ff 	mov.w	r0, #4294967295
  409338:	4770      	bx	lr
  40933a:	bf00      	nop

0040933c <_write_r>:
  40933c:	b570      	push	{r4, r5, r6, lr}
  40933e:	460d      	mov	r5, r1
  409340:	4c08      	ldr	r4, [pc, #32]	; (409364 <_write_r+0x28>)
  409342:	4611      	mov	r1, r2
  409344:	4606      	mov	r6, r0
  409346:	461a      	mov	r2, r3
  409348:	4628      	mov	r0, r5
  40934a:	2300      	movs	r3, #0
  40934c:	6023      	str	r3, [r4, #0]
  40934e:	f7fa f817 	bl	403380 <_write>
  409352:	1c43      	adds	r3, r0, #1
  409354:	d000      	beq.n	409358 <_write_r+0x1c>
  409356:	bd70      	pop	{r4, r5, r6, pc}
  409358:	6823      	ldr	r3, [r4, #0]
  40935a:	2b00      	cmp	r3, #0
  40935c:	d0fb      	beq.n	409356 <_write_r+0x1a>
  40935e:	6033      	str	r3, [r6, #0]
  409360:	bd70      	pop	{r4, r5, r6, pc}
  409362:	bf00      	nop
  409364:	2043b814 	.word	0x2043b814

00409368 <__register_exitproc>:
  409368:	e92d 43f8 	stmdb	sp!, {r3, r4, r5, r6, r7, r8, r9, lr}
  40936c:	4d2c      	ldr	r5, [pc, #176]	; (409420 <__register_exitproc+0xb8>)
  40936e:	4606      	mov	r6, r0
  409370:	6828      	ldr	r0, [r5, #0]
  409372:	4698      	mov	r8, r3
  409374:	460f      	mov	r7, r1
  409376:	4691      	mov	r9, r2
  409378:	f7ff fb10 	bl	40899c <__retarget_lock_acquire_recursive>
  40937c:	4b29      	ldr	r3, [pc, #164]	; (409424 <__register_exitproc+0xbc>)
  40937e:	681c      	ldr	r4, [r3, #0]
  409380:	f8d4 3148 	ldr.w	r3, [r4, #328]	; 0x148
  409384:	2b00      	cmp	r3, #0
  409386:	d03e      	beq.n	409406 <__register_exitproc+0x9e>
  409388:	685a      	ldr	r2, [r3, #4]
  40938a:	2a1f      	cmp	r2, #31
  40938c:	dc1c      	bgt.n	4093c8 <__register_exitproc+0x60>
  40938e:	f102 0e01 	add.w	lr, r2, #1
  409392:	b176      	cbz	r6, 4093b2 <__register_exitproc+0x4a>
  409394:	eb03 0182 	add.w	r1, r3, r2, lsl #2
  409398:	2401      	movs	r4, #1
  40939a:	f8c1 9088 	str.w	r9, [r1, #136]	; 0x88
  40939e:	f8d3 0188 	ldr.w	r0, [r3, #392]	; 0x188
  4093a2:	4094      	lsls	r4, r2
  4093a4:	4320      	orrs	r0, r4
  4093a6:	2e02      	cmp	r6, #2
  4093a8:	f8c3 0188 	str.w	r0, [r3, #392]	; 0x188
  4093ac:	f8c1 8108 	str.w	r8, [r1, #264]	; 0x108
  4093b0:	d023      	beq.n	4093fa <__register_exitproc+0x92>
  4093b2:	3202      	adds	r2, #2
  4093b4:	f8c3 e004 	str.w	lr, [r3, #4]
  4093b8:	6828      	ldr	r0, [r5, #0]
  4093ba:	f843 7022 	str.w	r7, [r3, r2, lsl #2]
  4093be:	f7ff faef 	bl	4089a0 <__retarget_lock_release_recursive>
  4093c2:	2000      	movs	r0, #0
  4093c4:	e8bd 83f8 	ldmia.w	sp!, {r3, r4, r5, r6, r7, r8, r9, pc}
  4093c8:	4b17      	ldr	r3, [pc, #92]	; (409428 <__register_exitproc+0xc0>)
  4093ca:	b30b      	cbz	r3, 409410 <__register_exitproc+0xa8>
  4093cc:	f44f 70c8 	mov.w	r0, #400	; 0x190
  4093d0:	f7fd faf2 	bl	4069b8 <malloc>
  4093d4:	4603      	mov	r3, r0
  4093d6:	b1d8      	cbz	r0, 409410 <__register_exitproc+0xa8>
  4093d8:	f8d4 2148 	ldr.w	r2, [r4, #328]	; 0x148
  4093dc:	6002      	str	r2, [r0, #0]
  4093de:	2100      	movs	r1, #0
  4093e0:	6041      	str	r1, [r0, #4]
  4093e2:	460a      	mov	r2, r1
  4093e4:	f8c4 0148 	str.w	r0, [r4, #328]	; 0x148
  4093e8:	f04f 0e01 	mov.w	lr, #1
  4093ec:	f8c0 1188 	str.w	r1, [r0, #392]	; 0x188
  4093f0:	f8c0 118c 	str.w	r1, [r0, #396]	; 0x18c
  4093f4:	2e00      	cmp	r6, #0
  4093f6:	d0dc      	beq.n	4093b2 <__register_exitproc+0x4a>
  4093f8:	e7cc      	b.n	409394 <__register_exitproc+0x2c>
  4093fa:	f8d3 118c 	ldr.w	r1, [r3, #396]	; 0x18c
  4093fe:	430c      	orrs	r4, r1
  409400:	f8c3 418c 	str.w	r4, [r3, #396]	; 0x18c
  409404:	e7d5      	b.n	4093b2 <__register_exitproc+0x4a>
  409406:	f504 73a6 	add.w	r3, r4, #332	; 0x14c
  40940a:	f8c4 3148 	str.w	r3, [r4, #328]	; 0x148
  40940e:	e7bb      	b.n	409388 <__register_exitproc+0x20>
  409410:	6828      	ldr	r0, [r5, #0]
  409412:	f7ff fac5 	bl	4089a0 <__retarget_lock_release_recursive>
  409416:	f04f 30ff 	mov.w	r0, #4294967295
  40941a:	e8bd 83f8 	ldmia.w	sp!, {r3, r4, r5, r6, r7, r8, r9, pc}
  40941e:	bf00      	nop
  409420:	20400890 	.word	0x20400890
  409424:	00414918 	.word	0x00414918
  409428:	004069b9 	.word	0x004069b9

0040942c <_close_r>:
  40942c:	b538      	push	{r3, r4, r5, lr}
  40942e:	4c07      	ldr	r4, [pc, #28]	; (40944c <_close_r+0x20>)
  409430:	2300      	movs	r3, #0
  409432:	4605      	mov	r5, r0
  409434:	4608      	mov	r0, r1
  409436:	6023      	str	r3, [r4, #0]
  409438:	f7fb f85c 	bl	4044f4 <_close>
  40943c:	1c43      	adds	r3, r0, #1
  40943e:	d000      	beq.n	409442 <_close_r+0x16>
  409440:	bd38      	pop	{r3, r4, r5, pc}
  409442:	6823      	ldr	r3, [r4, #0]
  409444:	2b00      	cmp	r3, #0
  409446:	d0fb      	beq.n	409440 <_close_r+0x14>
  409448:	602b      	str	r3, [r5, #0]
  40944a:	bd38      	pop	{r3, r4, r5, pc}
  40944c:	2043b814 	.word	0x2043b814

00409450 <_fclose_r>:
  409450:	b570      	push	{r4, r5, r6, lr}
  409452:	b159      	cbz	r1, 40946c <_fclose_r+0x1c>
  409454:	4605      	mov	r5, r0
  409456:	460c      	mov	r4, r1
  409458:	b110      	cbz	r0, 409460 <_fclose_r+0x10>
  40945a:	6b83      	ldr	r3, [r0, #56]	; 0x38
  40945c:	2b00      	cmp	r3, #0
  40945e:	d03c      	beq.n	4094da <_fclose_r+0x8a>
  409460:	6e63      	ldr	r3, [r4, #100]	; 0x64
  409462:	07d8      	lsls	r0, r3, #31
  409464:	d505      	bpl.n	409472 <_fclose_r+0x22>
  409466:	f9b4 300c 	ldrsh.w	r3, [r4, #12]
  40946a:	b92b      	cbnz	r3, 409478 <_fclose_r+0x28>
  40946c:	2600      	movs	r6, #0
  40946e:	4630      	mov	r0, r6
  409470:	bd70      	pop	{r4, r5, r6, pc}
  409472:	89a3      	ldrh	r3, [r4, #12]
  409474:	0599      	lsls	r1, r3, #22
  409476:	d53c      	bpl.n	4094f2 <_fclose_r+0xa2>
  409478:	4621      	mov	r1, r4
  40947a:	4628      	mov	r0, r5
  40947c:	f7fe fdd6 	bl	40802c <__sflush_r>
  409480:	6ae3      	ldr	r3, [r4, #44]	; 0x2c
  409482:	4606      	mov	r6, r0
  409484:	b133      	cbz	r3, 409494 <_fclose_r+0x44>
  409486:	69e1      	ldr	r1, [r4, #28]
  409488:	4628      	mov	r0, r5
  40948a:	4798      	blx	r3
  40948c:	2800      	cmp	r0, #0
  40948e:	bfb8      	it	lt
  409490:	f04f 36ff 	movlt.w	r6, #4294967295
  409494:	89a3      	ldrh	r3, [r4, #12]
  409496:	061a      	lsls	r2, r3, #24
  409498:	d422      	bmi.n	4094e0 <_fclose_r+0x90>
  40949a:	6b21      	ldr	r1, [r4, #48]	; 0x30
  40949c:	b141      	cbz	r1, 4094b0 <_fclose_r+0x60>
  40949e:	f104 0340 	add.w	r3, r4, #64	; 0x40
  4094a2:	4299      	cmp	r1, r3
  4094a4:	d002      	beq.n	4094ac <_fclose_r+0x5c>
  4094a6:	4628      	mov	r0, r5
  4094a8:	f7fe ffde 	bl	408468 <_free_r>
  4094ac:	2300      	movs	r3, #0
  4094ae:	6323      	str	r3, [r4, #48]	; 0x30
  4094b0:	6c61      	ldr	r1, [r4, #68]	; 0x44
  4094b2:	b121      	cbz	r1, 4094be <_fclose_r+0x6e>
  4094b4:	4628      	mov	r0, r5
  4094b6:	f7fe ffd7 	bl	408468 <_free_r>
  4094ba:	2300      	movs	r3, #0
  4094bc:	6463      	str	r3, [r4, #68]	; 0x44
  4094be:	f7fe fed9 	bl	408274 <__sfp_lock_acquire>
  4094c2:	6e63      	ldr	r3, [r4, #100]	; 0x64
  4094c4:	2200      	movs	r2, #0
  4094c6:	07db      	lsls	r3, r3, #31
  4094c8:	81a2      	strh	r2, [r4, #12]
  4094ca:	d50e      	bpl.n	4094ea <_fclose_r+0x9a>
  4094cc:	6da0      	ldr	r0, [r4, #88]	; 0x58
  4094ce:	f7ff fa63 	bl	408998 <__retarget_lock_close_recursive>
  4094d2:	f7fe fed5 	bl	408280 <__sfp_lock_release>
  4094d6:	4630      	mov	r0, r6
  4094d8:	bd70      	pop	{r4, r5, r6, pc}
  4094da:	f7fe fe9f 	bl	40821c <__sinit>
  4094de:	e7bf      	b.n	409460 <_fclose_r+0x10>
  4094e0:	6921      	ldr	r1, [r4, #16]
  4094e2:	4628      	mov	r0, r5
  4094e4:	f7fe ffc0 	bl	408468 <_free_r>
  4094e8:	e7d7      	b.n	40949a <_fclose_r+0x4a>
  4094ea:	6da0      	ldr	r0, [r4, #88]	; 0x58
  4094ec:	f7ff fa58 	bl	4089a0 <__retarget_lock_release_recursive>
  4094f0:	e7ec      	b.n	4094cc <_fclose_r+0x7c>
  4094f2:	6da0      	ldr	r0, [r4, #88]	; 0x58
  4094f4:	f7ff fa52 	bl	40899c <__retarget_lock_acquire_recursive>
  4094f8:	f9b4 300c 	ldrsh.w	r3, [r4, #12]
  4094fc:	2b00      	cmp	r3, #0
  4094fe:	d1bb      	bne.n	409478 <_fclose_r+0x28>
  409500:	6e66      	ldr	r6, [r4, #100]	; 0x64
  409502:	f016 0601 	ands.w	r6, r6, #1
  409506:	d1b1      	bne.n	40946c <_fclose_r+0x1c>
  409508:	6da0      	ldr	r0, [r4, #88]	; 0x58
  40950a:	f7ff fa49 	bl	4089a0 <__retarget_lock_release_recursive>
  40950e:	4630      	mov	r0, r6
  409510:	bd70      	pop	{r4, r5, r6, pc}
  409512:	bf00      	nop

00409514 <_fstat_r>:
  409514:	b538      	push	{r3, r4, r5, lr}
  409516:	460b      	mov	r3, r1
  409518:	4c07      	ldr	r4, [pc, #28]	; (409538 <_fstat_r+0x24>)
  40951a:	4605      	mov	r5, r0
  40951c:	4611      	mov	r1, r2
  40951e:	4618      	mov	r0, r3
  409520:	2300      	movs	r3, #0
  409522:	6023      	str	r3, [r4, #0]
  409524:	f7fa ffea 	bl	4044fc <_fstat>
  409528:	1c43      	adds	r3, r0, #1
  40952a:	d000      	beq.n	40952e <_fstat_r+0x1a>
  40952c:	bd38      	pop	{r3, r4, r5, pc}
  40952e:	6823      	ldr	r3, [r4, #0]
  409530:	2b00      	cmp	r3, #0
  409532:	d0fb      	beq.n	40952c <_fstat_r+0x18>
  409534:	602b      	str	r3, [r5, #0]
  409536:	bd38      	pop	{r3, r4, r5, pc}
  409538:	2043b814 	.word	0x2043b814

0040953c <_isatty_r>:
  40953c:	b538      	push	{r3, r4, r5, lr}
  40953e:	4c07      	ldr	r4, [pc, #28]	; (40955c <_isatty_r+0x20>)
  409540:	2300      	movs	r3, #0
  409542:	4605      	mov	r5, r0
  409544:	4608      	mov	r0, r1
  409546:	6023      	str	r3, [r4, #0]
  409548:	f7fa ffde 	bl	404508 <_isatty>
  40954c:	1c43      	adds	r3, r0, #1
  40954e:	d000      	beq.n	409552 <_isatty_r+0x16>
  409550:	bd38      	pop	{r3, r4, r5, pc}
  409552:	6823      	ldr	r3, [r4, #0]
  409554:	2b00      	cmp	r3, #0
  409556:	d0fb      	beq.n	409550 <_isatty_r+0x14>
  409558:	602b      	str	r3, [r5, #0]
  40955a:	bd38      	pop	{r3, r4, r5, pc}
  40955c:	2043b814 	.word	0x2043b814

00409560 <_lseek_r>:
  409560:	b570      	push	{r4, r5, r6, lr}
  409562:	460d      	mov	r5, r1
  409564:	4c08      	ldr	r4, [pc, #32]	; (409588 <_lseek_r+0x28>)
  409566:	4611      	mov	r1, r2
  409568:	4606      	mov	r6, r0
  40956a:	461a      	mov	r2, r3
  40956c:	4628      	mov	r0, r5
  40956e:	2300      	movs	r3, #0
  409570:	6023      	str	r3, [r4, #0]
  409572:	f7fa ffcb 	bl	40450c <_lseek>
  409576:	1c43      	adds	r3, r0, #1
  409578:	d000      	beq.n	40957c <_lseek_r+0x1c>
  40957a:	bd70      	pop	{r4, r5, r6, pc}
  40957c:	6823      	ldr	r3, [r4, #0]
  40957e:	2b00      	cmp	r3, #0
  409580:	d0fb      	beq.n	40957a <_lseek_r+0x1a>
  409582:	6033      	str	r3, [r6, #0]
  409584:	bd70      	pop	{r4, r5, r6, pc}
  409586:	bf00      	nop
  409588:	2043b814 	.word	0x2043b814

0040958c <_read_r>:
  40958c:	b570      	push	{r4, r5, r6, lr}
  40958e:	460d      	mov	r5, r1
  409590:	4c08      	ldr	r4, [pc, #32]	; (4095b4 <_read_r+0x28>)
  409592:	4611      	mov	r1, r2
  409594:	4606      	mov	r6, r0
  409596:	461a      	mov	r2, r3
  409598:	4628      	mov	r0, r5
  40959a:	2300      	movs	r3, #0
  40959c:	6023      	str	r3, [r4, #0]
  40959e:	f7f9 fed1 	bl	403344 <_read>
  4095a2:	1c43      	adds	r3, r0, #1
  4095a4:	d000      	beq.n	4095a8 <_read_r+0x1c>
  4095a6:	bd70      	pop	{r4, r5, r6, pc}
  4095a8:	6823      	ldr	r3, [r4, #0]
  4095aa:	2b00      	cmp	r3, #0
  4095ac:	d0fb      	beq.n	4095a6 <_read_r+0x1a>
  4095ae:	6033      	str	r3, [r6, #0]
  4095b0:	bd70      	pop	{r4, r5, r6, pc}
  4095b2:	bf00      	nop
  4095b4:	2043b814 	.word	0x2043b814

004095b8 <__aeabi_uldivmod>:
  4095b8:	b953      	cbnz	r3, 4095d0 <__aeabi_uldivmod+0x18>
  4095ba:	b94a      	cbnz	r2, 4095d0 <__aeabi_uldivmod+0x18>
  4095bc:	2900      	cmp	r1, #0
  4095be:	bf08      	it	eq
  4095c0:	2800      	cmpeq	r0, #0
  4095c2:	bf1c      	itt	ne
  4095c4:	f04f 31ff 	movne.w	r1, #4294967295
  4095c8:	f04f 30ff 	movne.w	r0, #4294967295
  4095cc:	f000 b97a 	b.w	4098c4 <__aeabi_idiv0>
  4095d0:	f1ad 0c08 	sub.w	ip, sp, #8
  4095d4:	e96d ce04 	strd	ip, lr, [sp, #-16]!
  4095d8:	f000 f806 	bl	4095e8 <__udivmoddi4>
  4095dc:	f8dd e004 	ldr.w	lr, [sp, #4]
  4095e0:	e9dd 2302 	ldrd	r2, r3, [sp, #8]
  4095e4:	b004      	add	sp, #16
  4095e6:	4770      	bx	lr

004095e8 <__udivmoddi4>:
  4095e8:	e92d 47f0 	stmdb	sp!, {r4, r5, r6, r7, r8, r9, sl, lr}
  4095ec:	468c      	mov	ip, r1
  4095ee:	460d      	mov	r5, r1
  4095f0:	4604      	mov	r4, r0
  4095f2:	9e08      	ldr	r6, [sp, #32]
  4095f4:	2b00      	cmp	r3, #0
  4095f6:	d151      	bne.n	40969c <__udivmoddi4+0xb4>
  4095f8:	428a      	cmp	r2, r1
  4095fa:	4617      	mov	r7, r2
  4095fc:	d96d      	bls.n	4096da <__udivmoddi4+0xf2>
  4095fe:	fab2 fe82 	clz	lr, r2
  409602:	f1be 0f00 	cmp.w	lr, #0
  409606:	d00b      	beq.n	409620 <__udivmoddi4+0x38>
  409608:	f1ce 0c20 	rsb	ip, lr, #32
  40960c:	fa01 f50e 	lsl.w	r5, r1, lr
  409610:	fa20 fc0c 	lsr.w	ip, r0, ip
  409614:	fa02 f70e 	lsl.w	r7, r2, lr
  409618:	ea4c 0c05 	orr.w	ip, ip, r5
  40961c:	fa00 f40e 	lsl.w	r4, r0, lr
  409620:	ea4f 4a17 	mov.w	sl, r7, lsr #16
  409624:	0c25      	lsrs	r5, r4, #16
  409626:	fbbc f8fa 	udiv	r8, ip, sl
  40962a:	fa1f f987 	uxth.w	r9, r7
  40962e:	fb0a cc18 	mls	ip, sl, r8, ip
  409632:	ea45 450c 	orr.w	r5, r5, ip, lsl #16
  409636:	fb08 f309 	mul.w	r3, r8, r9
  40963a:	42ab      	cmp	r3, r5
  40963c:	d90a      	bls.n	409654 <__udivmoddi4+0x6c>
  40963e:	19ed      	adds	r5, r5, r7
  409640:	f108 32ff 	add.w	r2, r8, #4294967295
  409644:	f080 8123 	bcs.w	40988e <__udivmoddi4+0x2a6>
  409648:	42ab      	cmp	r3, r5
  40964a:	f240 8120 	bls.w	40988e <__udivmoddi4+0x2a6>
  40964e:	f1a8 0802 	sub.w	r8, r8, #2
  409652:	443d      	add	r5, r7
  409654:	1aed      	subs	r5, r5, r3
  409656:	b2a4      	uxth	r4, r4
  409658:	fbb5 f0fa 	udiv	r0, r5, sl
  40965c:	fb0a 5510 	mls	r5, sl, r0, r5
  409660:	ea44 4405 	orr.w	r4, r4, r5, lsl #16
  409664:	fb00 f909 	mul.w	r9, r0, r9
  409668:	45a1      	cmp	r9, r4
  40966a:	d909      	bls.n	409680 <__udivmoddi4+0x98>
  40966c:	19e4      	adds	r4, r4, r7
  40966e:	f100 33ff 	add.w	r3, r0, #4294967295
  409672:	f080 810a 	bcs.w	40988a <__udivmoddi4+0x2a2>
  409676:	45a1      	cmp	r9, r4
  409678:	f240 8107 	bls.w	40988a <__udivmoddi4+0x2a2>
  40967c:	3802      	subs	r0, #2
  40967e:	443c      	add	r4, r7
  409680:	eba4 0409 	sub.w	r4, r4, r9
  409684:	ea40 4008 	orr.w	r0, r0, r8, lsl #16
  409688:	2100      	movs	r1, #0
  40968a:	2e00      	cmp	r6, #0
  40968c:	d061      	beq.n	409752 <__udivmoddi4+0x16a>
  40968e:	fa24 f40e 	lsr.w	r4, r4, lr
  409692:	2300      	movs	r3, #0
  409694:	6034      	str	r4, [r6, #0]
  409696:	6073      	str	r3, [r6, #4]
  409698:	e8bd 87f0 	ldmia.w	sp!, {r4, r5, r6, r7, r8, r9, sl, pc}
  40969c:	428b      	cmp	r3, r1
  40969e:	d907      	bls.n	4096b0 <__udivmoddi4+0xc8>
  4096a0:	2e00      	cmp	r6, #0
  4096a2:	d054      	beq.n	40974e <__udivmoddi4+0x166>
  4096a4:	2100      	movs	r1, #0
  4096a6:	e886 0021 	stmia.w	r6, {r0, r5}
  4096aa:	4608      	mov	r0, r1
  4096ac:	e8bd 87f0 	ldmia.w	sp!, {r4, r5, r6, r7, r8, r9, sl, pc}
  4096b0:	fab3 f183 	clz	r1, r3
  4096b4:	2900      	cmp	r1, #0
  4096b6:	f040 808e 	bne.w	4097d6 <__udivmoddi4+0x1ee>
  4096ba:	42ab      	cmp	r3, r5
  4096bc:	d302      	bcc.n	4096c4 <__udivmoddi4+0xdc>
  4096be:	4282      	cmp	r2, r0
  4096c0:	f200 80fa 	bhi.w	4098b8 <__udivmoddi4+0x2d0>
  4096c4:	1a84      	subs	r4, r0, r2
  4096c6:	eb65 0503 	sbc.w	r5, r5, r3
  4096ca:	2001      	movs	r0, #1
  4096cc:	46ac      	mov	ip, r5
  4096ce:	2e00      	cmp	r6, #0
  4096d0:	d03f      	beq.n	409752 <__udivmoddi4+0x16a>
  4096d2:	e886 1010 	stmia.w	r6, {r4, ip}
  4096d6:	e8bd 87f0 	ldmia.w	sp!, {r4, r5, r6, r7, r8, r9, sl, pc}
  4096da:	b912      	cbnz	r2, 4096e2 <__udivmoddi4+0xfa>
  4096dc:	2701      	movs	r7, #1
  4096de:	fbb7 f7f2 	udiv	r7, r7, r2
  4096e2:	fab7 fe87 	clz	lr, r7
  4096e6:	f1be 0f00 	cmp.w	lr, #0
  4096ea:	d134      	bne.n	409756 <__udivmoddi4+0x16e>
  4096ec:	1beb      	subs	r3, r5, r7
  4096ee:	0c3a      	lsrs	r2, r7, #16
  4096f0:	fa1f fc87 	uxth.w	ip, r7
  4096f4:	2101      	movs	r1, #1
  4096f6:	fbb3 f8f2 	udiv	r8, r3, r2
  4096fa:	0c25      	lsrs	r5, r4, #16
  4096fc:	fb02 3318 	mls	r3, r2, r8, r3
  409700:	ea45 4503 	orr.w	r5, r5, r3, lsl #16
  409704:	fb0c f308 	mul.w	r3, ip, r8
  409708:	42ab      	cmp	r3, r5
  40970a:	d907      	bls.n	40971c <__udivmoddi4+0x134>
  40970c:	19ed      	adds	r5, r5, r7
  40970e:	f108 30ff 	add.w	r0, r8, #4294967295
  409712:	d202      	bcs.n	40971a <__udivmoddi4+0x132>
  409714:	42ab      	cmp	r3, r5
  409716:	f200 80d1 	bhi.w	4098bc <__udivmoddi4+0x2d4>
  40971a:	4680      	mov	r8, r0
  40971c:	1aed      	subs	r5, r5, r3
  40971e:	b2a3      	uxth	r3, r4
  409720:	fbb5 f0f2 	udiv	r0, r5, r2
  409724:	fb02 5510 	mls	r5, r2, r0, r5
  409728:	ea43 4405 	orr.w	r4, r3, r5, lsl #16
  40972c:	fb0c fc00 	mul.w	ip, ip, r0
  409730:	45a4      	cmp	ip, r4
  409732:	d907      	bls.n	409744 <__udivmoddi4+0x15c>
  409734:	19e4      	adds	r4, r4, r7
  409736:	f100 33ff 	add.w	r3, r0, #4294967295
  40973a:	d202      	bcs.n	409742 <__udivmoddi4+0x15a>
  40973c:	45a4      	cmp	ip, r4
  40973e:	f200 80b8 	bhi.w	4098b2 <__udivmoddi4+0x2ca>
  409742:	4618      	mov	r0, r3
  409744:	eba4 040c 	sub.w	r4, r4, ip
  409748:	ea40 4008 	orr.w	r0, r0, r8, lsl #16
  40974c:	e79d      	b.n	40968a <__udivmoddi4+0xa2>
  40974e:	4631      	mov	r1, r6
  409750:	4630      	mov	r0, r6
  409752:	e8bd 87f0 	ldmia.w	sp!, {r4, r5, r6, r7, r8, r9, sl, pc}
  409756:	f1ce 0420 	rsb	r4, lr, #32
  40975a:	fa05 f30e 	lsl.w	r3, r5, lr
  40975e:	fa07 f70e 	lsl.w	r7, r7, lr
  409762:	fa20 f804 	lsr.w	r8, r0, r4
  409766:	0c3a      	lsrs	r2, r7, #16
  409768:	fa25 f404 	lsr.w	r4, r5, r4
  40976c:	ea48 0803 	orr.w	r8, r8, r3
  409770:	fbb4 f1f2 	udiv	r1, r4, r2
  409774:	ea4f 4518 	mov.w	r5, r8, lsr #16
  409778:	fb02 4411 	mls	r4, r2, r1, r4
  40977c:	fa1f fc87 	uxth.w	ip, r7
  409780:	ea45 4504 	orr.w	r5, r5, r4, lsl #16
  409784:	fb01 f30c 	mul.w	r3, r1, ip
  409788:	42ab      	cmp	r3, r5
  40978a:	fa00 f40e 	lsl.w	r4, r0, lr
  40978e:	d909      	bls.n	4097a4 <__udivmoddi4+0x1bc>
  409790:	19ed      	adds	r5, r5, r7
  409792:	f101 30ff 	add.w	r0, r1, #4294967295
  409796:	f080 808a 	bcs.w	4098ae <__udivmoddi4+0x2c6>
  40979a:	42ab      	cmp	r3, r5
  40979c:	f240 8087 	bls.w	4098ae <__udivmoddi4+0x2c6>
  4097a0:	3902      	subs	r1, #2
  4097a2:	443d      	add	r5, r7
  4097a4:	1aeb      	subs	r3, r5, r3
  4097a6:	fa1f f588 	uxth.w	r5, r8
  4097aa:	fbb3 f0f2 	udiv	r0, r3, r2
  4097ae:	fb02 3310 	mls	r3, r2, r0, r3
  4097b2:	ea45 4503 	orr.w	r5, r5, r3, lsl #16
  4097b6:	fb00 f30c 	mul.w	r3, r0, ip
  4097ba:	42ab      	cmp	r3, r5
  4097bc:	d907      	bls.n	4097ce <__udivmoddi4+0x1e6>
  4097be:	19ed      	adds	r5, r5, r7
  4097c0:	f100 38ff 	add.w	r8, r0, #4294967295
  4097c4:	d26f      	bcs.n	4098a6 <__udivmoddi4+0x2be>
  4097c6:	42ab      	cmp	r3, r5
  4097c8:	d96d      	bls.n	4098a6 <__udivmoddi4+0x2be>
  4097ca:	3802      	subs	r0, #2
  4097cc:	443d      	add	r5, r7
  4097ce:	1aeb      	subs	r3, r5, r3
  4097d0:	ea40 4101 	orr.w	r1, r0, r1, lsl #16
  4097d4:	e78f      	b.n	4096f6 <__udivmoddi4+0x10e>
  4097d6:	f1c1 0720 	rsb	r7, r1, #32
  4097da:	fa22 f807 	lsr.w	r8, r2, r7
  4097de:	408b      	lsls	r3, r1
  4097e0:	fa05 f401 	lsl.w	r4, r5, r1
  4097e4:	ea48 0303 	orr.w	r3, r8, r3
  4097e8:	fa20 fe07 	lsr.w	lr, r0, r7
  4097ec:	ea4f 4c13 	mov.w	ip, r3, lsr #16
  4097f0:	40fd      	lsrs	r5, r7
  4097f2:	ea4e 0e04 	orr.w	lr, lr, r4
  4097f6:	fbb5 f9fc 	udiv	r9, r5, ip
  4097fa:	ea4f 441e 	mov.w	r4, lr, lsr #16
  4097fe:	fb0c 5519 	mls	r5, ip, r9, r5
  409802:	fa1f f883 	uxth.w	r8, r3
  409806:	ea44 4505 	orr.w	r5, r4, r5, lsl #16
  40980a:	fb09 f408 	mul.w	r4, r9, r8
  40980e:	42ac      	cmp	r4, r5
  409810:	fa02 f201 	lsl.w	r2, r2, r1
  409814:	fa00 fa01 	lsl.w	sl, r0, r1
  409818:	d908      	bls.n	40982c <__udivmoddi4+0x244>
  40981a:	18ed      	adds	r5, r5, r3
  40981c:	f109 30ff 	add.w	r0, r9, #4294967295
  409820:	d243      	bcs.n	4098aa <__udivmoddi4+0x2c2>
  409822:	42ac      	cmp	r4, r5
  409824:	d941      	bls.n	4098aa <__udivmoddi4+0x2c2>
  409826:	f1a9 0902 	sub.w	r9, r9, #2
  40982a:	441d      	add	r5, r3
  40982c:	1b2d      	subs	r5, r5, r4
  40982e:	fa1f fe8e 	uxth.w	lr, lr
  409832:	fbb5 f0fc 	udiv	r0, r5, ip
  409836:	fb0c 5510 	mls	r5, ip, r0, r5
  40983a:	ea4e 4405 	orr.w	r4, lr, r5, lsl #16
  40983e:	fb00 f808 	mul.w	r8, r0, r8
  409842:	45a0      	cmp	r8, r4
  409844:	d907      	bls.n	409856 <__udivmoddi4+0x26e>
  409846:	18e4      	adds	r4, r4, r3
  409848:	f100 35ff 	add.w	r5, r0, #4294967295
  40984c:	d229      	bcs.n	4098a2 <__udivmoddi4+0x2ba>
  40984e:	45a0      	cmp	r8, r4
  409850:	d927      	bls.n	4098a2 <__udivmoddi4+0x2ba>
  409852:	3802      	subs	r0, #2
  409854:	441c      	add	r4, r3
  409856:	ea40 4009 	orr.w	r0, r0, r9, lsl #16
  40985a:	eba4 0408 	sub.w	r4, r4, r8
  40985e:	fba0 8902 	umull	r8, r9, r0, r2
  409862:	454c      	cmp	r4, r9
  409864:	46c6      	mov	lr, r8
  409866:	464d      	mov	r5, r9
  409868:	d315      	bcc.n	409896 <__udivmoddi4+0x2ae>
  40986a:	d012      	beq.n	409892 <__udivmoddi4+0x2aa>
  40986c:	b156      	cbz	r6, 409884 <__udivmoddi4+0x29c>
  40986e:	ebba 030e 	subs.w	r3, sl, lr
  409872:	eb64 0405 	sbc.w	r4, r4, r5
  409876:	fa04 f707 	lsl.w	r7, r4, r7
  40987a:	40cb      	lsrs	r3, r1
  40987c:	431f      	orrs	r7, r3
  40987e:	40cc      	lsrs	r4, r1
  409880:	6037      	str	r7, [r6, #0]
  409882:	6074      	str	r4, [r6, #4]
  409884:	2100      	movs	r1, #0
  409886:	e8bd 87f0 	ldmia.w	sp!, {r4, r5, r6, r7, r8, r9, sl, pc}
  40988a:	4618      	mov	r0, r3
  40988c:	e6f8      	b.n	409680 <__udivmoddi4+0x98>
  40988e:	4690      	mov	r8, r2
  409890:	e6e0      	b.n	409654 <__udivmoddi4+0x6c>
  409892:	45c2      	cmp	sl, r8
  409894:	d2ea      	bcs.n	40986c <__udivmoddi4+0x284>
  409896:	ebb8 0e02 	subs.w	lr, r8, r2
  40989a:	eb69 0503 	sbc.w	r5, r9, r3
  40989e:	3801      	subs	r0, #1
  4098a0:	e7e4      	b.n	40986c <__udivmoddi4+0x284>
  4098a2:	4628      	mov	r0, r5
  4098a4:	e7d7      	b.n	409856 <__udivmoddi4+0x26e>
  4098a6:	4640      	mov	r0, r8
  4098a8:	e791      	b.n	4097ce <__udivmoddi4+0x1e6>
  4098aa:	4681      	mov	r9, r0
  4098ac:	e7be      	b.n	40982c <__udivmoddi4+0x244>
  4098ae:	4601      	mov	r1, r0
  4098b0:	e778      	b.n	4097a4 <__udivmoddi4+0x1bc>
  4098b2:	3802      	subs	r0, #2
  4098b4:	443c      	add	r4, r7
  4098b6:	e745      	b.n	409744 <__udivmoddi4+0x15c>
  4098b8:	4608      	mov	r0, r1
  4098ba:	e708      	b.n	4096ce <__udivmoddi4+0xe6>
  4098bc:	f1a8 0802 	sub.w	r8, r8, #2
  4098c0:	443d      	add	r5, r7
  4098c2:	e72b      	b.n	40971c <__udivmoddi4+0x134>

004098c4 <__aeabi_idiv0>:
  4098c4:	4770      	bx	lr
  4098c6:	bf00      	nop

004098c8 <click_high>:
  4098c8:	0341 0341 0cc6 0cc6 19e9 19e9 2563 2563     A.A.........c%c%
  4098d8:	2f31 2f31 325b 325b 280b 280b 1279 1279     1/1/[2[2.(.(y.y.
  4098e8:	f782 f782 dd1b dd1b cc0a cc0a ca74 ca74     ............t.t.
  4098f8:	d529 d529 e864 e864 f944 f944 00f1 00f1     ).).d.d.D.D.....
  409908:	fe24 fe24 f696 f696 efbf efbf ecd8 ecd8     $.$.............
  409918:	ee5d ee5d f08f f08f edc4 edc4 e4d9 e4d9     ].].............
  409928:	dad0 dad0 d135 d135 cc06 cc06 d47b d47b     ....5.5.....{.{.
  409938:	eb7f eb7f 0a4f 0a4f 29f8 29f8 4123 4123     ....O.O..).)#A#A
  409948:	4717 4717 3aeb 3aeb 2532 2532 0f8a 0f8a     .G.G.:.:2%2%....
  409958:	045a 045a 04bd 04bd 0c70 0c70 147f 147f     Z.Z.....p.p.....
  409968:	16fc 16fc 143b 143b 0fb2 0fb2 0c9f 0c9f     ....;.;.........
  409978:	0a55 0a55 08fe 08fe 0bc4 0bc4 14b8 14b8     U.U.............
  409988:	1d07 1d07 214f 214f 2335 2335 1ea0 1ea0     ....O!O!5#5#....
  409998:	1054 1054 fccf fccf e780 e780 d3d4 d3d4     T.T.............
  4099a8:	c742 c742 c644 c644 cd6f cd6f db79 db79     B.B.D.D.o.o.y.y.
  4099b8:	e9ef e9ef f217 f217 f2bd f2bd ee68 ee68     ............h.h.
  4099c8:	e951 e951 e64c e64c e5ff e5ff e638 e638     Q.Q.L.L.....8.8.
  4099d8:	e411 e411 dcf2 dcf2 d451 d451 ce0a ce0a     ........Q.Q.....
  4099e8:	cd08 cd08 d764 d764 ef54 ef54 0efb 0efb     ....d.d.T.T.....
  4099f8:	2eb1 2eb1 4674 4674 4edc 4edc 457c 457c     ....tFtF.N.N|E|E
  409a08:	3142 3142 1b5d 1b5d 0d2a 0d2a 0a7d 0a7d     B1B1].].*.*.}.}.
  409a18:	0fe4 0fe4 17d2 17d2 1ba5 1ba5 1abf 1abf     ................
  409a28:	1698 1698 12ad 12ad 0fc8 0fc8 0d98 0d98     ................
  409a38:	0dcc 0dcc 13f0 13f0 1b70 1b70 1efa 1efa     ........p.p.....
  409a48:	207c 207c 1e7e 1e7e 13d1 13d1 02d3 02d3     | | ~.~.........
  409a58:	ef47 ef47 dbf3 dbf3 cd13 cd13 c87b c87b     G.G.........{.{.
  409a68:	ccb3 ccb3 d734 d734 e434 e434 ec68 ec68     ....4.4.4.4.h.h.
  409a78:	ee6a ee6a eb6c eb6c e746 e746 e43a e43a     j.j.l.l.F.F.:.:.
  409a88:	e3b6 e3b6 e41c e41c e327 e327 dd42 dd42     ........'.'.B.B.
  409a98:	d3cf d3cf cbbe cbbe c849 c849 ce80 ce80     ........I.I.....
  409aa8:	e285 e285 00bc 00bc 21a3 21a3 3d7a 3d7a     .........!.!z=z=
  409ab8:	4c85 4c85 4a1b 4a1b 39f4 39f4 2527 2527     .L.L.J.J.9.9'%'%
  409ac8:	1499 1499 0ecb 0ecb 118b 118b 18a0 18a0     ................
  409ad8:	1d19 1d19 1cfe 1cfe 197c 197c 15cd 15cd     ........|.|.....
  409ae8:	1338 1338 10f6 10f6 0f98 0f98 131a 131a     8.8.............
  409af8:	19f1 19f1 1d8a 1d8a 1e7d 1e7d 1dbd 1dbd     ........}.}.....
  409b08:	160e 160e 0745 0745 f553 f553 e290 e290     ....E.E.S.S.....
  409b18:	d25a d25a ca5c ca5c cbf1 cbf1 d420 d420     Z.Z.\.\..... . .
  409b28:	e0aa e0aa ea12 ea12 edfa edfa ecac ecac     ................
  409b38:	e917 e917 e5db e5db e522 e522 e5e1 e5e1     ........".".....
  409b48:	e5ab e5ab e186 e186 d92a d92a d0cc d0cc     ........*.*.....
  409b58:	cba0 cba0 cdd0 cdd0 dcaf dcaf f6f3 f6f3     ................
  409b68:	1611 1611 32f8 32f8 4603 4603 4919 4919     .....2.2.F.F.I.I
  409b78:	3d43 3d43 2a3b 2a3b 18a0 18a0 0eae 0eae     C=C=;*;*........
  409b88:	0ecf 0ecf 14cd 14cd 199b 199b 1a11 1a11     ................
  409b98:	1723 1723 13ec 13ec 11e7 11e7 1043 1043     #.#.........C.C.
  409ba8:	0e9d 0e9d 0d49 0d49 0a88 0a88 03f0 03f0     ....I.I.........
  409bb8:	fafd fafd f256 f256 ec1a ec1a ea3f ea3f     ....V.V.....?.?.
  409bc8:	ecd1 ecd1 f1bb f1bb f670 f670 f8a4 f8a4     ........p.p.....
  409bd8:	f71c f71c f301 f301 ef0f ef0f ed82 ed82     ................
  409be8:	eefe eefe f294 f294 f5ee f5ee f792 f792     ................
  409bf8:	f805 f805 f77c f77c f652 f652 f5a9 f5a9     ....|.|.R.R.....
  409c08:	f652 f652 f888 f888 fc12 fc12 006b 006b     R.R.........k.k.
  409c18:	04b6 04b6 07a2 07a2 0881 0881 07a9 07a9     ................
  409c28:	065d 065d 058f 058f 0539 0539 0592 0592     ].].....9.9.....
  409c38:	06b2 06b2 07e9 07e9 08d0 08d0 0980 0980     ................
  409c48:	0998 0998 08d6 08d6 07cc 07cc 0722 0722     ............".".
  409c58:	06d9 06d9 06b8 06b8 069d 069d 0644 0644     ............D.D.
  409c68:	056a 056a 03c8 03c8 0181 0181 ff43 ff43     j.j.........C.C.
  409c78:	fdc6 fdc6 fd5b fd5b fdc5 fdc5 fe8a fe8a     ....[.[.........
  409c88:	ff33 ff33 ff8d ff8d ff63 ff63 fe74 fe74     3.3.....c.c.t.t.
  409c98:	fd10 fd10 fbcc fbcc fac2 fac2 fa11 fa11     ................
  409ca8:	fa5e fa5e fb35 fb35 fbf2 fbf2 fc9c fc9c     ^.^.5.5.........
  409cb8:	fd12 fd12 fd23 fd23 fd0a fd0a fd31 fd31     ....#.#.....1.1.
  409cc8:	fdd7 fdd7 fea7 fea7 ff75 ff75 0054 0054     ........u.u.T.T.
  409cd8:	00e9 00e9 00e1 00e1 0075 0075 0041 0041     ........u.u.A.A.
  409ce8:	0071 0071 00c8 00c8 0167 0167 0225 0225     q.q.....g.g.%.%.
  409cf8:	025f 025f 0208 0208 0185 0185 00fc 00fc     _._.............
  409d08:	0098 0098 009b 009b 010d 010d 01be 01be     ................
  409d18:	026e 026e 030b 030b 0344 0344 02da 02da     n.n.....D.D.....
  409d28:	01ee 01ee 00d8 00d8 0003 0003 ff8c ff8c     ................
  409d38:	ff5f ff5f ff68 ff68 ff86 ff86 ffcc ffcc     _._.h.h.........
  409d48:	0038 0038 008c 008c 00a3 00a3 00b5 00b5     8.8.............
  409d58:	00be 00be 008e 008e 0031 0031 ffcc ffcc     ........1.1.....
  409d68:	ff94 ff94 ff75 ff75 ff43 ff43 ff14 ff14     ....u.u.C.C.....
  409d78:	ff33 ff33 ff99 ff99 fff8 fff8 0033 0033     3.3.........3.3.
  409d88:	005c 005c 0069 0069 0028 0028 ff96 ff96     \.\.i.i.(.(.....
  409d98:	fec9 fec9 fe1d fe1d fdbc fdbc fda1 fda1     ................
  409da8:	fdcd fdcd fe29 fe29 fe6a fe6a fe70 fe70     ....).).j.j.p.p.
  409db8:	fe56 fe56 fe37 fe37 fe39 fe39 fe87 fe87     V.V.7.7.9.9.....
  409dc8:	ff17 ff17 ffc0 ffc0 006a 006a 0108 0108     ........j.j.....
  409dd8:	0159 0159 0158 0158 0140 0140 0142 0142     Y.Y.X.X.@.@.B.B.
  409de8:	0167 0167 019c 019c 01c6 01c6 01e4 01e4     g.g.............
  409df8:	01e4 01e4 01b6 01b6 0177 0177 013c 013c     ........w.w.<.<.
  409e08:	011a 011a 0110 0110 0107 0107 00cc 00cc     ................
  409e18:	0055 0055 ffd8 ffd8 ff7d ff7d ff30 ff30     U.U.....}.}.0.0.
  409e28:	ff0a ff0a ff2b ff2b ff5d ff5d ff66 ff66     ....+.+.].].f.f.
  409e38:	ff43 ff43 ff16 ff16 fee8 fee8 fec8 fec8     C.C.............
  409e48:	fecc fecc fee5 fee5 feeb feeb fedc fedc     ................
  409e58:	fec6 fec6 fea2 fea2 fe77 fe77 fe69 fe69     ........w.w.i.i.
  409e68:	fe6e fe6e fe8b fe8b fecf fecf ff1b ff1b     n.n.............
  409e78:	ff55 ff55 ff98 ff98 ffd0 ffd0 0004 0004     U.U.............
  409e88:	004c 004c 00a8 00a8 0103 0103 013d 013d     L.L.........=.=.
  409e98:	0157 0157 0155 0155 0140 0140 0122 0122     W.W.U.U.@.@.".".
  409ea8:	0109 0109 00fa 00fa 00e7 00e7 00c2 00c2     ................
  409eb8:	0096 0096 0075 0075 0063 0063 0061 0061     ....u.u.c.c.a.a.
  409ec8:	006b 006b 006a 006a 0050 0050 0016 0016     k.k.j.j.P.P.....
  409ed8:	ffc0 ffc0 ff55 ff55 fefa fefa febb febb     ....U.U.........
  409ee8:	fe9b fe9b fe98 fe98 fea5 fea5 febc febc     ................
  409ef8:	fed1 fed1 fee8 fee8 ff02 ff02 ff1e ff1e     ................
  409f08:	ff44 ff44 ff64 ff64 ff8a ff8a ffad ffad     D.D.d.d.........
  409f18:	ffbd ffbd ffb8 ffb8 ff9c ff9c ff83 ff83     ................
  409f28:	ff75 ff75 ff7f ff7f ffa2 ffa2 ffd4 ffd4     u.u.............
  409f38:	0005 0005 0037 0037 0068 0068 00a2 00a2     ....7.7.h.h.....
  409f48:	00df 00df 0112 0112 0135 0135 014d 014d     ........5.5.M.M.
  409f58:	014f 014f 012d 012d 00ed 00ed 00a8 00a8     O.O.-.-.........
  409f68:	0068 0068 0033 0033 0014 0014 0011 0011     h.h.3.3.........
  409f78:	001f 001f 0029 0029 0027 0027 0024 0024     ....).).'.'.$.$.
  409f88:	0011 0011 fff0 fff0 ffcb ffcb ff95 ff95     ................
  409f98:	ff53 ff53 ff13 ff13 fed7 fed7 feb4 feb4     S.S.............
  409fa8:	feb0 feb0 fed1 fed1 ff0a ff0a ff58 ff58     ............X.X.
  409fb8:	ffa8 ffa8 ffe2 ffe2 0000 0000 0008 0008     ................
  409fc8:	fff6 fff6 ffd4 ffd4 ffbf ffbf ffb4 ffb4     ................
  409fd8:	ffaf ffaf ffb8 ffb8 ffda ffda 000d 000d     ................
  409fe8:	0052 0052 0096 0096 00cb 00cb 00e7 00e7     R.R.............
  409ff8:	00f1 00f1 00e5 00e5 00cf 00cf 00b6 00b6     ................
  40a008:	009c 009c 008c 008c 0087 0087 0084 0084     ................
  40a018:	0079 0079 006a 006a 0049 0049 0021 0021     y.y.j.j.I.I.!.!.
  40a028:	fffb fffb ffdd ffdd ffcc ffcc ffba ffba     ................
  40a038:	ffa8 ffa8 ff9d ff9d ff9e ff9e ffa3 ffa3     ................
  40a048:	ffa9 ffa9 ffaa ffaa ffa5 ffa5 ff92 ff92     ................
  40a058:	ff74 ff74 ff52 ff52 ff33 ff33 ff28 ff28     t.t.R.R.3.3.(.(.
  40a068:	ff3a ff3a ff6a ff6a ffaf ffaf fffb fffb     :.:.j.j.........
  40a078:	0035 0035 005f 005f 006f 006f 0069 0069     5.5._._.o.o.i.i.
  40a088:	0065 0065 0062 0062 0060 0060 0058 0058     e.e.b.b.`.`.X.X.
  40a098:	0057 0057 0060 0060 0071 0071 0081 0081     W.W.`.`.q.q.....
  40a0a8:	0083 0083 007f 007f 0079 0079 0071 0071     ........y.y.q.q.
  40a0b8:	0071 0071 006e 006e 0063 0063 004c 004c     q.q.n.n.c.c.L.L.
  40a0c8:	002c 002c fffc fffc ffca ffca ffad ffad     ,.,.............
  40a0d8:	ffa6 ffa6 ffa9 ffa9 ffba ffba ffcc ffcc     ................
  40a0e8:	ffcd ffcd ffbe ffbe ff98 ff98 ff7b ff7b     ............{.{.
  40a0f8:	ff71 ff71 ff82 ff82 ffb2 ffb2 fff3 fff3     q.q.............
  40a108:	0032 0032 0050 0050 004f 004f 0032 0032     2.2.P.P.O.O.2.2.
  40a118:	0008 0008 ffed ffed ffec ffec 0006 0006     ................
  40a128:	0035 0035 0061 0061 007e 007e 008e 008e     5.5.a.a.~.~.....
  40a138:	0086 0086 006a 006a 0046 0046 0028 0028     ....j.j.F.F.(.(.
  40a148:	000e 000e fffb fffb ffec ffec ffe8 ffe8     ................
  40a158:	ffed ffed fffc fffc 0008 0008 001a 001a     ................
  40a168:	002e 002e 003b 003b 0048 0048 004c 004c     ....;.;.H.H.L.L.
  40a178:	0044 0044 002e 002e 0006 0006 ffcd ffcd     D.D.............
  40a188:	ff95 ff95 ff6c ff6c ff61 ff61 ff6b ff6b     ....l.l.a.a.k.k.
  40a198:	ff8a ff8a ffb3 ffb3 ffd8 ffd8 fff1 fff1     ................
  40a1a8:	fff0 fff0 ffd1 ffd1 ffb2 ffb2 ffa7 ffa7     ................
  40a1b8:	ffb7 ffb7 ffdc ffdc 0018 0018 0048 0048     ............H.H.
  40a1c8:	005e 005e 005c 005c 004f 004f 003c 003c     ^.^.\.\.O.O.<.<.
  40a1d8:	0033 0033 0049 0049 006f 006f 008a 008a     3.3.I.I.o.o.....
  40a1e8:	00a0 00a0 00ab 00ab 009c 009c 007a 007a     ............z.z.
  40a1f8:	004a 004a 0025 0025 000c 000c 0008 0008     J.J.%.%.........
  40a208:	0003 0003 fff9 fff9 fff3 fff3 ffe1 ffe1     ................
  40a218:	ffd0 ffd0 ffc3 ffc3 ffc4 ffc4 ffc2 ffc2     ................
  40a228:	ffd1 ffd1 ffef ffef 000a 000a 000a 000a     ................
  40a238:	fff6 fff6 ffc5 ffc5 ff88 ff88 ff5d ff5d     ............].].
  40a248:	ff4e ff4e ff57 ff57 ff6e ff6e ff98 ff98     N.N.W.W.n.n.....
  40a258:	ffc1 ffc1 ffe0 ffe0 ffe8 ffe8 ffd8 ffd8     ................
  40a268:	ffba ffba ffad ffad ffb6 ffb6 ffd8 ffd8     ................
  40a278:	000e 000e 0044 0044 0070 0070 007f 007f     ....D.D.p.p.....
  40a288:	007d 007d 0068 0068 0046 0046 0034 0034     }.}.h.h.F.F.4.4.
  40a298:	002c 002c 0027 0027 0039 0039 005f 005f     ,.,.'.'.9.9._._.
  40a2a8:	0087 0087 00a7 00a7 00b5 00b5 00a7 00a7     ................
  40a2b8:	0087 0087 0061 0061 0038 0038 0006 0006     ....a.a.8.8.....
  40a2c8:	ffd7 ffd7 ffaf ffaf ff95 ff95 ff8f ff8f     ................
  40a2d8:	ff95 ff95 ff99 ff99 ffa3 ffa3 ffcc ffcc     ................
  40a2e8:	0005 0005 0036 0036 0052 0052 0045 0045     ....6.6.R.R.E.E.
  40a2f8:	000b 000b ffbc ffbc ff75 ff75 ff38 ff38     ........u.u.8.8.
  40a308:	ff1a ff1a ff31 ff31 ff72 ff72 ffc2 ffc2     ....1.1.r.r.....
  40a318:	000d 000d 002f 002f 001e 001e 0001 0001     ...././.........
  40a328:	ffdb ffdb ffc5 ffc5 ffc9 ffc9 ffec ffec     ................
  40a338:	0015 0015 0037 0037 004d 004d 0046 0046     ....7.7.M.M.F.F.
  40a348:	002c 002c 0020 0020 001c 001c 0013 0013     ,.,. . .........
  40a358:	001f 001f 003a 003a 0062 0062 0079 0079     ....:.:.b.b.y.y.
  40a368:	0085 0085 007e 007e 006a 006a 0065 0065     ....~.~.j.j.e.e.
  40a378:	0066 0066 0060 0060 0048 0048 0026 0026     f.f.`.`.H.H.&.&.
  40a388:	fffd fffd ffd2 ffd2 ffb1 ffb1 ff90 ff90     ................
  40a398:	ff75 ff75 ff85 ff85 ffb4 ffb4 ffea ffea     u.u.............
  40a3a8:	0023 0023 003d 003d 0021 0021 ffe6 ffe6     #.#.=.=.!.!.....
  40a3b8:	ffa0 ffa0 ff53 ff53 ff17 ff17 ff0a ff0a     ....S.S.........
  40a3c8:	ff30 ff30 ff6d ff6d ffbb ffbb ffef ffef     0.0.m.m.........
  40a3d8:	fffc fffc fff7 fff7 ffed ffed ffe3 ffe3     ................
  40a3e8:	ffe5 ffe5 fffc fffc 001e 001e 002f 002f     ...........././.
  40a3f8:	0032 0032 001e 001e fffe fffe fff1 fff1     2.2.............
  40a408:	0003 0003 001d 001d 0046 0046 0078 0078     ........F.F.x.x.
  40a418:	00a5 00a5 00b9 00b9 00c0 00c0 00b4 00b4     ................
  40a428:	0093 0093 0081 0081 007f 007f 007d 007d     ............}.}.
  40a438:	0068 0068 0046 0046 0013 0013 ffdc ffdc     h.h.F.F.........
  40a448:	ffae ffae ff87 ff87 ff68 ff68 ff65 ff65     ........h.h.e.e.
  40a458:	ff7b ff7b ff9b ff9b ffc2 ffc2 ffdf ffdf     {.{.............
  40a468:	ffe3 ffe3 ffd2 ffd2 ffb5 ffb5 ff8a ff8a     ................
  40a478:	ff63 ff63 ff50 ff50 ff5e ff5e ff77 ff77     c.c.P.P.^.^.w.w.
  40a488:	ffa4 ffa4 ffdd ffdd fffd fffd 000c 000c     ................
  40a498:	001a 001a 0021 0021 0026 0026 0037 0037     ....!.!.&.&.7.7.
  40a4a8:	0052 0052 0061 0061 005f 005f 004f 004f     R.R.a.a._._.O.O.
  40a4b8:	0029 0029 0006 0006 fff6 fff6 ffef ffef     ).).............
  40a4c8:	fffe fffe 0023 0023 0049 0049 0062 0062     ....#.#.I.I.b.b.
  40a4d8:	007e 007e 0090 0090 0096 0096 0097 0097     ~.~.............
  40a4e8:	009e 009e 009e 009e 0084 0084 0056 0056     ............V.V.
  40a4f8:	001b 001b ffda ffda ffaa ffaa ff99 ff99     ................
  40a508:	ff99 ff99 ffb0 ffb0 ffc2 ffc2 ffce ffce     ................
  40a518:	ffcf ffcf ffc9 ffc9 ffb8 ffb8 ffa2 ffa2     ................
  40a528:	ff8b ff8b ff76 ff76 ff64 ff64 ff57 ff57     ....v.v.d.d.W.W.
  40a538:	ff5d ff5d ff6f ff6f ff93 ff93 ffcd ffcd     ].].o.o.........
  40a548:	000a 000a 0040 0040 0069 0069 007b 007b     ....@.@.i.i.{.{.
  40a558:	006f 006f 005b 005b 004c 004c 003b 003b     o.o.[.[.L.L.;.;.
  40a568:	0031 0031 0033 0033 0030 0030 0031 0031     1.1.3.3.0.0.1.1.
  40a578:	0039 0039 0037 0037 0039 0039 003a 003a     9.9.7.7.9.9.:.:.
  40a588:	0031 0031 0015 0015 fff4 fff4 ffdb ffdb     1.1.............
  40a598:	ffcc ffcc ffd6 ffd6 fff7 fff7 0027 0027     ............'.'.
  40a5a8:	0050 0050 0061 0061 0059 0059 0034 0034     P.P.a.a.Y.Y.4.4.
  40a5b8:	0003 0003 ffe1 ffe1 ffda ffda ffe5 ffe5     ................
  40a5c8:	fff5 fff5 0001 0001 0000 0000 fff8 fff8     ................
  40a5d8:	ffec ffec ffdf ffdf ffe2 ffe2 ffe6 ffe6     ................
  40a5e8:	ffeb ffeb ffe6 ffe6 ffce ffce ffae ffae     ................
  40a5f8:	ff8f ff8f ff8a ff8a ffab ffab ffe0 ffe0     ................
  40a608:	0019 0019 004b 004b 0064 0064 0063 0063     ....K.K.d.d.c.c.
  40a618:	004c 004c 002e 002e 0018 0018 000d 000d     L.L.............
  40a628:	000e 000e 0017 0017 001e 001e 0026 0026     ............&.&.
  40a638:	002a 002a 0036 0036 003e 003e 0042 0042     *.*.6.6.>.>.B.B.
  40a648:	003c 003c 002c 002c 000f 000f ffe7 ffe7     <.<.,.,.........
  40a658:	ffc8 ffc8 ffbb ffbb ffc4 ffc4 ffcb ffcb     ................
  40a668:	ffd0 ffd0 ffcd ffcd ffc7 ffc7 ffc4 ffc4     ................
  40a678:	ffcb ffcb ffe4 ffe4 fffb fffb 0007 0007     ................
  40a688:	0006 0006 fff8 fff8 ffe8 ffe8 ffdb ffdb     ................
  40a698:	ffdd ffdd ffee ffee fffd fffd 000c 000c     ................
  40a6a8:	000d 000d 0004 0004 fff6 fff6 fffa fffa     ................
  40a6b8:	0010 0010 0034 0034 0052 0052 006b 006b     ....4.4.R.R.k.k.
  40a6c8:	0076 0076 0061 0061 0037 0037 0012 0012     v.v.a.a.7.7.....
  40a6d8:	fffc fffc fff4 fff4 0000 0000 000b 000b     ................
  40a6e8:	000b 000b fffc fffc ffea ffea ffd9 ffd9     ................
  40a6f8:	ffd7 ffd7 ffe1 ffe1 ffe0 ffe0 ffd9 ffd9     ................
  40a708:	ffc1 ffc1 ff94 ff94 ff64 ff64 ff53 ff53     ........d.d.S.S.
  40a718:	ff69 ff69 ff95 ff95 ffd2 ffd2 0004 0004     i.i.............
  40a728:	001e 001e 001c 001c 0013 0013 000b 000b     ................
  40a738:	000b 000b 001d 001d 0038 0038 0052 0052     ........8.8.R.R.
  40a748:	0059 0059 0052 0052 0041 0041 002e 002e     Y.Y.R.R.A.A.....
  40a758:	0024 0024 001b 001b 000f 000f 0006 0006     $.$.............
  40a768:	fffc fffc ffff ffff 0005 0005 000d 000d     ................
  40a778:	0015 0015 001a 001a 0018 0018 000b 000b     ................
  40a788:	fff4 fff4 ffdd ffdd ffd0 ffd0 ffcb ffcb     ................
  40a798:	ffd2 ffd2 ffdd ffdd ffde ffde ffdb ffdb     ................
  40a7a8:	ffd7 ffd7 ffd2 ffd2 ffdd ffdd ffee ffee     ................
  40a7b8:	fffa fffa fffe fffe ffec ffec ffc4 ffc4     ................
  40a7c8:	ff8a ff8a ff5e ff5e ff4f ff4f ff5f ff5f     ....^.^.O.O._._.
  40a7d8:	ff83 ff83 ffb1 ffb1 ffdc ffdc fffe fffe     ................
  40a7e8:	0015 0015 002d 002d 004b 004b 0069 0069     ....-.-.K.K.i.i.
  40a7f8:	0089 0089 009e 009e 009e 009e 008b 008b     ................
  40a808:	0076 0076 005c 005c 0047 0047 0039 0039     v.v.\.\.G.G.9.9.
  40a818:	0028 0028 0012 0012 0008 0008 0000 0000     (.(.............
  40a828:	fffb fffb 0000 0000 000a 000a 000e 000e     ................
  40a838:	0008 0008 fff9 fff9 ffd9 ffd9 ffb0 ffb0     ................
  40a848:	ff8c ff8c ff7b ff7b ff7f ff7f ff9d ff9d     ....{.{.........
  40a858:	ffbd ffbd ffd5 ffd5 ffe3 ffe3 ffea ffea     ................
  40a868:	ffef ffef fff7 fff7 000c 000c 001e 001e     ................
  40a878:	002c 002c 0029 0029 0004 0004 ffcf ffcf     ,.,.).).........
  40a888:	ffa1 ffa1 ff85 ff85 ff83 ff83 ff92 ff92     ................
  40a898:	ffbd ffbd ffeb ffeb 0015 0015 003b 003b     ............;.;.
  40a8a8:	005a 005a 006d 006d 0079 0079 0081 0081     Z.Z.m.m.y.y.....
  40a8b8:	0081 0081 007d 007d 0071 0071 0064 0064     ....}.}.q.q.d.d.
  40a8c8:	0059 0059 004d 004d 0037 0037 001b 001b     Y.Y.M.M.7.7.....
  40a8d8:	000a 000a fffc fffc fffd fffd 0008 0008     ................
  40a8e8:	0018 0018 001f 001f 001b 001b 0004 0004     ................
  40a8f8:	ffd0 ffd0 ff9c ff9c ff63 ff63 ff46 ff46     ........c.c.F.F.
  40a908:	ff41 ff41 ff5c ff5c ff93 ff93 ffc4 ffc4     A.A.\.\.........
  40a918:	ffe7 ffe7 ffef ffef ffe9 ffe9 ffdf ffdf     ................
  40a928:	ffd7 ffd7 ffdc ffdc fff1 fff1 0006 0006     ................
  40a938:	000f 000f 0011 0011 0006 0006 fffb fffb     ................
  40a948:	fff2 fff2 fffd fffd 0012 0012 0031 0031     ............1.1.
  40a958:	0052 0052 0075 0075 008d 008d 0092 0092     R.R.u.u.........
  40a968:	008f 008f 0086 0086 0080 0080 007c 007c     ............|.|.
  40a978:	0077 0077 006b 006b 0063 0063 005b 005b     w.w.k.k.c.c.[.[.
  40a988:	0045 0045 0026 0026 0009 0009 ffea ffea     E.E.&.&.........
  40a998:	ffd6 ffd6 ffcd ffcd ffcb ffcb ffd8 ffd8     ................
  40a9a8:	ffde ffde ffdf ffdf ffd1 ffd1 ffaa ffaa     ................
  40a9b8:	ff82 ff82 ff63 ff63 ff54 ff54 ff5e ff5e     ....c.c.T.T.^.^.
  40a9c8:	ff83 ff83 ffb4 ffb4 ffda ffda fff6 fff6     ................
  40a9d8:	fffd fffd ffee ffee ffe0 ffe0 ffdc ffdc     ................
  40a9e8:	ffe4 ffe4 fff2 fff2 0004 0004 0012 0012     ................
  40a9f8:	000b 000b fffe fffe ffeb ffeb ffe0 ffe0     ................
  40aa08:	ffdf ffdf fff2 fff2 000e 000e 002b 002b     ............+.+.
  40aa18:	0041 0041 004d 004d 0049 0049 0044 0044     A.A.M.M.I.I.D.D.
  40aa28:	0047 0047 0053 0053 0069 0069 007b 007b     G.G.S.S.i.i.{.{.
  40aa38:	008c 008c 008f 008f 007e 007e 005c 005c     ........~.~.\.\.
  40aa48:	0039 0039 001b 001b 0006 0006 0003 0003     9.9.............
  40aa58:	000a 000a 0015 0015 0011 0011 fffd fffd     ................
  40aa68:	ffdd ffdd ffa6 ffa6 ff74 ff74 ff50 ff50     ........t.t.P.P.
  40aa78:	ff46 ff46 ff4a ff4a ff61 ff61 ff85 ff85     F.F.J.J.a.a.....
  40aa88:	ffa5 ffa5 ffbd ffbd ffcd ffcd ffcf ffcf     ................
  40aa98:	ffce ffce ffcf ffcf ffda ffda ffe3 ffe3     ................
  40aaa8:	fff4 fff4 0001 0001 0008 0008 0010 0010     ................
  40aab8:	001b 001b 002b 002b 0042 0042 005b 005b     ....+.+.B.B.[.[.
  40aac8:	0067 0067 006f 006f 0061 0061 003f 003f     g.g.o.o.a.a.?.?.
  40aad8:	001a 001a fffc fffc fff0 fff0 fffc fffc     ................
  40aae8:	0015 0015 0030 0030 0043 0043 0046 0046     ....0.0.C.C.F.F.
  40aaf8:	003d 003d 0023 0023 000f 000f fffe fffe     =.=.#.#.........
  40ab08:	fff6 fff6 ffff ffff 000f 000f 0014 0014     ................
  40ab18:	000d 000d 0001 0001 ffe7 ffe7 ffcc ffcc     ................
  40ab28:	ffb0 ffb0 ff97 ff97 ff8b ff8b ff89 ff89     ................
  40ab38:	ff8e ff8e ff9f ff9f ffaf ffaf ffbf ffbf     ................
  40ab48:	ffcf ffcf ffd8 ffd8 ffdf ffdf ffe2 ffe2     ................
  40ab58:	ffed ffed fff2 fff2 fff3 fff3 fff3 fff3     ................
  40ab68:	ffee ffee ffeb ffeb ffe6 ffe6 fff6 fff6     ................
  40ab78:	000e 000e 0032 0032 0057 0057 006e 006e     ....2.2.W.W.n.n.
  40ab88:	0069 0069 0051 0051 002a 002a ffff ffff     i.i.Q.Q.*.*.....
  40ab98:	ffdf ffdf ffd6 ffd6 ffe5 ffe5 fff9 fff9     ................
  40aba8:	000f 000f 0019 0019 0017 0017 0005 0005     ................
  40abb8:	fff2 fff2 fff1 fff1 fff1 fff1 0003 0003     ................
  40abc8:	001b 001b 0023 0023 001b 001b 000e 000e     ....#.#.........
  40abd8:	fffb fffb ffe3 ffe3 ffd4 ffd4 ffd3 ffd3     ................
  40abe8:	ffde ffde ffea ffea fff2 fff2 ffef ffef     ................
  40abf8:	ffe2 ffe2 ffd4 ffd4 ffc9 ffc9 ffca ffca     ................
  40ac08:	ffd3 ffd3 ffe1 ffe1 fff3 fff3 fffd fffd     ................
  40ac18:	fffa fffa ffef ffef ffda ffda ffc7 ffc7     ................
  40ac28:	ffb6 ffb6 ffb4 ffb4 ffc1 ffc1 ffda ffda     ................
  40ac38:	fffb fffb 0021 0021 0036 0036 0037 0037     ....!.!.6.6.7.7.
  40ac48:	002d 002d 0021 0021 000d 000d fffb fffb     -.-.!.!.........
  40ac58:	fff7 fff7 fffb fffb 0008 0008 001b 001b     ................
  40ac68:	002a 002a 0030 0030 0030 0030 002b 002b     *.*.0.0.0.0.+.+.
  40ac78:	002d 002d 0031 0031 003c 003c 003e 003e     -.-.1.1.<.<.>.>.
  40ac88:	0037 0037 0029 0029 001b 001b 0001 0001     7.7.).).........
  40ac98:	ffe8 ffe8 ffdc ffdc ffd6 ffd6 ffd8 ffd8     ................
  40aca8:	ffe3 ffe3 ffed ffed ffef ffef ffe7 ffe7     ................
  40acb8:	ffd4 ffd4 ffbf ffbf ffae ffae ffa7 ffa7     ................
  40acc8:	ffb0 ffb0 ffc6 ffc6 ffe4 ffe4 fffa fffa     ................
  40acd8:	0004 0004 fffb fffb ffe0 ffe0 ffbc ffbc     ................
  40ace8:	ffa9 ffa9 ffab ffab ffc0 ffc0 ffee ffee     ................
  40acf8:	001c 001c 0040 0040 004a 004a 004a 004a     ....@.@.J.J.J.J.
  40ad08:	0036 0036 001b 001b 0009 0009 0007 0007     6.6.............
  40ad18:	000e 000e 001e 001e 0029 0029 002b 002b     ........).).+.+.
  40ad28:	0024 0024 0017 0017 000f 000f 0014 0014     $.$.............
  40ad38:	0025 0025 0039 0039 0042 0042 0048 0048     %.%.9.9.B.B.H.H.
  40ad48:	0043 0043 0030 0030 0019 0019 0006 0006     C.C.0.0.........
  40ad58:	ffff ffff fffd fffd 0009 0009 0015 0015     ................
  40ad68:	0018 0018 000e 000e ffef ffef ffcc ffcc     ................
  40ad78:	ffaa ffaa ffa2 ffa2 ffa8 ffa8 ffc0 ffc0     ................
  40ad88:	ffe9 ffe9 000c 000c 0019 0019 0011 0011     ................
  40ad98:	ffec ffec ffb3 ffb3 ff84 ff84 ff72 ff72     ............r.r.
  40ada8:	ff74 ff74 ff92 ff92 ffc0 ffc0 ffed ffed     t.t.............
  40adb8:	0012 0012 002a 002a 0031 0031 0027 0027     ....*.*.1.1.'.'.
  40adc8:	0022 0022 0026 0026 0031 0031 003c 003c     ".".&.&.1.1.<.<.
  40add8:	004a 004a 0044 0044 0033 0033 0026 0026     J.J.D.D.3.3.&.&.
  40ade8:	001c 001c 0020 0020 002b 002b 003e 003e     .... . .+.+.>.>.
  40adf8:	004a 004a 0053 0053 004e 004e 003b 003b     J.J.S.S.N.N.;.;.
  40ae08:	0020 0020 0009 0009 fff7 fff7 fff7 fff7      . .............
  40ae18:	000c 000c 0027 0027 003d 003d 0042 0042     ....'.'.=.=.B.B.
  40ae28:	002c 002c fff8 fff8 ffc4 ffc4 ff9c ff9c     ,.,.............
  40ae38:	ff8b ff8b ff95 ff95 ffb8 ffb8 ffe4 ffe4     ................
  40ae48:	000b 000b 001d 001d 0007 0007 ffdc ffdc     ................
  40ae58:	ffac ffac ff8e ff8e ff80 ff80 ff8d ff8d     ................
  40ae68:	ffa3 ffa3 ffbf ffbf ffcf ffcf ffd5 ffd5     ................
  40ae78:	ffd1 ffd1 ffcb ffcb ffd6 ffd6 fff5 fff5     ................
  40ae88:	001e 001e 0047 0047 0065 0065 006e 006e     ....G.G.e.e.n.n.
  40ae98:	005d 005d 0048 0048 002b 002b 0020 0020     ].].H.H.+.+. . .
  40aea8:	0026 0026 0035 0035 0049 0049 005e 005e     &.&.5.5.I.I.^.^.
  40aeb8:	0065 0065 005b 005b 0040 0040 0028 0028     e.e.[.[.@.@.(.(.
  40aec8:	001a 001a 0019 0019 002a 002a 0043 0043     ........*.*.C.C.
  40aed8:	0057 0057 005a 005a 003a 003a fffd fffd     W.W.Z.Z.:.:.....
  40aee8:	ffb6 ffb6 ff7b ff7b ff5c ff5c ff5f ff5f     ....{.{.\.\._._.
  40aef8:	ff82 ff82 ffaf ffaf ffdd ffdd fff7 fff7     ................
  40af08:	ffeb ffeb ffc8 ffc8 ffa3 ffa3 ff89 ff89     ................
  40af18:	ff87 ff87 ff8b ff8b ffa3 ffa3 ffb9 ffb9     ................
  40af28:	ffc8 ffc8 ffce ffce ffcf ffcf ffd5 ffd5     ................
  40af38:	ffec ffec 001d 001d 005c 005c 0094 0094     ........\.\.....
  40af48:	00b3 00b3 00b7 00b7 009d 009d 0079 0079     ............y.y.
  40af58:	0055 0055 0036 0036 002b 002b 0030 0030     U.U.6.6.+.+.0.0.
  40af68:	0037 0037 0042 0042 0049 0049 0045 0045     7.7.B.B.I.I.E.E.
  40af78:	0032 0032 0019 0019 000e 000e 0005 0005     2.2.............
  40af88:	0006 0006 0017 0017 002d 002d 0033 0033     ........-.-.3.3.
  40af98:	0020 0020 fffa fffa ffbf ffbf ff88 ff88      . .............
  40afa8:	ff5f ff5f ff4f ff4f ff5b ff5b ff7f ff7f     _._.O.O.[.[.....
  40afb8:	ffb3 ffb3 ffd8 ffd8 ffee ffee ffea ffea     ................
  40afc8:	ffdd ffdd ffd0 ffd0 ffc2 ffc2 ffbc ffbc     ................
  40afd8:	ffbd ffbd ffc3 ffc3 ffc8 ffc8 ffcb ffcb     ................
  40afe8:	ffcd ffcd ffd5 ffd5 ffeb ffeb 0018 0018     ................
  40aff8:	0052 0052 008f 008f 00bc 00bc 00c3 00c3     R.R.............
  40b008:	00af 00af 0086 0086 005e 005e 003b 003b     ........^.^.;.;.
  40b018:	0022 0022 001c 001c 0028 0028 002e 002e     ".".....(.(.....
  40b028:	0034 0034 0036 0036 002d 002d 0016 0016     4.4.6.6.-.-.....
  40b038:	000a 000a 0005 0005 000a 000a 001d 001d     ................
  40b048:	002c 002c 0033 0033 0022 0022 000b 000b     ,.,.3.3.".".....
  40b058:	ffe3 ffe3 ffb7 ffb7 ff97 ff97 ff82 ff82     ................
  40b068:	ff7a ff7a ff7c ff7c ff82 ff82 ff8d ff8d     z.z.|.|.........
  40b078:	ff99 ff99 ffac ffac ffc4 ffc4 ffda ffda     ................
  40b088:	ffe6 ffe6 ffe0 ffe0 ffd0 ffd0 ffb9 ffb9     ................
  40b098:	ff9a ff9a ff8a ff8a ff8a ff8a ffa1 ffa1     ................
  40b0a8:	ffd0 ffd0 000e 000e 004c 004c 0084 0084     ........L.L.....
  40b0b8:	00af 00af 00bf 00bf 00ba 00ba 00a8 00a8     ................
  40b0c8:	008e 008e 0075 0075 0060 0060 0050 0050     ....u.u.`.`.P.P.
  40b0d8:	0045 0045 0043 0043 0043 0043 0043 0043     E.E.C.C.C.C.C.C.
  40b0e8:	0040 0040 003c 003c 0038 0038 0036 0036     @.@.<.<.8.8.6.6.
  40b0f8:	002c 002c 0025 0025 0015 0015 fff8 fff8     ,.,.%.%.........
  40b108:	ffda ffda ffb6 ffb6 ff99 ff99 ff87 ff87     ................
  40b118:	ff7f ff7f ff77 ff77 ff75 ff75 ff6f ff6f     ....w.w.u.u.o.o.
  40b128:	ff64 ff64 ff5c ff5c ff5f ff5f ff71 ff71     d.d.\.\._._.q.q.
  40b138:	ff97 ff97 ffbd ffbd ffd8 ffd8 ffe0 ffe0     ................
  40b148:	ffcb ffcb ffa8 ffa8 ff90 ff90 ff8d ff8d     ................
  40b158:	ffaa ffaa ffdc ffdc 0020 0020 005f 005f     ........ . ._._.
  40b168:	0090 0090 00af 00af 00c2 00c2 00be 00be     ................
  40b178:	00b7 00b7 00b2 00b2 00b1 00b1 00b1 00b1     ................
  40b188:	00a9 00a9 0091 0091 006e 006e 0049 0049     ........n.n.I.I.
  40b198:	0026 0026 0014 0014 000f 000f 0012 0012     &.&.............
  40b1a8:	0012 0012 0014 0014 000c 000c fffc fffc     ................
  40b1b8:	ffe5 ffe5 ffc4 ffc4 ffab ffab ff95 ff95     ................
  40b1c8:	ff85 ff85 ff80 ff80 ff7d ff7d ff73 ff73     ........}.}.s.s.
  40b1d8:	ff63 ff63 ff5e ff5e ff58 ff58 ff57 ff57     c.c.^.^.X.X.W.W.
  40b1e8:	ff6f ff6f ff97 ff97 ffc7 ffc7 fff7 fff7     o.o.............
  40b1f8:	0012 0012 0013 0013 0000 0000 ffdd ffdd     ................
  40b208:	ffbe ffbe ffaf ffaf ffb7 ffb7 ffd8 ffd8     ................
  40b218:	fffa fffa 001f 001f 003b 003b 0052 0052     ........;.;.R.R.
  40b228:	0062 0062 006f 006f 007b 007b 007a 007a     b.b.o.o.{.{.z.z.
  40b238:	007b 007b 007f 007f 007e 007e 006f 006f     {.{.....~.~.o.o.
  40b248:	0059 0059 003e 003e 002c 002c 0023 0023     Y.Y.>.>.,.,.#.#.
  40b258:	0025 0025 0031 0031 003c 003c 004e 004e     %.%.1.1.<.<.N.N.
  40b268:	005a 005a 0062 0062 005d 005d 0048 0048     Z.Z.b.b.].].H.H.
  40b278:	0028 0028 0003 0003 ffdc ffdc ffc2 ffc2     (.(.............
  40b288:	ffb6 ffb6 ffaf ffaf ffa8 ffa8 ffa3 ffa3     ................
  40b298:	ff9b ff9b ff8c ff8c ff89 ff89 ff8f ff8f     ................
  40b2a8:	ffa1 ffa1 ffb5 ffb5 ffc7 ffc7 ffcc ffcc     ................
  40b2b8:	ffb8 ffb8 ffa4 ffa4 ff82 ff82 ff70 ff70     ............p.p.
  40b2c8:	ff77 ff77 ff8f ff8f ffb9 ffb9 ffe6 ffe6     w.w.............
  40b2d8:	000b 000b 0022 0022 0035 0035 003f 003f     ....".".5.5.?.?.
  40b2e8:	0048 0048 0052 0052 0069 0069 0080 0080     H.H.R.R.i.i.....
  40b2f8:	009b 009b 00ab 00ab 00ae 00ae 009f 009f     ................
  40b308:	008c 008c 007f 007f 0074 0074 0075 0075     ........t.t.u.u.
  40b318:	007f 007f 0087 0087 008b 008b 008d 008d     ................
  40b328:	0087 0087 006d 006d 0051 0051 002e 002e     ....m.m.Q.Q.....
  40b338:	000d 000d fff0 fff0 ffd6 ffd6 ffbf ffbf     ................
  40b348:	ffa8 ffa8 ff91 ff91 ff83 ff83 ff7d ff7d     ............}.}.
  40b358:	ff8b ff8b ff9d ff9d ffb4 ffb4 ffc4 ffc4     ................
  40b368:	ffc3 ffc3 ffb0 ffb0 ff93 ff93 ff78 ff78     ............x.x.
  40b378:	ff60 ff60 ff59 ff59 ff66 ff66 ff7e ff7e     `.`.Y.Y.f.f.~.~.
  40b388:	ff9c ff9c ffba ffba ffcc ffcc ffdc ffdc     ................
  40b398:	ffea ffea fffc fffc 0011 0011 0029 0029     ............).).
  40b3a8:	0043 0043 0053 0053 006c 006c 0075 0075     C.C.S.S.l.l.u.u.
  40b3b8:	0070 0070 0066 0066 0061 0061 0067 0067     p.p.f.f.a.a.g.g.
  40b3c8:	0074 0074 0087 0087 009f 009f 00b5 00b5     t.t.............
  40b3d8:	00bb 00bb 00ba 00ba 00b0 00b0 009c 009c     ................
  40b3e8:	007c 007c 0054 0054 0035 0035 0011 0011     |.|.T.T.5.5.....
  40b3f8:	fff2 fff2 ffcf ffcf ffb6 ffb6 ffa1 ffa1     ................
  40b408:	ff9a ff9a ff9f ff9f ffbd ffbd ffd7 ffd7     ................
  40b418:	ffeb ffeb fff9 fff9 ffeb ffeb ffce ffce     ................
  40b428:	ffa8 ffa8 ff8a ff8a ff75 ff75 ff75 ff75     ........u.u.u.u.
  40b438:	ff86 ff86 ff9f ff9f ffae ffae ffb7 ffb7     ................
  40b448:	ffb6 ffb6 ffb0 ffb0 ffb4 ffb4 ffbe ffbe     ................
  40b458:	ffce ffce ffe0 ffe0 ffe9 ffe9 ffee ffee     ................
  40b468:	ffee ffee fff1 fff1 fff8 fff8 0005 0005     ................
  40b478:	001e 001e 003a 003a 0061 0061 0081 0081     ....:.:.a.a.....
  40b488:	008f 008f 0094 0094 0091 0091 008f 008f     ................
  40b498:	0094 0094 0093 0093 008f 008f 0086 0086     ................
  40b4a8:	006e 006e 0054 0054 0030 0030 000a 000a     n.n.T.T.0.0.....
  40b4b8:	fff1 fff1 ffe0 ffe0 ffdf ffdf ffea ffea     ................
  40b4c8:	fffd fffd 0010 0010 000d 000d ffff ffff     ................
  40b4d8:	ffe7 ffe7 ffc4 ffc4 ffa9 ffa9 ff9c ff9c     ................
  40b4e8:	ff99 ff99 ff9d ff9d ffa8 ffa8 ffae ffae     ................
  40b4f8:	ffaa ffaa ffa6 ffa6 ff9e ff9e ff96 ff96     ................
  40b508:	ff94 ff94 ff9e ff9e ffa8 ffa8 ffaf ffaf     ................
  40b518:	ffb0 ffb0 ffaf ffaf ffb0 ffb0 ffbc ffbc     ................
  40b528:	ffd1 ffd1 fff2 fff2 001c 001c 0048 0048     ............H.H.
  40b538:	0069 0069 007c 007c 0080 0080 007f 007f     i.i.|.|.........
  40b548:	007a 007a 007d 007d 0086 0086 008a 008a     z.z.}.}.........
  40b558:	0087 0087 0085 0085 0077 0077 006d 006d     ........w.w.m.m.
  40b568:	0058 0058 003f 003f 0023 0023 0009 0009     X.X.?.?.#.#.....
  40b578:	fff5 fff5 ffe5 ffe5 ffdc ffdc ffd8 ffd8     ................
  40b588:	ffcf ffcf ffc9 ffc9 ffc2 ffc2 ffbe ffbe     ................
  40b598:	ffbc ffbc ffbd ffbd ffc1 ffc1 ffc2 ffc2     ................
  40b5a8:	ffc5 ffc5 ffc4 ffc4 ffbc ffbc ffab ffab     ................
  40b5b8:	ff9d ff9d ff92 ff92 ff95 ff95 ffa7 ffa7     ................
  40b5c8:	ffbe ffbe ffd5 ffd5 ffe1 ffe1 ffde ffde     ................
  40b5d8:	ffd6 ffd6 ffc8 ffc8 ffc6 ffc6 ffcb ffcb     ................
  40b5e8:	ffe0 ffe0 ffff ffff 0024 0024 0049 0049     ........$.$.I.I.
  40b5f8:	005e 005e 0067 0067 0069 0069 0068 0068     ^.^.g.g.i.i.h.h.
  40b608:	006c 006c 007a 007a 008a 008a 0091 0091     l.l.z.z.........
  40b618:	008e 008e 0076 0076 0058 0058 002e 002e     ....v.v.X.X.....
  40b628:	0008 0008 ffe9 ffe9 ffde ffde ffe0 ffe0     ................
  40b638:	ffe5 ffe5 ffe8 ffe8 ffe3 ffe3 ffcf ffcf     ................
  40b648:	ffbb ffbb ffb5 ffb5 ffb7 ffb7 ffce ffce     ................
  40b658:	ffe6 ffe6 fff8 fff8 fffe fffe fff1 fff1     ................
  40b668:	ffe0 ffe0 ffc7 ffc7 ffb3 ffb3 ffac ffac     ................
  40b678:	ffb7 ffb7 ffd4 ffd4 ffea ffea fff2 fff2     ................
  40b688:	ffeb ffeb ffda ffda ffc4 ffc4 ffb8 ffb8     ................
  40b698:	ffb9 ffb9 ffc5 ffc5 ffdc ffdc ffed ffed     ................
  40b6a8:	fff8 fff8 fffc fffc 0000 0000 0009 0009     ................
  40b6b8:	0016 0016 002d 002d 0051 0051 0069 0069     ....-.-.Q.Q.i.i.
  40b6c8:	007a 007a 0085 0085 0084 0084 007b 007b     z.z.........{.{.
  40b6d8:	0071 0071 0063 0063 005d 005d 004c 004c     q.q.c.c.].].L.L.
  40b6e8:	0040 0040 0029 0029 0008 0008 ffed ffed     @.@.).).........
  40b6f8:	ffcb ffcb ffb0 ffb0 ffa8 ffa8 ffb0 ffb0     ................
  40b708:	ffc2 ffc2 ffd7 ffd7 ffdf ffdf ffdf ffdf     ................
  40b718:	ffcc ffcc ffaf ffaf ff93 ff93 ff7f ff7f     ................
  40b728:	ff7c ff7c ff85 ff85 ff9a ff9a ffb4 ffb4     |.|.............
  40b738:	ffcd ffcd ffdb ffdb ffe1 ffe1 ffdf ffdf     ................
  40b748:	ffe6 ffe6 fff4 fff4 0007 0007 0015 0015     ................
  40b758:	001d 001d 0015 0015 0008 0008 0000 0000     ................
  40b768:	0007 0007 001f 001f 003c 003c 0064 0064     ........<.<.d.d.
  40b778:	0082 0082 008e 008e 008c 008c 0082 0082     ................
  40b788:	0081 0081 0084 0084 0088 0088 008b 008b     ................
  40b798:	008c 008c 007b 007b 005a 005a 0029 0029     ....{.{.Z.Z.).).
  40b7a8:	fffb fffb ffcf ffcf ffb0 ffb0 ff9a ff9a     ................
  40b7b8:	ff90 ff90 ff95 ff95 ff9f ff9f ffa8 ffa8     ................
  40b7c8:	ffb0 ffb0 ffb1 ffb1 ffa5 ffa5 ff9b ff9b     ................
  40b7d8:	ff8c ff8c ff80 ff80 ff7e ff7e ff88 ff88     ........~.~.....
  40b7e8:	ff9a ff9a ffb2 ffb2 ffd1 ffd1 ffe4 ffe4     ................
  40b7f8:	ffe9 ffe9 fff2 fff2 fffe fffe 000b 000b     ................
  40b808:	001d 001d 0032 0032 0033 0033 0025 0025     ....2.2.3.3.%.%.
  40b818:	0012 0012 fffa fffa ffed ffed fff9 fff9     ................
  40b828:	0015 0015 003c 003c 0060 0060 0072 0072     ....<.<.`.`.r.r.
  40b838:	0071 0071 006a 006a 0061 0061 0062 0062     q.q.j.j.a.a.b.b.
  40b848:	0069 0069 0076 0076 0082 0082 007b 007b     i.i.v.v.....{.{.
  40b858:	0067 0067 0044 0044 001a 001a fffa fffa     g.g.D.D.........
  40b868:	ffec ffec ffe4 ffe4 ffdf ffdf ffdc ffdc     ................
  40b878:	ffcf ffcf ffc0 ffc0 ffac ffac ff9a ff9a     ................
  40b888:	ff8b ff8b ff84 ff84 ff7e ff7e ff7d ff7d     ........~.~.}.}.
  40b898:	ff81 ff81 ff89 ff89 ff97 ff97 ffa0 ffa0     ................
  40b8a8:	ffad ffad ffb7 ffb7 ffbc ffbc ffc2 ffc2     ................
  40b8b8:	ffcb ffcb ffdb ffdb fff0 fff0 000f 000f     ................
  40b8c8:	0027 0027 002f 002f 0034 0034 002d 002d     '.'././.4.4.-.-.
  40b8d8:	0022 0022 0022 0022 0033 0033 004a 004a     ".".".".3.3.J.J.
  40b8e8:	0060 0060 006b 006b 0067 0067 0060 0060     `.`.k.k.g.g.`.`.
  40b8f8:	0058 0058 0060 0060 006c 006c 0083 0083     X.X.`.`.l.l.....
  40b908:	0090 0090 008f 008f 007c 007c 0056 0056     ........|.|.V.V.
  40b918:	0026 0026 fffe fffe ffe3 ffe3 ffd3 ffd3     &.&.............
  40b928:	ffca ffca ffc2 ffc2 ffb2 ffb2 ff95 ff95     ................
  40b938:	ff7a ff7a ff63 ff63 ff59 ff59 ff61 ff61     z.z.c.c.Y.Y.a.a.
  40b948:	ff73 ff73 ff91 ff91 ffa6 ffa6 ffb2 ffb2     s.s.............
  40b958:	ffaf ffaf ffa6 ffa6 ff9a ff9a ff96 ff96     ................
  40b968:	ff9e ff9e ffa8 ffa8 ffbf ffbf ffe0 ffe0     ................
  40b978:	0000 0000 0022 0022 003c 003c 0048 0048     ....".".<.<.H.H.
  40b988:	004e 004e 0053 0053 0057 0057 005c 005c     N.N.S.S.W.W.\.\.
  40b998:	0062 0062 0064 0064 0061 0061 0054 0054     b.b.d.d.a.a.T.T.
  40b9a8:	0044 0044 0038 0038 003f 003f 0054 0054     D.D.8.8.?.?.T.T.
  40b9b8:	0072 0072 008e 008e 009b 009b 0096 0096     r.r.............
  40b9c8:	007a 007a 004a 004a 001c 001c fff9 fff9     z.z.J.J.........
  40b9d8:	ffe2 ffe2 ffdb ffdb ffd0 ffd0 ffc0 ffc0     ................
  40b9e8:	ffa5 ffa5 ff80 ff80 ff60 ff60 ff4a ff4a     ........`.`.J.J.
  40b9f8:	ff4c ff4c ff62 ff62 ff7d ff7d ff95 ff95     L.L.b.b.}.}.....
  40ba08:	ffa7 ffa7 ffa5 ffa5 ff99 ff99 ff8f ff8f     ................
  40ba18:	ff8c ff8c ff9a ff9a ffae ffae ffcb ffcb     ................
  40ba28:	ffdf ffdf ffec ffec 0000 0000 000a 000a     ................
  40ba38:	0020 0020 003f 003f 0058 0058 0077 0077      . .?.?.X.X.w.w.
  40ba48:	0089 0089 008f 008f 0087 0087 0080 0080     ................
  40ba58:	0070 0070 0063 0063 0062 0062 006a 006a     p.p.c.c.b.b.j.j.
  40ba68:	0070 0070 0075 0075 0074 0074 0073 0073     p.p.u.u.t.t.s.s.
  40ba78:	0062 0062 004d 004d 002f 002f 000e 000e     b.b.M.M././.....
  40ba88:	fff4 fff4 ffdf ffdf ffcd ffcd ffbf ffbf     ................
  40ba98:	ffb5 ffb5 ffb0 ffb0 ffa4 ffa4 ff98 ff98     ................
  40baa8:	ff85 ff85 ff73 ff73 ff6e ff6e ff76 ff76     ....s.s.n.n.v.v.
  40bab8:	ff7f ff7f ff89 ff89 ff97 ff97 ffa0 ffa0     ................
  40bac8:	ffa9 ffa9 ffb1 ffb1 ffc1 ffc1 ffd5 ffd5     ................
  40bad8:	fff4 fff4 0015 0015 0029 0029 002a 002a     ........).).*.*.
  40bae8:	0025 0025 0019 0019 0014 0014 001d 001d     %.%.............
  40baf8:	0032 0032 004b 004b 006e 006e 0085 0085     2.2.K.K.n.n.....
  40bb08:	008d 008d 0089 0089 007b 007b 0066 0066     ........{.{.f.f.
  40bb18:	0059 0059 0051 0051 0054 0054 0052 0052     Y.Y.Q.Q.T.T.R.R.
  40bb28:	004d 004d 0042 0042 0033 0033 001e 001e     M.M.B.B.3.3.....
  40bb38:	000f 000f 0000 0000 fff4 fff4 ffeb ffeb     ................
  40bb48:	ffd8 ffd8 ffc0 ffc0 ffaf ffaf ffa0 ffa0     ................
  40bb58:	ff98 ff98 ff95 ff95 ff93 ff93 ff96 ff96     ................
  40bb68:	ff9f ff9f ffad ffad ffba ffba ffc1 ffc1     ................
  40bb78:	ffc6 ffc6 ffce ffce ffd2 ffd2 ffd6 ffd6     ................
  40bb88:	ffdc ffdc ffe8 ffe8 0000 0000 001d 001d     ................
  40bb98:	0035 0035 003c 003c 0039 0039 0027 0027     5.5.<.<.9.9.'.'.
  40bba8:	0016 0016 0007 0007 0004 0004 0012 0012     ................
  40bbb8:	002b 002b 0047 0047 005a 005a 0060 0060     +.+.G.G.Z.Z.`.`.
  40bbc8:	0054 0054 0045 0045 0038 0038 0033 0033     T.T.E.E.8.8.3.3.
  40bbd8:	0038 0038 0039 0039 0035 0035 0024 0024     8.8.9.9.5.5.$.$.
  40bbe8:	000c 000c fff3 fff3 ffe3 ffe3 ffe3 ffe3     ................
  40bbf8:	ffed ffed fff1 fff1 ffec ffec ffd4 ffd4     ................
  40bc08:	ffb4 ffb4 ff93 ff93 ff79 ff79 ff71 ff71     ........y.y.q.q.
  40bc18:	ff78 ff78 ff8e ff8e ffab ffab ffc5 ffc5     x.x.............
  40bc28:	ffcd ffcd ffd3 ffd3 ffcc ffcc ffca ffca     ................
  40bc38:	ffcf ffcf ffda ffda ffef ffef 0005 0005     ................
  40bc48:	001d 001d 0037 0037 0050 0050 005a 005a     ....7.7.P.P.Z.Z.
  40bc58:	005a 005a 004f 004f 0043 0043 0031 0031     Z.Z.O.O.C.C.1.1.
  40bc68:	0027 0027 0025 0025 002b 002b 003a 003a     '.'.%.%.+.+.:.:.
  40bc78:	0040 0040 0042 0042 003f 003f 003a 003a     @.@.B.B.?.?.:.:.
  40bc88:	0032 0032 0034 0034 0037 0037 002e 002e     2.2.4.4.7.7.....
  40bc98:	001d 001d 0000 0000 ffdc ffdc ffb8 ffb8     ................
  40bca8:	ffa6 ffa6 ffa7 ffa7 ffb9 ffb9 ffd2 ffd2     ................
  40bcb8:	ffe0 ffe0 ffda ffda ffc2 ffc2 ffa9 ffa9     ................
  40bcc8:	ff91 ff91 ff87 ff87 ff93 ff93 ffae ffae     ................
  40bcd8:	ffd5 ffd5 fff3 fff3 0003 0003 ffff ffff     ................
  40bce8:	fff3 fff3 ffe4 ffe4 ffe2 ffe2 fff1 fff1     ................
  40bcf8:	0008 0008 001d 001d 0037 0037 0050 0050     ........7.7.P.P.
  40bd08:	0060 0060 005f 005f 0059 0059 0049 0049     `.`._._.Y.Y.I.I.
  40bd18:	003b 003b 002c 002c 001c 001c 0015 0015     ;.;.,.,.........
  40bd28:	0014 0014 0014 0014 0015 0015 0017 0017     ................
  40bd38:	0016 0016 0015 0015 001a 001a 0025 0025     ............%.%.
  40bd48:	0029 0029 0028 0028 001f 001f 000b 000b     ).).(.(.........
  40bd58:	fff0 fff0 ffd5 ffd5 ffc3 ffc3 ffbc ffbc     ................
  40bd68:	ffc8 ffc8 ffd5 ffd5 ffde ffde ffdf ffdf     ................
  40bd78:	ffd0 ffd0 ffbe ffbe ffad ffad ffa8 ffa8     ................
  40bd88:	ffb2 ffb2 ffc9 ffc9 ffe4 ffe4 0000 0000     ................
  40bd98:	0014 0014 0011 0011 0003 0003 fff4 fff4     ................
  40bda8:	ffe7 ffe7 ffe7 ffe7 fff1 fff1 0003 0003     ................
  40bdb8:	0018 0018 0030 0030 0048 0048 0052 0052     ....0.0.H.H.R.R.
  40bdc8:	0057 0057 0052 0052 004a 004a 003c 003c     W.W.R.R.J.J.<.<.
  40bdd8:	0028 0028 0018 0018 000c 000c 0004 0004     (.(.............
  40bde8:	0001 0001 ffff ffff 0005 0005 0006 0006     ................
  40bdf8:	0012 0012 0021 0021 002e 002e 0032 0032     ....!.!.....2.2.
  40be08:	002c 002c 001f 001f 0007 0007 ffec ffec     ,.,.............
  40be18:	ffd2 ffd2 ffc6 ffc6 ffcc ffcc ffd9 ffd9     ................
  40be28:	ffe3 ffe3 ffe6 ffe6 ffe3 ffe3 ffdb ffdb     ................
  40be38:	ffd0 ffd0 ffcb ffcb ffc9 ffc9 ffd3 ffd3     ................
  40be48:	ffea ffea fffe fffe 0012 0012 0015 0015     ................
  40be58:	000e 000e 0002 0002 fffd fffd fff2 fff2     ................
  40be68:	ffea ffea ffe6 ffe6 ffea ffea fff1 fff1     ................
  40be78:	fffc fffc 000e 000e 001b 001b 002d 002d     ............-.-.
  40be88:	0037 0037 003a 003a 0032 0032 0021 0021     7.7.:.:.2.2.!.!.
  40be98:	000f 000f 0004 0004 0000 0000 fffe fffe     ................
  40bea8:	ffff ffff fffa fffa fff9 fff9 fffa fffa     ................
  40beb8:	0005 0005 0014 0014 0024 0024 0030 0030     ........$.$.0.0.
  40bec8:	0036 0036 002a 002a 0014 0014 fff8 fff8     6.6.*.*.........
  40bed8:	ffe7 ffe7 ffe1 ffe1 ffdc ffdc ffdf ffdf     ................
  40bee8:	ffe4 ffe4 ffec ffec fff2 fff2 fff6 fff6     ................
  40bef8:	fffe fffe 0007 0007 0011 0011 0020 0020     ............ . .
  40bf08:	0025 0025 001b 001b 000d 000d fff9 fff9     %.%.............
  40bf18:	ffe8 ffe8 ffd9 ffd9 ffd4 ffd4 ffd7 ffd7     ................
  40bf28:	ffda ffda ffe3 ffe3 ffe9 ffe9 ffe7 ffe7     ................
  40bf38:	ffe9 ffe9 ffe7 ffe7 ffe9 ffe9 fff0 fff0     ................
  40bf48:	fff5 fff5 fff3 fff3 ffe9 ffe9 ffe2 ffe2     ................
  40bf58:	ffdd ffdd ffdd ffdd ffe3 ffe3 ffee ffee     ................
  40bf68:	fffa fffa 000c 000c 001a 001a 0023 0023     ............#.#.
  40bf78:	002b 002b 002e 002e 002a 002a 0026 0026     +.+.....*.*.&.&.
  40bf88:	001a 001a 0014 0014 0018 0018 0018 0018     ................
  40bf98:	0014 0014 000f 000f 0000 0000 fff9 fff9     ................
  40bfa8:	fffd fffd 000a 000a 001d 001d 002a 002a     ............*.*.
  40bfb8:	003d 003d 0044 0044 0042 0042 0031 0031     =.=.D.D.B.B.1.1.
  40bfc8:	001f 001f 0013 0013 0005 0005 ffff ffff     ................
  40bfd8:	fff7 fff7 fff2 fff2 ffed ffed ffe2 ffe2     ................
  40bfe8:	ffe0 ffe0 ffd5 ffd5 ffd5 ffd5 ffd8 ffd8     ................
  40bff8:	ffe1 ffe1 ffe8 ffe8 ffe9 ffe9 ffe3 ffe3     ................
  40c008:	ffcd ffcd ffc2 ffc2 ffbc ffbc ffbd ffbd     ................
  40c018:	ffcc ffcc ffda ffda ffeb ffeb fffa fffa     ................
  40c028:	0005 0005 000c 000c 0010 0010 0015 0015     ................
  40c038:	001a 001a 001f 001f 001f 001f 0023 0023     ............#.#.
  40c048:	0030 0030 003b 003b 0045 0045 004a 004a     0.0.;.;.E.E.J.J.
  40c058:	004a 004a 0040 0040 0040 0040 003a 003a     J.J.@.@.@.@.:.:.
  40c068:	003a 003a 003d 003d 0045 0045 004c 004c     :.:.=.=.E.E.L.L.
  40c078:	004b 004b 0044 0044 0031 0031 001c 001c     K.K.D.D.1.1.....
  40c088:	000b 000b 0001 0001 fffb fffb fff9 fff9     ................
  40c098:	fff2 fff2 ffe6 ffe6 ffd2 ffd2 ffbc ffbc     ................
  40c0a8:	ffa7 ffa7 ff9e ff9e ffa6 ffa6 ffb6 ffb6     ................
  40c0b8:	ffce ffce ffe1 ffe1 ffe9 ffe9 ffe9 ffe9     ................
  40c0c8:	ffe6 ffe6 ffe9 ffe9 ffeb ffeb fff6 fff6     ................
  40c0d8:	0006 0006 000e 000e 0010 0010 0018 0018     ................
  40c0e8:	0017 0017 0018 0018 001f 001f 0027 0027     ............'.'.
  40c0f8:	002a 002a 002f 002f 0034 0034 003b 003b     *.*././.4.4.;.;.
  40c108:	0040 0040 003d 003d 003c 003c 0033 0033     @.@.=.=.<.<.3.3.
  40c118:	002a 002a 001e 001e 0017 0017 000e 000e     *.*.............
  40c128:	0015 0015 0021 0021 002f 002f 003b 003b     ....!.!././.;.;.
  40c138:	0030 0030 0020 0020 0005 0005 fff0 fff0     0.0. . .........
  40c148:	ffe0 ffe0 ffdc ffdc ffe5 ffe5 ffeb ffeb     ................
  40c158:	ffe7 ffe7 ffd9 ffd9 ffc5 ffc5 ffb0 ffb0     ................
  40c168:	ffad ffad ffb7 ffb7 ffd1 ffd1 ffeb ffeb     ................
  40c178:	0002 0002 0005 0005 0001 0001 fff7 fff7     ................
  40c188:	fff4 fff4 fff3 fff3 0007 0007 001c 001c     ................
  40c198:	002d 002d 0035 0035 0032 0032 0025 0025     -.-.5.5.2.2.%.%.
  40c1a8:	0016 0016 000a 000a 0006 0006 000f 000f     ................
  40c1b8:	001b 001b 0025 0025 0025 0025 001e 001e     ....%.%.%.%.....
  40c1c8:	000f 000f ffff ffff fff3 fff3 ffe5 ffe5     ................
  40c1d8:	ffd9 ffd9 ffd6 ffd6 ffdf ffdf ffe8 ffe8     ................
  40c1e8:	fff7 fff7 0002 0002 ffff ffff fffa fffa     ................
  40c1f8:	fff0 fff0 ffe9 ffe9 ffdc ffdc ffd9 ffd9     ................
  40c208:	ffda ffda ffdd ffdd ffdc ffdc ffdd ffdd     ................
  40c218:	ffd9 ffd9 ffd1 ffd1 ffd7 ffd7 ffe6 ffe6     ................
  40c228:	0004 0004 0023 0023 0034 0034 003a 003a     ....#.#.4.4.:.:.
  40c238:	0037 0037 002a 002a 001b 001b 0013 0013     7.7.*.*.........
  40c248:	0017 0017 001e 001e 0022 0022 0026 0026     ........".".&.&.
  40c258:	001d 001d 0010 0010 ffff ffff fff6 fff6     ................
  40c268:	fff7 fff7 fffd fffd 000a 000a 0010 0010     ................
  40c278:	000d 000d 0003 0003 fff6 fff6 ffe7 ffe7     ................
  40c288:	ffd5 ffd5 ffc7 ffc7 ffbb ffbb ffad ffad     ................
  40c298:	ffa3 ffa3 ffa1 ffa1 ffac ffac ffb7 ffb7     ................
  40c2a8:	ffc7 ffc7 ffcd ffcd ffd3 ffd3 ffd2 ffd2     ................
  40c2b8:	ffcf ffcf ffd2 ffd2 ffd3 ffd3 ffd8 ffd8     ................
  40c2c8:	ffd8 ffd8 ffd7 ffd7 ffdb ffdb ffda ffda     ................
  40c2d8:	ffdc ffdc ffee ffee 000b 000b 0030 0030     ............0.0.
  40c2e8:	0053 0053 006d 006d 007c 007c 007f 007f     S.S.m.m.|.|.....
  40c2f8:	0074 0074 0065 0065 005d 005d 0057 0057     t.t.e.e.].].W.W.
  40c308:	0057 0057 0055 0055 004c 004c 003c 003c     W.W.U.U.L.L.<.<.
  40c318:	0020 0020 000e 000e fff9 fff9 fff5 fff5      . .............
  40c328:	fff6 fff6 fff9 fff9 fffa fffa fffc fffc     ................
  40c338:	fff1 fff1 ffe0 ffe0 ffc2 ffc2 ffaa ffaa     ................
  40c348:	ff8e ff8e ff7e ff7e ff72 ff72 ff72 ff72     ....~.~.r.r.r.r.
  40c358:	ff80 ff80 ff9a ff9a ffb8 ffb8 ffca ffca     ................
  40c368:	ffd9 ffd9 ffe4 ffe4 ffea ffea fff1 fff1     ................
  40c378:	fff9 fff9 fffe fffe fffd fffd fffc fffc     ................
  40c388:	fff8 fff8 fff1 fff1 fff5 fff5 0004 0004     ................
  40c398:	001a 001a 003a 003a 005c 005c 0073 0073     ....:.:.\.\.s.s.
  40c3a8:	007d 007d 0074 0074 0061 0061 004c 004c     }.}.t.t.a.a.L.L.
  40c3b8:	003e 003e 0034 0034 0031 0031 0030 0030     >.>.4.4.1.1.0.0.
  40c3c8:	002c 002c 0022 0022 0014 0014 0005 0005     ,.,.".".........
  40c3d8:	fff7 fff7 fff4 fff4 fff8 fff8 ffff ffff     ................
  40c3e8:	fffe fffe fffb fffb fff2 fff2 ffe7 ffe7     ................
  40c3f8:	ffd6 ffd6 ffc3 ffc3 ffb9 ffb9 ffb1 ffb1     ................
  40c408:	ffb3 ffb3 ffb1 ffb1 ffb1 ffb1 ffb8 ffb8     ................
  40c418:	ffbd ffbd ffc2 ffc2 ffcd ffcd ffd8 ffd8     ................
  40c428:	ffe5 ffe5 ffee ffee fffd fffd ffff ffff     ................
  40c438:	0004 0004 0007 0007 0004 0004 0008 0008     ................
  40c448:	0009 0009 0010 0010 0021 0021 0034 0034     ........!.!.4.4.
  40c458:	004c 004c 005a 005a 0060 0060 005e 005e     L.L.Z.Z.`.`.^.^.
  40c468:	004f 004f 003e 003e 0029 0029 0020 0020     O.O.>.>.).). . .
  40c478:	0014 0014 0012 0012 0011 0011 0009 0009     ................
  40c488:	0007 0007 0000 0000 fff3 fff3 ffef ffef     ................
  40c498:	ffe9 ffe9 ffe7 ffe7 ffe7 ffe7 ffea ffea     ................
  40c4a8:	ffea ffea ffed ffed ffed ffed ffe4 ffe4     ................
  40c4b8:	ffe1 ffe1 ffdd ffdd ffde ffde ffde ffde     ................
  40c4c8:	ffdc ffdc ffe2 ffe2 ffea ffea ffed ffed     ................
  40c4d8:	ffef ffef fff0 fff0 fff6 fff6 fff8 fff8     ................
  40c4e8:	fffc fffc 0005 0005 0007 0007 0007 0007     ................
  40c4f8:	0008 0008 0007 0007 0005 0005 0000 0000     ................
  40c508:	0000 0000 0004 0004 000a 000a 001b 001b     ................
  40c518:	002c 002c 0038 0038 0039 0039 0035 0035     ,.,.8.8.9.9.5.5.
  40c528:	0024 0024 0011 0011 0004 0004 fffb fffb     $.$.............
  40c538:	fff9 fff9 0000 0000 0003 0003 0000 0000     ................
  40c548:	fff5 fff5 ffe2 ffe2 ffd6 ffd6 ffc7 ffc7     ................
  40c558:	ffc3 ffc3 ffca ffca ffd6 ffd6 ffe7 ffe7     ................
  40c568:	ffed ffed ffef ffef ffef ffef fff0 fff0     ................
  40c578:	fffd fffd 0005 0005 0012 0012 0022 0022     ............".".
  40c588:	002d 002d 002c 002c 0021 0021 0015 0015     -.-.,.,.!.!.....
  40c598:	000e 000e 000f 000f 001b 001b 002c 002c     ............,.,.
  40c5a8:	0033 0033 002c 002c 001b 001b 0007 0007     3.3.,.,.........
  40c5b8:	fff6 fff6 ffe5 ffe5 ffe1 ffe1 ffe2 ffe2     ................
  40c5c8:	ffe5 ffe5 fff0 fff0 ffed ffed ffe6 ffe6     ................
  40c5d8:	ffde ffde ffd8 ffd8 ffce ffce ffd1 ffd1     ................
  40c5e8:	ffdd ffdd ffe7 ffe7 fff1 fff1 fff8 fff8     ................
  40c5f8:	fffd fffd fffd fffd fffb fffb fff9 fff9     ................
  40c608:	fff6 fff6 fff6 fff6 fffc fffc 0003 0003     ................
  40c618:	000d 000d 0015 0015 001f 001f 0026 0026     ............&.&.
  40c628:	002a 002a 0031 0031 0036 0036 0039 0039     *.*.1.1.6.6.9.9.
  40c638:	003e 003e 003c 003c 003b 003b 0031 0031     >.>.<.<.;.;.1.1.
  40c648:	0021 0021 000f 000f ffff ffff fffa fffa     !.!.............
  40c658:	fff7 fff7 fff6 fff6 fff7 fff7 fff8 fff8     ................
  40c668:	ffec ffec ffe3 ffe3 ffdd ffdd ffd3 ffd3     ................
  40c678:	ffc9 ffc9 ffc5 ffc5 ffbe ffbe ffbf ffbf     ................
  40c688:	ffc3 ffc3 ffcb ffcb ffd3 ffd3 ffdb ffdb     ................
  40c698:	ffe1 ffe1 ffe5 ffe5 fff0 fff0 fff9 fff9     ................
  40c6a8:	0002 0002 000d 000d 001a 001a 0025 0025     ............%.%.
  40c6b8:	0025 0025 0023 0023 001c 001c 0011 0011     %.%.#.#.........
  40c6c8:	0005 0005 0008 0008 000a 000a 0015 0015     ................
  40c6d8:	0023 0023 002d 002d 0032 0032 0032 0032     #.#.-.-.2.2.2.2.
  40c6e8:	002f 002f 0029 0029 0024 0024 0024 0024     /./.).).$.$.$.$.
  40c6f8:	0023 0023 0029 0029 002a 002a 0025 0025     #.#.).).*.*.%.%.
  40c708:	0016 0016 0005 0005 fff6 fff6 ffea ffea     ................
  40c718:	ffe3 ffe3 ffe0 ffe0 ffd7 ffd7 ffd1 ffd1     ................
  40c728:	ffd0 ffd0 ffcb ffcb ffbe ffbe ffb1 ffb1     ................
  40c738:	ffac ffac ffa9 ffa9 ffac ffac ffb6 ffb6     ................
  40c748:	ffbd ffbd ffc5 ffc5 ffcb ffcb ffcf ffcf     ................
  40c758:	ffd3 ffd3 ffda ffda ffe1 ffe1 fff3 fff3     ................
  40c768:	0004 0004 0015 0015 001a 001a 001a 001a     ................
  40c778:	0019 0019 0010 0010 0008 0008 000b 000b     ................
  40c788:	0011 0011 001b 001b 002e 002e 003c 003c     ............<.<.
  40c798:	0041 0041 0045 0045 0043 0043 003f 003f     A.A.E.E.C.C.?.?.
  40c7a8:	0037 0037 0033 0033 0030 0030 0029 0029     7.7.3.3.0.0.).).
  40c7b8:	0027 0027 0024 0024 001c 001c 0013 0013     '.'.$.$.........
  40c7c8:	0005 0005 fff7 fff7 ffe4 ffe4 ffd8 ffd8     ................
  40c7d8:	ffcd ffcd ffbd ffbd ffb9 ffb9 ffb2 ffb2     ................
  40c7e8:	ffad ffad ffa5 ffa5 ff9e ff9e ff99 ff99     ................
  40c7f8:	ff95 ff95 ff97 ff97 ff97 ff97 ff98 ff98     ................
  40c808:	ffa3 ffa3 ffa9 ffa9 ffb8 ffb8 ffcb ffcb     ................
  40c818:	ffe1 ffe1 fff6 fff6 000e 000e 0022 0022     ............".".
  40c828:	002f 002f 0033 0033 0034 0034 0033 0033     /./.3.3.4.4.3.3.
  40c838:	0031 0031 002f 002f 002f 002f 0034 0034     1.1././././.4.4.
  40c848:	003e 003e 004d 004d 0054 0054 0059 0059     >.>.M.M.T.T.Y.Y.
  40c858:	005a 005a 0051 0051 0041 0041 0031 0031     Z.Z.Q.Q.A.A.1.1.
  40c868:	0026 0026 0015 0015 0009 0009 0004 0004     &.&.............
  40c878:	fffd fffd fff1 fff1 ffe5 ffe5 ffda ffda     ................
  40c888:	ffcb ffcb ffc4 ffc4 ffb6 ffb6 ffb2 ffb2     ................
  40c898:	ffb2 ffb2 ffb3 ffb3 ffb6 ffb6 ffb7 ffb7     ................
  40c8a8:	ffb9 ffb9 ffb9 ffb9 ffb7 ffb7 ffbb ffbb     ................
  40c8b8:	ffc1 ffc1 ffc3 ffc3 ffcf ffcf ffdc ffdc     ................
  40c8c8:	ffe9 ffe9 fff3 fff3 ffff ffff 0009 0009     ................
  40c8d8:	0012 0012 001c 001c 0029 0029 0039 0039     ........).).9.9.
  40c8e8:	0046 0046 0047 0047 0044 0044 003b 003b     F.F.G.G.D.D.;.;.
  40c8f8:	002b 002b 0020 0020 0020 0020 0025 0025     +.+. . . . .%.%.
  40c908:	0034 0034 0040 0040 0049 0049 0048 0048     4.4.@.@.I.I.H.H.
  40c918:	0039 0039 0028 0028 0019 0019 000e 000e     9.9.(.(.........
  40c928:	000a 000a 000c 000c 000e 000e ffff ffff     ................
  40c938:	fff0 fff0 ffdc ffdc ffc8 ffc8 ffb6 ffb6     ................
  40c948:	ffb2 ffb2 ffb7 ffb7 ffc3 ffc3 ffd0 ffd0     ................
  40c958:	ffd7 ffd7 ffd7 ffd7 ffd3 ffd3 ffcd ffcd     ................
  40c968:	ffcb ffcb ffcd ffcd ffd7 ffd7 ffdf ffdf     ................
  40c978:	ffec ffec fff8 fff8 0000 0000 0007 0007     ................
  40c988:	0006 0006 0009 0009 000c 000c 0013 0013     ................
  40c998:	001d 001d 0025 0025 0033 0033 0036 0036     ....%.%.3.3.6.6.
  40c9a8:	003f 003f 0040 0040 003f 003f 0036 0036     ?.?.@.@.?.?.6.6.
  40c9b8:	0033 0033 0038 0038 003d 003d 0043 0043     3.3.8.8.=.=.C.C.
  40c9c8:	0046 0046 0044 0044 003a 003a 002e 002e     F.F.D.D.:.:.....
  40c9d8:	0020 0020 0017 0017 000e 000e 000a 000a      . .............
  40c9e8:	0005 0005 fffd fffd fff3 fff3 ffe4 ffe4     ................
  40c9f8:	ffd8 ffd8 ffc3 ffc3 ffba ffba ffad ffad     ................
  40ca08:	ffac ffac ffb4 ffb4 ffbe ffbe ffc9 ffc9     ................
  40ca18:	ffd0 ffd0 ffcc ffcc ffc6 ffc6 ffbf ffbf     ................
  40ca28:	ffbe ffbe ffc1 ffc1 ffcd ffcd ffe9 ffe9     ................
  40ca38:	0001 0001 0019 0019 0023 0023 0026 0026     ........#.#.&.&.
  40ca48:	0024 0024 0024 0024 002b 002b 0037 0037     $.$.$.$.+.+.7.7.
  40ca58:	004c 004c 005e 005e 0067 0067 0068 0068     L.L.^.^.g.g.h.h.
  40ca68:	005c 005c 0052 0052 004b 004b 0049 0049     \.\.R.R.K.K.I.I.
  40ca78:	004a 004a 004d 004d 004c 004c 0040 0040     J.J.M.M.L.L.@.@.
  40ca88:	0030 0030 0018 0018 0003 0003 fff6 fff6     0.0.............
  40ca98:	ffed ffed ffe5 ffe5 ffe1 ffe1 ffd0 ffd0     ................
  40caa8:	ffc1 ffc1 ffb0 ffb0 ffa3 ffa3 ff9c ff9c     ................
  40cab8:	ff96 ff96 ff9b ff9b ffa6 ffa6 ffaf ffaf     ................
  40cac8:	ffbb ffbb ffca ffca ffd6 ffd6 ffe5 ffe5     ................
  40cad8:	ffef ffef fff6 fff6 fff2 fff2 fff6 fff6     ................
  40cae8:	fffc fffc 0004 0004 0013 0013 001e 001e     ................
  40caf8:	0028 0028 0032 0032 0036 0036 0031 0031     (.(.2.2.6.6.1.1.
  40cb08:	0033 0033 003a 003a 0040 0040 0049 0049     3.3.:.:.@.@.I.I.
  40cb18:	004d 004d 004b 004b 0042 0042 0035 0035     M.M.K.K.B.B.5.5.
  40cb28:	0026 0026 0021 0021 001d 001d 0021 0021     &.&.!.!.....!.!.
  40cb38:	0024 0024 0024 0024 001d 001d 0012 0012     $.$.$.$.........
  40cb48:	000a 000a 0000 0000 fff6 fff6 fff0 fff0     ................
  40cb58:	ffe5 ffe5 ffd1 ffd1 ffb9 ffb9 ffa1 ffa1     ................
  40cb68:	ff8e ff8e ff85 ff85 ff81 ff81 ff8d ff8d     ................
  40cb78:	ff9c ff9c ffb3 ffb3 ffca ffca ffda ffda     ................
  40cb88:	ffe5 ffe5 ffec ffec fff1 fff1 fff9 fff9     ................
  40cb98:	ffff ffff 0003 0003 0008 0008 000d 000d     ................
  40cba8:	0011 0011 0013 0013 001d 001d 0026 0026     ............&.&.
  40cbb8:	0032 0032 003b 003b 0040 0040 0048 0048     2.2.;.;.@.@.H.H.
  40cbc8:	004c 004c 004a 004a 0047 0047 003c 003c     L.L.J.J.G.G.<.<.
  40cbd8:	002f 002f 0028 0028 001e 001e 0019 0019     /./.(.(.........
  40cbe8:	0016 0016 0013 0013 000e 000e 000b 000b     ................
  40cbf8:	000a 000a 0006 0006 000c 000c 000d 000d     ................
  40cc08:	0009 0009 0003 0003 fffb fffb ffe5 ffe5     ................
  40cc18:	ffcf ffcf ffb9 ffb9 ffab ffab ffa1 ffa1     ................
  40cc28:	ffa1 ffa1 ffa5 ffa5 ffb1 ffb1 ffc0 ffc0     ................
  40cc38:	ffcc ffcc ffdb ffdb ffe1 ffe1 ffe7 ffe7     ................
  40cc48:	ffeb ffeb ffef ffef fff4 fff4 fffc fffc     ................
  40cc58:	0005 0005 0011 0011 0018 0018 001e 001e     ................
  40cc68:	0028 0028 0031 0031 003e 003e 0042 0042     (.(.1.1.>.>.B.B.
  40cc78:	004d 004d 0054 0054 005b 005b 0059 0059     M.M.T.T.[.[.Y.Y.
  40cc88:	0054 0054 0045 0045 002d 002d 001c 001c     T.T.E.E.-.-.....
  40cc98:	000f 000f 0006 0006 0002 0002 0000 0000     ................
  40cca8:	0001 0001 0003 0003 0005 0005 0007 0007     ................
  40ccb8:	0005 0005 fffe fffe fffc fffc fff1 fff1     ................
  40ccc8:	ffe2 ffe2 ffd2 ffd2 ffbe ffbe ffac ffac     ................
  40ccd8:	ff9f ff9f ff9c ff9c ffa3 ffa3 ffb1 ffb1     ................
  40cce8:	ffc3 ffc3 ffdc ffdc ffed ffed fffc fffc     ................
  40ccf8:	fff9 fff9 fff5 fff5 ffed ffed ffed ffed     ................
  40cd08:	fff3 fff3 0001 0001 0018 0018 002b 002b     ............+.+.
  40cd18:	0037 0037 003c 003c 003c 003c 003e 003e     7.7.<.<.<.<.>.>.
  40cd28:	003f 003f 0043 0043 004b 004b 0052 0052     ?.?.C.C.K.K.R.R.
  40cd38:	0054 0054 004e 004e 003b 003b 0022 0022     T.T.N.N.;.;.".".
  40cd48:	000a 000a fff6 fff6 ffec ffec ffea ffea     ................
  40cd58:	ffe7 ffe7 ffec ffec ffe9 ffe9 ffe2 ffe2     ................
  40cd68:	ffdb ffdb ffd8 ffd8 ffd4 ffd4 ffd8 ffd8     ................
  40cd78:	ffdf ffdf ffef ffef fff5 fff5 fff3 fff3     ................
  40cd88:	ffee ffee ffe2 ffe2 ffd6 ffd6 ffd6 ffd6     ................
  40cd98:	ffd9 ffd9 ffe6 ffe6 fffe fffe 0012 0012     ................
  40cda8:	0022 0022 0026 0026 001f 001f 000b 000b     ".".&.&.........
  40cdb8:	fffd fffd ffef ffef ffec ffec fff4 fff4     ................
  40cdc8:	0000 0000 0014 0014 001f 001f 0024 0024     ............$.$.
  40cdd8:	001b 001b 0017 0017 0015 0015 0017 0017     ................
  40cde8:	0019 0019 001a 001a 0018 0018 0011 0011     ................
  40cdf8:	0005 0005 fff6 fff6 ffea ffea ffe0 ffe0     ................
  40ce08:	ffe3 ffe3 ffe9 ffe9 fff5 fff5 fff5 fff5     ................
  40ce18:	fff6 fff6 ffeb ffeb ffe6 ffe6 ffde ffde     ................
  40ce28:	ffdf ffdf ffe4 ffe4 ffed ffed fffc fffc     ................
  40ce38:	0008 0008 0010 0010 0017 0017 0018 0018     ................
  40ce48:	001b 001b 001e 001e 0023 0023 0024 0024     ........#.#.$.$.
  40ce58:	002a 002a 0031 0031 0032 0032 0034 0034     *.*.1.1.2.2.4.4.
  40ce68:	0031 0031 0025 0025 000f 000f fffe fffe     1.1.%.%.........
  40ce78:	ffee ffee ffe5 ffe5 ffe7 ffe7 ffed ffed     ................
  40ce88:	fff4 fff4 fffd fffd fffd fffd fffb fffb     ................
  40ce98:	fff7 fff7 fff5 fff5 fff5 fff5 fff0 fff0     ................
  40cea8:	ffeb ffeb ffe9 ffe9 ffe8 ffe8 ffdf ffdf     ................
  40ceb8:	ffda ffda ffd9 ffd9 ffda ffda ffe4 ffe4     ................
  40cec8:	ffed ffed fff9 fff9 0000 0000 0009 0009     ................
  40ced8:	000b 000b 0009 0009 0009 0009 0009 0009     ................
  40cee8:	000c 000c 0013 0013 001b 001b 0025 0025     ............%.%.
  40cef8:	002e 002e 0038 0038 003f 003f 0040 0040     ....8.8.?.?.@.@.
  40cf08:	003d 003d 0034 0034 0028 0028 0029 0029     =.=.4.4.(.(.).).
  40cf18:	0029 0029 002a 002a 002d 002d 0026 0026     ).).*.*.-.-.&.&.
  40cf28:	0016 0016 0005 0005 ffef ffef ffe2 ffe2     ................
  40cf38:	ffd8 ffd8 ffd7 ffd7 ffdb ffdb ffdb ffdb     ................
  40cf48:	ffdd ffdd ffd8 ffd8 ffd5 ffd5 ffd7 ffd7     ................
  40cf58:	ffe0 ffe0 ffea ffea fff5 fff5 fffd fffd     ................
  40cf68:	fff8 fff8 ffec ffec ffe1 ffe1 ffd7 ffd7     ................
  40cf78:	ffd1 ffd1 ffd9 ffd9 ffe6 ffe6 fff5 fff5     ................
  40cf88:	0001 0001 0003 0003 0002 0002 fffe fffe     ................
  40cf98:	fffe fffe 0007 0007 0018 0018 002b 002b     ............+.+.
  40cfa8:	003d 003d 004a 004a 0051 0051 004f 004f     =.=.J.J.Q.Q.O.O.
  40cfb8:	004e 004e 004d 004d 004a 004a 004a 004a     N.N.M.M.J.J.J.J.
  40cfc8:	004b 004b 0049 0049 0045 0045 003a 003a     K.K.I.I.E.E.:.:.
  40cfd8:	002c 002c 001d 001d 000f 000f ffff ffff     ,.,.............
  40cfe8:	fff4 fff4 ffed ffed ffe2 ffe2 ffdb ffdb     ................
  40cff8:	ffc9 ffc9 ffba ffba ffac ffac ffa2 ffa2     ................
  40d008:	ffa4 ffa4 ffaf ffaf ffbe ffbe ffd5 ffd5     ................
  40d018:	ffe3 ffe3 ffea ffea ffeb ffeb ffe3 ffe3     ................
  40d028:	ffd7 ffd7 ffd4 ffd4 ffd5 ffd5 ffe5 ffe5     ................
  40d038:	ffee ffee fff9 fff9 0003 0003 000a 000a     ................
  40d048:	0011 0011 001b 001b 0026 0026 0032 0032     ........&.&.2.2.
  40d058:	003b 003b 0045 0045 0045 0045 003f 003f     ;.;.E.E.E.E.?.?.
  40d068:	0037 0037 0033 0033 0036 0036 003d 003d     7.7.3.3.6.6.=.=.
  40d078:	0046 0046 0047 0047 0041 0041 0036 0036     F.F.G.G.A.A.6.6.
  40d088:	0028 0028 0018 0018 000b 000b ffff ffff     (.(.............
  40d098:	fff4 fff4 ffe7 ffe7 ffd7 ffd7 ffc5 ffc5     ................
  40d0a8:	ffb0 ffb0 ff9e ff9e ff92 ff92 ff90 ff90     ................
  40d0b8:	ff94 ff94 ffa0 ffa0 ffb1 ffb1 ffbc ffbc     ................
  40d0c8:	ffca ffca ffd9 ffd9 ffe7 ffe7 fff3 fff3     ................
  40d0d8:	fffd fffd 0003 0003 0006 0006 0007 0007     ................
  40d0e8:	000a 000a 0009 0009 000c 000c 0014 0014     ................
  40d0f8:	001a 001a 001d 001d 0022 0022 0027 0027     ........".".'.'.
  40d108:	002a 002a 002c 002c 002a 002a 0026 0026     *.*.,.,.*.*.&.&.
  40d118:	0027 0027 0029 0029 0023 0023 0023 0023     '.'.).).#.#.#.#.
  40d128:	0027 0027 0021 0021 0021 0021 0020 0020     '.'.!.!.!.!. . .
  40d138:	001a 001a 0015 0015 000f 000f 000c 000c     ................
  40d148:	000a 000a 0006 0006 0004 0004 fffa fffa     ................
  40d158:	ffee ffee ffe3 ffe3 ffd5 ffd5 ffc5 ffc5     ................
  40d168:	ffbc ffbc ffb5 ffb5 ffb2 ffb2 ffb2 ffb2     ................
  40d178:	ffb8 ffb8 ffc1 ffc1 ffd1 ffd1 ffe7 ffe7     ................
  40d188:	ffff ffff 0013 0013 0021 0021 0022 0022     ........!.!.".".
  40d198:	001f 001f 0015 0015 0016 0016 0016 0016     ................
  40d1a8:	001e 001e 002a 002a 0034 0034 0038 0038     ....*.*.4.4.8.8.
  40d1b8:	0038 0038 0037 0037 0033 0033 002d 002d     8.8.7.7.3.3.-.-.
  40d1c8:	002b 002b 0027 0027 0023 0023 001a 001a     +.+.'.'.#.#.....
  40d1d8:	000c 000c fffb fffb ffec ffec ffe7 ffe7     ................
  40d1e8:	ffed ffed fffd fffd 0006 0006 0010 0010     ................
  40d1f8:	000e 000e 0002 0002 fffa fffa ffed ffed     ................
  40d208:	ffe1 ffe1 ffe0 ffe0 ffdf ffdf ffdf ffdf     ................
  40d218:	ffe3 ffe3 ffe5 ffe5 ffe8 ffe8 ffe2 ffe2     ................
  40d228:	ffe3 ffe3 ffe6 ffe6 ffef ffef fff8 fff8     ................
  40d238:	ffff ffff 000a 000a 0010 0010 0015 0015     ................
  40d248:	001c 001c 0021 0021 0021 0021 0023 0023     ....!.!.!.!.#.#.
  40d258:	002d 002d 0030 0030 0039 0039 003f 003f     -.-.0.0.9.9.?.?.
  40d268:	0044 0044 0045 0045 003b 003b 0036 0036     D.D.E.E.;.;.6.6.
  40d278:	002c 002c 0021 0021 0021 0021 0018 0018     ,.,.!.!.!.!.....
  40d288:	0012 0012 000a 000a fffc fffc ffec ffec     ................
  40d298:	ffdb ffdb ffd4 ffd4 ffd5 ffd5 ffdc ffdc     ................
  40d2a8:	ffe3 ffe3 ffec ffec ffe8 ffe8 ffe6 ffe6     ................
  40d2b8:	ffdd ffdd ffd7 ffd7 ffd2 ffd2 ffd0 ffd0     ................
  40d2c8:	ffd6 ffd6 ffda ffda ffe2 ffe2 ffea ffea     ................
  40d2d8:	ffec ffec fff1 fff1 fff7 fff7 fffd fffd     ................
  40d2e8:	0003 0003 0006 0006 0007 0007 0005 0005     ................
  40d2f8:	0006 0006 0006 0006 0007 0007 000b 000b     ................
  40d308:	0018 0018 001e 001e 0024 0024 002d 002d     ........$.$.-.-.
  40d318:	0030 0030 0030 0030 0036 0036 0033 0033     0.0.0.0.6.6.3.3.
  40d328:	0031 0031 002b 002b 0022 0022 0018 0018     1.1.+.+.".".....
  40d338:	0011 0011 0009 0009 0008 0008 0002 0002     ................
  40d348:	ffff ffff fff5 fff5 ffe7 ffe7 ffdc ffdc     ................
  40d358:	ffce ffce ffc8 ffc8 ffbf ffbf ffba ffba     ................
  40d368:	ffba ffba ffb9 ffb9 ffb9 ffb9 ffbc ffbc     ................
  40d378:	ffb8 ffb8 ffb9 ffb9 ffba ffba ffc0 ffc0     ................
  40d388:	ffca ffca ffd9 ffd9 ffe8 ffe8 fffb fffb     ................
  40d398:	0009 0009 000e 000e 0013 0013 0013 0013     ................
  40d3a8:	000f 000f 0012 0012 0015 0015 0021 0021     ............!.!.
  40d3b8:	0027 0027 002a 002a 002c 002c 002b 002b     '.'.*.*.,.,.+.+.
  40d3c8:	0029 0029 0028 0028 002b 002b 0030 0030     ).).(.(.+.+.0.0.
  40d3d8:	0037 0037 0035 0035 0031 0031 0024 0024     7.7.5.5.1.1.$.$.
  40d3e8:	0010 0010 0000 0000 fff6 fff6 fff6 fff6     ................
  40d3f8:	fff8 fff8 fffb fffb fffc fffc ffef ffef     ................
  40d408:	ffdf ffdf ffd1 ffd1 ffc3 ffc3 ffc4 ffc4     ................
  40d418:	ffcc ffcc ffd3 ffd3 ffd8 ffd8 ffd8 ffd8     ................
  40d428:	ffd0 ffd0 ffc7 ffc7 ffbf ffbf ffbb ffbb     ................
  40d438:	ffbc ffbc ffc7 ffc7 ffd9 ffd9 ffec ffec     ................
  40d448:	0001 0001 0015 0015 0025 0025 002f 002f     ........%.%././.
  40d458:	0034 0034 0035 0035 0031 0031 0025 0025     4.4.5.5.1.1.%.%.
  40d468:	001b 001b 0014 0014 0010 0010 0010 0010     ................
  40d478:	0018 0018 0020 0020 0029 0029 002f 002f     .... . .).)././.
  40d488:	0033 0033 0034 0034 0036 0036 002d 002d     3.3.4.4.6.6.-.-.
  40d498:	0024 0024 0015 0015 0003 0003 fff6 fff6     $.$.............
  40d4a8:	ffec ffec ffe9 ffe9 fff4 fff4 0005 0005     ................
  40d4b8:	000e 000e 0014 0014 0011 0011 0008 0008     ................
  40d4c8:	fff8 fff8 ffed ffed ffe2 ffe2 ffdf ffdf     ................
  40d4d8:	ffdb ffdb ffe1 ffe1 ffe2 ffe2 ffde ffde     ................
  40d4e8:	ffd9 ffd9 ffd6 ffd6 ffd5 ffd5 ffd5 ffd5     ................
  40d4f8:	ffda ffda ffe7 ffe7 fff6 fff6 0006 0006     ................
  40d508:	0016 0016 0020 0020 0025 0025 0023 0023     .... . .%.%.#.#.
  40d518:	001e 001e 0014 0014 000f 000f 000a 000a     ................
  40d528:	0007 0007 0008 0008 000b 000b 000c 000c     ................
  40d538:	000f 000f 0018 0018 0026 0026 0033 0033     ........&.&.3.3.
  40d548:	0041 0041 0044 0044 0045 0045 0038 0038     A.A.D.D.E.E.8.8.
  40d558:	0024 0024 000e 000e fff8 fff8 fff4 fff4     $.$.............
  40d568:	fff5 fff5 0003 0003 0012 0012 001b 001b     ................
  40d578:	0020 0020 001d 001d 0015 0015 000c 000c      . .............
  40d588:	0003 0003 fff8 fff8 ffed ffed ffe1 ffe1     ................
  40d598:	ffd5 ffd5 ffc6 ffc6 ffb9 ffb9 ffb2 ffb2     ................
  40d5a8:	ffb1 ffb1 ffb6 ffb6 ffc3 ffc3 ffd3 ffd3     ................
  40d5b8:	ffe3 ffe3 fff5 fff5 0005 0005 0013 0013     ................
  40d5c8:	001e 001e 0023 0023 0026 0026 0022 0022     ....#.#.&.&.".".
  40d5d8:	0022 0022 0020 0020 0023 0023 001f 001f     ".". . .#.#.....
  40d5e8:	001c 001c 0013 0013 0011 0011 000f 000f     ................
  40d5f8:	001a 001a 0025 0025 0037 0037 0049 0049     ....%.%.7.7.I.I.
  40d608:	0044 0044 003c 003c 0024 0024 000c 000c     D.D.<.<.$.$.....
  40d618:	fff6 fff6 ffe6 ffe6 ffe0 ffe0 ffe6 ffe6     ................
  40d628:	fff1 fff1 fff9 fff9 fffc fffc 0003 0003     ................
  40d638:	0004 0004 000d 000d 0017 0017 001d 001d     ................
  40d648:	0024 0024 001d 001d 000c 000c fff2 fff2     $.$.............
  40d658:	ffda ffda ffc6 ffc6 ffbb ffbb ffb9 ffb9     ................
  40d668:	ffc5 ffc5 ffd8 ffd8 fff0 fff0 0002 0002     ................
  40d678:	0012 0012 001d 001d 0024 0024 0021 0021     ........$.$.!.!.
  40d688:	001b 001b 0016 0016 000d 000d 000b 000b     ................
  40d698:	0004 0004 fffe fffe fff4 fff4 fff4 fff4     ................
  40d6a8:	fff1 fff1 fffa fffa 000d 000d 0021 0021     ............!.!.
  40d6b8:	0033 0033 0039 0039 003a 003a 0027 0027     3.3.9.9.:.:.'.'.
  40d6c8:	0012 0012 fffb fffb ffe7 ffe7 ffdb ffdb     ................
  40d6d8:	ffd8 ffd8 ffde ffde ffe4 ffe4 fff3 fff3     ................
  40d6e8:	fffb fffb 000a 000a 0013 0013 001a 001a     ................
  40d6f8:	001e 001e 0020 0020 001c 001c 000f 000f     .... . .........
  40d708:	0000 0000 ffec ffec ffda ffda ffcd ffcd     ................
  40d718:	ffc9 ffc9 ffc5 ffc5 ffcb ffcb ffd9 ffd9     ................
  40d728:	ffe9 ffe9 fff5 fff5 0000 0000 0005 0005     ................
  40d738:	0008 0008 0006 0006 0002 0002 0000 0000     ................
  40d748:	fffc fffc 0002 0002 000b 000b 0014 0014     ................
  40d758:	0017 0017 0017 0017 000f 000f 000e 000e     ................
  40d768:	0010 0010 001d 001d 002b 002b 0039 0039     ........+.+.9.9.
  40d778:	0040 0040 0038 0038 0028 0028 0012 0012     @.@.8.8.(.(.....
  40d788:	fffb fffb ffe4 ffe4 ffd7 ffd7 ffd1 ffd1     ................
  40d798:	ffd3 ffd3 ffd3 ffd3 ffd7 ffd7 ffdc ffdc     ................
  40d7a8:	ffe7 ffe7 fff7 fff7 0006 0006 001a 001a     ................
  40d7b8:	0025 0025 001f 001f 0013 0013 ffff ffff     %.%.............
  40d7c8:	ffe5 ffe5 ffd4 ffd4 ffc5 ffc5 ffc3 ffc3     ................
  40d7d8:	ffcd ffcd ffde ffde fff1 fff1 0008 0008     ................
  40d7e8:	0014 0014 001c 001c 001d 001d 001c 001c     ................
  40d7f8:	0018 0018 0016 0016 0015 0015 0019 0019     ................
  40d808:	0013 0013 0011 0011 0010 0010 000d 000d     ................
  40d818:	000a 000a 000a 000a 0011 0011 001d 001d     ................
  40d828:	0024 0024 0027 0027 0026 0026 0019 0019     $.$.'.'.&.&.....
  40d838:	000e 000e 0003 0003 fff7 fff7 ffee ffee     ................
  40d848:	ffe5 ffe5 ffdc ffdc ffd2 ffd2 ffc8 ffc8     ................
  40d858:	ffc6 ffc6 ffcc ffcc ffd8 ffd8 ffee ffee     ................
  40d868:	0004 0004 0017 0017 0024 0024 0025 0025     ........$.$.%.%.
  40d878:	001c 001c 0011 0011 0001 0001 fff7 fff7     ................
  40d888:	ffef ffef ffee ffee fff0 fff0 fff7 fff7     ................
  40d898:	ffff ffff 0006 0006 000d 000d 0013 0013     ................
  40d8a8:	0019 0019 001c 001c 0019 0019 001a 001a     ................
  40d8b8:	0012 0012 000c 000c 0004 0004 0004 0004     ................
  40d8c8:	0003 0003 000c 000c 0015 0015 001b 001b     ................
  40d8d8:	001f 001f 0028 0028 002b 002b 002c 002c     ....(.(.+.+.,.,.
  40d8e8:	0023 0023 001d 001d 0013 0013 0009 0009     #.#.............
  40d8f8:	fff9 fff9 fff4 fff4 ffed ffed ffe5 ffe5     ................
  40d908:	ffe3 ffe3 ffe0 ffe0 ffdd ffdd ffde ffde     ................
  40d918:	ffe5 ffe5 ffe7 ffe7 fff2 fff2 fff7 fff7     ................
  40d928:	fff8 fff8 fff7 fff7 fff3 fff3 ffed ffed     ................
  40d938:	ffe9 ffe9 ffe4 ffe4 ffe8 ffe8 fff1 fff1     ................
  40d948:	fff7 fff7 0006 0006 0009 0009 000a 000a     ................
  40d958:	0005 0005 0004 0004 0002 0002 0002 0002     ................
  40d968:	0005 0005 0008 0008 0011 0011 0018 0018     ................
  40d978:	001a 001a 001f 001f 0022 0022 0022 0022     ........".".".".
  40d988:	0028 0028 0029 0029 002b 002b 002e 002e     (.(.).).+.+.....
  40d998:	002c 002c 002b 002b 0025 0025 001b 001b     ,.,.+.+.%.%.....
  40d9a8:	0016 0016 000d 000d 0004 0004 0001 0001     ................
  40d9b8:	fffe fffe fff8 fff8 fff8 fff8 fff1 fff1     ................
  40d9c8:	ffeb ffeb ffe9 ffe9 ffe5 ffe5 ffe9 ffe9     ................
  40d9d8:	ffee ffee fff6 fff6 fff9 fff9 fff7 fff7     ................
  40d9e8:	fff7 fff7 ffec ffec ffe2 ffe2 ffda ffda     ................
  40d9f8:	ffdd ffdd ffe0 ffe0 ffed ffed fffa fffa     ................
  40da08:	ffff ffff fffe fffe fffa fffa fff3 fff3     ................
  40da18:	fff4 fff4 fffc fffc 0004 0004 0013 0013     ................
  40da28:	001c 001c 001f 001f 001d 001d 0018 0018     ................
  40da38:	0010 0010 0014 0014 001b 001b 0023 0023     ............#.#.
  40da48:	002e 002e 0034 0034 0037 0037 0035 0035     ....4.4.7.7.5.5.
  40da58:	002e 002e 0022 0022 0012 0012 000b 000b     ....".".........
  40da68:	0003 0003 fffe fffe fff6 fff6 ffee ffee     ................
  40da78:	ffec ffec ffe6 ffe6 ffe1 ffe1 ffdd ffdd     ................
  40da88:	ffe0 ffe0 ffe3 ffe3 ffe7 ffe7 fff0 fff0     ................
  40da98:	fff4 fff4 fff8 fff8 fff4 fff4 ffef ffef     ................
  40daa8:	ffe7 ffe7 ffe1 ffe1 ffe5 ffe5 ffea ffea     ................
  40dab8:	fff8 fff8 0002 0002 000a 000a 0005 0005     ................
  40dac8:	fff7 fff7 fff1 fff1 ffed ffed ffea ffea     ................
  40dad8:	fffb fffb 0005 0005 0012 0012 0015 0015     ................
  40dae8:	0013 0013 000c 000c 0007 0007 0008 0008     ................
  40daf8:	000c 000c 0017 0017 0021 0021 0029 0029     ........!.!.).).
  40db08:	002e 002e 002e 002e 002a 002a 0023 0023     ........*.*.#.#.
  40db18:	001c 001c 0011 0011 0004 0004 fffa fffa     ................
  40db28:	fff2 fff2 ffed ffed ffe3 ffe3 ffdd ffdd     ................
  40db38:	ffd5 ffd5 ffd1 ffd1 ffd0 ffd0 ffd0 ffd0     ................
  40db48:	ffd5 ffd5 ffdd ffdd ffe4 ffe4 ffeb ffeb     ................
  40db58:	fff1 fff1 fff4 fff4 ffef ffef ffee ffee     ................
  40db68:	fff0 fff0 fff3 fff3 0000 0000 000a 000a     ................
  40db78:	0017 0017 0017 0017 0011 0011 0006 0006     ................
  40db88:	fffd fffd fff8 fff8 0000 0000 0007 0007     ................
  40db98:	0014 0014 001e 001e 001e 001e 001c 001c     ................
  40dba8:	0013 0013 000b 000b 0005 0005 0003 0003     ................
  40dbb8:	0008 0008 000f 000f 0016 0016 001f 001f     ................
  40dbc8:	0024 0024 001e 001e 0016 0016 000a 000a     $.$.............
  40dbd8:	0002 0002 fffd fffd fff9 fff9 fff8 fff8     ................
  40dbe8:	fff7 fff7 fff0 fff0 ffe4 ffe4 ffd7 ffd7     ................
  40dbf8:	ffcf ffcf ffcb ffcb ffd2 ffd2 ffdd ffdd     ................
  40dc08:	ffeb ffeb fffa fffa 0002 0002 0004 0004     ................
  40dc18:	0001 0001 fffb fffb fff9 fff9 0000 0000     ................
  40dc28:	000f 000f 0021 0021 0029 0029 0034 0034     ....!.!.).).4.4.
  40dc38:	0031 0031 0029 0029 0022 0022 001f 001f     1.1.).).".".....
  40dc48:	0022 0022 0029 0029 0030 0030 002f 002f     ".".).).0.0././.
  40dc58:	0026 0026 001a 001a 000a 000a 0002 0002     &.&.............
  40dc68:	fffc fffc fff9 fff9 fff8 fff8 fffd fffd     ................
  40dc78:	ffff ffff ffff ffff fffa fffa fff3 fff3     ................
  40dc88:	ffeb ffeb ffe4 ffe4 ffdd ffdd ffe2 ffe2     ................
  40dc98:	ffe6 ffe6 ffe7 ffe7 ffe9 ffe9 ffe4 ffe4     ................
  40dca8:	ffdb ffdb ffcf ffcf ffc5 ffc5 ffc8 ffc8     ................
  40dcb8:	ffd0 ffd0 ffe4 ffe4 fff9 fff9 0010 0010     ................
  40dcc8:	0021 0021 0028 0028 002a 002a 002b 002b     !.!.(.(.*.*.+.+.
  40dcd8:	002d 002d 002f 002f 0034 0034 003d 003d     -.-././.4.4.=.=.
  40dce8:	0047 0047 0049 0049 0049 0049 0040 0040     G.G.I.I.I.I.@.@.
  40dcf8:	003c 003c 003e 003e 0042 0042 0045 0045     <.<.>.>.B.B.E.E.
  40dd08:	0046 0046 0042 0042 0037 0037 0024 0024     F.F.B.B.7.7.$.$.
  40dd18:	0007 0007 fff0 fff0 ffda ffda ffcf ffcf     ................
  40dd28:	ffca ffca ffcc ffcc ffd2 ffd2 ffd7 ffd7     ................
  40dd38:	ffd7 ffd7 ffcf ffcf ffc5 ffc5 ffbe ffbe     ................
  40dd48:	ffb8 ffb8 ffb9 ffb9 ffc2 ffc2 ffcd ffcd     ................
  40dd58:	ffd8 ffd8 ffdd ffdd ffdf ffdf ffdc ffdc     ................
  40dd68:	ffdb ffdb ffdd ffdd ffed ffed fffa fffa     ................
  40dd78:	0012 0012 001e 001e 002b 002b 0033 0033     ........+.+.3.3.
  40dd88:	0031 0031 0034 0034 0036 0036 003b 003b     1.1.4.4.6.6.;.;.
  40dd98:	0041 0041 0048 0048 004f 004f 0050 0050     A.A.H.H.O.O.P.P.
  40dda8:	004e 004e 0048 0048                         N.N.H.H.

0040ddb0 <click_low>:
  40ddb0:	00df 00df 058f 058f 12a1 12a1 21a5 21a5     .............!.!
  40ddc0:	2ded 2ded 3860 3860 3968 3968 29a8 29a8     .-.-`8`8h9h9.).)
  40ddd0:	0e12 0e12 ef21 ef21 d39c d39c c50a c50a     ....!.!.........
  40dde0:	c940 c940 dad8 dad8 f035 f035 0054 0054     @.@.....5.5.T.T.
  40ddf0:	0489 0489 fd52 fd52 f2ea f2ea ea8a ea8a     ....R.R.........
  40de00:	e597 e597 e842 e842 ec47 ec47 f089 f089     ....B.B.G.G.....
  40de10:	f46d f46d f6f0 f6f0 f85a f85a fbd0 fbd0     m.m.....Z.Z.....
  40de20:	01a0 01a0 0461 0461 fe43 fe43 f300 f300     ....a.a.C.C.....
  40de30:	e642 e642 d7ba d7ba d127 d127 dcdf dcdf     B.B.....'.'.....
  40de40:	f839 f839 19cd 19cd 38be 38be 4961 4961     9.9......8.8aIaI
  40de50:	43de 43de 2d81 2d81 130a 130a fe9a fe9a     .C.C.-.-........
  40de60:	f788 f788 fd8c fd8c 0938 0938 126f 126f     ........8.8.o.o.
  40de70:	17a5 17a5 1804 1804 12de 12de 0d1c 0d1c     ................
  40de80:	06e5 06e5 02c1 02c1 0021 0021 fc5a fc5a     ........!.!.Z.Z.
  40de90:	f688 f688 f13e f13e f20a f20a fd75 fd75     ....>.>.....u.u.
  40dea0:	0e51 0e51 2043 2043 2fd4 2fd4 320e 320e     Q.Q.C C ././.2.2
  40deb0:	201e 201e 0042 0042 dd26 dd26 c099 c099     . . B.B.&.&.....
  40dec0:	b5c0 b5c0 bfe8 bfe8 d620 d620 ed12 ed12     ........ . .....
  40ded0:	fcbb fcbb ff4f ff4f f775 f775 ece9 ece9     ....O.O.u.u.....
  40dee0:	e5a9 e5a9 e13e e13e e3f1 e3f1 ea73 ea73     ....>.>.....s.s.
  40def0:	f151 f151 f862 f862 fe03 fe03 0331 0331     Q.Q.b.b.....1.1.
  40df00:	0a38 0a38 12d4 12d4 186a 186a 146a 146a     8.8.....j.j.j.j.
  40df10:	070d 070d f69e f69e e4f5 e4f5 d8f6 d8f6     ................
  40df20:	ddf6 ddf6 f4e1 f4e1 1480 1480 3385 3385     .............3.3
  40df30:	47d7 47d7 4800 4800 35cf 35cf 1c1b 1c1b     .G.G.H.H.5.5....
  40df40:	04ee 04ee f7e8 f7e8 f864 f864 00e4 00e4     ........d.d.....
  40df50:	09ea 09ea 1000 1000 137c 137c 1118 1118     ........|.|.....
  40df60:	0ca9 0ca9 0726 0726 01be 01be fde6 fde6     ....&.&.........
  40df70:	f9a2 f9a2 f34d f34d ecd4 ecd4 eb13 eb13     ....M.M.........
  40df80:	f3cd f3cd 048d 048d 170e 170e 288c 288c     .............(.(
  40df90:	30a9 30a9 2608 2608 0ac2 0ac2 e905 e905     .0.0.&.&........
  40dfa0:	ca57 ca57 b980 b980 bd14 bd14 cfc5 cfc5     W.W.............
  40dfb0:	e653 e653 f8a6 f8a6 001d 001d fc11 fc11     S.S.............
  40dfc0:	f274 f274 eaaa eaaa e596 e596 e62d e62d     t.t.........-.-.
  40dfd0:	ed08 ed08 f498 f498 fca8 fca8 0334 0334     ............4.4.
  40dfe0:	0848 0848 0db1 0db1 149c 149c 19df 19df     H.H.............
  40dff0:	17e2 17e2 0c01 0c01 fc20 fc20 eb2c eb2c     ........ . .,.,.
  40e000:	dcc0 dcc0 db7d db7d ec4f ec4f 087d 087d     ....}.}.O.O.}.}.
  40e010:	26c0 26c0 3e49 3e49 450c 450c 389f 389f     .&.&I>I>.E.E.8.8
  40e020:	216e 216e 09ba 09ba f9a4 f9a4 f658 f658     n!n!........X.X.
  40e030:	fd07 fd07 0604 0604 0cda 0cda 0fa5 0fa5     ................
  40e040:	0e93 0e93 0b16 0b16 0622 0622 00ca 00ca     ........".".....
  40e050:	fced fced f9fc f9fc f51d f51d ef1f ef1f     ................
  40e060:	ea66 ea66 e81a e81a e971 e971 eee8 eee8     f.f.....q.q.....
  40e070:	f60f f60f fb5d fb5d fcd2 fcd2 f9ed f9ed     ....].].........
  40e080:	f406 f406 ee5d ee5d ec1e ec1e ee54 ee54     ....].].....T.T.
  40e090:	f33c f33c f824 f824 fbd4 fbd4 fe2e fe2e     <.<.$.$.........
  40e0a0:	ff27 ff27 ff34 ff34 fef3 fef3 fed2 fed2     '.'.4.4.........
  40e0b0:	ff53 ff53 011f 011f 040d 040d 0715 0715     S.S.............
  40e0c0:	0986 0986 0b6f 0b6f 0d1b 0d1b 0ea7 0ea7     ....o.o.........
  40e0d0:	0f79 0f79 0ef9 0ef9 0d72 0d72 0b51 0b51     y.y.....r.r.Q.Q.
  40e0e0:	08f5 08f5 0721 0721 0629 0629 05bd 05bd     ....!.!.).).....
  40e0f0:	05bc 05bc 061d 061d 0675 0675 0666 0666     ........u.u.f.f.
  40e100:	05f6 05f6 04fc 04fc 037b 037b 01b9 01b9     ........{.{.....
  40e110:	ffa1 ffa1 fd46 fd46 fb32 fb32 fa03 fa03     ....F.F.2.2.....
  40e120:	f9d8 f9d8 fa80 fa80 fba7 fba7 fc9a fc9a     ................
  40e130:	fcb8 fcb8 fc45 fc45 fb5f fb5f fa13 fa13     ....E.E._._.....
  40e140:	f8e6 f8e6 f864 f864 f8f3 f8f3 fa57 fa57     ....d.d.....W.W.
  40e150:	fbed fbed fd38 fd38 fdf5 fdf5 fe33 fe33     ....8.8.....3.3.
  40e160:	fe47 fe47 fe70 fe70 fead fead ff19 ff19     G.G.p.p.........
  40e170:	ffa6 ffa6 002b 002b 0091 0091 00b5 00b5     ....+.+.........
  40e180:	00ba 00ba 00fd 00fd 019f 019f 028a 028a     ................
  40e190:	0390 0390 0460 0460 04be 04be 04a9 04a9     ....`.`.........
  40e1a0:	046d 046d 0457 0457 044d 044d 0444 0444     m.m.W.W.M.M.D.D.
  40e1b0:	0424 0424 03ae 03ae 02d1 02d1 01ca 01ca     $.$.............
  40e1c0:	00fb 00fb 0091 0091 0087 0087 00c7 00c7     ................
  40e1d0:	00fd 00fd 00d6 00d6 004f 004f ff86 ff86     ........O.O.....
  40e1e0:	feb6 feb6 fe1b fe1b fdec fdec fe2e fe2e     ................
  40e1f0:	feb7 feb7 ff30 ff30 ff4b ff4b feff feff     ....0.0.K.K.....
  40e200:	fe74 fe74 fde1 fde1 fd9e fd9e fdd2 fdd2     t.t.............
  40e210:	fe49 fe49 fe97 fe97 fe93 fe93 fe5b fe5b     I.I.........[.[.
  40e220:	fe20 fe20 fe0c fe0c fe5f fe5f ff17 ff17      . ....._._.....
  40e230:	fff9 fff9 00b7 00b7 0122 0122 010a 010a     ........".".....
  40e240:	0096 0096 0028 0028 0009 0009 003c 003c     ....(.(.....<.<.
  40e250:	00a1 00a1 00f4 00f4 00fa 00fa 00b8 00b8     ................
  40e260:	0035 0035 ff99 ff99 ff4d ff4d ff86 ff86     5.5.....M.M.....
  40e270:	000c 000c 009c 009c 00f4 00f4 00d0 00d0     ................
  40e280:	003e 003e ffb4 ffb4 ff79 ff79 ff94 ff94     >.>.....y.y.....
  40e290:	fffc fffc 007e 007e 00c9 00c9 0098 0098     ....~.~.........
  40e2a0:	0011 0011 ff5e ff5e feb1 feb1 fe4e fe4e     ....^.^.....N.N.
  40e2b0:	fe73 fe73 fee6 fee6 ff59 ff59 ffa4 ffa4     s.s.....Y.Y.....
  40e2c0:	ffab ffab ff8e ff8e ff80 ff80 ffae ffae     ................
  40e2d0:	0015 0015 007c 007c 00bc 00bc 00ab 00ab     ....|.|.........
  40e2e0:	0057 0057 ffec ffec ff9e ff9e ff89 ff89     W.W.............
  40e2f0:	ffbd ffbd 0019 0019 005c 005c 0064 0064     ........\.\.d.d.
  40e300:	0026 0026 ffbf ffbf ff60 ff60 ff5c ff5c     &.&.....`.`.\.\.
  40e310:	ffb4 ffb4 0042 0042 00c4 00c4 010e 010e     ....B.B.........
  40e320:	00f2 00f2 0080 0080 fff9 fff9 ff8d ff8d     ................
  40e330:	ff52 ff52 ff48 ff48 ff4d ff4d ff3a ff3a     R.R.H.H.M.M.:.:.
  40e340:	ff00 ff00 feaf feaf fe67 fe67 fe58 fe58     ........g.g.X.X.
  40e350:	fe9c fe9c ff1c ff1c ffad ffad 0011 0011     ................
  40e360:	0024 0024 ffeb ffeb ff98 ff98 ff58 ff58     $.$.........X.X.
  40e370:	ff4d ff4d ff76 ff76 ffb2 ffb2 ffcf ffcf     M.M.v.v.........
  40e380:	ffb4 ffb4 ff71 ff71 ff1c ff1c fedd fedd     ....q.q.........
  40e390:	fed9 fed9 ff1e ff1e ff99 ff99 0010 0010     ................
  40e3a0:	005c 005c 0074 0074 006c 006c 0066 0066     \.\.t.t.l.l.f.f.
  40e3b0:	0085 0085 00c4 00c4 0117 0117 0153 0153     ............S.S.
  40e3c0:	0154 0154 011b 011b 00b7 00b7 0046 0046     T.T.........F.F.
  40e3d0:	fff9 fff9 ffec ffec 0017 0017 004d 004d     ............M.M.
  40e3e0:	006c 006c 005a 005a 000f 000f ffb3 ffb3     l.l.Z.Z.........
  40e3f0:	ff7a ff7a ff76 ff76 ff95 ff95 ffc6 ffc6     z.z.v.v.........
  40e400:	fff2 fff2 fffe fffe ffd7 ffd7 ff8e ff8e     ................
  40e410:	ff4f ff4f ff26 ff26 ff20 ff20 ff3a ff3a     O.O.&.&. . .:.:.
  40e420:	ff57 ff57 ff62 ff62 ff59 ff59 ff47 ff47     W.W.b.b.Y.Y.G.G.
  40e430:	ff3a ff3a ff44 ff44 ff75 ff75 ffb3 ffb3     :.:.D.D.u.u.....
  40e440:	ffec ffec ffff ffff fff8 fff8 ffda ffda     ................
  40e450:	ffb7 ffb7 ffa8 ffa8 ffc2 ffc2 0006 0006     ................
  40e460:	0050 0050 0088 0088 009f 009f 0089 0089     P.P.............
  40e470:	006b 006b 004a 004a 0042 0042 0059 0059     k.k.J.J.B.B.Y.Y.
  40e480:	007a 007a 0090 0090 0099 0099 0093 0093     z.z.............
  40e490:	007c 007c 006d 006d 006c 006c 0073 0073     |.|.m.m.l.l.s.s.
  40e4a0:	0087 0087 0098 0098 0095 0095 007d 007d     ............}.}.
  40e4b0:	004b 004b 0012 0012 ffe3 ffe3 ffcb ffcb     K.K.............
  40e4c0:	ffd9 ffd9 ffee ffee fffc fffc fff8 fff8     ................
  40e4d0:	ffe9 ffe9 ffd5 ffd5 ffbf ffbf ffa5 ffa5     ................
  40e4e0:	ff87 ff87 ff74 ff74 ff5b ff5b ff47 ff47     ....t.t.[.[.G.G.
  40e4f0:	ff36 ff36 ff3d ff3d ff58 ff58 ff84 ff84     6.6.=.=.X.X.....
  40e500:	ffbe ffbe ffec ffec 0001 0001 fffa fffa     ................
  40e510:	ffe7 ffe7 ffc7 ffc7 ffb1 ffb1 ffbb ffbb     ................
  40e520:	ffe0 ffe0 0019 0019 0052 0052 0081 0081     ........R.R.....
  40e530:	0093 0093 0085 0085 0064 0064 003d 003d     ........d.d.=.=.
  40e540:	001c 001c 0012 0012 001c 001c 0034 0034     ............4.4.
  40e550:	0054 0054 0069 0069 0077 0077 007b 007b     T.T.i.i.w.w.{.{.
  40e560:	007a 007a 0069 0069 004a 004a 0026 0026     z.z.i.i.J.J.&.&.
  40e570:	0001 0001 ffe8 ffe8 ffd5 ffd5 ffdc ffdc     ................
  40e580:	fff2 fff2 000d 000d 002a 002a 003c 003c     ........*.*.<.<.
  40e590:	0035 0035 0017 0017 ffe4 ffe4 ffb1 ffb1     5.5.............
  40e5a0:	ff94 ff94 ff93 ff93 ffb0 ffb0 ffd9 ffd9     ................
  40e5b0:	fffb fffb 0014 0014 001c 001c 0013 0013     ................
  40e5c0:	0003 0003 fff1 fff1 ffe5 ffe5 ffea ffea     ................
  40e5d0:	fff3 fff3 fff8 fff8 0001 0001 0012 0012     ................
  40e5e0:	0024 0024 003f 003f 0057 0057 0063 0063     $.$.?.?.W.W.c.c.
  40e5f0:	005d 005d 0043 0043 0021 0021 fff3 fff3     ].].C.C.!.!.....
  40e600:	ffd6 ffd6 ffcb ffcb ffe2 ffe2 0009 0009     ................
  40e610:	002e 002e 0048 0048 0048 0048 003b 003b     ....H.H.H.H.;.;.
  40e620:	0028 0028 0013 0013 ffff ffff fff2 fff2     (.(.............
  40e630:	ffe5 ffe5 ffdd ffdd ffda ffda ffd9 ffd9     ................
  40e640:	ffd8 ffd8 ffdf ffdf ffee ffee fff3 fff3     ................
  40e650:	fff0 fff0 ffed ffed ffe4 ffe4 ffdc ffdc     ................
  40e660:	ffe5 ffe5 fffa fffa 0012 0012 002a 002a     ............*.*.
  40e670:	0037 0037 0030 0030 001a 001a 0000 0000     7.7.0.0.........
  40e680:	ffe3 ffe3 ffca ffca ffc0 ffc0 ffba ffba     ................
  40e690:	ffc2 ffc2 ffcc ffcc ffdd ffdd ffea ffea     ................
  40e6a0:	fffd fffd 0016 0016 002b 002b 003c 003c     ........+.+.<.<.
  40e6b0:	0052 0052 005b 005b 0059 0059 0052 0052     R.R.[.[.Y.Y.R.R.
  40e6c0:	0044 0044 0033 0033 0019 0019 ffff ffff     D.D.3.3.........
  40e6d0:	ffe7 ffe7 ffd5 ffd5 ffc6 ffc6 ffc8 ffc8     ................
  40e6e0:	ffce ffce ffdc ffdc ffe5 ffe5 ffed ffed     ................
  40e6f0:	fffc fffc 0002 0002 000a 000a 0012 0012     ................
  40e700:	001c 001c 002a 002a 0035 0035 003b 003b     ....*.*.5.5.;.;.
  40e710:	0035 0035 0017 0017 fff4 fff4 ffd5 ffd5     5.5.............
  40e720:	ffb4 ffb4 ff9a ff9a ff8d ff8d ff8a ff8a     ................
  40e730:	ff95 ff95 ffa5 ffa5 ffc4 ffc4 ffe9 ffe9     ................
  40e740:	0008 0008 0025 0025 003e 003e 003f 003f     ....%.%.>.>.?.?.
  40e750:	0033 0033 001d 001d ffff ffff ffe8 ffe8     3.3.............
  40e760:	ffde ffde ffe7 ffe7 fff1 fff1 fffd fffd     ................
  40e770:	fffe fffe fff3 fff3 ffd7 ffd7 ffad ffad     ................
  40e780:	ff8a ff8a ff7e ff7e ff8f ff8f ffbb ffbb     ....~.~.........
  40e790:	0002 0002 0059 0059 00ac 00ac 00eb 00eb     ....Y.Y.........
  40e7a0:	0103 0103 00f4 00f4 00ba 00ba 006c 006c     ............l.l.
  40e7b0:	001b 001b ffdb ffdb ffae ffae ffa2 ffa2     ................
  40e7c0:	ffb8 ffb8 ffda ffda 0001 0001 001a 001a     ................
  40e7d0:	001c 001c 000f 000f 0003 0003 fff3 fff3     ................
  40e7e0:	ffe5 ffe5 ffd9 ffd9 ffe3 ffe3 fffe fffe     ................
  40e7f0:	002a 002a 0055 0055 0069 0069 0067 0067     *.*.U.U.i.i.g.g.
  40e800:	0047 0047 0015 0015 ffc5 ffc5 ff70 ff70     G.G.........p.p.
  40e810:	ff28 ff28 ff05 ff05 ff12 ff12 ff4e ff4e     (.(.........N.N.
  40e820:	ff9e ff9e ffeb ffeb 002a 002a 0047 0047     ........*.*.G.G.
  40e830:	0045 0045 002a 002a 0001 0001 ffd5 ffd5     E.E.*.*.........
  40e840:	ffb8 ffb8 ffb3 ffb3 ffbe ffbe ffd3 ffd3     ................
  40e850:	ffee ffee 0012 0012 002a 002a 0031 0031     ........*.*.1.1.
  40e860:	0021 0021 ffff ffff ffd8 ffd8 ffbd ffbd     !.!.............
  40e870:	ffb4 ffb4 ffc2 ffc2 fff4 fff4 0046 0046     ............F.F.
  40e880:	0094 0094 00cd 00cd 00e0 00e0 00c3 00c3     ................
  40e890:	007e 007e 0034 0034 fff0 fff0 ffc0 ffc0     ~.~.4.4.........
  40e8a0:	ffb0 ffb0 ffbb ffbb ffd8 ffd8 fffd fffd     ................
  40e8b0:	001e 001e 002b 002b 0029 0029 001a 001a     ....+.+.).).....
  40e8c0:	000a 000a fff0 fff0 ffda ffda ffc8 ffc8     ................
  40e8d0:	ffc0 ffc0 ffcf ffcf ffec ffec 000b 000b     ................
  40e8e0:	001d 001d 0021 0021 000e 000e ffea ffea     ....!.!.........
  40e8f0:	ffc0 ffc0 ff9a ff9a ff89 ff89 ff93 ff93     ................
  40e900:	ffbb ffbb ffeb ffeb 0017 0017 0034 0034     ............4.4.
  40e910:	0043 0043 0040 0040 003b 003b 0035 0035     C.C.@.@.;.;.5.5.
  40e920:	0030 0030 001e 001e 0005 0005 ffea ffea     0.0.............
  40e930:	ffce ffce ffbb ffbb ffbf ffbf ffde ffde     ................
  40e940:	0008 0008 002b 002b 0035 0035 0028 0028     ....+.+.5.5.(.(.
  40e950:	0006 0006 ffe3 ffe3 ffcc ffcc ffd4 ffd4     ................
  40e960:	fff2 fff2 0020 0020 004b 004b 0060 0060     .... . .K.K.`.`.
  40e970:	0055 0055 0034 0034 0010 0010 ffe6 ffe6     U.U.4.4.........
  40e980:	ffca ffca ffb8 ffb8 ffb5 ffb5 ffc0 ffc0     ................
  40e990:	ffc9 ffc9 ffdc ffdc fff7 fff7 0012 0012     ................
  40e9a0:	0030 0030 0041 0041 0044 0044 002a 002a     0.0.A.A.D.D.*.*.
  40e9b0:	0000 0000 ffd5 ffd5 ffc2 ffc2 ffc4 ffc4     ................
  40e9c0:	ffd8 ffd8 fffb fffb 0018 0018 0027 0027     ............'.'.
  40e9d0:	0021 0021 0007 0007 ffe1 ffe1 ffc4 ffc4     !.!.............
  40e9e0:	ffb5 ffb5 ffc3 ffc3 ffdd ffdd 0006 0006     ................
  40e9f0:	002d 002d 0051 0051 0063 0063 0060 0060     -.-.Q.Q.c.c.`.`.
  40ea00:	0051 0051 0034 0034 0016 0016 ffec ffec     Q.Q.4.4.........
  40ea10:	ffbf ffbf ff98 ff98 ff7c ff7c ff7c ff7c     ........|.|.|.|.
  40ea20:	ff99 ff99 ffcb ffcb fffe fffe 0032 0032     ............2.2.
  40ea30:	0048 0048 0046 0046 0031 0031 000b 000b     H.H.F.F.1.1.....
  40ea40:	ffe0 ffe0 ffc4 ffc4 ffbe ffbe ffd0 ffd0     ................
  40ea50:	fff2 fff2 000e 000e 0022 0022 0022 0022     ........".".".".
  40ea60:	0011 0011 fff7 fff7 ffd9 ffd9 ffc1 ffc1     ................
  40ea70:	ffb9 ffb9 ffbc ffbc ffc8 ffc8 ffda ffda     ................
  40ea80:	fff0 fff0 0005 0005 0015 0015 0025 0025     ............%.%.
  40ea90:	002b 002b 0027 0027 0018 0018 0003 0003     +.+.'.'.........
  40eaa0:	ffed ffed ffd1 ffd1 ffc7 ffc7 ffd2 ffd2     ................
  40eab0:	fff3 fff3 001c 001c 0050 0050 0074 0074     ........P.P.t.t.
  40eac0:	0082 0082 0079 0079 0062 0062 0043 0043     ....y.y.b.b.C.C.
  40ead0:	0028 0028 0019 0019 000d 000d 0006 0006     (.(.............
  40eae0:	0008 0008 000d 000d 0013 0013 0020 0020     ............ . .
  40eaf0:	0028 0028 0020 0020 0007 0007 ffe9 ffe9     (.(. . .........
  40eb00:	ffc4 ffc4 ffa6 ffa6 ff99 ff99 ffa5 ffa5     ................
  40eb10:	ffc3 ffc3 fff0 fff0 0012 0012 001f 001f     ................
  40eb20:	000f 000f ffef ffef ffcd ffcd ffa9 ffa9     ................
  40eb30:	ff9d ff9d ffb4 ffb4 ffd3 ffd3 fff5 fff5     ................
  40eb40:	000e 000e 0014 0014 000e 000e fffe fffe     ................
  40eb50:	ffef ffef ffe1 ffe1 ffd7 ffd7 ffcd ffcd     ................
  40eb60:	ffc9 ffc9 ffc9 ffc9 ffd7 ffd7 fff0 fff0     ................
  40eb70:	000c 000c 0023 0023 002b 002b 0029 0029     ....#.#.+.+.).).
  40eb80:	001c 001c 0006 0006 fffb fffb 0000 0000     ................
  40eb90:	0013 0013 0036 0036 0058 0058 0071 0071     ....6.6.X.X.q.q.
  40eba0:	007b 007b 006f 006f 0055 0055 003d 003d     {.{.o.o.U.U.=.=.
  40ebb0:	0024 0024 0017 0017 0013 0013 000d 000d     $.$.............
  40ebc0:	0005 0005 fff9 fff9 ffeb ffeb ffe6 ffe6     ................
  40ebd0:	ffea ffea fff4 fff4 fffb fffb fffb fffb     ................
  40ebe0:	fff2 fff2 ffe8 ffe8 ffde ffde ffd0 ffd0     ................
  40ebf0:	ffc5 ffc5 ffc8 ffc8 ffd5 ffd5 ffec ffec     ................
  40ec00:	0001 0001 000c 000c 0009 0009 0003 0003     ................
  40ec10:	ffff ffff fff9 fff9 fffa fffa 0005 0005     ................
  40ec20:	000e 000e 0014 0014 001f 001f 0025 0025     ............%.%.
  40ec30:	0026 0026 0023 0023 001d 001d 000b 000b     &.&.#.#.........
  40ec40:	fffa fffa ffe7 ffe7 ffd3 ffd3 ffc2 ffc2     ................
  40ec50:	ffbc ffbc ffbf ffbf ffc9 ffc9 ffe2 ffe2     ................
  40ec60:	0001 0001 0020 0020 0035 0035 0041 0041     .... . .5.5.A.A.
  40ec70:	0043 0043 003e 003e 0035 0035 0031 0031     C.C.>.>.5.5.1.1.
  40ec80:	0028 0028 0027 0027 0025 0025 0024 0024     (.(.'.'.%.%.$.$.
  40ec90:	0021 0021 001d 001d 0014 0014 0000 0000     !.!.............
  40eca0:	ffe4 ffe4 ffc8 ffc8 ffb8 ffb8 ffb5 ffb5     ................
  40ecb0:	ffc9 ffc9 ffe3 ffe3 0004 0004 001d 001d     ................
  40ecc0:	002a 002a 0023 0023 000d 000d fff4 fff4     *.*.#.#.........
  40ecd0:	ffe0 ffe0 ffd1 ffd1 ffd1 ffd1 ffd7 ffd7     ................
  40ece0:	ffe8 ffe8 fff8 fff8 0005 0005 0007 0007     ................
  40ecf0:	000a 000a 0009 0009 0008 0008 0007 0007     ................
  40ed00:	fffe fffe fff6 fff6 ffef ffef fff0 fff0     ................
  40ed10:	fffa fffa 000f 000f 001e 001e 0027 0027     ............'.'.
  40ed20:	001d 001d 0002 0002 ffe2 ffe2 ffcb ffcb     ................
  40ed30:	ffbc ffbc ffba ffba ffcf ffcf ffe6 ffe6     ................
  40ed40:	fffd fffd 0010 0010 0019 0019 0014 0014     ................
  40ed50:	0016 0016 0017 0017 0016 0016 0014 0014     ................
  40ed60:	0011 0011 0007 0007 fffc fffc fffa fffa     ................
  40ed70:	fffa fffa fffb fffb ffff ffff 0008 0008     ................
  40ed80:	0003 0003 fffc fffc fff5 fff5 ffef ffef     ................
  40ed90:	fff1 fff1 fffe fffe 000e 000e 001a 001a     ................
  40eda0:	0026 0026 002b 002b 001e 001e 0010 0010     &.&.+.+.........
  40edb0:	0005 0005 fff9 fff9 fff7 fff7 0001 0001     ................
  40edc0:	0006 0006 000a 000a 000a 000a 0011 0011     ................
  40edd0:	0015 0015 0015 0015 001e 001e 001d 001d     ................
  40ede0:	0011 0011 0002 0002 fff5 fff5 ffe3 ffe3     ................
  40edf0:	ffd4 ffd4 ffd5 ffd5 ffdb ffdb ffe5 ffe5     ................
  40ee00:	ffee ffee ffed ffed ffe1 ffe1 ffcf ffcf     ................
  40ee10:	ffc1 ffc1 ffb8 ffb8 ffb5 ffb5 ffbf ffbf     ................
  40ee20:	ffd2 ffd2 ffe5 ffe5 fffb fffb 000c 000c     ................
  40ee30:	0019 0019 0022 0022 0027 0027 0023 0023     ....".".'.'.#.#.
  40ee40:	0020 0020 001b 001b 0012 0012 fffe fffe      . .............
  40ee50:	fffe fffe 0002 0002 0006 0006 0011 0011     ................
  40ee60:	0019 0019 0023 0023 0020 0020 000e 000e     ....#.#. . .....
  40ee70:	fff7 fff7 ffe7 ffe7 ffe4 ffe4 fff2 fff2     ................
  40ee80:	000b 000b 0024 0024 003c 003c 004a 004a     ....$.$.<.<.J.J.
  40ee90:	0049 0049 003d 003d 0029 0029 0015 0015     I.I.=.=.).).....
  40eea0:	0008 0008 0005 0005 0004 0004 0004 0004     ................
  40eeb0:	0009 0009 0005 0005 0000 0000 fff3 fff3     ................
  40eec0:	ffe7 ffe7 ffd7 ffd7 ffca ffca ffba ffba     ................
  40eed0:	ffaa ffaa ff99 ff99 ff8a ff8a ff8d ff8d     ................
  40eee0:	ff96 ff96 ffaa ffaa ffbc ffbc ffcc ffcc     ................
  40eef0:	ffcd ffcd ffd1 ffd1 ffcc ffcc ffc8 ffc8     ................
  40ef00:	ffc1 ffc1 ffca ffca ffd6 ffd6 ffe1 ffe1     ................
  40ef10:	ffef ffef fffe fffe 0005 0005 000b 000b     ................
  40ef20:	000e 000e 000e 000e 000f 000f 0015 0015     ................
  40ef30:	001f 001f 0026 0026 0035 0035 0042 0042     ....&.&.5.5.B.B.
  40ef40:	004a 004a 0056 0056 0061 0061 0063 0063     J.J.V.V.a.a.c.c.
  40ef50:	0059 0059 0046 0046 0026 0026 000c 000c     Y.Y.F.F.&.&.....
  40ef60:	fff5 fff5 ffef ffef fff8 fff8 000f 000f     ................
  40ef70:	0028 0028 0047 0047 0055 0055 0055 0055     (.(.G.G.U.U.U.U.
  40ef80:	0042 0042 0020 0020 0004 0004 ffe9 ffe9     B.B. . .........
  40ef90:	ffe1 ffe1 ffe1 ffe1 ffe6 ffe6 ffec ffec     ................
  40efa0:	ffe8 ffe8 ffdf ffdf ffcd ffcd ffbb ffbb     ................
  40efb0:	ffa8 ffa8 ff99 ff99 ff95 ff95 ff92 ff92     ................
  40efc0:	ff9a ff9a ffa3 ffa3 ffb3 ffb3 ffc6 ffc6     ................
  40efd0:	ffd6 ffd6 ffe2 ffe2 ffe8 ffe8 ffe7 ffe7     ................
  40efe0:	ffdd ffdd ffc8 ffc8 ffb4 ffb4 ffa8 ffa8     ................
  40eff0:	ffa7 ffa7 ffb7 ffb7 ffdc ffdc 0004 0004     ................
  40f000:	0026 0026 003c 003c 0043 0043 003c 003c     &.&.<.<.C.C.<.<.
  40f010:	002d 002d 0020 0020 001a 001a 0014 0014     -.-. . .........
  40f020:	0020 0020 0035 0035 0047 0047 0051 0051      . .5.5.G.G.Q.Q.
  40f030:	005a 005a 0058 0058 0044 0044 0031 0031     Z.Z.X.X.D.D.1.1.
  40f040:	0017 0017 0003 0003 fffc fffc fffb fffb     ................
  40f050:	0006 0006 0019 0019 0031 0031 0040 0040     ........1.1.@.@.
  40f060:	0045 0045 003b 003b 001d 001d fff3 fff3     E.E.;.;.........
  40f070:	ffd4 ffd4 ffc2 ffc2 ffbe ffbe ffc8 ffc8     ................
  40f080:	ffdb ffdb ffeb ffeb fff4 fff4 fff6 fff6     ................
  40f090:	fff1 fff1 ffe5 ffe5 ffd6 ffd6 ffd2 ffd2     ................
  40f0a0:	ffd0 ffd0 ffce ffce ffce ffce ffd1 ffd1     ................
  40f0b0:	ffd4 ffd4 ffda ffda ffe2 ffe2 ffe6 ffe6     ................
  40f0c0:	ffec ffec ffe6 ffe6 ffdf ffdf ffda ffda     ................
  40f0d0:	ffdc ffdc ffe2 ffe2 ffed ffed 0007 0007     ................
  40f0e0:	001d 001d 0029 0029 0027 0027 001e 001e     ....).).'.'.....
  40f0f0:	0016 0016 0011 0011 0011 0011 001a 001a     ................
  40f100:	001e 001e 001d 001d 001f 001f 0018 0018     ................
  40f110:	000c 000c 0002 0002 fffc fffc fff8 fff8     ................
  40f120:	fff6 fff6 fff9 fff9 fff4 fff4 fff4 fff4     ................
  40f130:	ffff ffff 0009 0009 0016 0016 0022 0022     ............".".
  40f140:	001e 001e 0019 0019 0010 0010 0007 0007     ................
  40f150:	0001 0001 0003 0003 0015 0015 001c 001c     ................
  40f160:	0020 0020 0021 0021 0019 0019 0002 0002      . .!.!.........
  40f170:	ffeb ffeb ffe0 ffe0 ffdf ffdf ffe6 ffe6     ................
  40f180:	fffe fffe 0014 0014 0029 0029 002f 002f     ........).)././.
  40f190:	002a 002a 0020 0020 000c 000c fff6 fff6     *.*. . .........
  40f1a0:	ffde ffde ffc7 ffc7 ffb4 ffb4 ffaa ffaa     ................
  40f1b0:	ffae ffae ffbf ffbf ffd5 ffd5 ffe9 ffe9     ................
  40f1c0:	fff8 fff8 fffc fffc fff1 fff1 ffd3 ffd3     ................
  40f1d0:	ffbc ffbc ffb0 ffb0 ffba ffba ffd5 ffd5     ................
  40f1e0:	0000 0000 001d 001d 0028 0028 001c 001c     ........(.(.....
  40f1f0:	0006 0006 ffe9 ffe9 ffd7 ffd7 ffd3 ffd3     ................
  40f200:	ffd8 ffd8 ffec ffec 0008 0008 001f 001f     ................
  40f210:	0037 0037 0045 0045 0053 0053 005c 005c     7.7.E.E.S.S.\.\.
  40f220:	0054 0054 003c 003c 0020 0020 0000 0000     T.T.<.<. . .....
  40f230:	fff0 fff0 fff4 fff4 000d 000d 0034 0034     ............4.4.
  40f240:	0060 0060 0076 0076 0078 0078 0062 0062     `.`.v.v.x.x.b.b.
  40f250:	0037 0037 000b 000b ffec ffec ffe9 ffe9     7.7.............
  40f260:	ffef ffef fffd fffd 000c 000c 0010 0010     ................
  40f270:	000d 000d 0006 0006 fff8 fff8 ffec ffec     ................
  40f280:	ffdc ffdc ffce ffce ffbe ffbe ffad ffad     ................
  40f290:	ffab ffab ffba ffba ffd7 ffd7 fffb fffb     ................
  40f2a0:	001b 001b 0025 0025 001c 001c fff2 fff2     ....%.%.........
  40f2b0:	ffbc ffbc ff8e ff8e ff79 ff79 ff86 ff86     ........y.y.....
  40f2c0:	ffaf ffaf ffe9 ffe9 001a 001a 0031 0031     ............1.1.
  40f2d0:	0033 0033 001d 001d 0006 0006 ffef ffef     3.3.............
  40f2e0:	ffe3 ffe3 ffe7 ffe7 fff2 fff2 0000 0000     ................
  40f2f0:	000f 000f 001e 001e 0027 0027 0038 0038     ........'.'.8.8.
  40f300:	0043 0043 004c 004c 004d 004d 0045 0045     C.C.L.L.M.M.E.E.
  40f310:	0036 0036 0024 0024 001c 001c 002d 002d     6.6.$.$.....-.-.
  40f320:	0049 0049 0068 0068 0080 0080 0081 0081     I.I.h.h.........
  40f330:	0068 0068 0041 0041 0015 0015 fff4 fff4     h.h.A.A.........
  40f340:	ffe5 ffe5 ffdf ffdf ffef ffef fffb fffb     ................
  40f350:	0005 0005 000c 000c 0005 0005 fff4 fff4     ................
  40f360:	ffe6 ffe6 ffdc ffdc ffd3 ffd3 ffc4 ffc4     ................
  40f370:	ffb6 ffb6 ffaa ffaa ffa9 ffa9 ffb1 ffb1     ................
  40f380:	ffbb ffbb ffd4 ffd4 ffe2 ffe2 ffe8 ffe8     ................
  40f390:	ffe3 ffe3 ffda ffda ffc9 ffc9 ffbc ffbc     ................
  40f3a0:	ffc2 ffc2 ffd9 ffd9 fff9 fff9 0018 0018     ................
  40f3b0:	002e 002e 0036 0036 002d 002d 0022 0022     ....6.6.-.-.".".
  40f3c0:	0018 0018 0011 0011 0010 0010 0019 0019     ................
  40f3d0:	0020 0020 0021 0021 001c 001c 001b 001b      . .!.!.........
  40f3e0:	0018 0018 001b 001b 001e 001e 0020 0020     ............ . .
  40f3f0:	001f 001f 0019 0019 0009 0009 0003 0003     ................
  40f400:	0003 0003 0009 0009 0011 0011 001c 001c     ................
  40f410:	0022 0022 001b 001b 0011 0011 0005 0005     ".".............
  40f420:	0001 0001 ffff ffff 0002 0002 0008 0008     ................
  40f430:	000c 000c 0012 0012 0011 0011 000f 000f     ................
  40f440:	0009 0009 000a 000a 0004 0004 0003 0003     ................
  40f450:	fffc fffc fff2 fff2 ffee ffee ffef ffef     ................
  40f460:	fff1 fff1 fff4 fff4 fff7 fff7 fffc fffc     ................
  40f470:	fffe fffe fff8 fff8 fffe fffe fff7 fff7     ................
  40f480:	fff8 fff8 fff9 fff9 fff9 fff9 fff1 fff1     ................
  40f490:	ffe9 ffe9 ffdd ffdd ffcf ffcf ffc5 ffc5     ................
  40f4a0:	ffc3 ffc3 ffbe ffbe ffc3 ffc3 ffca ffca     ................
  40f4b0:	ffd4 ffd4 ffdc ffdc ffea ffea fff0 fff0     ................
  40f4c0:	ffea ffea ffed ffed ffe7 ffe7 ffe9 ffe9     ................
  40f4d0:	ffea ffea fff6 fff6 0003 0003 000e 000e     ................
  40f4e0:	0015 0015 0019 0019 0014 0014 0005 0005     ................
  40f4f0:	fff3 fff3 ffde ffde ffd7 ffd7 ffdb ffdb     ................
  40f500:	ffee ffee 000b 000b 002b 002b 004b 004b     ........+.+.K.K.
  40f510:	0057 0057 0053 0053 0041 0041 0029 0029     W.W.S.S.A.A.).).
  40f520:	0013 0013 0005 0005 0008 0008 0019 0019     ................
  40f530:	0034 0034 0042 0042 0046 0046 0038 0038     4.4.B.B.F.F.8.8.
  40f540:	001e 001e 0006 0006 ffe7 ffe7 ffd6 ffd6     ................
  40f550:	ffcc ffcc ffc8 ffc8 ffcc ffcc ffd5 ffd5     ................
  40f560:	ffe7 ffe7 fffc fffc 000c 000c 0017 0017     ................
  40f570:	0009 0009 ffef ffef ffce ffce ffad ffad     ................
  40f580:	ff93 ff93 ff8f ff8f ff9c ff9c ffb6 ffb6     ................
  40f590:	ffd0 ffd0 ffe4 ffe4 ffe5 ffe5 ffda ffda     ................
  40f5a0:	ffcf ffcf ffc0 ffc0 ffc4 ffc4 ffcd ffcd     ................
  40f5b0:	ffdb ffdb ffea ffea fff8 fff8 fffe fffe     ................
  40f5c0:	0009 0009 0018 0018 002d 002d 003e 003e     ........-.-.>.>.
  40f5d0:	0043 0043 0039 0039 001d 001d 0001 0001     C.C.9.9.........
  40f5e0:	fff1 fff1 fffc fffc 001a 001a 0047 0047     ............G.G.
  40f5f0:	0070 0070 0085 0085 007d 007d 005f 005f     p.p.....}.}._._.
  40f600:	0038 0038 0012 0012 0002 0002 0009 0009     8.8.............
  40f610:	0019 0019 002b 002b 0034 0034 0037 0037     ....+.+.4.4.7.7.
  40f620:	0028 0028 0014 0014 0005 0005 fff6 fff6     (.(.............
  40f630:	ffe7 ffe7 ffd7 ffd7 ffc2 ffc2 ffad ffad     ................
  40f640:	ffa2 ffa2 ffab ffab ffc7 ffc7 ffea ffea     ................
  40f650:	ffff ffff 0007 0007 ffef ffef ffd0 ffd0     ................
  40f660:	ffab ffab ff91 ff91 ff92 ff92 ffb1 ffb1     ................
  40f670:	ffe2 ffe2 000e 000e 002f 002f 0039 0039     .......././.9.9.
  40f680:	0029 0029 000f 000f fff5 fff5 ffe5 ffe5     ).).............
  40f690:	ffe6 ffe6 fff6 fff6 000f 000f 0026 0026     ............&.&.
  40f6a0:	0039 0039 0048 0048 0055 0055 005e 005e     9.9.H.H.U.U.^.^.
  40f6b0:	005c 005c 0050 0050 003e 003e 001e 001e     \.\.P.P.>.>.....
  40f6c0:	fffd fffd ffef ffef fff3 fff3 000d 000d     ................
  40f6d0:	0038 0038 005b 005b 0069 0069 0054 0054     8.8.[.[.i.i.T.T.
  40f6e0:	0026 0026 fff4 fff4 ffc8 ffc8 ffb8 ffb8     &.&.............
  40f6f0:	ffc0 ffc0 ffe1 ffe1 0008 0008 0028 0028     ............(.(.
  40f700:	0036 0036 0026 0026 0001 0001 ffda ffda     6.6.&.&.........
  40f710:	ffbd ffbd ffaf ffaf ffaa ffaa ffac ffac     ................
  40f720:	ffae ffae ffb6 ffb6 ffcc ffcc ffe8 ffe8     ................
  40f730:	0006 0006 001f 001f 0029 0029 001e 001e     ........).).....
  40f740:	000a 000a fff5 fff5 fff1 fff1 ffff ffff     ................
  40f750:	0023 0023 0059 0059 0082 0082 009b 009b     #.#.Y.Y.........
  40f760:	0092 0092 006f 006f 0036 0036 000c 000c     ....o.o.6.6.....
  40f770:	fff4 fff4 fff5 fff5 000d 000d 002c 002c     ............,.,.
  40f780:	004b 004b 0055 0055 0052 0052 0048 0048     K.K.U.U.R.R.H.H.
  40f790:	0035 0035 0025 0025 0015 0015 0003 0003     5.5.%.%.........
  40f7a0:	ffeb ffeb ffd7 ffd7 ffcc ffcc ffca ffca     ................
  40f7b0:	ffd4 ffd4 ffdc ffdc ffe3 ffe3 ffdd ffdd     ................
  40f7c0:	ffcb ffcb ffb0 ffb0 ff95 ff95 ff80 ff80     ................
  40f7d0:	ff7d ff7d ff86 ff86 ffa4 ffa4 ffcc ffcc     }.}.............
  40f7e0:	ffeb ffeb 0005 0005 0014 0014 000e 000e     ................
  40f7f0:	fffe fffe fff4 fff4 ffe9 ffe9 ffda ffda     ................
  40f800:	ffdb ffdb ffe3 ffe3 fff2 fff2 000a 000a     ................
  40f810:	002a 002a 0047 0047 0053 0053 0059 0059     *.*.G.G.S.S.Y.Y.
  40f820:	0050 0050 0046 0046 0040 0040 003a 003a     P.P.F.F.@.@.:.:.
  40f830:	0047 0047 005c 005c 0076 0076 008e 008e     G.G.\.\.v.v.....
  40f840:	009d 009d 009b 009b 0086 0086 0062 0062     ............b.b.
  40f850:	0038 0038 0008 0008 ffe0 ffe0 ffc8 ffc8     8.8.............
  40f860:	ffc5 ffc5 ffc6 ffc6 ffce ffce ffd7 ffd7     ................
  40f870:	ffe0 ffe0 ffd5 ffd5 ffc2 ffc2 ffab ffab     ................
  40f880:	ff92 ff92 ff86 ff86 ff7c ff7c ff88 ff88     ........|.|.....
  40f890:	ff9c ff9c ffb5 ffb5 ffc6 ffc6 ffd0 ffd0     ................
  40f8a0:	ffcb ffcb ffbc ffbc ffac ffac ff95 ff95     ................
  40f8b0:	ff89 ff89 ff88 ff88 ff9a ff9a ffbf ffbf     ................
  40f8c0:	ffeb ffeb 0015 0015 003b 003b 0052 0052     ........;.;.R.R.
  40f8d0:	004b 004b 003b 003b 002a 002a 001c 001c     K.K.;.;.*.*.....
  40f8e0:	0016 0016 0020 0020 0033 0033 004a 004a     .... . .3.3.J.J.
  40f8f0:	0061 0061 0074 0074 007c 007c 007a 007a     a.a.t.t.|.|.z.z.
  40f900:	006c 006c 0056 0056 0042 0042 0039 0039     l.l.V.V.B.B.9.9.
  40f910:	0038 0038 003e 003e 004c 004c 005b 005b     8.8.>.>.L.L.[.[.
  40f920:	006d 006d 0074 0074 006e 006e 0051 0051     m.m.t.t.n.n.Q.Q.
  40f930:	002f 002f 0000 0000 ffd7 ffd7 ffb2 ffb2     /./.............
  40f940:	ffa5 ffa5 ffa8 ffa8 ffb3 ffb3 ffc3 ffc3     ................
  40f950:	ffcb ffcb ffc7 ffc7 ffb9 ffb9 ffa0 ffa0     ................
  40f960:	ff86 ff86 ff78 ff78 ff73 ff73 ff7d ff7d     ....x.x.s.s.}.}.
  40f970:	ff9a ff9a ffb7 ffb7 ffcd ffcd ffda ffda     ................
  40f980:	ffd8 ffd8 ffcd ffcd ffc2 ffc2 ffb1 ffb1     ................
  40f990:	ffad ffad ffa9 ffa9 ffb0 ffb0 ffbe ffbe     ................
  40f9a0:	ffdc ffdc 0000 0000 0025 0025 004f 004f     ........%.%.O.O.
  40f9b0:	0067 0067 0080 0080 0083 0083 007e 007e     g.g.........~.~.
  40f9c0:	0073 0073 0067 0067 0062 0062 0068 0068     s.s.g.g.b.b.h.h.
  40f9d0:	006c 006c 0073 0073 0074 0074 006f 006f     l.l.s.s.t.t.o.o.
  40f9e0:	0062 0062 0048 0048 0033 0033 001d 001d     b.b.H.H.3.3.....
  40f9f0:	0011 0011 000c 000c 000f 000f 0012 0012     ................
  40fa00:	0013 0013 0012 0012 0018 0018 0015 0015     ................
  40fa10:	000c 000c 0004 0004 fff9 fff9 ffe9 ffe9     ................
  40fa20:	ffd7 ffd7 ffc9 ffc9 ffb9 ffb9 ffb1 ffb1     ................
  40fa30:	ffb5 ffb5 ffb5 ffb5 ffb8 ffb8 ffbc ffbc     ................
  40fa40:	ffbd ffbd ffbc ffbc ffbb ffbb ffc3 ffc3     ................
  40fa50:	ffd1 ffd1 ffe3 ffe3 fffc fffc 000f 000f     ................
  40fa60:	0016 0016 001c 001c 0017 0017 000c 000c     ................
  40fa70:	0003 0003 fff9 fff9 fff4 fff4 fff7 fff7     ................
  40fa80:	0001 0001 0010 0010 0016 0016 001e 001e     ................
  40fa90:	0016 0016 000b 000b 0005 0005 fffc fffc     ................
  40faa0:	fffd fffd 0001 0001 000d 000d 001e 001e     ................
  40fab0:	0032 0032 003f 003f 0045 0045 003f 003f     2.2.?.?.E.E.?.?.
  40fac0:	0032 0032 0022 0022 000b 000b fff6 fff6     2.2.".".........
  40fad0:	ffea ffea ffe6 ffe6 ffec ffec fff6 fff6     ................
  40fae0:	0007 0007 0011 0011 0014 0014 000a 000a     ................
  40faf0:	fffb fffb ffed ffed ffe9 ffe9 fff4 fff4     ................
  40fb00:	0003 0003 001c 001c 0031 0031 0039 0039     ........1.1.9.9.
  40fb10:	0038 0038 0028 0028 0015 0015 fffe fffe     8.8.(.(.........
  40fb20:	ffea ffea ffdc ffdc ffcf ffcf ffc7 ffc7     ................
  40fb30:	ffd3 ffd3 ffe0 ffe0 ffed ffed fffe fffe     ................
  40fb40:	000f 000f 001c 001c 001a 001a 0011 0011     ................
  40fb50:	0001 0001 fff0 fff0 ffe6 ffe6 ffe8 ffe8     ................
  40fb60:	fff4 fff4 0000 0000 0009 0009 0002 0002     ................
  40fb70:	fff4 fff4 ffdd ffdd ffc7 ffc7 ffb7 ffb7     ................
  40fb80:	ffbb ffbb ffc8 ffc8 ffd9 ffd9 fff1 fff1     ................
  40fb90:	0004 0004 0016 0016 0028 0028 0037 0037     ........(.(.7.7.
  40fba0:	0039 0039 0032 0032 0024 0024 0013 0013     9.9.2.2.$.$.....
  40fbb0:	0000 0000 ffee ffee ffe7 ffe7 fff0 fff0     ................
  40fbc0:	0006 0006 0022 0022 0031 0031 0032 0032     ....".".1.1.2.2.
  40fbd0:	0028 0028 0010 0010 fff5 fff5 ffe9 ffe9     (.(.............
  40fbe0:	fff2 fff2 0009 0009 0029 0029 004d 004d     ........).).M.M.
  40fbf0:	0063 0063 0069 0069 0060 0060 0043 0043     c.c.i.i.`.`.C.C.
  40fc00:	0026 0026 0007 0007 ffef ffef ffda ffda     &.&.............
  40fc10:	ffcc ffcc ffc5 ffc5 ffc9 ffc9 ffd6 ffd6     ................
  40fc20:	ffe2 ffe2 ffed ffed fff6 fff6 fff3 fff3     ................
  40fc30:	ffe3 ffe3 ffcf ffcf ffbf ffbf ffbc ffbc     ................
  40fc40:	ffc6 ffc6 ffdf ffdf fffe fffe 0018 0018     ................
  40fc50:	0025 0025 0026 0026 000e 000e ffe9 ffe9     %.%.&.&.........
  40fc60:	ffc3 ffc3 ffa7 ffa7 ff9c ff9c ff9d ff9d     ................
  40fc70:	ffb5 ffb5 ffd6 ffd6 fffc fffc 0022 0022     ............".".
  40fc80:	0042 0042 004f 004f 004e 004e 0042 0042     B.B.O.O.N.N.B.B.
  40fc90:	0033 0033 0021 0021 0018 0018 0010 0010     3.3.!.!.........
  40fca0:	0017 0017 0027 0027 0038 0038 0045 0045     ....'.'.8.8.E.E.
  40fcb0:	004b 004b 003d 003d 0025 0025 0007 0007     K.K.=.=.%.%.....
  40fcc0:	ffea ffea ffd8 ffd8 ffd7 ffd7 ffee ffee     ................
  40fcd0:	000f 000f 0036 0036 0050 0050 0056 0056     ....6.6.P.P.V.V.
  40fce0:	0045 0045 0019 0019 ffeb ffeb ffbe ffbe     E.E.............
  40fcf0:	ff99 ff99 ff8b ff8b ff8e ff8e ff9f ff9f     ................
  40fd00:	ffb1 ffb1 ffc8 ffc8 ffd2 ffd2 ffe0 ffe0     ................
  40fd10:	ffe4 ffe4 ffe4 ffe4 ffe4 ffe4 ffe5 ffe5     ................
  40fd20:	ffec ffec fff7 fff7 0007 0007 001b 001b     ................
  40fd30:	002b 002b 0038 0038 003d 003d 0030 0030     +.+.8.8.=.=.0.0.
  40fd40:	001d 001d 0000 0000 ffe9 ffe9 ffd8 ffd8     ................
  40fd50:	ffe3 ffe3 ffff ffff 0021 0021 0043 0043     ........!.!.C.C.
  40fd60:	0058 0058 005a 005a 004c 004c 003a 003a     X.X.Z.Z.L.L.:.:.
  40fd70:	0025 0025 001a 001a 0013 0013 0012 0012     %.%.............
  40fd80:	0014 0014 0013 0013 0013 0013 0017 0017     ................
  40fd90:	0013 0013 000c 000c 0001 0001 fff0 fff0     ................
  40fda0:	ffdf ffdf ffc8 ffc8 ffb6 ffb6 ffab ffab     ................
  40fdb0:	ffb8 ffb8 ffd8 ffd8 fffc fffc 001c 001c     ................
  40fdc0:	0027 0027 0022 0022 0005 0005 ffe5 ffe5     '.'.".".........
  40fdd0:	ffcf ffcf ffc9 ffc9 ffd6 ffd6 ffe8 ffe8     ................
  40fde0:	0003 0003 000e 000e 000e 000e 0001 0001     ................
  40fdf0:	ffe9 ffe9 ffd6 ffd6 ffcd ffcd ffcb ffcb     ................
  40fe00:	ffd3 ffd3 ffe4 ffe4 fff8 fff8 0005 0005     ................
  40fe10:	000a 000a 0010 0010 001a 001a 0025 0025     ............%.%.
  40fe20:	0026 0026 001b 001b 000c 000c fffa fffa     &.&.............
  40fe30:	fff0 fff0 fff4 fff4 000a 000a 0024 0024     ............$.$.
  40fe40:	0035 0035 0039 0039 0032 0032 0011 0011     5.5.9.9.2.2.....
  40fe50:	ffe7 ffe7 ffc8 ffc8 ffbd ffbd ffc4 ffc4     ................
  40fe60:	ffe2 ffe2 0000 0000 0014 0014 001c 001c     ................
  40fe70:	0013 0013 ffff ffff ffe5 ffe5 ffd5 ffd5     ................
  40fe80:	ffda ffda ffe6 ffe6 fff8 fff8 0004 0004     ................
  40fe90:	0008 0008 0006 0006 000a 000a 0010 0010     ................
  40fea0:	0011 0011 0010 0010 0007 0007 fffd fffd     ................
  40feb0:	fff0 fff0 ffe4 ffe4 ffe5 ffe5 fff1 fff1     ................
  40fec0:	000d 000d 0025 0025 0038 0038 0038 0038     ....%.%.8.8.8.8.
  40fed0:	0029 0029 000c 000c ffee ffee ffdd ffdd     ).).............
  40fee0:	ffd5 ffd5 ffe0 ffe0 fff3 fff3 0007 0007     ................
  40fef0:	000d 000d 0001 0001 ffee ffee ffd5 ffd5     ................
  40ff00:	ffc3 ffc3 ffbf ffbf ffbe ffbe ffc9 ffc9     ................
  40ff10:	ffdb ffdb ffef ffef 0002 0002 0012 0012     ................
  40ff20:	001c 001c 001b 001b 0015 0015 000d 000d     ................
  40ff30:	fffd fffd ffe8 ffe8 ffdb ffdb ffd6 ffd6     ................
  40ff40:	ffdd ffdd ffef ffef 0002 0002 0016 0016     ................
  40ff50:	0025 0025 0025 0025 001c 001c 000f 000f     %.%.%.%.........
  40ff60:	fffb fffb fff3 fff3 fffe fffe 000f 000f     ................
  40ff70:	001d 001d 0022 0022 001e 001e 0012 0012     ....".".........
  40ff80:	0001 0001 fff7 fff7 fff4 fff4 fffb fffb     ................
  40ff90:	0003 0003 000b 000b 0015 0015 001e 001e     ................
  40ffa0:	001f 001f 0026 0026 002d 002d 002f 002f     ....&.&.-.-././.
  40ffb0:	002c 002c 0025 0025 0014 0014 fffc fffc     ,.,.%.%.........
  40ffc0:	ffe5 ffe5 ffd6 ffd6 ffcb ffcb ffcc ffcc     ................
  40ffd0:	ffd8 ffd8 ffd7 ffd7 ffd1 ffd1 ffc5 ffc5     ................
  40ffe0:	ffb8 ffb8 ffb9 ffb9 ffc2 ffc2 ffd7 ffd7     ................
  40fff0:	fff1 fff1 0006 0006 0014 0014 0017 0017     ................
  410000:	000b 000b fffc fffc ffef ffef ffe7 ffe7     ................
  410010:	ffe9 ffe9 ffef ffef fffa fffa fffd fffd     ................
  410020:	fffb fffb ffff ffff 0008 0008 0011 0011     ................
  410030:	0018 0018 0020 0020 0022 0022 001d 001d     .... . .".".....
  410040:	001c 001c 001f 001f 002e 002e 0046 0046     ............F.F.
  410050:	0055 0055 0062 0062 0057 0057 003f 003f     U.U.b.b.W.W.?.?.
  410060:	0022 0022 0000 0000 ffed ffed ffe9 ffe9     ".".............
  410070:	fffa fffa 0015 0015 002e 002e 003d 003d     ............=.=.
  410080:	0040 0040 0037 0037 0022 0022 000b 000b     @.@.7.7.".".....
  410090:	fff1 fff1 ffe7 ffe7 ffde ffde ffe4 ffe4     ................
  4100a0:	ffee ffee fff6 fff6 0006 0006 000e 000e     ................
  4100b0:	000a 000a fffc fffc ffe9 ffe9 ffcf ffcf     ................
  4100c0:	ffbf ffbf ffb8 ffb8 ffc4 ffc4 ffda ffda     ................
  4100d0:	fff6 fff6 0010 0010 0025 0025 0028 0028     ........%.%.(.(.
  4100e0:	001f 001f 0006 0006 ffeb ffeb ffd7 ffd7     ................
  4100f0:	ffd1 ffd1 ffcf ffcf ffdc ffdc fff3 fff3     ................
  410100:	000f 000f 0025 0025 0035 0035 003b 003b     ....%.%.5.5.;.;.
  410110:	0030 0030 0023 0023 000f 000f 0000 0000     0.0.#.#.........
  410120:	fffc fffc fffe fffe 0007 0007 001a 001a     ................
  410130:	0028 0028 002f 002f 002e 002e 0022 0022     (.(././.....".".
  410140:	0014 0014 0003 0003 fff5 fff5 ffef ffef     ................
  410150:	fff0 fff0 fff7 fff7 0009 0009 0022 0022     ............".".
  410160:	0036 0036 0043 0043 0045 0045 003b 003b     6.6.C.C.E.E.;.;.
  410170:	0020 0020 fffa fffa ffe0 ffe0 ffca ffca      . .............
  410180:	ffc6 ffc6 ffd6 ffd6 ffe9 ffe9 0002 0002     ................
  410190:	0012 0012 0012 0012 0004 0004 fff1 fff1     ................
  4101a0:	ffde ffde ffd3 ffd3 ffd9 ffd9 ffe6 ffe6     ................
  4101b0:	fffb fffb 000c 000c 0013 0013 0013 0013     ................
  4101c0:	0010 0010 000e 000e 0005 0005 fff8 fff8     ................
  4101d0:	ffe9 ffe9 ffd7 ffd7 ffc3 ffc3 ffb6 ffb6     ................
  4101e0:	ffb2 ffb2 ffbf ffbf ffd5 ffd5 fff6 fff6     ................
  4101f0:	0011 0011 0020 0020 0019 0019 0007 0007     .... . .........
  410200:	fff6 fff6 ffe3 ffe3 ffe7 ffe7 fff8 fff8     ................
  410210:	0013 0013 0029 0029 0039 0039 0037 0037     ....).).9.9.7.7.
  410220:	002d 002d 001e 001e 0015 0015 000f 000f     -.-.............
  410230:	000a 000a 0007 0007 0008 0008 000a 000a     ................
  410240:	0017 0017 0027 0027 0038 0038 004e 004e     ....'.'.8.8.N.N.
  410250:	0053 0053 0046 0046 002a 002a fffb fffb     S.S.F.F.*.*.....
  410260:	ffd3 ffd3 ffbc ffbc ffb6 ffb6 ffca ffca     ................
  410270:	ffed ffed 000c 000c 0020 0020 001b 001b     ........ . .....
  410280:	0014 0014 0000 0000 ffec ffec ffeb ffeb     ................
  410290:	ffed ffed fff0 fff0 fff3 fff3 fff4 fff4     ................
  4102a0:	fff0 fff0 ffeb ffeb ffe6 ffe6 ffec ffec     ................
  4102b0:	ffe8 ffe8 ffe0 ffe0 ffd3 ffd3 ffc7 ffc7     ................
  4102c0:	ffbb ffbb ffb9 ffb9 ffc9 ffc9 ffe1 ffe1     ................
  4102d0:	fff8 fff8 000e 000e 0016 0016 0013 0013     ................
  4102e0:	0007 0007 fff4 fff4 ffec ffec ffee ffee     ................
  4102f0:	fff6 fff6 0000 0000 0008 0008 000a 000a     ................
  410300:	0005 0005 0007 0007 000f 000f 001b 001b     ................
  410310:	002c 002c 003a 003a 003d 003d 0035 0035     ,.,.:.:.=.=.5.5.
  410320:	0025 0025 0019 0019 0015 0015 001d 001d     %.%.............
  410330:	0029 0029 0034 0034 0037 0037 0031 0031     ).).4.4.7.7.1.1.
  410340:	0020 0020 000a 000a fff9 fff9 fff1 fff1      . .............
  410350:	ffec ffec fff2 fff2 ffef ffef ffeb ffeb     ................
  410360:	ffe4 ffe4 ffe1 ffe1 ffe4 ffe4 ffeb ffeb     ................
  410370:	fff4 fff4 fff7 fff7 fff4 fff4 ffec ffec     ................
  410380:	ffe4 ffe4 ffe1 ffe1 ffe7 ffe7 ffee ffee     ................
  410390:	fffe fffe 000b 000b 000d 000d 0004 0004     ................
  4103a0:	fff4 fff4 ffe8 ffe8 ffe2 ffe2 ffe5 ffe5     ................
  4103b0:	ffeb ffeb fff7 fff7 0000 0000 0004 0004     ................
  4103c0:	0006 0006 0006 0006 000f 000f 001d 001d     ................
  4103d0:	002e 002e 003b 003b 003e 003e 003b 003b     ....;.;.>.>.;.;.
  4103e0:	003a 003a 0031 0031 0039 0039 003f 003f     :.:.1.1.9.9.?.?.
  4103f0:	0042 0042 0040 0040 0038 0038 001f 001f     B.B.@.@.8.8.....
  410400:	fffe fffe ffe9 ffe9 ffe1 ffe1 ffec ffec     ................
  410410:	0000 0000 0018 0018 0027 0027 002a 002a     ........'.'.*.*.
  410420:	001f 001f 000e 000e fff9 fff9 fff1 fff1     ................
  410430:	ffef ffef fff2 fff2 fff3 fff3 fff6 fff6     ................
  410440:	ffeb ffeb ffde ffde ffd8 ffd8 ffd2 ffd2     ................
  410450:	ffd4 ffd4 ffd6 ffd6 ffd2 ffd2 ffce ffce     ................
  410460:	ffc8 ffc8 ffca ffca ffd5 ffd5 ffeb ffeb     ................
  410470:	0007 0007 001e 001e 002c 002c 0025 0025     ........,.,.%.%.
  410480:	0016 0016 fffe fffe fff2 fff2 fff2 fff2     ................
  410490:	0000 0000 0018 0018 0029 0029 0034 0034     ........).).4.4.
  4104a0:	002e 002e 001d 001d 0010 0010 0009 0009     ................
  4104b0:	000c 000c 0019 0019 0028 0028 0033 0033     ........(.(.3.3.
  4104c0:	0034 0034 0031 0031 002a 002a 002e 002e     4.4.1.1.*.*.....
  4104d0:	0033 0033 0037 0037 0034 0034 002e 002e     3.3.7.7.4.4.....
  4104e0:	001e 001e 0004 0004 fff3 fff3 ffe8 ffe8     ................
  4104f0:	ffec ffec fff0 fff0 fff5 fff5 fffb fffb     ................
  410500:	fff6 fff6 ffef ffef ffe4 ffe4 ffdf ffdf     ................
  410510:	ffdf ffdf ffe8 ffe8 fff3 fff3 fffc fffc     ................
  410520:	fff8 fff8 ffed ffed ffe3 ffe3 ffd7 ffd7     ................
  410530:	ffd4 ffd4 ffdb ffdb ffe4 ffe4 ffec ffec     ................
  410540:	fff4 fff4 fff4 fff4 fff3 fff3 fff7 fff7     ................
  410550:	0001 0001 000e 000e 001e 001e 002c 002c     ............,.,.
  410560:	0031 0031 0033 0033 002a 002a 0019 0019     1.1.3.3.*.*.....
  410570:	000e 000e 0007 0007 0009 0009 000e 000e     ................
  410580:	001a 001a 001e 001e 001c 001c 0010 0010     ................
  410590:	000b 000b 0009 0009 000d 000d 001a 001a     ................
  4105a0:	0029 0029 0034 0034 0037 0037 0038 0038     ).).4.4.7.7.8.8.
  4105b0:	0030 0030 0024 0024 001f 001f 0011 0011     0.0.$.$.........
  4105c0:	0007 0007 fffc fffc ffec ffec ffe1 ffe1     ................
  4105d0:	ffd7 ffd7 ffd3 ffd3 ffdb ffdb ffe7 ffe7     ................
  4105e0:	fff6 fff6 0004 0004 0009 0009 0003 0003     ................
  4105f0:	fff5 fff5 ffea ffea ffe6 ffe6 ffec ffec     ................
  410600:	fffa fffa 0007 0007 000c 000c 0003 0003     ................
  410610:	fff0 fff0 ffdb ffdb ffcc ffcc ffc7 ffc7     ................
  410620:	ffcc ffcc ffda ffda ffec ffec fff7 fff7     ................
  410630:	fffd fffd fffd fffd 0004 0004 0003 0003     ................
  410640:	000c 000c 0012 0012 0013 0013 0011 0011     ................
  410650:	0008 0008 fffd fffd fff0 fff0 fff2 fff2     ................
  410660:	0002 0002 0011 0011 001f 001f 0025 0025     ............%.%.
  410670:	001d 001d 000e 000e 0003 0003 ffff ffff     ................
  410680:	0002 0002 0012 0012 001f 001f 002a 002a     ............*.*.
  410690:	002a 002a 001c 001c 0009 0009 fff7 fff7     *.*.............
  4106a0:	fff0 fff0 fff1 fff1 fff5 fff5 fffd fffd     ................
  4106b0:	0000 0000 fffa fffa ffeb ffeb ffde ffde     ................
  4106c0:	ffce ffce ffc9 ffc9 ffc7 ffc7 ffd1 ffd1     ................
  4106d0:	ffd5 ffd5 ffd7 ffd7 ffda ffda ffd3 ffd3     ................
  4106e0:	ffd4 ffd4 ffda ffda ffe1 ffe1 ffe7 ffe7     ................
  4106f0:	ffea ffea ffe7 ffe7 ffe3 ffe3 ffe5 ffe5     ................
  410700:	ffe9 ffe9 fff2 fff2 fffd fffd 000f 000f     ................
  410710:	001e 001e 0021 0021 001e 001e 001b 001b     ....!.!.........
  410720:	0015 0015 0016 0016 0018 0018 0025 0025     ............%.%.
  410730:	002d 002d 0038 0038 0035 0035 0028 0028     -.-.8.8.5.5.(.(.
  410740:	001b 001b 0008 0008 fffa fffa fff9 fff9     ................
  410750:	ffff ffff 0007 0007 000f 000f 0014 0014     ................
  410760:	0017 0017 0018 0018 0018 0018 0019 0019     ................
  410770:	0018 0018 0019 0019 0012 0012 0003 0003     ................
  410780:	ffee ffee ffda ffda ffcb ffcb ffbf ffbf     ................
  410790:	ffbc ffbc ffbf ffbf ffc4 ffc4 ffc8 ffc8     ................
  4107a0:	ffc1 ffc1 ffc4 ffc4 ffc1 ffc1 ffc5 ffc5     ................
  4107b0:	ffd2 ffd2 ffe3 ffe3 fff6 fff6 0001 0001     ................
  4107c0:	0007 0007 0006 0006 0001 0001 fffb fffb     ................
  4107d0:	fff6 fff6 fff2 fff2 fff2 fff2 fff3 fff3     ................
  4107e0:	fff3 fff3 fff7 fff7 fff9 fff9 0005 0005     ................
  4107f0:	0017 0017 0029 0029 003a 003a 0040 0040     ....).).:.:.@.@.
  410800:	0043 0043 003d 003d 002d 002d 0023 0023     C.C.=.=.-.-.#.#.
  410810:	0017 0017 0012 0012 0016 0016 001e 001e     ................
  410820:	0023 0023 0021 0021 0016 0016 0009 0009     #.#.!.!.........
  410830:	fff5 fff5 ffea ffea ffea ffea ffed ffed     ................
  410840:	fffe fffe 000c 000c 0018 0018 001e 001e     ................
  410850:	001e 001e 001d 001d 0018 0018 000e 000e     ................
  410860:	0004 0004 fff6 fff6 ffe5 ffe5 ffd6 ffd6     ................
  410870:	ffcb ffcb ffc6 ffc6 ffcb ffcb ffd5 ffd5     ................
  410880:	ffe0 ffe0 ffe8 ffe8 ffe5 ffe5 ffde ffde     ................
  410890:	ffd2 ffd2 ffc7 ffc7 ffc7 ffc7 ffcc ffcc     ................
  4108a0:	ffd8 ffd8 ffe9 ffe9 fff4 fff4 fffd fffd     ................
  4108b0:	fffe fffe ffff ffff fffb fffb 0000 0000     ................
  4108c0:	0003 0003 0009 0009 000f 000f 0010 0010     ................
  4108d0:	0012 0012 0016 0016 0021 0021 002c 002c     ........!.!.,.,.
  4108e0:	003b 003b 0048 0048 0053 0053 004d 004d     ;.;.H.H.S.S.M.M.
  4108f0:	003d 003d 002f 002f 0029 0029 0025 0025     =.=././.).).%.%.
  410900:	0029 0029 0033 0033 0033 0033 0029 0029     ).).3.3.3.3.).).
  410910:	0016 0016 0005 0005 fff4 fff4 ffea ffea     ................
  410920:	ffe9 ffe9 fff0 fff0 fff6 fff6 ffff ffff     ................
  410930:	ffff ffff fffe fffe fff9 fff9 fffb fffb     ................
  410940:	fffe fffe 0001 0001 0003 0003 0001 0001     ................
  410950:	fff2 fff2 ffe0 ffe0 ffcc ffcc ffbd ffbd     ................
  410960:	ffb8 ffb8 ffbc ffbc ffc7 ffc7 ffd2 ffd2     ................
  410970:	ffdc ffdc ffe7 ffe7 ffed ffed fff0 fff0     ................
  410980:	fff0 fff0 fff6 fff6 fffe fffe 0002 0002     ................
  410990:	0009 0009 0010 0010 0012 0012 0017 0017     ................
  4109a0:	0019 0019 001d 001d 001e 001e 001d 001d     ................
  4109b0:	001a 001a 0013 0013 000f 000f 0011 0011     ................
  4109c0:	0019 0019 0029 0029 0038 0038 0047 0047     ....).).8.8.G.G.
  4109d0:	004d 004d 004f 004f 0045 0045 0039 0039     M.M.O.O.E.E.9.9.
  4109e0:	0025 0025 0017 0017 000f 000f 000c 000c     %.%.............
  4109f0:	000e 000e 0011 0011 0013 0013 0009 0009     ................
  410a00:	0000 0000 fff7 fff7 fff9 fff9 fffb fffb     ................
  410a10:	fffa fffa fffa fffa fffb fffb fffc fffc     ................
  410a20:	fffc fffc 0001 0001 0004 0004 0008 0008     ................
  410a30:	0008 0008 0001 0001 fff6 fff6 ffe9 ffe9     ................
  410a40:	ffd8 ffd8 ffc9 ffc9 ffc5 ffc5 ffc8 ffc8     ................
  410a50:	ffd2 ffd2 ffe9 ffe9 fff3 fff3 fff8 fff8     ................
  410a60:	fff8 fff8 fff5 fff5 fff3 fff3 fff5 fff5     ................
  410a70:	fffe fffe 0007 0007 000b 000b 000f 000f     ................
  410a80:	000e 000e 0009 0009 000b 000b 0007 0007     ................
  410a90:	000b 000b 000e 000e 0008 0008 ffff ffff     ................
  410aa0:	fff0 fff0 ffe9 ffe9 ffe7 ffe7 fff2 fff2     ................
  410ab0:	0001 0001 0013 0013 001f 001f 0024 0024     ............$.$.
  410ac0:	001f 001f 000d 000d 0000 0000 fff4 fff4     ................
  410ad0:	fff6 fff6 fffb fffb 0005 0005 0009 0009     ................
  410ae0:	0007 0007 0004 0004 0001 0001 fffc fffc     ................
  410af0:	fff9 fff9 fff6 fff6 fff7 fff7 fff5 fff5     ................
  410b00:	fff5 fff5 fff6 fff6 fffa fffa 0007 0007     ................
  410b10:	0015 0015 0023 0023 002a 002a 0024 0024     ....#.#.*.*.$.$.
  410b20:	0013 0013 0002 0002 ffe8 ffe8 ffd9 ffd9     ................
  410b30:	ffd4 ffd4 ffd6 ffd6 ffdb ffdb ffe6 ffe6     ................
  410b40:	ffe5 ffe5 ffe5 ffe5 ffdc ffdc ffd6 ffd6     ................
  410b50:	ffd4 ffd4 ffdc ffdc ffe6 ffe6 fff3 fff3     ................
  410b60:	fffe fffe 0002 0002 0000 0000 fffc fffc     ................
  410b70:	fff8 fff8 fff5 fff5 fff2 fff2 fff1 fff1     ................
  410b80:	ffe8 ffe8 ffde ffde ffd9 ffd9 ffd3 ffd3     ................
  410b90:	ffd6 ffd6 ffe1 ffe1 ffef ffef fffd fffd     ................
  410ba0:	0006 0006 000d 000d 0011 0011 0010 0010     ................
  410bb0:	0012 0012 0018 0018 0020 0020 0024 0024     ........ . .$.$.
  410bc0:	0032 0032 002c 002c 0022 0022 0018 0018     2.2.,.,.".".....
  410bd0:	0010 0010 0011 0011 0010 0010 0010 0010     ................
  410be0:	000d 000d 0010 0010 000f 000f 000e 000e     ................
  410bf0:	000f 000f 000f 000f 000c 000c 000a 000a     ................
  410c00:	0007 0007 fffe fffe fff4 fff4 ffe7 ffe7     ................
  410c10:	ffe4 ffe4 ffe1 ffe1 ffe4 ffe4 ffe1 ffe1     ................
  410c20:	ffdf ffdf ffd9 ffd9 ffd9 ffd9 ffd9 ffd9     ................
  410c30:	ffd8 ffd8 ffe0 ffe0 ffe7 ffe7 ffee ffee     ................
  410c40:	fff5 fff5 fff3 fff3 ffeb ffeb ffe9 ffe9     ................
  410c50:	ffe2 ffe2 ffe2 ffe2 ffe0 ffe0 ffe0 ffe0     ................
  410c60:	ffe1 ffe1 ffe1 ffe1 ffe3 ffe3 ffeb ffeb     ................
  410c70:	fff0 fff0 fffb fffb 0000 0000 0003 0003     ................
  410c80:	0009 0009 000e 000e 000e 000e 0010 0010     ................
  410c90:	0016 0016 001e 001e 0025 0025 002c 002c     ........%.%.,.,.
  410ca0:	002f 002f 002e 002e 0030 0030 002c 002c     /./.....0.0.,.,.
  410cb0:	002c 002c 0023 0023 0022 0022 001e 001e     ,.,.#.#.".".....
  410cc0:	001f 001f 001f 001f 0024 0024 0024 0024     ........$.$.$.$.
  410cd0:	0024 0024 0020 0020 0020 0020 0019 0019     $.$. . . . .....
  410ce0:	0012 0012 0008 0008 fffb fffb fff7 fff7     ................
  410cf0:	ffeb ffeb ffe6 ffe6 ffdf ffdf ffdb ffdb     ................
  410d00:	ffdd ffdd ffdf ffdf ffde ffde ffdf ffdf     ................
  410d10:	ffdc ffdc ffd5 ffd5 ffc9 ffc9 ffc4 ffc4     ................
  410d20:	ffc5 ffc5 ffd2 ffd2 ffe5 ffe5 fff6 fff6     ................
  410d30:	0002 0002 000c 000c 0009 0009 ffff ffff     ................
  410d40:	fff7 fff7 ffe9 ffe9 ffe3 ffe3 ffe7 ffe7     ................
  410d50:	fff5 fff5 fff7 fff7 0006 0006 0009 0009     ................
  410d60:	000c 000c 000e 000e 0010 0010 0015 0015     ................
  410d70:	0019 0019 001c 001c 001b 001b 001c 001c     ................
  410d80:	0018 0018 0020 0020 0025 0025 0035 0035     .... . .%.%.5.5.
  410d90:	0041 0041 0039 0039 002e 002e 001f 001f     A.A.9.9.........
  410da0:	0008 0008 fff1 fff1 ffed ffed fff2 fff2     ................
  410db0:	0002 0002 0016 0016 0020 0020 0020 0020     ........ . . . .
  410dc0:	0010 0010 fffe fffe ffef ffef ffe6 ffe6     ................
  410dd0:	ffe9 ffe9 ffef ffef fff6 fff6 fff7 fff7     ................
  410de0:	ffee ffee ffea ffea ffe0 ffe0 ffe0 ffe0     ................
  410df0:	ffe8 ffe8 ffee ffee fff8 fff8 fff5 fff5     ................
  410e00:	ffe8 ffe8 ffde ffde ffdd ffdd ffe5 ffe5     ................
  410e10:	fff6 fff6 0008 0008 0016 0016 0017 0017     ................
  410e20:	000b 000b fff5 fff5 ffe1 ffe1 ffd1 ffd1     ................
  410e30:	ffd4 ffd4 ffe2 ffe2 fff1 fff1 fffb fffb     ................
  410e40:	ffff ffff fffb fffb fffa fffa fff4 fff4     ................
  410e50:	fff6 fff6 ffff ffff 0002 0002 000a 000a     ................
  410e60:	000c 000c 000a 000a 0006 0006 0009 0009     ................
  410e70:	0013 0013 001a 001a 0019 0019 0012 0012     ................
  410e80:	0003 0003 fff5 fff5 ffe9 ffe9 ffe7 ffe7     ................
  410e90:	fff1 fff1 0003 0003 001b 001b 002d 002d     ............-.-.
  410ea0:	0032 0032 0028 0028 0020 0020 0010 0010     2.2.(.(. . .....
  410eb0:	000b 000b 000e 000e 0010 0010 0013 0013     ................
  410ec0:	0017 0017 000d 000d 0001 0001 fff3 fff3     ................
  410ed0:	ffea ffea ffe4 ffe4 ffe1 ffe1 ffe6 ffe6     ................
  410ee0:	ffe7 ffe7 ffe7 ffe7 ffe1 ffe1 ffe5 ffe5     ................
  410ef0:	ffe9 ffe9 fff6 fff6 0000 0000 0009 0009     ................
  410f00:	000a 000a 0004 0004 fff4 fff4 ffe2 ffe2     ................
  410f10:	ffd2 ffd2 ffca ffca ffca ffca ffcc ffcc     ................
  410f20:	ffd3 ffd3 ffd7 ffd7 ffd1 ffd1 ffd0 ffd0     ................
  410f30:	ffd3 ffd3 ffd9 ffd9 ffe8 ffe8 fff9 fff9     ................
  410f40:	000c 000c 0018 0018 0025 0025 0028 0028     ........%.%.(.(.
  410f50:	0029 0029 002b 002b 002c 002c 002d 002d     ).).+.+.,.,.-.-.
  410f60:	0026 0026 001e 001e 000b 000b fffc fffc     &.&.............
  410f70:	ffef ffef ffe5 ffe5 ffed ffed fffb fffb     ................
  410f80:	0010 0010 0019 0019 0023 0023 0021 0021     ........#.#.!.!.
  410f90:	0015 0015 0012 0012 0011 0011 0017 0017     ................
  410fa0:	0020 0020 0026 0026 0027 0027 001e 001e      . .&.&.'.'.....
  410fb0:	000b 000b fff5 fff5 ffe8 ffe8 ffdb ffdb     ................
  410fc0:	ffd4 ffd4 ffd8 ffd8 ffdc ffdc ffe3 ffe3     ................
  410fd0:	ffe6 ffe6 ffee ffee fff5 fff5 fffb fffb     ................
  410fe0:	fffd fffd fffd fffd fffc fffc fff3 fff3     ................
  410ff0:	ffe7 ffe7 ffdc ffdc ffdb ffdb ffdc ffdc     ................
  411000:	ffe7 ffe7 ffeb ffeb fff0 fff0 ffe9 ffe9     ................
  411010:	ffe1 ffe1 ffda ffda ffd5 ffd5 ffd8 ffd8     ................
  411020:	ffe6 ffe6 fff9 fff9 0013 0013 0027 0027     ............'.'.
  411030:	0030 0030 0036 0036 002f 002f 0028 0028     0.0.6.6././.(.(.
  411040:	0024 0024 0017 0017 0011 0011 0006 0006     $.$.............
  411050:	0000 0000 fff9 fff9 fff5 fff5 fff4 fff4     ................
  411060:	fff8 fff8 0004 0004 0009 0009 0008 0008     ................
  411070:	000c 000c 000c 000c 0008 0008 0009 0009     ................
  411080:	000f 000f 0019 0019 0025 0025 002a 002a     ........%.%.*.*.
  411090:	002b 002b 0023 0023 000f 000f fffa fffa     +.+.#.#.........
  4110a0:	ffe5 ffe5 ffd9 ffd9 ffdb ffdb ffe3 ffe3     ................
  4110b0:	ffee ffee fffb fffb 0008 0008 000b 000b     ................
  4110c0:	000f 000f 0005 0005 0001 0001 0001 0001     ................
  4110d0:	ffff ffff fffd fffd fffc fffc fffe fffe     ................
  4110e0:	fffc fffc fffd fffd 0002 0002 0002 0002     ................
  4110f0:	fffc fffc fff4 fff4 ffee ffee fff2 fff2     ................
  411100:	fff4 fff4 fffe fffe 0008 0008 0017 0017     ................
  411110:	0021 0021 0025 0025 0021 0021 0020 0020     !.!.%.%.!.!. . .
  411120:	0020 0020 001d 001d 001e 001e 0011 0011      . .............
  411130:	000d 000d 0001 0001 fff4 fff4 ffe9 ffe9     ................
  411140:	ffe6 ffe6 ffea ffea fff6 fff6 fffc fffc     ................
  411150:	0002 0002 0003 0003 0001 0001 0002 0002     ................
  411160:	0004 0004 000c 000c 0012 0012 001c 001c     ................
  411170:	0022 0022 0025 0025 001d 001d 0017 0017     ".".%.%.........
  411180:	0010 0010 0005 0005 fffd fffd fff5 fff5     ................
  411190:	fff5 fff5 fff6 fff6 0000 0000 000d 000d     ................
  4111a0:	001d 001d 0027 0027 002c 002c 0023 0023     ....'.'.,.,.#.#.
  4111b0:	0017 0017 0004 0004 fff6 fff6 ffee ffee     ................
  4111c0:	fff1 fff1 fffa fffa 0004 0004 000b 000b     ................
  4111d0:	000e 000e 000b 000b fffc fffc ffef ffef     ................
  4111e0:	ffe9 ffe9 ffe7 ffe7 ffea ffea fff1 fff1     ................
  4111f0:	fff7 fff7 fffc fffc 000b 000b 000e 000e     ................
  411200:	0011 0011 0011 0011 0006 0006 fff8 fff8     ................
  411210:	ffe7 ffe7 ffda ffda ffd6 ffd6 ffdd ffdd     ................
  411220:	ffec ffec fffd fffd 000d 000d 0015 0015     ................
  411230:	0014 0014 0006 0006 fff7 fff7 fff0 fff0     ................
  411240:	ffed ffed fff9 fff9 0003 0003 0010 0010     ................
  411250:	0016 0016 0012 0012 000b 000b 0002 0002     ................
  411260:	fffb fffb fff5 fff5 fff8 fff8 fffa fffa     ................
  411270:	fff9 fff9 fffb fffb fffe fffe 0008 0008     ................
  411280:	0016 0016 0025 0025 0032 0032 0033 0033     ....%.%.2.2.3.3.
  411290:	0030 0030 0022 0022 0010 0010 0001 0001     0.0.".".........
  4112a0:	fff4 fff4 fff1 fff1 fff9 fff9 fffe fffe     ................
  4112b0:	0003 0003 ffff ffff fff8 fff8 fff4 fff4     ................
  4112c0:	ffea ffea ffee ffee fff4 fff4 fffc fffc     ................
  4112d0:	fffc fffc fff6 fff6 fff2 fff2 ffe2 ffe2     ................
  4112e0:	ffd8 ffd8 ffcc ffcc ffca ffca ffce ffce     ................
  4112f0:	ffce ffce ffd1 ffd1 ffd2 ffd2 ffd0 ffd0     ................
  411300:	ffd7 ffd7 ffe1 ffe1 ffec ffec 0000 0000     ................
  411310:	0010 0010 0020 0020 0025 0025 0025 0025     .... . .%.%.%.%.
  411320:	0023 0023 001f 001f 001e 001e 0023 0023     #.#.........#.#.
  411330:	0024 0024 0023 0023 0017 0017 000e 000e     $.$.#.#.........
  411340:	0004 0004 0001 0001 0000 0000 000f 000f     ................
  411350:	0019 0019 0021 0021 0026 0026 0025 0025     ....!.!.&.&.%.%.
  411360:	0020 0020 001d 001d 0018 0018 001d 001d      . .............
  411370:	001f 001f 001e 001e 001a 001a 0010 0010     ................
  411380:	fffd fffd ffee ffee ffe1 ffe1 ffda ffda     ................
  411390:	ffd5 ffd5 ffd5 ffd5 ffd7 ffd7 ffd5 ffd5     ................
  4113a0:	ffd6 ffd6 ffd4 ffd4 ffd6 ffd6 ffda ffda     ................
  4113b0:	ffdf ffdf ffe1 ffe1 ffe2 ffe2 ffe1 ffe1     ................
  4113c0:	ffdd ffdd ffd9 ffd9 ffdf ffdf ffe7 ffe7     ................
  4113d0:	ffef ffef fff6 fff6 fffa fffa ffff ffff     ................
  4113e0:	0003 0003 000c 000c 0012 0012 0015 0015     ................
  4113f0:	0018 0018 001b 001b 001a 001a 0014 0014     ................
  411400:	0012 0012 000f 000f 000f 000f 000e 000e     ................
  411410:	0010 0010 0013 0013 0011 0011 0009 0009     ................
  411420:	0003 0003 0003 0003 0006 0006 0009 0009     ................
  411430:	000c 000c 0010 0010 0009 0009 0006 0006     ................
  411440:	0000 0000 fffc fffc fff9 fff9 fffb fffb     ................
  411450:	0001 0001 0001 0001 fffe fffe fff9 fff9     ................
  411460:	fff8 fff8 fff2 fff2 fff2 fff2 fff0 fff0     ................
  411470:	fff1 fff1 fff0 fff0 ffec ffec ffe7 ffe7     ................
  411480:	ffe3 ffe3 ffe0 ffe0 ffe0 ffe0 ffe6 ffe6     ................
  411490:	ffe9 ffe9 ffeb ffeb ffec ffec ffec ffec     ................
  4114a0:	ffe9 ffe9 ffe2 ffe2 ffde ffde ffe2 ffe2     ................
  4114b0:	ffe5 ffe5 ffeb ffeb fff2 fff2 fff4 fff4     ................
  4114c0:	fff9 fff9 fffa fffa fffc fffc fffd fffd     ................
  4114d0:	fffe fffe fffe fffe 0004 0004 000d 000d     ................
  4114e0:	000f 000f 0014 0014 0010 0010 000e 000e     ................
  4114f0:	0007 0007 0007 0007 0005 0005 0009 0009     ................
  411500:	000c 000c 0011 0011 0014 0014 0013 0013     ................
  411510:	0010 0010 000a 000a 0005 0005 0003 0003     ................
  411520:	0001 0001 ffff ffff fff9 fff9 fff8 fff8     ................
  411530:	fff3 fff3 fff4 fff4 fff2 fff2 fff0 fff0     ................
  411540:	fff3 fff3 fff6 fff6 fff6 fff6 fff6 fff6     ................
  411550:	fff1 fff1 ffee ffee ffef ffef ffed ffed     ................
  411560:	fff1 fff1 fff6 fff6 fff8 fff8 fff6 fff6     ................
  411570:	ffef ffef ffea ffea ffe1 ffe1 ffe0 ffe0     ................
  411580:	ffe4 ffe4 ffeb ffeb fff2 fff2 fffc fffc     ................
  411590:	0003 0003 0006 0006 0004 0004 0001 0001     ................
  4115a0:	fffd fffd ffff ffff 0009 0009 0014 0014     ................
  4115b0:	0014 0014 0017 0017 0011 0011 0006 0006     ................
  4115c0:	fffe fffe fff8 fff8 fff2 fff2 ffed ffed     ................
  4115d0:	fff0 fff0 fff0 fff0 ffeb ffeb ffed ffed     ................
  4115e0:	fff2 fff2 fff4 fff4 fffc fffc 0004 0004     ................
  4115f0:	0006 0006 0003 0003 0002 0002 fffa fffa     ................
  411600:	fff5 fff5 fff5 fff5 fff9 fff9 ffff ffff     ................
  411610:	0007 0007 0006 0006 fffd fffd fff7 fff7     ................
  411620:	ffee ffee ffec ffec fff0 fff0 fff2 fff2     ................
  411630:	fffb fffb 0008 0008 0011 0011 0011 0011     ................
  411640:	000f 000f 000b 000b 0009 0009 0002 0002     ................
  411650:	0004 0004 0003 0003 fff9 fff9 fff8 fff8     ................
  411660:	fff6 fff6 fff9 fff9 fffc fffc 0003 0003     ................
  411670:	0009 0009 0008 0008 0008 0008 0001 0001     ................
  411680:	fff6 fff6 fff0 fff0 ffee ffee fff0 fff0     ................
  411690:	fff5 fff5 fffd fffd fffe fffe 0004 0004     ................
  4116a0:	ffff ffff 0001 0001 fffd fffd ffff ffff     ................
  4116b0:	fffc fffc fffd fffd 0002 0002 fffe fffe     ................
  4116c0:	ffff ffff fffc fffc 0000 0000 fffc fffc     ................
  4116d0:	fffd fffd fff6 fff6 ffee ffee ffe8 ffe8     ................
  4116e0:	ffe1 ffe1 ffe1 ffe1 ffe6 ffe6 ffed ffed     ................
  4116f0:	fff1 fff1 fff6 fff6 fff7 fff7 fff4 fff4     ................
  411700:	ffec ffec ffe7 ffe7 ffe8 ffe8 fff5 fff5     ................
  411710:	0004 0004 0012 0012 001b 001b 001d 001d     ................
  411720:	001b 001b 0010 0010 0008 0008 0003 0003     ................
  411730:	0007 0007 000c 000c 0013 0013 0019 0019     ................
  411740:	0017 0017 0010 0010 000f 000f 0011 0011     ................
  411750:	0010 0010 0014 0014 0010 0010 000b 000b     ................
  411760:	0001 0001 fffc fffc fff6 fff6 fff9 fff9     ................
  411770:	fffe fffe 0008 0008 0014 0014 0012 0012     ................
  411780:	0006 0006 fff1 fff1 ffe5 ffe5 ffdd ffdd     ................
  411790:	ffdd ffdd ffe8 ffe8 fff4 fff4 fffc fffc     ................
  4117a0:	0003 0003 fffe fffe ffee ffee ffe1 ffe1     ................
  4117b0:	ffd9 ffd9 ffdd ffdd ffdd ffdd ffea ffea     ................
  4117c0:	fff0 fff0 fff6 fff6 fff5 fff5 fff6 fff6     ................
  4117d0:	fff7 fff7 fff6 fff6 fff6 fff6 fff5 fff5     ................
  4117e0:	ffed ffed ffe2 ffe2 ffd8 ffd8 ffd2 ffd2     ................
  4117f0:	ffdf ffdf fff2 fff2 0008 0008 001b 001b     ................
  411800:	0022 0022 001f 001f 0014 0014 000a 000a     ".".............
  411810:	fffc fffc fffb fffb 0001 0001 0010 0010     ................
  411820:	001e 001e 0024 0024 0024 0024 001a 001a     ....$.$.$.$.....
  411830:	000c 000c 0001 0001 fff5 fff5 fff1 fff1     ................
  411840:	fff3 fff3 fff6 fff6 fffb fffb 0000 0000     ................
  411850:	0002 0002 0008 0008 0007 0007 000b 000b     ................
  411860:	0008 0008 fffd fffd ffef ffef ffe0 ffe0     ................
  411870:	ffd4 ffd4 ffd2 ffd2 ffd5 ffd5 ffdf ffdf     ................
  411880:	ffea ffea ffef ffef fff0 fff0 ffe9 ffe9     ................
  411890:	ffdc ffdc ffce ffce ffcc ffcc ffcf ffcf     ................
  4118a0:	ffde ffde ffec ffec fffb fffb fffe fffe     ................
  4118b0:	fffd fffd fff4 fff4 ffec ffec ffe6 ffe6     ................
  4118c0:	ffe1 ffe1 ffe7 ffe7 ffe5 ffe5 ffe8 ffe8     ................
  4118d0:	ffe8 ffe8 ffef ffef fff4 fff4 ffff ffff     ................
  4118e0:	0002 0002 0009 0009 000a 000a 0004 0004     ................
  4118f0:	fffd fffd fff7 fff7 fff2 fff2 fff9 fff9     ................
  411900:	0009 0009 001c 001c 002d 002d 0032 0032     ........-.-.2.2.
  411910:	0027 0027 0016 0016 0000 0000 ffef ffef     '.'.............
  411920:	ffe9 ffe9 ffe7 ffe7 fff3 fff3 fff9 fff9     ................
  411930:	0002 0002 0006 0006 0002 0002 0006 0006     ................
  411940:	0001 0001 fffb fffb fff2 fff2 ffe4 ffe4     ................
  411950:	ffd6 ffd6 ffd0 ffd0 ffd4 ffd4 ffd7 ffd7     ................
  411960:	ffe0 ffe0 ffec ffec fff4 fff4 fff2 fff2     ................
  411970:	ffe8 ffe8 ffda ffda ffcb ffcb ffc7 ffc7     ................
  411980:	ffce ffce ffde ffde fff2 fff2 0009 0009     ................
  411990:	0019 0019 001b 001b 001d 001d 0015 0015     ................
  4119a0:	000d 000d 0006 0006 0005 0005 0000 0000     ................
  4119b0:	fffc fffc fffd fffd fff9 fff9 fffb fffb     ................
  4119c0:	fffe fffe 0006 0006 0009 0009 000d 000d     ................
  4119d0:	000b 000b 000b 000b ffff ffff ffff ffff     ................
  4119e0:	fffd fffd 0000 0000 000d 000d 0019 0019     ................
  4119f0:	001a 001a 0018 0018 0010 0010 fffd fffd     ................
  411a00:	ffef ffef ffe3 ffe3 ffde ffde ffe2 ffe2     ................
  411a10:	ffea ffea ffef ffef fff7 fff7 fff9 fff9     ................
  411a20:	fffb fffb fffc fffc 0001 0001 0008 0008     ................
  411a30:	000e 000e 000d 000d 000f 000f 000f 000f     ................
  411a40:	0009 0009 0008 0008 0006 0006 0007 0007     ................
  411a50:	0005 0005 0007 0007 0003 0003 fff6 fff6     ................
  411a60:	fff5 fff5 fff1 fff1 fff5 fff5 ffff ffff     ................
  411a70:	000d 000d 0016 0016 001f 001f 0020 0020     ............ . .
  411a80:	001d 001d 0017 0017 000f 000f 000b 000b     ................
  411a90:	0006 0006 0000 0000 fffc fffc fff1 fff1     ................
  411aa0:	ffee ffee ffe9 ffe9 ffe7 ffe7 ffec ffec     ................
  411ab0:	fff0 fff0 fff9 fff9 ffff ffff 0004 0004     ................
  411ac0:	0003 0003 0006 0006 000b 000b 000d 000d     ................
  411ad0:	0010 0010 0012 0012 0011 0011 0009 0009     ................
  411ae0:	ffff ffff fff8 fff8 fff9 fff9 fffa fffa     ................
  411af0:	ffff ffff 0003 0003 000c 000c 000a 000a     ................
  411b00:	0010 0010 000b 000b 000a 000a 000e 000e     ................
  411b10:	000a 000a 0012 0012 0016 0016 0016 0016     ................
  411b20:	001a 001a 001a 001a 0014 0014 0011 0011     ................
  411b30:	0010 0010 000e 000e 0008 0008 0007 0007     ................
  411b40:	0001 0001 0000 0000 0000 0000 0000 0000     ................
  411b50:	0006 0006 0009 0009 0008 0008 0009 0009     ................
  411b60:	000a 000a 000a 000a 000a 000a 0008 0008     ................
  411b70:	0004 0004 0009 0009 0007 0007 000b 000b     ................
  411b80:	0007 0007 0002 0002 fff9 fff9 fff1 fff1     ................
  411b90:	ffe6 ffe6 ffe3 ffe3 ffe8 ffe8 ffef ffef     ................
  411ba0:	fffb fffb 0000 0000 0001 0001 0001 0001     ................
  411bb0:	fffd fffd fffa fffa fff6 fff6 fffb fffb     ................
  411bc0:	ffff ffff 0005 0005 0005 0005 0007 0007     ................
  411bd0:	0002 0002 0002 0002 0002 0002 0000 0000     ................
  411be0:	0000 0000 fffe fffe fffa fffa fff6 fff6     ................
  411bf0:	fff1 fff1 fff5 fff5 fffd fffd 000a 000a     ................
  411c00:	001d 001d 0024 0024 0022 0022 001b 001b     ....$.$.".".....
  411c10:	000e 000e 0002 0002 ffff ffff ffff ffff     ................
  411c20:	0006 0006 000f 000f 0011 0011 0012 0012     ................
  411c30:	000d 000d 0004 0004 ffff ffff fffb fffb     ................
  411c40:	fffc fffc fffd fffd ffff ffff fffd fffd     ................
  411c50:	fff6 fff6 fff4 fff4 fff3 fff3 fffa fffa     ................
  411c60:	0005 0005 000f 000f 0013 0013 0013 0013     ................
  411c70:	0008 0008 fffc fffc fff3 fff3 ffee ffee     ................
  411c80:	fff0 fff0 fffa fffa fffd fffd fffd fffd     ................
  411c90:	fffa fffa fff6 fff6 fff2 fff2 fff1 fff1     ................
  411ca0:	fff5 fff5 fffb fffb 0001 0001 0005 0005     ................
  411cb0:	0001 0001 0000 0000 fffa fffa fffb fffb     ................
  411cc0:	0002 0002 0007 0007 000f 000f 000f 000f     ................
  411cd0:	0005 0005 fff7 fff7 ffe7 ffe7 ffe4 ffe4     ................
  411ce0:	ffe5 ffe5 ffed ffed fffa fffa 0004 0004     ................
  411cf0:	000d 000d 0011 0011 0011 0011 000b 000b     ................
  411d00:	000a 000a 000d 000d 000e 000e 000c 000c     ................
  411d10:	000d 000d 0007 0007 fffd fffd fff3 fff3     ................
  411d20:	fff2 fff2 fff5 fff5 fffa fffa fffe fffe     ................
  411d30:	ffff ffff fffa fffa fff4 fff4 fff3 fff3     ................
  411d40:	fff6 fff6 0000 0000 000e 000e 001b 001b     ................
  411d50:	0024 0024 001e 001e 0017 0017 0004 0004     $.$.............
  411d60:	fffb fffb ffed ffed ffe5 ffe5 ffe1 ffe1     ................
  411d70:	ffd9 ffd9 ffd9 ffd9 ffd7 ffd7 ffd8 ffd8     ................
  411d80:	ffd8 ffd8 ffe2 ffe2 ffee ffee fff5 fff5     ................
  411d90:	fffd fffd fffe fffe fff6 fff6 fff4 fff4     ................
  411da0:	fff2 fff2 fff4 fff4 fffa fffa 0002 0002     ................
  411db0:	0001 0001 fffa fffa fff2 fff2 ffed ffed     ................
  411dc0:	ffe6 ffe6 ffe5 ffe5 ffeb ffeb fff5 fff5     ................
  411dd0:	fffe fffe 0005 0005 0008 0008 0005 0005     ................
	...
  411de8:	ffff ffff 0002 0002 0003 0003 0005 0005     ................
  411df8:	0005 0005 fffc fffc fff7 fff7 ffef ffef     ................
  411e08:	fff1 fff1 fff4 fff4 fff1 fff1 ffef ffef     ................
  411e18:	ffed ffed ffee ffee ffe7 ffe7 ffe8 ffe8     ................
  411e28:	ffe4 ffe4 ffea ffea fff3 fff3 fffb fffb     ................
  411e38:	fffe fffe fffe fffe fff6 fff6 ffed ffed     ................
  411e48:	ffe7 ffe7 ffe2 ffe2 ffe5 ffe5 ffe4 ffe4     ................
  411e58:	ffeb ffeb ffee ffee fff3 fff3 fff6 fff6     ................
  411e68:	fff6 fff6 fff8 fff8 fff7 fff7 fffd fffd     ................
  411e78:	fffc fffc 0001 0001 0000 0000 ffff ffff     ................
  411e88:	0004 0004 0007 0007 000a 000a 000b 000b     ................
  411e98:	000b 000b 0007 0007 ffff ffff fffb fffb     ................
  411ea8:	fff6 fff6 fff5 fff5 ffff ffff 000c 000c     ................
  411eb8:	0017 0017 0023 0023 0027 0027 0029 0029     ....#.#.'.'.).).
  411ec8:	0023 0023 0019 0019 0015 0015 0008 0008     #.#.............
  411ed8:	0000 0000 fff9 fff9 fff3 fff3 ffee ffee     ................
  411ee8:	ffea ffea ffe9 ffe9 ffe3 ffe3 ffe4 ffe4     ................
  411ef8:	ffe2 ffe2 ffe4 ffe4 ffe9 ffe9 fff3 fff3     ................
  411f08:	fff9 fff9 0002 0002 0006 0006 000a 000a     ................
  411f18:	000b 000b 0008 0008 0009 0009 0001 0001     ................
  411f28:	0000 0000 fff9 fff9 fff7 fff7 fff0 fff0     ................
  411f38:	fff5 fff5 fff8 fff8 fffb fffb 0004 0004     ................
  411f48:	000b 000b 000c 000c 0011 0011 000e 000e     ................
  411f58:	0011 0011 0019 0019 0020 0020 002f 002f     ........ . ././.
  411f68:	0032 0032 0035 0035 002d 002d 0021 0021     2.2.5.5.-.-.!.!.
  411f78:	000e 000e 0002 0002 fff7 fff7 0001 0001     ................
  411f88:	0009 0009 0016 0016 0020 0020 0022 0022     ........ . .".".
  411f98:	0020 0020 0021 0021 001e 001e 0020 0020      . .!.!..... . .
  411fa8:	0021 0021 0026 0026 001d 001d 001a 001a     !.!.&.&.........
  411fb8:	0013 0013 000c 000c 000b 000b 000a 000a     ................
  411fc8:	0011 0011 000c 000c 0006 0006 fffc fffc     ................
  411fd8:	ffef ffef ffe9 ffe9 ffe6 ffe6 fff1 fff1     ................
  411fe8:	0004 0004 0016 0016 0021 0021 0020 0020     ........!.!. . .
  411ff8:	0019 0019 000e 000e 0003 0003 fffd fffd     ................
  412008:	fff9 fff9 fffb fffb 0003 0003 0003 0003     ................
  412018:	0002 0002 0003 0003 0002 0002 ffff ffff     ................
  412028:	fffa fffa ffff ffff ffff ffff 0003 0003     ................
  412038:	0001 0001 fffd fffd 0001 0001 000a 000a     ................
  412048:	0017 0017 0022 0022 0029 0029 0028 0028     ....".".).).(.(.
  412058:	001f 001f 0010 0010 0000 0000 fff9 fff9     ................
  412068:	fff5 fff5 fffc fffc 0007 0007 000f 000f     ................
  412078:	0012 0012 000d 000d 000b 000b 0008 0008     ................
  412088:	0007 0007 000e 000e 0014 0014 001b 001b     ................
  412098:	001b 001b 001a 001a 0014 0014 0013 0013     ................
  4120a8:	0013 0013 0015 0015 0012 0012 000e 000e     ................
  4120b8:	0004 0004 fff1 fff1 ffe1 ffe1 ffd9 ffd9     ................
  4120c8:	ffdd ffdd ffe7 ffe7 fffd fffd 000e 000e     ................
  4120d8:	0012 0012 000d 000d 0006 0006 fffb fffb     ................
  4120e8:	fff1 fff1 ffef ffef fff6 fff6 fffc fffc     ................
  4120f8:	0000 0000 ffff ffff fffc fffc fff7 fff7     ................
  412108:	ffef ffef ffeb ffeb ffe9 ffe9 fff0 fff0     ................
  412118:	fff5 fff5 fff9 fff9 fffb fffb 0004 0004     ................
  412128:	000c 000c 0018 0018 0024 0024 0029 0029     ........$.$.).).
  412138:	0027 0027 001d 001d 000c 000c 0002 0002     '.'.............
  412148:	fffa fffa fffb fffb ffff ffff 0008 0008     ................
  412158:	0010 0010 000c 000c 0000 0000 fff8 fff8     ................
  412168:	fff0 fff0 ffe7 ffe7 ffe7 ffe7 ffeb ffeb     ................
  412178:	fff0 fff0 fff5 fff5 fff7 fff7 fff8 fff8     ................
  412188:	fff8 fff8 fff6 fff6 fff6 fff6 fff4 fff4     ................
  412198:	fff2 fff2 fff0 fff0 ffeb ffeb ffe8 ffe8     ................
  4121a8:	ffed ffed fff9 fff9 0006 0006 0011 0011     ................
  4121b8:	001e 001e 0020 0020 0018 0018 000f 000f     .... . .........
  4121c8:	0007 0007 0005 0005 0004 0004 000a 000a     ................
  4121d8:	0010 0010 0015 0015 0019 0019 0019 0019     ................
  4121e8:	0016 0016 0013 0013 0017 0017 0015 0015     ................
  4121f8:	001b 001b 001a 001a 001c 001c 0019 0019     ................
  412208:	0014 0014 0015 0015 0014 0014 0017 0017     ................
  412218:	0015 0015 0014 0014 000b 000b 0002 0002     ................
  412228:	fff7 fff7 fff3 fff3 fff3 fff3 fff3 fff3     ................
  412238:	fff3 fff3 fff0 fff0 fff0 fff0 ffee ffee     ................
  412248:	fff3 fff3 fff0 fff0 fff3 fff3 fff6 fff6     ................
  412258:	fff5 fff5 fff8 fff8 fff8 fff8 fffa fffa     ................
  412268:	fff4 fff4 fff4 fff4 fff5 fff5 fff9 fff9     ................
  412278:	fffa fffa 0001 0001 0003 0003 0005 0005     ................
  412288:	0004 0004 ffff ffff 0004 0004 000a 000a     ................
  412298:	452d 092d 4d57 3938 3430 6920 696e 6974     -E-.WM8904 initi
  4122a8:	6c61 7a69 7461 6f69 206e 6166 6c69 6465     alization failed
  4122b8:	0d2e 0000 4d57 3938 3430 6e20 746f 6620     ....WM8904 not f
  4122c8:	756f 646e 0a21 000d                         ound!...

004122d0 <hanning>:
  4122d0:	c26b 361d c253 371d 7a70 37b1 c1f2 381d     k..6S..7pz.7...8
  4122e0:	7e98 3876 797a 38b1 8f61 38f1 c06d 391d     .~v8zy.8a..8m..9
  4122f0:	a6db 3947 7ae2 3976 1e32 3995 75a1 39b1     ..G9.zv92..9.u.9
  412300:	43ad 39d0 8841 39f1 a1a5 3a0a ba59 3a1d     .C.9A..9...:Y..:
  412310:	0e31 3a32 9d20 3a47 6719 3a5e 6c0d 3a76     1.2: .G:.g^:.lv:
  412320:	d5f7 3a87 1357 3a95 ee1d 3aa2 6641 3ab1     ...:W..:...:Af.:
  412330:	7bba 3ac0 2e7f 3ad0 7e86 3ae0 6bc5 3af1     .{.:...:.~.:.k.:
  412340:	7b19 3b01 8ee1 3b0a f134 3b13 a20e 3b1d     .{.;...;4..;...;
  412350:	a168 3b27 ef3b 3b31 8b82 3b3c 7637 3b47     h.';;.1;..<;7vG;
  412360:	af51 3b52 36cb 3b5e 0c9d 3b6a 30c0 3b76     Q.R;.6^;..j;.0v;
  412370:	5196 3b81 b1ee 3b87 3962 3b8e e7ef 3b94     .Q.;...;b9.;...;
  412380:	bd91 3b9b ba44 3ba2 de03 3ba9 28c9 3bb1     ...;D..;...;.(.;
  412390:	9a94 3bb8 335d 3bc0 f320 3bc7 d9d9 3bcf     ...;]3.; ..;...;
  4123a0:	e782 3bd7 1c17 3be0 7792 3be8 f9ef 3bf0     ...;...;.w.;...;
  4123b0:	a328 3bf9 399c 3c01 b50c 3c05 43e2 3c0a     (..;.9.<...<.C.<
  4123c0:	e61c 3c0e 9bb5 3c13 64ac 3c18 40fe 3c1d     ...<...<.d.<.@.<
  4123d0:	30a6 3c22 33a4 3c27 49f2 3c2c 738f 3c31     .0"<.3'<.I,<.s1<
  4123e0:	b076 3c36 00a5 3c3c 6419 3c41 dace 3c46     v.6<..<<.dA<..F<
  4123f0:	64c0 3c4c 01ed 3c52 b251 3c57 75e8 3c5d     .dL<..R<Q.W<.u]<
  412400:	4caf 3c63 36a2 3c69 33be 3c6f 43fe 3c75     .Lc<.6i<.3o<.Cu<
  412410:	6760 3c7b cef0 3c80 f3bc 3c83 2213 3c87     `g{<...<...<.".<
  412420:	59f3 3c8a 9b5a 3c8d e646 3c90 3ab5 3c94     .Y.<Z..<F..<.:.<
  412430:	98a5 3c97 0013 3c9b 70fe 3c9e eb63 3ca1     ...<...<.p.<c..<
  412440:	6f41 3ca5 fc95 3ca8 935d 3cac 3397 3cb0     Ao.<...<]..<.3.<
  412450:	dd40 3cb3 9057 3cb7 4cd8 3cbb 12c3 3cbf     @..<W..<.L.<...<
  412460:	e214 3cc2 bac8 3cc6 9cdf 3cca 8855 3cce     ...<...<...<U..<
  412470:	7d28 3cd2 7b55 3cd6 82da 3cda 93b5 3cde     (}.<U{.<...<...<
  412480:	ade2 3ce2 d160 3ce6 fe2c 3cea 3444 3cef     ...<`..<,..<D4.<
  412490:	73a4 3cf3 bc4a 3cf7 0e34 3cfc 34af 3d00     .s.<J..<4..<.4.=
  4124a0:	66e3 3d02 9db5 3d04 d924 3d06 192d 3d09     .f.=...=$..=-..=
  4124b0:	5dd0 3d0b a70b 3d0d f4dd 3d0f 4745 3d12     .].=...=...=EG.=
  4124c0:	9e40 3d14 f9cd 3d16 59ec 3d19 be9b 3d1b     @..=...=.Y.=...=
  4124d0:	27d7 3d1e 95a0 3d20 07f4 3d23 7ed2 3d25     .'.=.. =..#=.~%=
  4124e0:	fa38 3d27 7a24 3d2a fe96 3d2c 878b 3d2f     8.'=$z*=..,=../=
  4124f0:	1501 3d32 a6f8 3d34 3d6e 3d37 d861 3d39     ..2=..4=n=7=a.9=
  412500:	77d0 3d3c 1bb9 3d3f c419 3d41 70f1 3d44     .w<=..?=..A=.pD=
  412510:	223d 3d47 d7fd 3d49 922f 3d4c 50d0 3d4f     ="G=..I=/.L=.PO=
  412520:	13e0 3d52 db5d 3d54 a744 3d57 7795 3d5a     ..R=].T=D.W=.wZ=
  412530:	4c4d 3d5d 256b 3d60 02ec 3d63 e4d0 3d65     ML]=k%`=..c=..e=
  412540:	cb14 3d68 b5b7 3d6b a4b7 3d6e 9812 3d71     ..h=..k=..n=..q=
  412550:	8fc6 3d74 8bd1 3d77 8c32 3d7a 90e6 3d7d     ..t=..w=2.z=..}=
  412560:	4cf6 3d80 d3a1 3d81 5c73 3d83 e76c 3d84     .L.=...=s\.=l..=
  412570:	7489 3d86 03cb 3d88 952f 3d89 28b6 3d8b     .t.=...=/..=.(.=
  412580:	be5f 3d8c 5627 3d8e f00f 3d8f 8c16 3d91     _..='V.=...=...=
  412590:	2a39 3d93 ca79 3d94 6cd4 3d96 114a 3d98     9*.=y..=.l.=J..=
  4125a0:	b7d9 3d99 6080 3d9b 0b3f 3d9d b814 3d9e     ...=.`.=?..=...=
  4125b0:	66fe 3da0 17fc 3da2 cb0d 3da3 8031 3da5     .f.=...=...=1..=
  4125c0:	3765 3da7 f0aa 3da8 abfd 3daa 695f 3dac     e7.=...=...=_i.=
  4125d0:	28cd 3dae ea47 3daf adcb 3db1 7359 3db3     .(.=G..=...=Ys.=
  4125e0:	3af0 3db5 048d 3db7 d032 3db8 9ddb 3dba     .:.=...=2..=...=
  4125f0:	6d88 3dbc 3f38 3dbe 12ea 3dc0 e89d 3dc1     .m.=8?.=...=...=
  412600:	c04f 3dc3 9a00 3dc5 75ad 3dc7 5357 3dc9     O..=...=.u.=WS.=
  412610:	32fc 3dcb 149b 3dcd f832 3dce ddc1 3dd0     .2.=...=2..=...=
  412620:	c547 3dd2 aec1 3dd4 9a2f 3dd6 8791 3dd8     G..=...=/..=...=
  412630:	76e3 3dda 6826 3ddc 5b59 3dde 5079 3de0     .v.=&h.=Y[.=yP.=
  412640:	4786 3de2 407f 3de4 3b62 3de6 382f 3de8     .G.=.@.=b;.=/8.=
  412650:	36e3 3dea 377e 3dec 39fe 3dee 3e63 3df0     .6.=~7.=.9.=c>.=
  412660:	44ac 3df2 4cd4 3df4 56de 3df6 62c7 3df8     .D.=.L.=.V.=.b.=
  412670:	708e 3dfa 8032 3dfc 91b1 3dfe 5285 3e00     .p.=2..=...=.R.>
  412680:	5d1e 3e01 68a3 3e02 7513 3e03 826e 3e04     .].>.h.>.u.>n..>
  412690:	90b2 3e05 9fe0 3e06 aff6 3e07 c0f4 3e08     ...>...>...>...>
  4126a0:	d2da 3e09 e5a6 3e0a f958 3e0b 0def 3e0d     ...>...>X..>...>
  4126b0:	236a 3e0e 39ca 3e0f 510d 3e10 6932 3e11     j#.>.9.>.Q.>2i.>
  4126c0:	823a 3e12 9c22 3e13 b6ec 3e14 d295 3e15     :..>"..>...>...>
  4126d0:	ef1d 3e16 0c84 3e18 2ac8 3e19 49ea 3e1a     ...>...>.*.>.I.>
  4126e0:	69e8 3e1b 8ac2 3e1c ac77 3e1d cf06 3e1e     .i.>...>w..>...>
  4126f0:	f26f 3e1f 16b1 3e21 3bcb 3e22 61bd 3e23     o..>..!>.;">.a#>
  412700:	8886 3e24 b024 3e25 d898 3e26 01e1 3e28     ..$>$.%>..&>..(>
  412710:	2bfe 3e29 56ee 3e2a 82b0 3e2b af45 3e2c     .+)>.V*>..+>E.,>
  412720:	dcaa 3e2d 0ae0 3e2f 39e6 3e30 69ba 3e31     ..->../>.90>.i1>
  412730:	9a5d 3e32 cbcd 3e33 fe0a 3e34 3112 3e36     ].2>..3>..4>.16>
  412740:	64e7 3e37 9985 3e38 ceed 3e39 051f 3e3b     .d7>..8>..9>..;>
  412750:	3c18 3e3c 73d9 3e3d ac61 3e3e e5af 3e3f     .<<>.s=>a.>>..?>
  412760:	1fc2 3e41 5a9a 3e42 9635 3e43 d294 3e44     ..A>.ZB>5.C>..D>
  412770:	0fb4 3e46 4d96 3e47 8c39 3e48 cb9c 3e49     ..F>.MG>9.H>..I>
  412780:	0bbe 3e4b 4c9e 3e4c 8e3c 3e4d d097 3e4e     ..K>.LL><.M>..N>
  412790:	13ad 3e50 5780 3e51 9c0c 3e52 e153 3e53     ..P>.WQ>..R>S.S>
  4127a0:	2752 3e55 6e09 3e56 b578 3e57 fd9e 3e58     R'U>.nV>x.W>..X>
  4127b0:	4679 3e5a 9009 3e5b da4d 3e5c 2545 3e5e     yFZ>..[>M.\>E%^>
  4127c0:	70f0 3e5f bd4c 3e60 0a59 3e62 5817 3e63     .p_>L.`>Y.b>.Xc>
  4127d0:	a684 3e64 f59f 3e65 4569 3e67 95df 3e68     ..d>..e>iEg>..h>
  4127e0:	e702 3e69 38d0 3e6b 8b48 3e6c de6b 3e6d     ..i>.8k>H.l>k.m>
  4127f0:	3236 3e6f 86a9 3e70 dbc4 3e71 3185 3e73     62o>..p>..q>.1s>
  412800:	87eb 3e74 def7 3e75 36a7 3e77 8ef9 3e78     ..t>..u>.6w>..x>
  412810:	e7ee 3e79 4185 3e7b 9bbc 3e7c f693 3e7d     ..y>.A{>..|>..}>
  412820:	520a 3e7f 570f 3e80 0568 3e81 b40f 3e81     .R.>.W.>h..>...>
  412830:	6304 3e82 1246 3e83 c1d5 3e83 71b1 3e84     .c.>F..>...>.q.>
  412840:	21d9 3e85 d24d 3e85 830c 3e86 3416 3e87     .!.>M..>...>.4.>
  412850:	e56a 3e87 9709 3e88 48f1 3e89 fb22 3e89     j..>...>.H.>"..>
  412860:	ad9b 3e8a 605e 3e8b 1368 3e8c c6b9 3e8c     ...>^`.>h..>...>
  412870:	7a51 3e8d 2e30 3e8e e256 3e8e 96c0 3e8f     Qz.>0..>V..>...>
  412880:	4b70 3e90 0065 3e91 b59f 3e91 6b1c 3e92     pK.>e..>...>.k.>
  412890:	20dd 3e93 d6e1 3e93 8d28 3e94 43b0 3e95     . .>...>(..>.C.>
  4128a0:	fa7b 3e95 b187 3e96 68d4 3e97 2061 3e98     {..>...>.h.>a .>
  4128b0:	d82e 3e98 903b 3e99 4887 3e9a 0112 3e9b     ...>;..>.H.>...>
  4128c0:	b9db 3e9b 72e1 3e9c 2c26 3e9d e5a6 3e9d     ...>.r.>&,.>...>
  4128d0:	9f64 3e9e 595d 3e9f 1392 3ea0 ce02 3ea0     d..>]Y.>...>...>
  4128e0:	88ad 3ea1 4392 3ea2 feb1 3ea2 ba09 3ea3     ...>.C.>...>...>
  4128f0:	759a 3ea4 3163 3ea5 ed64 3ea5 a99d 3ea6     .u.>c1.>d..>...>
  412900:	660d 3ea7 22b3 3ea8 df90 3ea8 9ca2 3ea9     .f.>.".>...>...>
  412910:	59ea 3eaa 1766 3eab d517 3eab 92fb 3eac     .Y.>f..>...>...>
  412920:	5113 3ead 0f5e 3eae cddb 3eae 8c8b 3eaf     .Q.>^..>...>...>
  412930:	4b6c 3eb0 0a7e 3eb1 c9c1 3eb1 8934 3eb2     lK.>~..>...>4..>
  412940:	48d6 3eb3 08a8 3eb4 c8a9 3eb4 88d8 3eb5     .H.>...>...>...>
  412950:	4935 3eb6 09c0 3eb7 ca77 3eb7 8b5b 3eb8     5I.>...>w..>[..>
  412960:	4c6b 3eb9 0da6 3eba cf0d 3eba 909e 3ebb     kL.>...>...>...>
  412970:	525a 3ebc 143f 3ebd d64d 3ebd 9884 3ebe     ZR.>?..>M..>...>
  412980:	5ae4 3ebf 1d6b 3ec0 e01a 3ec0 a2ef 3ec1     .Z.>k..>...>...>
  412990:	65eb 3ec2 290d 3ec3 ec54 3ec3 afc1 3ec4     .e.>.).>T..>...>
  4129a0:	7352 3ec5 3707 3ec6 fae0 3ec6 bedc 3ec7     Rs.>.7.>...>...>
  4129b0:	82fa 3ec8 473b 3ec9 0b9d 3eca d021 3eca     ...>;G.>...>!..>
  4129c0:	94c5 3ecb 598a 3ecc 1e6f 3ecd e373 3ecd     ...>.Y.>o..>s..>
  4129d0:	a895 3ece 6dd7 3ecf 3336 3ed0 f8b2 3ed0     ...>.m.>63.>...>
  4129e0:	be4c 3ed1 8402 3ed2 49d4 3ed3 0fc2 3ed4     L..>...>.I.>...>
  4129f0:	d5cb 3ed4 9bee 3ed5 622b 3ed6 2883 3ed7     ...>...>+b.>.(.>
  412a00:	eef3 3ed7 b57c 3ed8 7c1d 3ed9 42d6 3eda     ...>|..>.|.>.B.>
  412a10:	09a6 3edb d08d 3edb 978a 3edc 5e9e 3edd     ...>...>...>.^.>
  412a20:	25c6 3ede ed03 3ede b455 3edf 7bba 3ee0     .%.>...>U..>.{.>
  412a30:	4333 3ee1 0abf 3ee2 d25e 3ee2 9a0e 3ee3     3C.>...>^..>...>
  412a40:	61d0 3ee4 29a3 3ee5 f186 3ee5 b97a 3ee6     .a.>.).>...>z..>
  412a50:	817d 3ee7 498f 3ee8 11b0 3ee9 d9df 3ee9     }..>.I.>...>...>
  412a60:	a21b 3eea 6a65 3eeb 32bc 3eec fb1e 3eec     ...>ej.>.2.>...>
  412a70:	c38d 3eed 8c06 3eee 548a 3eef 1d19 3ef0     ...>...>.T.>...>
  412a80:	e5b1 3ef0 ae53 3ef1 76fe 3ef2 3fb1 3ef3     ...>S..>.v.>.?.>
  412a90:	086b 3ef4 d12d 3ef4 99f6 3ef5 62c6 3ef6     k..>-..>...>.b.>
  412aa0:	2b9b 3ef7 f476 3ef7 bd56 3ef8 863a 3ef9     .+.>v..>V..>:..>
  412ab0:	4f22 3efa 180e 3efb e0fc 3efb a9ee 3efc     "O.>...>...>...>
  412ac0:	72e1 3efd 3bd6 3efe 04cc 3eff cdc2 3eff     .r.>.;.>...>...>
  412ad0:	4b5d 3f00 afd8 3f00 1452 3f01 78cc 3f01     ]K.?...?R..?.x.?
  412ae0:	dd46 3f01 41be 3f02 a634 3f02 0aa9 3f03     F..?.A.?4..?...?
  412af0:	6f1c 3f03 d38d 3f03 37fc 3f04 9c68 3f04     .o.?...?.7.?h..?
  412b00:	00d1 3f05 6538 3f05 c99a 3f05 2dfa 3f06     ...?8e.?...?.-.?
  412b10:	9255 3f06 f6ac 3f06 5aff 3f07 bf4e 3f07     U..?...?.Z.?N..?
  412b20:	2398 3f08 87dd 3f08 ec1c 3f08 5056 3f09     .#.?...?...?VP.?
  412b30:	b48a 3f09 18b9 3f0a 7ce1 3f0a e102 3f0a     ...?...?.|.?...?
  412b40:	451d 3f0b a931 3f0b 0d3e 3f0c 7143 3f0c     .E.?1..?>..?Cq.?
  412b50:	d541 3f0c 3937 3f0d 9d24 3f0d 010a 3f0e     A..?79.?$..?...?
  412b60:	64e6 3f0e c8ba 3f0e 2c84 3f0f 9046 3f0f     .d.?...?.,.?F..?
  412b70:	f3fd 3f0f 57ab 3f10 bb4f 3f10 1ee8 3f11     ...?.W.?O..?...?
  412b80:	8277 3f11 e5fb 3f11 4975 3f12 ace2 3f12     w..?...?uI.?...?
  412b90:	1045 3f13 739b 3f13 d6e6 3f13 3a24 3f14     E..?.s.?...?$:.?
  412ba0:	9d56 3f14 007b 3f15 6394 3f15 c69f 3f15     V..?{..?.c.?...?
  412bb0:	299c 3f16 8c8c 3f16 ef6e 3f16 5242 3f17     .).?...?n..?BR.?
  412bc0:	b508 3f17 17bf 3f18 7a67 3f18 dd00 3f18     ...?...?gz.?...?
  412bd0:	3f8a 3f19 a204 3f19 046e 3f1a 66c9 3f1a     .?.?...?n..?.f.?
  412be0:	c913 3f1a 2b4c 3f1b 8d75 3f1b ef8d 3f1b     ...?L+.?u..?...?
  412bf0:	5193 3f1c b389 3f1c 156c 3f1d 773e 3f1d     .Q.?...?l..?>w.?
  412c00:	d8fd 3f1d 3aaa 3f1e 9c44 3f1e fdcc 3f1e     ...?.:.?D..?...?
  412c10:	5f40 3f1f c0a1 3f1f 21ef 3f20 8329 3f20     @_.?...?.! ?). ?
  412c20:	e44e 3f20 4560 3f21 a65d 3f21 0745 3f22     N. ?`E!?].!?E."?
  412c30:	6818 3f22 c8d6 3f22 297e 3f23 8a11 3f23     .h"?.."?~)#?..#?
  412c40:	ea8e 3f23 4af5 3f24 ab46 3f24 0b80 3f25     ..#?.J$?F.$?..%?
  412c50:	6ba3 3f25 cbaf 3f25 2ba3 3f26 8b81 3f26     .k%?..%?.+&?..&?
  412c60:	eb46 3f26 4af3 3f27 aa89 3f27 0a05 3f28     F.&?.J'?..'?..(?
  412c70:	696a 3f28 c8b5 3f28 27e7 3f29 8700 3f29     ji(?..(?.')?..)?
  412c80:	e5ff 3f29 44e4 3f2a a3af 3f2a 0260 3f2b     ..)?.D*?..*?`.+?
  412c90:	60f7 3f2b bf72 3f2b 1dd3 3f2c 7c19 3f2c     .`+?r.+?..,?.|,?
  412ca0:	da43 3f2c 3852 3f2d 9644 3f2d f41b 3f2d     C.,?R8-?D.-?..-?
  412cb0:	51d5 3f2e af73 3f2e 0cf4 3f2f 6a58 3f2f     .Q.?s..?../?Xj/?
  412cc0:	c79f 3f2f 24c8 3f30 81d3 3f30 dec1 3f30     ../?.$0?..0?..0?
  412cd0:	3b91 3f31 9842 3f31 f4d5 3f31 5149 3f32     .;1?B.1?..1?IQ2?
  412ce0:	ad9e 3f32 09d3 3f33 65ea 3f33 c1e0 3f33     ..2?..3?.e3?..3?
  412cf0:	1db7 3f34 796d 3f34 d504 3f34 3079 3f35     ..4?my4?..4?y05?
  412d00:	8bce 3f35 e702 3f35 4215 3f36 9d06 3f36     ..5?..5?.B6?..6?
  412d10:	f7d5 3f36 5283 3f37 ad0f 3f37 0778 3f38     ..6?.R7?..7?x.8?
  412d20:	61bf 3f38 bbe3 3f38 15e4 3f39 6fc2 3f39     .a8?..8?..9?.o9?
  412d30:	c97c 3f39 2313 3f3a 7c86 3f3a d5d5 3f3a     |.9?.#:?.|:?..:?
  412d40:	2f00 3f3b 8806 3f3b e0e8 3f3b 39a5 3f3c     ./;?..;?..;?.9<?
  412d50:	923c 3f3c eaae 3f3c 42fb 3f3d 9b22 3f3d     <.<?..<?.B=?".=?
  412d60:	f323 3f3d 4afe 3f3e a2b2 3f3e fa40 3f3e     #.=?.J>?..>?@.>?
  412d70:	51a7 3f3f a8e7 3f3f 0000 3f40 56f1 3f40     .Q??..??..@?.V@?
  412d80:	adbb 3f40 045d 3f41 5ad7 3f41 b128 3f41     ..@?].A?.ZA?(.A?
  412d90:	0751 3f42 5d51 3f42 b329 3f42 08d7 3f43     Q.B?Q]B?).B?..C?
  412da0:	5e5c 3f43 b3b8 3f43 08e9 3f44 5df1 3f44     \^C?..C?..D?.]D?
  412db0:	b2cf 3f44 0782 3f45 5c0b 3f45 b069 3f45     ..D?..E?.\E?i.E?
  412dc0:	049c 3f46 58a4 3f46 ac81 3f46 0032 3f47     ..F?.XF?..F?2.G?
  412dd0:	53b7 3f47 a711 3f47 fa3e 3f47 4d3f 3f48     .SG?..G?>.G??MH?
  412de0:	a013 3f48 f2bb 3f48 4535 3f49 9783 3f49     ..H?..H?5EI?..I?
  412df0:	e9a3 3f49 3b96 3f4a 8d5a 3f4a def1 3f4a     ..I?.;J?Z.J?..J?
  412e00:	305a 3f4b 8194 3f4b d2a0 3f4b 237d 3f4c     Z0K?..K?..K?}#L?
  412e10:	742c 3f4c c4ab 3f4c 14fa 3f4d 651b 3f4d     ,tL?..L?..M?.eM?
  412e20:	b50b 3f4d 04cc 3f4e 545d 3f4e a3bd 3f4e     ..M?..N?]TN?..N?
  412e30:	f2ed 3f4e 41ec 3f4f 90bb 3f4f df58 3f4f     ..N?.AO?..O?X.O?
  412e40:	2dc4 3f50 7bff 3f50 ca08 3f50 17df 3f51     .-P?.{P?..P?..Q?
  412e50:	6585 3f51 b2f8 3f51 0039 3f52 4d47 3f52     .eQ?..Q?9.R?GMR?
  412e60:	9a23 3f52 e6cc 3f52 3341 3f53 7f84 3f53     #.R?..R?A3S?..S?
  412e70:	cb92 3f53 176e 3f54 6315 3f54 ae89 3f54     ..S?n.T?.cT?..T?
  412e80:	f9c8 3f54 44d3 3f55 8fa9 3f55 da4b 3f55     ..T?.DU?..U?K.U?
  412e90:	24b7 3f56 6eef 3f56 b8f1 3f56 02be 3f57     .$V?.nV?..V?..W?
  412ea0:	4c56 3f57 95b7 3f57 dee3 3f57 27d8 3f58     VLW?..W?..W?.'X?
  412eb0:	7097 3f58 b920 3f58 0172 3f59 498d 3f59     .pX? .X?r.Y?.IY?
  412ec0:	9171 3f59 d91d 3f59 2093 3f5a 67d1 3f5a     q.Y?..Y?. Z?.gZ?
  412ed0:	aed7 3f5a f5a5 3f5a 3c3b 3f5b 829a 3f5b     ..Z?..Z?;<[?..[?
  412ee0:	c8bf 3f5b 0eac 3f5c 5461 3f5c 99dc 3f5c     ..[?..\?aT\?..\?
  412ef0:	df1e 3f5c 2428 3f5d 68f7 3f5d ad8d 3f5d     ..\?($]?.h]?..]?
  412f00:	f1ea 3f5d 360c 3f5e 79f5 3f5e bda3 3f5e     ..]?.6^?.y^?..^?
  412f10:	0117 3f5f 4451 3f5f 874f 3f5f ca13 3f5f     .._?QD_?O._?.._?
  412f20:	0c9c 3f60 4ee9 3f60 90fb 3f60 d2d2 3f60     ..`?.N`?..`?..`?
  412f30:	146d 3f61 55cc 3f61 96f0 3f61 d7d7 3f61     m.a?.Ua?..a?..a?
  412f40:	1881 3f62 58f0 3f62 9922 3f62 d917 3f62     ..b?.Xb?".b?..b?
  412f50:	18cf 3f63 584a 3f63 9787 3f63 d688 3f63     ..c?JXc?..c?..c?
  412f60:	154b 3f64 53d0 3f64 9217 3f64 d021 3f64     K.d?.Sd?..d?!.d?
  412f70:	0dec 3f65 4b79 3f65 88c7 3f65 c5d7 3f65     ..e?yKe?..e?..e?
  412f80:	02a9 3f66 3f3b 3f66 7b8e 3f66 b7a3 3f66     ..f?;?f?.{f?..f?
  412f90:	f378 3f66 2f0d 3f67 6a63 3f67 a579 3f67     x.f?./g?cjg?y.g?
  412fa0:	e050 3f67 1ae6 3f68 553c 3f68 8f52 3f68     P.g?..h?<Uh?R.h?
  412fb0:	c927 3f68 02bc 3f69 3c10 3f69 7524 3f69     '.h?..i?.<i?$ui?
  412fc0:	adf6 3f69 e687 3f69 1ed7 3f6a 56e5 3f6a     ..i?..i?..j?.Vj?
  412fd0:	8eb2 3f6a c63e 3f6a fd87 3f6a 348f 3f6b     ..j?>.j?..j?.4k?
  412fe0:	6b54 3f6b a1d8 3f6b d819 3f6b 0e17 3f6c     Tkk?..k?..k?..l?
  412ff0:	43d3 3f6c 794c 3f6c ae83 3f6c e376 3f6c     .Cl?Lyl?..l?v.l?
  413000:	1826 3f6d 4c94 3f6d 80bd 3f6d b4a4 3f6d     &.m?.Lm?..m?..m?
  413010:	e846 3f6d 1ba5 3f6e 4ec0 3f6e 8197 3f6e     F.m?..n?.Nn?..n?
  413020:	b42a 3f6e e679 3f6e 1883 3f6f 4a49 3f6f     *.n?y.n?..o?IJo?
  413030:	7bcb 3f6f ad07 3f6f ddff 3f6f 0eb2 3f70     .{o?..o?..o?..p?
  413040:	3f20 3f70 6f49 3f70 9f2c 3f70 ceca 3f70      ?p?Iop?,.p?..p?
  413050:	fe22 3f70 2d35 3f71 5c02 3f71 8a8a 3f71     ".p?5-q?.\q?..q?
  413060:	b8cb 3f71 e6c6 3f71 147b 3f72 41ea 3f72     ..q?..q?{.r?.Ar?
  413070:	6f12 3f72 9bf4 3f72 c88f 3f72 f4e3 3f72     .or?..r?..r?..r?
  413080:	20f1 3f73 4cb8 3f73 7837 3f73 a36f 3f73     . s?.Ls?7xs?o.s?
  413090:	ce61 3f73 f90a 3f73 236d 3f74 4d87 3f74     a.s?..s?m#t?.Mt?
  4130a0:	775a 3f74 a0e6 3f74 ca29 3f74 f325 3f74     Zwt?..t?).t?%.t?
  4130b0:	1bd8 3f75 4443 3f75 6c66 3f75 9441 3f75     ..u?CDu?flu?A.u?
  4130c0:	bbd3 3f75 e31c 3f75 0a1d 3f76 30d6 3f76     ..u?..u?..v?.0v?
  4130d0:	5745 3f76 7d6b 3f76 a349 3f76 c8dd 3f76     EWv?k}v?I.v?..v?
  4130e0:	ee28 3f76 132a 3f77 37e2 3f77 5c51 3f77     (.v?*.w?.7w?Q\w?
  4130f0:	8077 3f77 a452 3f77 c7e4 3f77 eb2d 3f77     w.w?R.w?..w?-.w?
  413100:	0e2b 3f78 30df 3f78 534a 3f78 756a 3f78     +.x?.0x?JSx?jux?
  413110:	9740 3f78 b8cb 3f78 da0c 3f78 fb03 3f78     @.x?..x?..x?..x?
  413120:	1baf 3f79 3c11 3f79 5c27 3f79 7bf3 3f79     ..y?.<y?'\y?.{y?
  413130:	9b75 3f79 baab 3f79 d996 3f79 f836 3f79     u.y?..y?..y?6.y?
  413140:	168b 3f7a 3495 3f7a 5253 3f7a 6fc6 3f7a     ..z?.4z?SRz?.oz?
  413150:	8cee 3f7a a9ca 3f7a c65a 3f7a e29f 3f7a     ..z?..z?Z.z?..z?
  413160:	fe98 3f7a 1a45 3f7b 35a7 3f7b 50bc 3f7b     ..z?E.{?.5{?.P{?
  413170:	6b86 3f7b 8603 3f7b a034 3f7b ba19 3f7b     .k{?..{?4.{?..{?
  413180:	d3b2 3f7b ecff 3f7b 05ff 3f7c 1eb3 3f7c     ..{?..{?..|?..|?
  413190:	371a 3f7c 4f35 3f7c 6703 3f7c 7e84 3f7c     .7|?5O|?.g|?.~|?
  4131a0:	95b9 3f7c aca1 3f7c c33c 3f7c d98b 3f7c     ..|?..|?<.|?..|?
  4131b0:	ef8c 3f7c 0540 3f7d 1aa7 3f7d 2fc2 3f7d     ..|?@.}?..}?./}?
  4131c0:	448f 3f7d 590e 3f7d 6d41 3f7d 8126 3f7d     .D}?.Y}?Am}?&.}?
  4131d0:	94be 3f7d a809 3f7d bb06 3f7d cdb6 3f7d     ..}?..}?..}?..}?
  4131e0:	e018 3f7d f22c 3f7d 03f3 3f7e 156d 3f7e     ..}?,.}?..~?m.~?
  4131f0:	2698 3f7e 3776 3f7e 4806 3f7e 5848 3f7e     .&~?v7~?.H~?HX~?
  413200:	683d 3f7e 77e3 3f7e 873c 3f7e 9646 3f7e     =h~?.w~?<.~?F.~?
  413210:	a503 3f7e b371 3f7e c192 3f7e cf64 3f7e     ..~?q.~?..~?d.~?
  413220:	dce8 3f7e ea1e 3f7e f706 3f7e 03a0 3f7f     ..~?..~?..~?...?
  413230:	0feb 3f7f 1be8 3f7f 2797 3f7f 32f7 3f7f     ...?...?.'.?.2.?
  413240:	3e09 3f7f 48cc 3f7f 5341 3f7f 5d68 3f7f     .>.?.H.?AS.?h].?
  413250:	6740 3f7f 70ca 3f7f 7a05 3f7f 82f1 3f7f     @g.?.p.?.z.?...?
  413260:	8b8f 3f7f 93df 3f7f 9bdf 3f7f a391 3f7f     ...?...?...?...?
  413270:	aaf5 3f7f b209 3f7f b8d0 3f7f bf47 3f7f     ...?...?...?G..?
  413280:	c56f 3f7f cb49 3f7f d0d4 3f7f d611 3f7f     o..?I..?...?...?
  413290:	dafe 3f7f df9d 3f7f e3ed 3f7f e7ee 3f7f     ...?...?...?...?
  4132a0:	eba1 3f7f ef04 3f7f f219 3f7f f4df 3f7f     ...?...?...?...?
  4132b0:	f756 3f7f f97e 3f7f fb57 3f7f fce1 3f7f     V..?~..?W..?...?
  4132c0:	fe1d 3f7f ff0a 3f7f ffa7 3f7f fff6 3f7f     ...?...?...?...?
  4132d0:	fff6 3f7f ffa7 3f7f ff0a 3f7f fe1d 3f7f     ...?...?...?...?
  4132e0:	fce1 3f7f fb57 3f7f f97e 3f7f f756 3f7f     ...?W..?~..?V..?
  4132f0:	f4df 3f7f f219 3f7f ef04 3f7f eba1 3f7f     ...?...?...?...?
  413300:	e7ee 3f7f e3ed 3f7f df9d 3f7f dafe 3f7f     ...?...?...?...?
  413310:	d611 3f7f d0d4 3f7f cb49 3f7f c56f 3f7f     ...?...?I..?o..?
  413320:	bf47 3f7f b8d0 3f7f b209 3f7f aaf5 3f7f     G..?...?...?...?
  413330:	a391 3f7f 9bdf 3f7f 93df 3f7f 8b8f 3f7f     ...?...?...?...?
  413340:	82f1 3f7f 7a05 3f7f 70ca 3f7f 6740 3f7f     ...?.z.?.p.?@g.?
  413350:	5d68 3f7f 5341 3f7f 48cc 3f7f 3e09 3f7f     h].?AS.?.H.?.>.?
  413360:	32f7 3f7f 2797 3f7f 1be8 3f7f 0feb 3f7f     .2.?.'.?...?...?
  413370:	03a0 3f7f f706 3f7e ea1e 3f7e dce8 3f7e     ...?..~?..~?..~?
  413380:	cf64 3f7e c192 3f7e b371 3f7e a503 3f7e     d.~?..~?q.~?..~?
  413390:	9646 3f7e 873c 3f7e 77e3 3f7e 683d 3f7e     F.~?<.~?.w~?=h~?
  4133a0:	5848 3f7e 4806 3f7e 3776 3f7e 2698 3f7e     HX~?.H~?v7~?.&~?
  4133b0:	156d 3f7e 03f3 3f7e f22c 3f7d e018 3f7d     m.~?..~?,.}?..}?
  4133c0:	cdb6 3f7d bb06 3f7d a809 3f7d 94be 3f7d     ..}?..}?..}?..}?
  4133d0:	8126 3f7d 6d41 3f7d 590e 3f7d 448f 3f7d     &.}?Am}?.Y}?.D}?
  4133e0:	2fc2 3f7d 1aa7 3f7d 0540 3f7d ef8c 3f7c     ./}?..}?@.}?..|?
  4133f0:	d98b 3f7c c33c 3f7c aca1 3f7c 95b9 3f7c     ..|?<.|?..|?..|?
  413400:	7e84 3f7c 6703 3f7c 4f35 3f7c 371a 3f7c     .~|?.g|?5O|?.7|?
  413410:	1eb3 3f7c 05ff 3f7c ecff 3f7b d3b2 3f7b     ..|?..|?..{?..{?
  413420:	ba19 3f7b a034 3f7b 8603 3f7b 6b86 3f7b     ..{?4.{?..{?.k{?
  413430:	50bc 3f7b 35a7 3f7b 1a45 3f7b fe98 3f7a     .P{?.5{?E.{?..z?
  413440:	e29f 3f7a c65a 3f7a a9ca 3f7a 8cee 3f7a     ..z?Z.z?..z?..z?
  413450:	6fc6 3f7a 5253 3f7a 3495 3f7a 168b 3f7a     .oz?SRz?.4z?..z?
  413460:	f836 3f79 d996 3f79 baab 3f79 9b75 3f79     6.y?..y?..y?u.y?
  413470:	7bf3 3f79 5c27 3f79 3c11 3f79 1baf 3f79     .{y?'\y?.<y?..y?
  413480:	fb03 3f78 da0c 3f78 b8cb 3f78 9740 3f78     ..x?..x?..x?@.x?
  413490:	756a 3f78 534a 3f78 30df 3f78 0e2b 3f78     jux?JSx?.0x?+.x?
  4134a0:	eb2d 3f77 c7e4 3f77 a452 3f77 8077 3f77     -.w?..w?R.w?w.w?
  4134b0:	5c51 3f77 37e2 3f77 132a 3f77 ee28 3f76     Q\w?.7w?*.w?(.v?
  4134c0:	c8dd 3f76 a349 3f76 7d6b 3f76 5745 3f76     ..v?I.v?k}v?EWv?
  4134d0:	30d6 3f76 0a1d 3f76 e31c 3f75 bbd3 3f75     .0v?..v?..u?..u?
  4134e0:	9441 3f75 6c66 3f75 4443 3f75 1bd8 3f75     A.u?flu?CDu?..u?
  4134f0:	f325 3f74 ca29 3f74 a0e6 3f74 775a 3f74     %.t?).t?..t?Zwt?
  413500:	4d87 3f74 236d 3f74 f90a 3f73 ce61 3f73     .Mt?m#t?..s?a.s?
  413510:	a36f 3f73 7837 3f73 4cb8 3f73 20f1 3f73     o.s?7xs?.Ls?. s?
  413520:	f4e3 3f72 c88f 3f72 9bf4 3f72 6f12 3f72     ..r?..r?..r?.or?
  413530:	41ea 3f72 147b 3f72 e6c6 3f71 b8cb 3f71     .Ar?{.r?..q?..q?
  413540:	8a8a 3f71 5c02 3f71 2d35 3f71 fe22 3f70     ..q?.\q?5-q?".p?
  413550:	ceca 3f70 9f2c 3f70 6f49 3f70 3f20 3f70     ..p?,.p?Iop? ?p?
  413560:	0eb2 3f70 ddff 3f6f ad07 3f6f 7bcb 3f6f     ..p?..o?..o?.{o?
  413570:	4a49 3f6f 1883 3f6f e679 3f6e b42a 3f6e     IJo?..o?y.n?*.n?
  413580:	8197 3f6e 4ec0 3f6e 1ba5 3f6e e846 3f6d     ..n?.Nn?..n?F.m?
  413590:	b4a4 3f6d 80bd 3f6d 4c94 3f6d 1826 3f6d     ..m?..m?.Lm?&.m?
  4135a0:	e376 3f6c ae83 3f6c 794c 3f6c 43d3 3f6c     v.l?..l?Lyl?.Cl?
  4135b0:	0e17 3f6c d819 3f6b a1d8 3f6b 6b54 3f6b     ..l?..k?..k?Tkk?
  4135c0:	348f 3f6b fd87 3f6a c63e 3f6a 8eb2 3f6a     .4k?..j?>.j?..j?
  4135d0:	56e5 3f6a 1ed7 3f6a e687 3f69 adf6 3f69     .Vj?..j?..i?..i?
  4135e0:	7524 3f69 3c10 3f69 02bc 3f69 c927 3f68     $ui?.<i?..i?'.h?
  4135f0:	8f52 3f68 553c 3f68 1ae6 3f68 e050 3f67     R.h?<Uh?..h?P.g?
  413600:	a579 3f67 6a63 3f67 2f0d 3f67 f378 3f66     y.g?cjg?./g?x.f?
  413610:	b7a3 3f66 7b8e 3f66 3f3b 3f66 02a9 3f66     ..f?.{f?;?f?..f?
  413620:	c5d7 3f65 88c7 3f65 4b79 3f65 0dec 3f65     ..e?..e?yKe?..e?
  413630:	d021 3f64 9217 3f64 53d0 3f64 154b 3f64     !.d?..d?.Sd?K.d?
  413640:	d688 3f63 9787 3f63 584a 3f63 18cf 3f63     ..c?..c?JXc?..c?
  413650:	d917 3f62 9922 3f62 58f0 3f62 1881 3f62     ..b?".b?.Xb?..b?
  413660:	d7d7 3f61 96f0 3f61 55cc 3f61 146d 3f61     ..a?..a?.Ua?m.a?
  413670:	d2d2 3f60 90fb 3f60 4ee9 3f60 0c9c 3f60     ..`?..`?.N`?..`?
  413680:	ca13 3f5f 874f 3f5f 4451 3f5f 0117 3f5f     .._?O._?QD_?.._?
  413690:	bda3 3f5e 79f5 3f5e 360c 3f5e f1ea 3f5d     ..^?.y^?.6^?..]?
  4136a0:	ad8d 3f5d 68f7 3f5d 2428 3f5d df1e 3f5c     ..]?.h]?($]?..\?
  4136b0:	99dc 3f5c 5461 3f5c 0eac 3f5c c8bf 3f5b     ..\?aT\?..\?..[?
  4136c0:	829a 3f5b 3c3b 3f5b f5a5 3f5a aed7 3f5a     ..[?;<[?..Z?..Z?
  4136d0:	67d1 3f5a 2093 3f5a d91d 3f59 9171 3f59     .gZ?. Z?..Y?q.Y?
  4136e0:	498d 3f59 0172 3f59 b920 3f58 7097 3f58     .IY?r.Y? .X?.pX?
  4136f0:	27d8 3f58 dee3 3f57 95b7 3f57 4c56 3f57     .'X?..W?..W?VLW?
  413700:	02be 3f57 b8f1 3f56 6eef 3f56 24b7 3f56     ..W?..V?.nV?.$V?
  413710:	da4b 3f55 8fa9 3f55 44d3 3f55 f9c8 3f54     K.U?..U?.DU?..T?
  413720:	ae89 3f54 6315 3f54 176e 3f54 cb92 3f53     ..T?.cT?n.T?..S?
  413730:	7f84 3f53 3341 3f53 e6cc 3f52 9a23 3f52     ..S?A3S?..R?#.R?
  413740:	4d47 3f52 0039 3f52 b2f8 3f51 6585 3f51     GMR?9.R?..Q?.eQ?
  413750:	17df 3f51 ca08 3f50 7bff 3f50 2dc4 3f50     ..Q?..P?.{P?.-P?
  413760:	df58 3f4f 90bb 3f4f 41ec 3f4f f2ed 3f4e     X.O?..O?.AO?..N?
  413770:	a3bd 3f4e 545d 3f4e 04cc 3f4e b50b 3f4d     ..N?]TN?..N?..M?
  413780:	651b 3f4d 14fa 3f4d c4ab 3f4c 742c 3f4c     .eM?..M?..L?,tL?
  413790:	237d 3f4c d2a0 3f4b 8194 3f4b 305a 3f4b     }#L?..K?..K?Z0K?
  4137a0:	def1 3f4a 8d5a 3f4a 3b96 3f4a e9a3 3f49     ..J?Z.J?.;J?..I?
  4137b0:	9783 3f49 4535 3f49 f2bb 3f48 a013 3f48     ..I?5EI?..H?..H?
  4137c0:	4d3f 3f48 fa3e 3f47 a711 3f47 53b7 3f47     ?MH?>.G?..G?.SG?
  4137d0:	0032 3f47 ac81 3f46 58a4 3f46 049c 3f46     2.G?..F?.XF?..F?
  4137e0:	b069 3f45 5c0b 3f45 0782 3f45 b2cf 3f44     i.E?.\E?..E?..D?
  4137f0:	5df1 3f44 08e9 3f44 b3b8 3f43 5e5c 3f43     .]D?..D?..C?\^C?
  413800:	08d7 3f43 b329 3f42 5d51 3f42 0751 3f42     ..C?).B?Q]B?Q.B?
  413810:	b128 3f41 5ad7 3f41 045d 3f41 adbb 3f40     (.A?.ZA?].A?..@?
  413820:	56f1 3f40 0000 3f40 a8e7 3f3f 51a7 3f3f     .V@?..@?..??.Q??
  413830:	fa40 3f3e a2b2 3f3e 4afe 3f3e f323 3f3d     @.>?..>?.J>?#.=?
  413840:	9b22 3f3d 42fb 3f3d eaae 3f3c 923c 3f3c     ".=?.B=?..<?<.<?
  413850:	39a5 3f3c e0e8 3f3b 8806 3f3b 2f00 3f3b     .9<?..;?..;?./;?
  413860:	d5d5 3f3a 7c86 3f3a 2313 3f3a c97c 3f39     ..:?.|:?.#:?|.9?
  413870:	6fc2 3f39 15e4 3f39 bbe3 3f38 61bf 3f38     .o9?..9?..8?.a8?
  413880:	0778 3f38 ad0f 3f37 5283 3f37 f7d5 3f36     x.8?..7?.R7?..6?
  413890:	9d06 3f36 4215 3f36 e702 3f35 8bce 3f35     ..6?.B6?..5?..5?
  4138a0:	3079 3f35 d504 3f34 796d 3f34 1db7 3f34     y05?..4?my4?..4?
  4138b0:	c1e0 3f33 65ea 3f33 09d3 3f33 ad9e 3f32     ..3?.e3?..3?..2?
  4138c0:	5149 3f32 f4d5 3f31 9842 3f31 3b91 3f31     IQ2?..1?B.1?.;1?
  4138d0:	dec1 3f30 81d3 3f30 24c8 3f30 c79f 3f2f     ..0?..0?.$0?../?
  4138e0:	6a58 3f2f 0cf4 3f2f af73 3f2e 51d5 3f2e     Xj/?../?s..?.Q.?
  4138f0:	f41b 3f2d 9644 3f2d 3852 3f2d da43 3f2c     ..-?D.-?R8-?C.,?
  413900:	7c19 3f2c 1dd3 3f2c bf72 3f2b 60f7 3f2b     .|,?..,?r.+?.`+?
  413910:	0260 3f2b a3af 3f2a 44e4 3f2a e5ff 3f29     `.+?..*?.D*?..)?
  413920:	8700 3f29 27e7 3f29 c8b5 3f28 696a 3f28     ..)?.')?..(?ji(?
  413930:	0a05 3f28 aa89 3f27 4af3 3f27 eb46 3f26     ..(?..'?.J'?F.&?
  413940:	8b81 3f26 2ba3 3f26 cbaf 3f25 6ba3 3f25     ..&?.+&?..%?.k%?
  413950:	0b80 3f25 ab46 3f24 4af5 3f24 ea8e 3f23     ..%?F.$?.J$?..#?
  413960:	8a11 3f23 297e 3f23 c8d6 3f22 6818 3f22     ..#?~)#?.."?.h"?
  413970:	0745 3f22 a65d 3f21 4560 3f21 e44e 3f20     E."?].!?`E!?N. ?
  413980:	8329 3f20 21ef 3f20 c0a1 3f1f 5f40 3f1f     ). ?.! ?...?@_.?
  413990:	fdcc 3f1e 9c44 3f1e 3aaa 3f1e d8fd 3f1d     ...?D..?.:.?...?
  4139a0:	773e 3f1d 156c 3f1d b389 3f1c 5193 3f1c     >w.?l..?...?.Q.?
  4139b0:	ef8d 3f1b 8d75 3f1b 2b4c 3f1b c913 3f1a     ...?u..?L+.?...?
  4139c0:	66c9 3f1a 046e 3f1a a204 3f19 3f8a 3f19     .f.?n..?...?.?.?
  4139d0:	dd00 3f18 7a67 3f18 17bf 3f18 b508 3f17     ...?gz.?...?...?
  4139e0:	5242 3f17 ef6e 3f16 8c8c 3f16 299c 3f16     BR.?n..?...?.).?
  4139f0:	c69f 3f15 6394 3f15 007b 3f15 9d56 3f14     ...?.c.?{..?V..?
  413a00:	3a24 3f14 d6e6 3f13 739b 3f13 1045 3f13     $:.?...?.s.?E..?
  413a10:	ace2 3f12 4975 3f12 e5fb 3f11 8277 3f11     ...?uI.?...?w..?
  413a20:	1ee8 3f11 bb4f 3f10 57ab 3f10 f3fd 3f0f     ...?O..?.W.?...?
  413a30:	9046 3f0f 2c84 3f0f c8ba 3f0e 64e6 3f0e     F..?.,.?...?.d.?
  413a40:	010a 3f0e 9d24 3f0d 3937 3f0d d541 3f0c     ...?$..?79.?A..?
  413a50:	7143 3f0c 0d3e 3f0c a931 3f0b 451d 3f0b     Cq.?>..?1..?.E.?
  413a60:	e102 3f0a 7ce1 3f0a 18b9 3f0a b48a 3f09     ...?.|.?...?...?
  413a70:	5056 3f09 ec1c 3f08 87dd 3f08 2398 3f08     VP.?...?...?.#.?
  413a80:	bf4e 3f07 5aff 3f07 f6ac 3f06 9255 3f06     N..?.Z.?...?U..?
  413a90:	2dfa 3f06 c99a 3f05 6538 3f05 00d1 3f05     .-.?...?8e.?...?
  413aa0:	9c68 3f04 37fc 3f04 d38d 3f03 6f1c 3f03     h..?.7.?...?.o.?
  413ab0:	0aa9 3f03 a634 3f02 41be 3f02 dd46 3f01     ...?4..?.A.?F..?
  413ac0:	78cc 3f01 1452 3f01 afd8 3f00 4b5d 3f00     .x.?R..?...?]K.?
  413ad0:	cdc2 3eff 04cc 3eff 3bd6 3efe 72e1 3efd     ...>...>.;.>.r.>
  413ae0:	a9ee 3efc e0fc 3efb 180e 3efb 4f22 3efa     ...>...>...>"O.>
  413af0:	863a 3ef9 bd56 3ef8 f476 3ef7 2b9b 3ef7     :..>V..>v..>.+.>
  413b00:	62c6 3ef6 99f6 3ef5 d12d 3ef4 086b 3ef4     .b.>...>-..>k..>
  413b10:	3fb1 3ef3 76fe 3ef2 ae53 3ef1 e5b1 3ef0     .?.>.v.>S..>...>
  413b20:	1d19 3ef0 548a 3eef 8c06 3eee c38d 3eed     ...>.T.>...>...>
  413b30:	fb1e 3eec 32bc 3eec 6a65 3eeb a21b 3eea     ...>.2.>ej.>...>
  413b40:	d9df 3ee9 11b0 3ee9 498f 3ee8 817d 3ee7     ...>...>.I.>}..>
  413b50:	b97a 3ee6 f186 3ee5 29a3 3ee5 61d0 3ee4     z..>...>.).>.a.>
  413b60:	9a0e 3ee3 d25e 3ee2 0abf 3ee2 4333 3ee1     ...>^..>...>3C.>
  413b70:	7bba 3ee0 b455 3edf ed03 3ede 25c6 3ede     .{.>U..>...>.%.>
  413b80:	5e9e 3edd 978a 3edc d08d 3edb 09a6 3edb     .^.>...>...>...>
  413b90:	42d6 3eda 7c1d 3ed9 b57c 3ed8 eef3 3ed7     .B.>.|.>|..>...>
  413ba0:	2883 3ed7 622b 3ed6 9bee 3ed5 d5cb 3ed4     .(.>+b.>...>...>
  413bb0:	0fc2 3ed4 49d4 3ed3 8402 3ed2 be4c 3ed1     ...>.I.>...>L..>
  413bc0:	f8b2 3ed0 3336 3ed0 6dd7 3ecf a895 3ece     ...>63.>.m.>...>
  413bd0:	e373 3ecd 1e6f 3ecd 598a 3ecc 94c5 3ecb     s..>o..>.Y.>...>
  413be0:	d021 3eca 0b9d 3eca 473b 3ec9 82fa 3ec8     !..>...>;G.>...>
  413bf0:	bedc 3ec7 fae0 3ec6 3707 3ec6 7352 3ec5     ...>...>.7.>Rs.>
  413c00:	afc1 3ec4 ec54 3ec3 290d 3ec3 65eb 3ec2     ...>T..>.).>.e.>
  413c10:	a2ef 3ec1 e01a 3ec0 1d6b 3ec0 5ae4 3ebf     ...>...>k..>.Z.>
  413c20:	9884 3ebe d64d 3ebd 143f 3ebd 525a 3ebc     ...>M..>?..>ZR.>
  413c30:	909e 3ebb cf0d 3eba 0da6 3eba 4c6b 3eb9     ...>...>...>kL.>
  413c40:	8b5b 3eb8 ca77 3eb7 09c0 3eb7 4935 3eb6     [..>w..>...>5I.>
  413c50:	88d8 3eb5 c8a9 3eb4 08a8 3eb4 48d6 3eb3     ...>...>...>.H.>
  413c60:	8934 3eb2 c9c1 3eb1 0a7e 3eb1 4b6c 3eb0     4..>...>~..>lK.>
  413c70:	8c8b 3eaf cddb 3eae 0f5e 3eae 5113 3ead     ...>...>^..>.Q.>
  413c80:	92fb 3eac d517 3eab 1766 3eab 59ea 3eaa     ...>...>f..>.Y.>
  413c90:	9ca2 3ea9 df90 3ea8 22b3 3ea8 660d 3ea7     ...>...>.".>.f.>
  413ca0:	a99d 3ea6 ed64 3ea5 3163 3ea5 759a 3ea4     ...>d..>c1.>.u.>
  413cb0:	ba09 3ea3 feb1 3ea2 4392 3ea2 88ad 3ea1     ...>...>.C.>...>
  413cc0:	ce02 3ea0 1392 3ea0 595d 3e9f 9f64 3e9e     ...>...>]Y.>d..>
  413cd0:	e5a6 3e9d 2c26 3e9d 72e1 3e9c b9db 3e9b     ...>&,.>.r.>...>
  413ce0:	0112 3e9b 4887 3e9a 903b 3e99 d82e 3e98     ...>.H.>;..>...>
  413cf0:	2061 3e98 68d4 3e97 b187 3e96 fa7b 3e95     a .>.h.>...>{..>
  413d00:	43b0 3e95 8d28 3e94 d6e1 3e93 20dd 3e93     .C.>(..>...>. .>
  413d10:	6b1c 3e92 b59f 3e91 0065 3e91 4b70 3e90     .k.>...>e..>pK.>
  413d20:	96c0 3e8f e256 3e8e 2e30 3e8e 7a51 3e8d     ...>V..>0..>Qz.>
  413d30:	c6b9 3e8c 1368 3e8c 605e 3e8b ad9b 3e8a     ...>h..>^`.>...>
  413d40:	fb22 3e89 48f1 3e89 9709 3e88 e56a 3e87     "..>.H.>...>j..>
  413d50:	3416 3e87 830c 3e86 d24d 3e85 21d9 3e85     .4.>...>M..>.!.>
  413d60:	71b1 3e84 c1d5 3e83 1246 3e83 6304 3e82     .q.>...>F..>.c.>
  413d70:	b40f 3e81 0568 3e81 570f 3e80 520a 3e7f     ...>h..>.W.>.R.>
  413d80:	f693 3e7d 9bbc 3e7c 4185 3e7b e7ee 3e79     ..}>..|>.A{>..y>
  413d90:	8ef9 3e78 36a7 3e77 def7 3e75 87eb 3e74     ..x>.6w>..u>..t>
  413da0:	3185 3e73 dbc4 3e71 86a9 3e70 3236 3e6f     .1s>..q>..p>62o>
  413db0:	de6b 3e6d 8b48 3e6c 38d0 3e6b e702 3e69     k.m>H.l>.8k>..i>
  413dc0:	95df 3e68 4569 3e67 f59f 3e65 a684 3e64     ..h>iEg>..e>..d>
  413dd0:	5817 3e63 0a59 3e62 bd4c 3e60 70f0 3e5f     .Xc>Y.b>L.`>.p_>
  413de0:	2545 3e5e da4d 3e5c 9009 3e5b 4679 3e5a     E%^>M.\>..[>yFZ>
  413df0:	fd9e 3e58 b578 3e57 6e09 3e56 2752 3e55     ..X>x.W>.nV>R'U>
  413e00:	e153 3e53 9c0c 3e52 5780 3e51 13ad 3e50     S.S>..R>.WQ>..P>
  413e10:	d097 3e4e 8e3c 3e4d 4c9e 3e4c 0bbe 3e4b     ..N><.M>.LL>..K>
  413e20:	cb9c 3e49 8c39 3e48 4d96 3e47 0fb4 3e46     ..I>9.H>.MG>..F>
  413e30:	d294 3e44 9635 3e43 5a9a 3e42 1fc2 3e41     ..D>5.C>.ZB>..A>
  413e40:	e5af 3e3f ac61 3e3e 73d9 3e3d 3c18 3e3c     ..?>a.>>.s=>.<<>
  413e50:	051f 3e3b ceed 3e39 9985 3e38 64e7 3e37     ..;>..9>..8>.d7>
  413e60:	3112 3e36 fe0a 3e34 cbcd 3e33 9a5d 3e32     .16>..4>..3>].2>
  413e70:	69ba 3e31 39e6 3e30 0ae0 3e2f dcaa 3e2d     .i1>.90>../>..->
  413e80:	af45 3e2c 82b0 3e2b 56ee 3e2a 2bfe 3e29     E.,>..+>.V*>.+)>
  413e90:	01e1 3e28 d898 3e26 b024 3e25 8886 3e24     ..(>..&>$.%>..$>
  413ea0:	61bd 3e23 3bcb 3e22 16b1 3e21 f26f 3e1f     .a#>.;">..!>o..>
  413eb0:	cf06 3e1e ac77 3e1d 8ac2 3e1c 69e8 3e1b     ...>w..>...>.i.>
  413ec0:	49ea 3e1a 2ac8 3e19 0c84 3e18 ef1d 3e16     .I.>.*.>...>...>
  413ed0:	d295 3e15 b6ec 3e14 9c22 3e13 823a 3e12     ...>...>"..>:..>
  413ee0:	6932 3e11 510d 3e10 39ca 3e0f 236a 3e0e     2i.>.Q.>.9.>j#.>
  413ef0:	0def 3e0d f958 3e0b e5a6 3e0a d2da 3e09     ...>X..>...>...>
  413f00:	c0f4 3e08 aff6 3e07 9fe0 3e06 90b2 3e05     ...>...>...>...>
  413f10:	826e 3e04 7513 3e03 68a3 3e02 5d1e 3e01     n..>.u.>.h.>.].>
  413f20:	5285 3e00 91b1 3dfe 8032 3dfc 708e 3dfa     .R.>...=2..=.p.=
  413f30:	62c7 3df8 56de 3df6 4cd4 3df4 44ac 3df2     .b.=.V.=.L.=.D.=
  413f40:	3e63 3df0 39fe 3dee 377e 3dec 36e3 3dea     c>.=.9.=~7.=.6.=
  413f50:	382f 3de8 3b62 3de6 407f 3de4 4786 3de2     /8.=b;.=.@.=.G.=
  413f60:	5079 3de0 5b59 3dde 6826 3ddc 76e3 3dda     yP.=Y[.=&h.=.v.=
  413f70:	8791 3dd8 9a2f 3dd6 aec1 3dd4 c547 3dd2     ...=/..=...=G..=
  413f80:	ddc1 3dd0 f832 3dce 149b 3dcd 32fc 3dcb     ...=2..=...=.2.=
  413f90:	5357 3dc9 75ad 3dc7 9a00 3dc5 c04f 3dc3     WS.=.u.=...=O..=
  413fa0:	e89d 3dc1 12ea 3dc0 3f38 3dbe 6d88 3dbc     ...=...=8?.=.m.=
  413fb0:	9ddb 3dba d032 3db8 048d 3db7 3af0 3db5     ...=2..=...=.:.=
  413fc0:	7359 3db3 adcb 3db1 ea47 3daf 28cd 3dae     Ys.=...=G..=.(.=
  413fd0:	695f 3dac abfd 3daa f0aa 3da8 3765 3da7     _i.=...=...=e7.=
  413fe0:	8031 3da5 cb0d 3da3 17fc 3da2 66fe 3da0     1..=...=...=.f.=
  413ff0:	b814 3d9e 0b3f 3d9d 6080 3d9b b7d9 3d99     ...=?..=.`.=...=
  414000:	114a 3d98 6cd4 3d96 ca79 3d94 2a39 3d93     J..=.l.=y..=9*.=
  414010:	8c16 3d91 f00f 3d8f 5627 3d8e be5f 3d8c     ...=...='V.=_..=
  414020:	28b6 3d8b 952f 3d89 03cb 3d88 7489 3d86     .(.=/..=...=.t.=
  414030:	e76c 3d84 5c73 3d83 d3a1 3d81 4cf6 3d80     l..=s\.=...=.L.=
  414040:	90e6 3d7d 8c32 3d7a 8bd1 3d77 8fc6 3d74     ..}=2.z=..w=..t=
  414050:	9812 3d71 a4b7 3d6e b5b7 3d6b cb14 3d68     ..q=..n=..k=..h=
  414060:	e4d0 3d65 02ec 3d63 256b 3d60 4c4d 3d5d     ..e=..c=k%`=ML]=
  414070:	7795 3d5a a744 3d57 db5d 3d54 13e0 3d52     .wZ=D.W=].T=..R=
  414080:	50d0 3d4f 922f 3d4c d7fd 3d49 223d 3d47     .PO=/.L=..I=="G=
  414090:	70f1 3d44 c419 3d41 1bb9 3d3f 77d0 3d3c     .pD=..A=..?=.w<=
  4140a0:	d861 3d39 3d6e 3d37 a6f8 3d34 1501 3d32     a.9=n=7=..4=..2=
  4140b0:	878b 3d2f fe96 3d2c 7a24 3d2a fa38 3d27     ../=..,=$z*=8.'=
  4140c0:	7ed2 3d25 07f4 3d23 95a0 3d20 27d7 3d1e     .~%=..#=.. =.'.=
  4140d0:	be9b 3d1b 59ec 3d19 f9cd 3d16 9e40 3d14     ...=.Y.=...=@..=
  4140e0:	4745 3d12 f4dd 3d0f a70b 3d0d 5dd0 3d0b     EG.=...=...=.].=
  4140f0:	192d 3d09 d924 3d06 9db5 3d04 66e3 3d02     -..=$..=...=.f.=
  414100:	34af 3d00 0e34 3cfc bc4a 3cf7 73a4 3cf3     .4.=4..<J..<.s.<
  414110:	3444 3cef fe2c 3cea d160 3ce6 ade2 3ce2     D4.<,..<`..<...<
  414120:	93b5 3cde 82da 3cda 7b55 3cd6 7d28 3cd2     ...<...<U{.<(}.<
  414130:	8855 3cce 9cdf 3cca bac8 3cc6 e214 3cc2     U..<...<...<...<
  414140:	12c3 3cbf 4cd8 3cbb 9057 3cb7 dd40 3cb3     ...<.L.<W..<@..<
  414150:	3397 3cb0 935d 3cac fc95 3ca8 6f41 3ca5     .3.<]..<...<Ao.<
  414160:	eb63 3ca1 70fe 3c9e 0013 3c9b 98a5 3c97     c..<.p.<...<...<
  414170:	3ab5 3c94 e646 3c90 9b5a 3c8d 59f3 3c8a     .:.<F..<Z..<.Y.<
  414180:	2213 3c87 f3bc 3c83 cef0 3c80 6760 3c7b     .".<...<...<`g{<
  414190:	43fe 3c75 33be 3c6f 36a2 3c69 4caf 3c63     .Cu<.3o<.6i<.Lc<
  4141a0:	75e8 3c5d b251 3c57 01ed 3c52 64c0 3c4c     .u]<Q.W<..R<.dL<
  4141b0:	dace 3c46 6419 3c41 00a5 3c3c b076 3c36     ..F<.dA<..<<v.6<
  4141c0:	738f 3c31 49f2 3c2c 33a4 3c27 30a6 3c22     .s1<.I,<.3'<.0"<
  4141d0:	40fe 3c1d 64ac 3c18 9bb5 3c13 e61c 3c0e     .@.<.d.<...<...<
  4141e0:	43e2 3c0a b50c 3c05 399c 3c01 a328 3bf9     .C.<...<.9.<(..;
  4141f0:	f9ef 3bf0 7792 3be8 1c17 3be0 e782 3bd7     ...;.w.;...;...;
  414200:	d9d9 3bcf f320 3bc7 335d 3bc0 9a94 3bb8     ...; ..;]3.;...;
  414210:	28c9 3bb1 de03 3ba9 ba44 3ba2 bd91 3b9b     .(.;...;D..;...;
  414220:	e7ef 3b94 3962 3b8e b1ee 3b87 5196 3b81     ...;b9.;...;.Q.;
  414230:	30c0 3b76 0c9d 3b6a 36cb 3b5e af51 3b52     .0v;..j;.6^;Q.R;
  414240:	7637 3b47 8b82 3b3c ef3b 3b31 a168 3b27     7vG;..<;;.1;h.';
  414250:	a20e 3b1d f134 3b13 8ee1 3b0a 7b19 3b01     ...;4..;...;.{.;
  414260:	6bc5 3af1 7e86 3ae0 2e7f 3ad0 7bba 3ac0     .k.:.~.:...:.{.:
  414270:	6641 3ab1 ee1d 3aa2 1357 3a95 d5f7 3a87     Af.:...:W..:...:
  414280:	6c0d 3a76 6719 3a5e 9d20 3a47 0e31 3a32     .lv:.g^: .G:1.2:
  414290:	ba59 3a1d a1a5 3a0a 8841 39f1 43ad 39d0     Y..:...:A..9.C.9
  4142a0:	75a1 39b1 1e32 3995 7ae2 3976 a6db 3947     .u.92..9.zv9..G9
  4142b0:	c06d 391d 8f61 38f1 797a 38b1 7e98 3876     m..9a..8zy.8.~v8
  4142c0:	c1f2 381d 7a70 37b1 c253 371d c26b 361d     ...8pz.7S..7k..6

004142d0 <lp_filter>:
  4142d0:	f27c 3b30 c155 3c28 5a86 3cd3 63f1 3d4c     |.0;U.(<.Z.<.cL=
  4142e0:	0b78 3da4 4dd3 3de2 6595 3e08 ff97 3e10     x..=.M.=.e.>...>
  4142f0:	6595 3e08 4dd3 3de2 0b78 3da4 63f1 3d4c     .e.>.M.=x..=.cL=
  414300:	5a86 3cd3 c155 3c28 f27c 3b30               .Z.<U.(<|.0;

0041430c <midi_note_frequencies>:
  41430c:	d0e5 4102 978d 410a d4fe 4112 9168 411b     ...A...A...Ah..A
  41431c:	d0e5 4124 9ba6 412e fdf4 4138 0000 4144     ..$A...A..8A..DA
  41432c:	a5e3 414f 0000 415c 1687 4169 f1aa 4176     ..OA..\A..iA..vA
  41433c:	d0e5 4182 978d 418a d4fe 4192 8f5c 419b     ...A...A...A\..A
  41434c:	d0e5 41a4 9db2 41ae 0000 41b9 0000 41c4     ...A...A...A...A
  41435c:	a7f0 41cf 0000 41dc 147b 41e9 f1aa 41f6     ...A...A{..A...A
  41436c:	cfdf 4202 978d 420a d4fe 4212 9062 421b     ...B...B...Bb..B
  41437c:	cfdf 4224 9db2 422e fefa 4238 fefa 4243     ..$B...B..8B..CB
  41438c:	a6e9 424f 0000 425c 147b 4269 f0a4 4276     ..OB..\B{.iB..vB
  41439c:	cfdf 4282 978d 428a d4fe 4292 9062 429b     ...B...B...Bb..B
  4143ac:	d062 42a4 9d2f 42ae ff7d 42b8 ff7d 42c3     b..B/..B}..B}..B
  4143bc:	a6e9 42cf 0000 42dc 14fe 42e9 f127 42f6     ...B...B...B'..B
  4143cc:	d021 4302 974c 430a d4fe 4312 9021 431b     !..CL..C...C!..C
  4143dc:	d062 4324 9d2f 432e ff3b 4338 ff7d 4343     b.$C/..C;.8C}.CC
  4143ec:	a6e9 434f 0000 435c 14fe 4369 f127 4376     ..OC..\C..iC'.vC
  4143fc:	d021 4382 976d 438a d51f 4392 9042 439b     !..Cm..C...CB..C
  41440c:	d062 43a4 9d2f 43ae ff3b 43b8 ff5c 43c3     b..C/..C;..C\..C
  41441c:	a70a 43cf 0000 43dc 14fe 43e9 f106 43f6     ...C...C...C...C
  41442c:	d010 4402 975c 440a d51f 4412 9042 441b     ...D\..D...DB..D
  41443c:	d052 4424 9d2f 442e ff4c 4438 ff6d 4443     R.$D/..DL.8Dm.CD
  41444c:	a6fa 444f 0000 445c 14fe 4469 f117 4476     ..OD..\D..iD..vD
  41445c:	d010 4482 9764 448a d517 4492 9042 449b     ...Dd..D...DB..D
  41446c:	d052 44a4 9d37 44ae ff4c 44b8 ff6d 44c3     R..D7..DL..Dm..D
  41447c:	a702 44cf 0000 44dc 14f6 44e9 f10e 44f6     ...D...D...D...D
  41448c:	d014 4502 9760 450a d517 4512 9042 451b     ...E`..E...EB..E
  41449c:	d052 4524 9d37 452e ff48 4538 ff68 4543     R.$E7..EH.8Eh.CE
  4144ac:	a702 454f 0000 455c 14f6 4569 f10e 4576     ..OE..\E..iE..vE
  4144bc:	d012 4582 9760 458a d517 4592 9042 459b     ...E`..E...EB..E
  4144cc:	d054 45a4 9d37 45ae ff4a 45b8 ff6a 45c3     T..E7..EJ..Ej..E
  4144dc:	a700 45cf 0000 45dc 14f6 45e9 f110 45f6     ...E...E...E...E
  4144ec:	d012 4602 9760 460a d518 4612 9041 461b     ...F`..F...FA..F
  4144fc:	d052 4624 9d33 462e ff48 4638 ff66 4643     R.$F3..FH.8Ff.CF
  41450c:	002d 0000 3025 7832 0000 0000 654d 6f6c     -...%02x....Melo
  41451c:	7964 0000                                   dy..

00414520 <CSWTCH.7>:
  414520:	0100 0000 0300 0000 0200 0000 c200 0001     ................
  414530:	00c0 0000 0800 0000 0000 0000               ............

0041453c <time_signatures>:
  41453c:	0404 0300 0104 0402 0602 0308               ............

00414548 <npio2_hw>:
  414548:	0f00 3fc9 0f00 4049 cb00 4096 0f00 40c9     ...?..I@...@...@
  414558:	5300 40fb cb00 4116 ed00 412f 0f00 4149     .S.@...A../A..IA
  414568:	3100 4162 5300 417b 3a00 418a cb00 4196     .1bA.S{A.:.A...A
  414578:	5c00 41a3 ed00 41af 7e00 41bc 0f00 41c9     .\.A...A.~.A...A
  414588:	a000 41d5 3100 41e2 c200 41ee 5300 41fb     ...A.1.A...A.S.A
  414598:	f200 4203 3a00 420a 8300 4210 cb00 4216     ...B.:.B...B...B
  4145a8:	1400 421d 5c00 4223 a500 4229 ed00 422f     ...B.\#B..)B../B
  4145b8:	3600 4236 7e00 423c c700 4242 0f00 4249     .66B.~<B..BB..IB

004145c8 <two_over_pi>:
  4145c8:	00a2 0000 00f9 0000 0083 0000 006e 0000     ............n...
  4145d8:	004e 0000 0044 0000 0015 0000 0029 0000     N...D.......)...
  4145e8:	00fc 0000 0027 0000 0057 0000 00d1 0000     ....'...W.......
  4145f8:	00f5 0000 0034 0000 00dd 0000 00c0 0000     ....4...........
  414608:	00db 0000 0062 0000 0095 0000 0099 0000     ....b...........
  414618:	003c 0000 0043 0000 0090 0000 0041 0000     <...C.......A...
  414628:	00fe 0000 0051 0000 0063 0000 00ab 0000     ....Q...c.......
  414638:	00de 0000 00bb 0000 00c5 0000 0061 0000     ............a...
  414648:	00b7 0000 0024 0000 006e 0000 003a 0000     ....$...n...:...
  414658:	0042 0000 004d 0000 00d2 0000 00e0 0000     B...M...........
  414668:	0006 0000 0049 0000 002e 0000 00ea 0000     ....I...........
  414678:	0009 0000 00d1 0000 0092 0000 001c 0000     ................
  414688:	00fe 0000 001d 0000 00eb 0000 001c 0000     ................
  414698:	00b1 0000 0029 0000 00a7 0000 003e 0000     ....).......>...
  4146a8:	00e8 0000 0082 0000 0035 0000 00f5 0000     ........5.......
  4146b8:	002e 0000 00bb 0000 0044 0000 0084 0000     ........D.......
  4146c8:	00e9 0000 009c 0000 0070 0000 0026 0000     ........p...&...
  4146d8:	00b4 0000 005f 0000 007e 0000 0041 0000     ...._...~...A...
  4146e8:	0039 0000 0091 0000 00d6 0000 0039 0000     9...........9...
  4146f8:	0083 0000 0053 0000 0039 0000 00f4 0000     ....S...9.......
  414708:	009c 0000 0084 0000 005f 0000 008b 0000     ........_.......
  414718:	00bd 0000 00f9 0000 0028 0000 003b 0000     ........(...;...
  414728:	001f 0000 00f8 0000 0097 0000 00ff 0000     ................
  414738:	00de 0000 0005 0000 0098 0000 000f 0000     ................
  414748:	00ef 0000 002f 0000 0011 0000 008b 0000     ..../...........
  414758:	005a 0000 000a 0000 006d 0000 001f 0000     Z.......m.......
  414768:	006d 0000 0036 0000 007e 0000 00cf 0000     m...6...~.......
  414778:	0027 0000 00cb 0000 0009 0000 00b7 0000     '...............
  414788:	004f 0000 0046 0000 003f 0000 0066 0000     O...F...?...f...
  414798:	009e 0000 005f 0000 00ea 0000 002d 0000     ...._.......-...
  4147a8:	0075 0000 0027 0000 00ba 0000 00c7 0000     u...'...........
  4147b8:	00eb 0000 00e5 0000 00f1 0000 007b 0000     ............{...
  4147c8:	003d 0000 0007 0000 0039 0000 00f7 0000     =.......9.......
  4147d8:	008a 0000 0052 0000 0092 0000 00ea 0000     ....R...........
  4147e8:	006b 0000 00fb 0000 005f 0000 00b1 0000     k......._.......
  4147f8:	001f 0000 008d 0000 005d 0000 0008 0000     ........].......
  414808:	0056 0000 0003 0000 0030 0000 0046 0000     V.......0...F...
  414818:	00fc 0000 007b 0000 006b 0000 00ab 0000     ....{...k.......
  414828:	00f0 0000 00cf 0000 00bc 0000 0020 0000     ............ ...
  414838:	009a 0000 00f4 0000 0036 0000 001d 0000     ........6.......
  414848:	00a9 0000 00e3 0000 0091 0000 0061 0000     ............a...
  414858:	005e 0000 00e6 0000 001b 0000 0008 0000     ^...............
  414868:	0065 0000 0099 0000 0085 0000 005f 0000     e..........._...
  414878:	0014 0000 00a0 0000 0068 0000 0040 0000     ........h...@...
  414888:	008d 0000 00ff 0000 00d8 0000 0080 0000     ................
  414898:	004d 0000 0073 0000 0027 0000 0031 0000     M...s...'...1...
  4148a8:	0006 0000 0006 0000 0015 0000 0056 0000     ............V...
  4148b8:	00ca 0000 0073 0000 00a8 0000 00c9 0000     ....s...........
  4148c8:	0060 0000 00e2 0000 007b 0000 00c0 0000     `.......{.......
  4148d8:	008c 0000 006b 0000                         ....k...

004148e0 <PIo2>:
  4148e0:	0000 3fc9 0000 39f0 0000 37da 0000 33a2     ...?...9...7...3
  4148f0:	0000 2e84 0000 2b50 0000 27c2 0000 22d0     ......P+...'..."
  414900:	0000 1fc4 0000 1bc6 0000 1744               ..........D.

0041490c <init_jk>:
  41490c:	0004 0000 0007 0000 0009 0000               ............

00414918 <_global_impure_ptr>:
  414918:	0058 2040 3130 3332 3534 3736 3938 4241     X.@ 0123456789AB
  414928:	4443 4645 0000 0000 3130 3332 3534 3736     CDEF....01234567
  414938:	3938 6261 6463 6665 0000 0000 6e28 6c75     89abcdef....(nul
  414948:	296c 0000                                   l)..

0041494c <blanks.7217>:
  41494c:	2020 2020 2020 2020 2020 2020 2020 2020                     

0041495c <zeroes.7218>:
  41495c:	3030 3030 3030 3030 3030 3030 3030 3030     0000000000000000
  41496c:	0043 0000 4f50 4953 0058 0000 002e 0000     C...POSIX.......

0041497c <_ctype_>:
  41497c:	2000 2020 2020 2020 2020 2828 2828 2028     .         ((((( 
  41498c:	2020 2020 2020 2020 2020 2020 2020 2020                     
  41499c:	8820 1010 1010 1010 1010 1010 1010 1010      ...............
  4149ac:	0410 0404 0404 0404 0404 1004 1010 1010     ................
  4149bc:	1010 4141 4141 4141 0101 0101 0101 0101     ..AAAAAA........
  4149cc:	0101 0101 0101 0101 0101 0101 1010 1010     ................
  4149dc:	1010 4242 4242 4242 0202 0202 0202 0202     ..BBBBBB........
  4149ec:	0202 0202 0202 0202 0202 0202 1010 1010     ................
  4149fc:	0020 0000 0000 0000 0000 0000 0000 0000      ...............
	...

00414a80 <_init>:
  414a80:	b5f8      	push	{r3, r4, r5, r6, r7, lr}
  414a82:	bf00      	nop
  414a84:	bcf8      	pop	{r3, r4, r5, r6, r7}
  414a86:	bc08      	pop	{r3}
  414a88:	469e      	mov	lr, r3
  414a8a:	4770      	bx	lr

00414a8c <__init_array_start>:
  414a8c:	0040800d 	.word	0x0040800d

00414a90 <__frame_dummy_init_array_entry>:
  414a90:	00400165                                e.@.

00414a94 <_fini>:
  414a94:	b5f8      	push	{r3, r4, r5, r6, r7, lr}
  414a96:	bf00      	nop
  414a98:	bcf8      	pop	{r3, r4, r5, r6, r7}
  414a9a:	bc08      	pop	{r3}
  414a9c:	469e      	mov	lr, r3
  414a9e:	4770      	bx	lr

00414aa0 <__fini_array_start>:
  414aa0:	00400141 	.word	0x00400141

Disassembly of section .relocate:

20400000 <portable_delay_cycles>:
RAMFUNC
void portable_delay_cycles(unsigned long n)
{
	UNUSED(n);

	__asm (
20400000:	f3bf 8f5f 	dmb	sy
20400004:	3801      	subs	r0, #1
20400006:	d1fb      	bne.n	20400000 <portable_delay_cycles>
20400008:	4770      	bx	lr
	...

2040000c <fillBuffer>:
2040000c:	2d2c 2040                                   ,-@ 

20400010 <inBuffer>:
20400010:	302c 2042                                   ,0B 

20400014 <inPingMode>:
20400014:	0001 0000                                   ....

20400018 <outBuffer>:
20400018:	2e2c 2041                                   ,.A 

2040001c <outPingMode>:
2040001c:	0001 0000                                   ....

20400020 <processBuffer>:
20400020:	302c 2041                                   ,0A 

20400024 <processPingMode>:
20400024:	0101                                             .

20400025 <g_interrupt_enabled>:
20400025:	0001 0000                                        ...

20400028 <SystemCoreClock>:
20400028:	0900 003d                                   ..=.

2040002c <title>:
2040002c:	6954 6c74 2065 6548 6572 0000 0000 0000     Title Here......
	...

20400054 <_impure_ptr>:
20400054:	0058 2040                                   X.@ 

20400058 <impure_data>:
20400058:	0000 0000 0344 2040 03ac 2040 0414 2040     ....D.@ ..@ ..@ 
	...
20400100:	0001 0000 0000 0000 330e abcd 1234 e66d     .........3..4.m.
20400110:	deec 0005 000b 0000 0000 0000 0000 0000     ................
	...

20400480 <__malloc_av_>:
	...
20400488:	0480 2040 0480 2040 0488 2040 0488 2040     ..@ ..@ ..@ ..@ 
20400498:	0490 2040 0490 2040 0498 2040 0498 2040     ..@ ..@ ..@ ..@ 
204004a8:	04a0 2040 04a0 2040 04a8 2040 04a8 2040     ..@ ..@ ..@ ..@ 
204004b8:	04b0 2040 04b0 2040 04b8 2040 04b8 2040     ..@ ..@ ..@ ..@ 
204004c8:	04c0 2040 04c0 2040 04c8 2040 04c8 2040     ..@ ..@ ..@ ..@ 
204004d8:	04d0 2040 04d0 2040 04d8 2040 04d8 2040     ..@ ..@ ..@ ..@ 
204004e8:	04e0 2040 04e0 2040 04e8 2040 04e8 2040     ..@ ..@ ..@ ..@ 
204004f8:	04f0 2040 04f0 2040 04f8 2040 04f8 2040     ..@ ..@ ..@ ..@ 
20400508:	0500 2040 0500 2040 0508 2040 0508 2040     ..@ ..@ ..@ ..@ 
20400518:	0510 2040 0510 2040 0518 2040 0518 2040     ..@ ..@ ..@ ..@ 
20400528:	0520 2040 0520 2040 0528 2040 0528 2040      .@  .@ (.@ (.@ 
20400538:	0530 2040 0530 2040 0538 2040 0538 2040     0.@ 0.@ 8.@ 8.@ 
20400548:	0540 2040 0540 2040 0548 2040 0548 2040     @.@ @.@ H.@ H.@ 
20400558:	0550 2040 0550 2040 0558 2040 0558 2040     P.@ P.@ X.@ X.@ 
20400568:	0560 2040 0560 2040 0568 2040 0568 2040     `.@ `.@ h.@ h.@ 
20400578:	0570 2040 0570 2040 0578 2040 0578 2040     p.@ p.@ x.@ x.@ 
20400588:	0580 2040 0580 2040 0588 2040 0588 2040     ..@ ..@ ..@ ..@ 
20400598:	0590 2040 0590 2040 0598 2040 0598 2040     ..@ ..@ ..@ ..@ 
204005a8:	05a0 2040 05a0 2040 05a8 2040 05a8 2040     ..@ ..@ ..@ ..@ 
204005b8:	05b0 2040 05b0 2040 05b8 2040 05b8 2040     ..@ ..@ ..@ ..@ 
204005c8:	05c0 2040 05c0 2040 05c8 2040 05c8 2040     ..@ ..@ ..@ ..@ 
204005d8:	05d0 2040 05d0 2040 05d8 2040 05d8 2040     ..@ ..@ ..@ ..@ 
204005e8:	05e0 2040 05e0 2040 05e8 2040 05e8 2040     ..@ ..@ ..@ ..@ 
204005f8:	05f0 2040 05f0 2040 05f8 2040 05f8 2040     ..@ ..@ ..@ ..@ 
20400608:	0600 2040 0600 2040 0608 2040 0608 2040     ..@ ..@ ..@ ..@ 
20400618:	0610 2040 0610 2040 0618 2040 0618 2040     ..@ ..@ ..@ ..@ 
20400628:	0620 2040 0620 2040 0628 2040 0628 2040      .@  .@ (.@ (.@ 
20400638:	0630 2040 0630 2040 0638 2040 0638 2040     0.@ 0.@ 8.@ 8.@ 
20400648:	0640 2040 0640 2040 0648 2040 0648 2040     @.@ @.@ H.@ H.@ 
20400658:	0650 2040 0650 2040 0658 2040 0658 2040     P.@ P.@ X.@ X.@ 
20400668:	0660 2040 0660 2040 0668 2040 0668 2040     `.@ `.@ h.@ h.@ 
20400678:	0670 2040 0670 2040 0678 2040 0678 2040     p.@ p.@ x.@ x.@ 
20400688:	0680 2040 0680 2040 0688 2040 0688 2040     ..@ ..@ ..@ ..@ 
20400698:	0690 2040 0690 2040 0698 2040 0698 2040     ..@ ..@ ..@ ..@ 
204006a8:	06a0 2040 06a0 2040 06a8 2040 06a8 2040     ..@ ..@ ..@ ..@ 
204006b8:	06b0 2040 06b0 2040 06b8 2040 06b8 2040     ..@ ..@ ..@ ..@ 
204006c8:	06c0 2040 06c0 2040 06c8 2040 06c8 2040     ..@ ..@ ..@ ..@ 
204006d8:	06d0 2040 06d0 2040 06d8 2040 06d8 2040     ..@ ..@ ..@ ..@ 
204006e8:	06e0 2040 06e0 2040 06e8 2040 06e8 2040     ..@ ..@ ..@ ..@ 
204006f8:	06f0 2040 06f0 2040 06f8 2040 06f8 2040     ..@ ..@ ..@ ..@ 
20400708:	0700 2040 0700 2040 0708 2040 0708 2040     ..@ ..@ ..@ ..@ 
20400718:	0710 2040 0710 2040 0718 2040 0718 2040     ..@ ..@ ..@ ..@ 
20400728:	0720 2040 0720 2040 0728 2040 0728 2040      .@  .@ (.@ (.@ 
20400738:	0730 2040 0730 2040 0738 2040 0738 2040     0.@ 0.@ 8.@ 8.@ 
20400748:	0740 2040 0740 2040 0748 2040 0748 2040     @.@ @.@ H.@ H.@ 
20400758:	0750 2040 0750 2040 0758 2040 0758 2040     P.@ P.@ X.@ X.@ 
20400768:	0760 2040 0760 2040 0768 2040 0768 2040     `.@ `.@ h.@ h.@ 
20400778:	0770 2040 0770 2040 0778 2040 0778 2040     p.@ p.@ x.@ x.@ 
20400788:	0780 2040 0780 2040 0788 2040 0788 2040     ..@ ..@ ..@ ..@ 
20400798:	0790 2040 0790 2040 0798 2040 0798 2040     ..@ ..@ ..@ ..@ 
204007a8:	07a0 2040 07a0 2040 07a8 2040 07a8 2040     ..@ ..@ ..@ ..@ 
204007b8:	07b0 2040 07b0 2040 07b8 2040 07b8 2040     ..@ ..@ ..@ ..@ 
204007c8:	07c0 2040 07c0 2040 07c8 2040 07c8 2040     ..@ ..@ ..@ ..@ 
204007d8:	07d0 2040 07d0 2040 07d8 2040 07d8 2040     ..@ ..@ ..@ ..@ 
204007e8:	07e0 2040 07e0 2040 07e8 2040 07e8 2040     ..@ ..@ ..@ ..@ 
204007f8:	07f0 2040 07f0 2040 07f8 2040 07f8 2040     ..@ ..@ ..@ ..@ 
20400808:	0800 2040 0800 2040 0808 2040 0808 2040     ..@ ..@ ..@ ..@ 
20400818:	0810 2040 0810 2040 0818 2040 0818 2040     ..@ ..@ ..@ ..@ 
20400828:	0820 2040 0820 2040 0828 2040 0828 2040      .@  .@ (.@ (.@ 
20400838:	0830 2040 0830 2040 0838 2040 0838 2040     0.@ 0.@ 8.@ 8.@ 
20400848:	0840 2040 0840 2040 0848 2040 0848 2040     @.@ @.@ H.@ H.@ 
20400858:	0850 2040 0850 2040 0858 2040 0858 2040     P.@ P.@ X.@ X.@ 
20400868:	0860 2040 0860 2040 0868 2040 0868 2040     `.@ `.@ h.@ h.@ 
20400878:	0870 2040 0870 2040 0878 2040 0878 2040     p.@ p.@ x.@ x.@ 

20400888 <__malloc_sbrk_base>:
20400888:	ffff ffff                                   ....

2040088c <__malloc_trim_threshold>:
2040088c:	0000 0002                                   ....

20400890 <__atexit_recursive_mutex>:
20400890:	b7f0 2043                                   ..C 

20400894 <__global_locale>:
20400894:	0043 0000 0000 0000 0000 0000 0000 0000     C...............
	...
204008b4:	0043 0000 0000 0000 0000 0000 0000 0000     C...............
	...
204008d4:	0043 0000 0000 0000 0000 0000 0000 0000     C...............
	...
204008f4:	0043 0000 0000 0000 0000 0000 0000 0000     C...............
	...
20400914:	0043 0000 0000 0000 0000 0000 0000 0000     C...............
	...
20400934:	0043 0000 0000 0000 0000 0000 0000 0000     C...............
	...
20400954:	0043 0000 0000 0000 0000 0000 0000 0000     C...............
	...
20400974:	9321 0040 8a95 0040 0000 0000 497c 0041     !.@...@.....|IA.
20400984:	4978 0041 492c 0041 492c 0041 492c 0041     xIA.,IA.,IA.,IA.
20400994:	492c 0041 492c 0041 492c 0041 492c 0041     ,IA.,IA.,IA.,IA.
204009a4:	492c 0041 492c 0041 ffff ffff ffff ffff     ,IA.,IA.........
204009b4:	ffff ffff ffff 0000 0001 5341 4943 0049     ..........ASCII.
	...
204009dc:	0000 5341 4943 0049 0000 0000 0000 0000     ..ASCII.........
	...
