
SoundInSoundOut_V2.elf:     file format elf32-littlearm

Sections:
Idx Name          Size      VMA       LMA       File off  Algn
  0 .text         00009c74  00400000  00400000  00010000  2**6
                  CONTENTS, ALLOC, LOAD, READONLY, CODE
  1 .ARM.exidx    00000008  00409c74  00409c74  00019c74  2**2
                  CONTENTS, ALLOC, LOAD, READONLY, DATA
  2 .relocate     00000a18  20400000  00409c7c  00020000  2**3
                  CONTENTS, ALLOC, LOAD, DATA
  3 .bss          000082b0  20400a18  0040a694  00020a18  2**2
                  ALLOC
  4 .heap         00000200  20408cc8  00412944  00020a18  2**0
                  ALLOC
  5 .stack        00000400  20408ec8  00412b44  00020a18  2**0
                  ALLOC
  6 .ARM.attributes 0000002a  00000000  00000000  00020a18  2**0
                  CONTENTS, READONLY
  7 .comment      00000059  00000000  00000000  00020a42  2**0
                  CONTENTS, READONLY
  8 .debug_info   0001dd10  00000000  00000000  00020a9b  2**0
                  CONTENTS, READONLY, DEBUGGING
  9 .debug_abbrev 00002f6e  00000000  00000000  0003e7ab  2**0
                  CONTENTS, READONLY, DEBUGGING
 10 .debug_loc    00006d6d  00000000  00000000  00041719  2**0
                  CONTENTS, READONLY, DEBUGGING
 11 .debug_aranges 00000790  00000000  00000000  00048486  2**0
                  CONTENTS, READONLY, DEBUGGING
 12 .debug_ranges 000006b0  00000000  00000000  00048c16  2**0
                  CONTENTS, READONLY, DEBUGGING
 13 .debug_macro  0001ee1c  00000000  00000000  000492c6  2**0
                  CONTENTS, READONLY, DEBUGGING
 14 .debug_line   00010c06  00000000  00000000  000680e2  2**0
                  CONTENTS, READONLY, DEBUGGING
 15 .debug_str    000861d0  00000000  00000000  00078ce8  2**0
                  CONTENTS, READONLY, DEBUGGING
 16 .debug_frame  000027ac  00000000  00000000  000feeb8  2**2
                  CONTENTS, READONLY, DEBUGGING

Disassembly of section .text:

00400000 <exception_table>:
  400000:	c8 92 40 20 b1 01 40 00 ad 01 40 00 09 05 40 00     ..@ ..@...@...@.
  400010:	ad 01 40 00 31 05 40 00 59 05 40 00 00 00 00 00     ..@.1.@.Y.@.....
	...
  40002c:	ad 01 40 00 ad 01 40 00 00 00 00 00 ad 01 40 00     ..@...@.......@.
  40003c:	21 09 40 00 ad 01 40 00 ad 01 40 00 ad 01 40 00     !.@...@...@...@.
  40004c:	ad 01 40 00 ad 01 40 00 ad 01 40 00 ad 01 40 00     ..@...@...@...@.
  40005c:	ad 01 40 00 ad 01 40 00 00 00 00 00 95 07 40 00     ..@...@.......@.
  40006c:	a9 07 40 00 bd 07 40 00 ad 01 40 00 ad 01 40 00     ..@...@...@...@.
  40007c:	ad 01 40 00 d1 07 40 00 e5 07 40 00 ad 01 40 00     ..@...@...@...@.
  40008c:	09 21 40 00 ad 01 40 00 ad 01 40 00 ad 01 40 00     .!@...@...@...@.
  40009c:	ad 01 40 00 ad 01 40 00 ad 01 40 00 ad 01 40 00     ..@...@...@...@.
  4000ac:	ad 01 40 00 ad 01 40 00 ad 01 40 00 ad 01 40 00     ..@...@...@...@.
  4000bc:	ad 01 40 00 ad 01 40 00 ad 01 40 00 ad 01 40 00     ..@...@...@...@.
  4000cc:	ad 01 40 00 00 00 00 00 ad 01 40 00 00 00 00 00     ..@.......@.....
  4000dc:	ad 01 40 00 ad 01 40 00 ad 01 40 00 ad 01 40 00     ..@...@...@...@.
  4000ec:	ad 01 40 00 ad 01 40 00 ad 01 40 00 ad 01 40 00     ..@...@...@...@.
  4000fc:	ad 01 40 00 ad 01 40 00 ad 01 40 00 ad 01 40 00     ..@...@...@...@.
  40010c:	ad 01 40 00 ad 01 40 00 ad 01 40 00 00 00 00 00     ..@...@...@.....
  40011c:	00 00 00 00 ad 01 40 00 ad 01 40 00 f5 20 40 00     ......@...@.. @.
  40012c:	ad 01 40 00 ad 01 40 00 00 00 00 00 ad 01 40 00     ..@...@.......@.
  40013c:	ad 01 40 00                                         ..@.

00400140 <__do_global_dtors_aux>:
  400140:	b510      	push	{r4, lr}
  400142:	4c05      	ldr	r4, [pc, #20]	; (400158 <__do_global_dtors_aux+0x18>)
  400144:	7823      	ldrb	r3, [r4, #0]
  400146:	b933      	cbnz	r3, 400156 <__do_global_dtors_aux+0x16>
  400148:	4b04      	ldr	r3, [pc, #16]	; (40015c <__do_global_dtors_aux+0x1c>)
  40014a:	b113      	cbz	r3, 400152 <__do_global_dtors_aux+0x12>
  40014c:	4804      	ldr	r0, [pc, #16]	; (400160 <__do_global_dtors_aux+0x20>)
  40014e:	f3af 8000 	nop.w
  400152:	2301      	movs	r3, #1
  400154:	7023      	strb	r3, [r4, #0]
  400156:	bd10      	pop	{r4, pc}
  400158:	20400a18 	.word	0x20400a18
  40015c:	00000000 	.word	0x00000000
  400160:	00409c7c 	.word	0x00409c7c

00400164 <frame_dummy>:
  400164:	4b0c      	ldr	r3, [pc, #48]	; (400198 <frame_dummy+0x34>)
  400166:	b143      	cbz	r3, 40017a <frame_dummy+0x16>
  400168:	480c      	ldr	r0, [pc, #48]	; (40019c <frame_dummy+0x38>)
  40016a:	490d      	ldr	r1, [pc, #52]	; (4001a0 <frame_dummy+0x3c>)
  40016c:	b510      	push	{r4, lr}
  40016e:	f3af 8000 	nop.w
  400172:	480c      	ldr	r0, [pc, #48]	; (4001a4 <frame_dummy+0x40>)
  400174:	6803      	ldr	r3, [r0, #0]
  400176:	b923      	cbnz	r3, 400182 <frame_dummy+0x1e>
  400178:	bd10      	pop	{r4, pc}
  40017a:	480a      	ldr	r0, [pc, #40]	; (4001a4 <frame_dummy+0x40>)
  40017c:	6803      	ldr	r3, [r0, #0]
  40017e:	b933      	cbnz	r3, 40018e <frame_dummy+0x2a>
  400180:	4770      	bx	lr
  400182:	4b09      	ldr	r3, [pc, #36]	; (4001a8 <frame_dummy+0x44>)
  400184:	2b00      	cmp	r3, #0
  400186:	d0f7      	beq.n	400178 <frame_dummy+0x14>
  400188:	e8bd 4010 	ldmia.w	sp!, {r4, lr}
  40018c:	4718      	bx	r3
  40018e:	4b06      	ldr	r3, [pc, #24]	; (4001a8 <frame_dummy+0x44>)
  400190:	2b00      	cmp	r3, #0
  400192:	d0f5      	beq.n	400180 <frame_dummy+0x1c>
  400194:	4718      	bx	r3
  400196:	bf00      	nop
  400198:	00000000 	.word	0x00000000
  40019c:	00409c7c 	.word	0x00409c7c
  4001a0:	20400a1c 	.word	0x20400a1c
  4001a4:	00409c7c 	.word	0x00409c7c
  4001a8:	00000000 	.word	0x00000000

004001ac <Dummy_Handler>:

/**
 * \brief Default interrupt handler for unused IRQs.
 */
void Dummy_Handler(void)
{
  4001ac:	e7fe      	b.n	4001ac <Dummy_Handler>
	...

004001b0 <Reset_Handler>:
{
  4001b0:	b508      	push	{r3, lr}
        if (pSrc != pDest) {
  4001b2:	4b10      	ldr	r3, [pc, #64]	; (4001f4 <Reset_Handler+0x44>)
  4001b4:	4a10      	ldr	r2, [pc, #64]	; (4001f8 <Reset_Handler+0x48>)
  4001b6:	429a      	cmp	r2, r3
  4001b8:	d009      	beq.n	4001ce <Reset_Handler+0x1e>
  4001ba:	4b0e      	ldr	r3, [pc, #56]	; (4001f4 <Reset_Handler+0x44>)
  4001bc:	4a0e      	ldr	r2, [pc, #56]	; (4001f8 <Reset_Handler+0x48>)
  4001be:	e003      	b.n	4001c8 <Reset_Handler+0x18>
                        *pDest++ = *pSrc++;
  4001c0:	6811      	ldr	r1, [r2, #0]
  4001c2:	6019      	str	r1, [r3, #0]
  4001c4:	3304      	adds	r3, #4
  4001c6:	3204      	adds	r2, #4
                for (; pDest < &_erelocate;) {
  4001c8:	490c      	ldr	r1, [pc, #48]	; (4001fc <Reset_Handler+0x4c>)
  4001ca:	428b      	cmp	r3, r1
  4001cc:	d3f8      	bcc.n	4001c0 <Reset_Handler+0x10>
                        *pDest++ = *pSrc++;
  4001ce:	4b0c      	ldr	r3, [pc, #48]	; (400200 <Reset_Handler+0x50>)
  4001d0:	e002      	b.n	4001d8 <Reset_Handler+0x28>
                *pDest++ = 0;
  4001d2:	2200      	movs	r2, #0
  4001d4:	601a      	str	r2, [r3, #0]
  4001d6:	3304      	adds	r3, #4
        for (pDest = &_szero; pDest < &_ezero;) {
  4001d8:	4a0a      	ldr	r2, [pc, #40]	; (400204 <Reset_Handler+0x54>)
  4001da:	4293      	cmp	r3, r2
  4001dc:	d3f9      	bcc.n	4001d2 <Reset_Handler+0x22>
        SCB->VTOR = ((uint32_t) pSrc & SCB_VTOR_TBLOFF_Msk);
  4001de:	4a0a      	ldr	r2, [pc, #40]	; (400208 <Reset_Handler+0x58>)
  4001e0:	4b0a      	ldr	r3, [pc, #40]	; (40020c <Reset_Handler+0x5c>)
  4001e2:	f023 037f 	bic.w	r3, r3, #127	; 0x7f
  4001e6:	6093      	str	r3, [r2, #8]
        __libc_init_array();
  4001e8:	4b09      	ldr	r3, [pc, #36]	; (400210 <Reset_Handler+0x60>)
  4001ea:	4798      	blx	r3
        main();
  4001ec:	4b09      	ldr	r3, [pc, #36]	; (400214 <Reset_Handler+0x64>)
  4001ee:	4798      	blx	r3
  4001f0:	e7fe      	b.n	4001f0 <Reset_Handler+0x40>
  4001f2:	bf00      	nop
  4001f4:	20400000 	.word	0x20400000
  4001f8:	00409c7c 	.word	0x00409c7c
  4001fc:	20400a18 	.word	0x20400a18
  400200:	20400a18 	.word	0x20400a18
  400204:	20408cc8 	.word	0x20408cc8
  400208:	e000ed00 	.word	0xe000ed00
  40020c:	00400000 	.word	0x00400000
  400210:	0040233d 	.word	0x0040233d
  400214:	0040211d 	.word	0x0040211d

00400218 <DBG_Configure>:
 *
 * \param baudrate  Baudrate at which the USART should operate (in Hz).
 * \param masterClock  Frequency of the system master clock (in Hz).
 */
extern void DBG_Configure(uint32_t baudrate, uint32_t masterClock)
{
  400218:	b5f0      	push	{r4, r5, r6, r7, lr}
  40021a:	b087      	sub	sp, #28
  40021c:	4607      	mov	r7, r0
  40021e:	460e      	mov	r6, r1

	const Pin pPins[] = CONSOLE_PINS;
  400220:	466c      	mov	r4, sp
  400222:	4d1a      	ldr	r5, [pc, #104]	; (40028c <DBG_Configure+0x74>)
  400224:	cd0f      	ldmia	r5!, {r0, r1, r2, r3}
  400226:	c40f      	stmia	r4!, {r0, r1, r2, r3}
  400228:	e895 0003 	ldmia.w	r5, {r0, r1}
  40022c:	e884 0003 	stmia.w	r4, {r0, r1}
#endif

#if defined CONSOLE_ON_USART
	Usart *pUsart = CONSOLE_Usart;
	// Disable the MATRIX registers write protection
	MATRIX->MATRIX_WPMR  = MATRIX_WPMR_WPKEY_PASSWD;
  400230:	4b17      	ldr	r3, [pc, #92]	; (400290 <DBG_Configure+0x78>)
  400232:	4a18      	ldr	r2, [pc, #96]	; (400294 <DBG_Configure+0x7c>)
  400234:	f8c3 21e4 	str.w	r2, [r3, #484]	; 0x1e4
	MATRIX->CCFG_SYSIO |= CCFG_SYSIO_SYSIO4;
  400238:	f8d3 2114 	ldr.w	r2, [r3, #276]	; 0x114
  40023c:	f042 0210 	orr.w	r2, r2, #16
  400240:	f8c3 2114 	str.w	r2, [r3, #276]	; 0x114

	PIO_Configure(pPins, PIO_LISTSIZE(pPins));
  400244:	2102      	movs	r1, #2
  400246:	4668      	mov	r0, sp
  400248:	4b13      	ldr	r3, [pc, #76]	; (400298 <DBG_Configure+0x80>)
  40024a:	4798      	blx	r3

	// Reset & disable receiver and transmitter, disable interrupts
	pUsart->US_CR = US_CR_RSTRX | US_CR_RSTTX | US_CR_RSTSTA;
  40024c:	4c13      	ldr	r4, [pc, #76]	; (40029c <DBG_Configure+0x84>)
  40024e:	f44f 7386 	mov.w	r3, #268	; 0x10c
  400252:	6023      	str	r3, [r4, #0]
	pUsart->US_IDR = 0xFFFFFFFF;
  400254:	f04f 33ff 	mov.w	r3, #4294967295
  400258:	60e3      	str	r3, [r4, #12]
	PMC_EnablePeripheral(CONSOLE_ID);
  40025a:	200e      	movs	r0, #14
  40025c:	4b10      	ldr	r3, [pc, #64]	; (4002a0 <DBG_Configure+0x88>)
  40025e:	4798      	blx	r3
	pUsart->US_BRGR = (masterClock / baudrate) / 16;
  400260:	fbb6 f6f7 	udiv	r6, r6, r7
  400264:	0936      	lsrs	r6, r6, #4
  400266:	6226      	str	r6, [r4, #32]

	// Configure mode register
	pUsart->US_MR
		= (US_MR_USART_MODE_NORMAL | US_MR_PAR_NO | US_MR_USCLKS_MCK
  400268:	f44f 630c 	mov.w	r3, #2240	; 0x8c0
  40026c:	6063      	str	r3, [r4, #4]
		   | US_MR_CHRL_8_BIT);

	// Enable receiver and transmitter
	pUsart->US_CR = US_CR_RXEN | US_CR_TXEN;
  40026e:	2350      	movs	r3, #80	; 0x50
  400270:	6023      	str	r3, [r4, #0]
#endif
	_ucIsConsoleInitialized = 1;
  400272:	2201      	movs	r2, #1
  400274:	4b0b      	ldr	r3, [pc, #44]	; (4002a4 <DBG_Configure+0x8c>)
  400276:	701a      	strb	r2, [r3, #0]

	/* Disable buffering for printf(). */
#if (defined (__GNUC__) && !defined (__SAMBA__))
	setvbuf(stdout, (char *)NULL, _IONBF, 0);
  400278:	4b0b      	ldr	r3, [pc, #44]	; (4002a8 <DBG_Configure+0x90>)
  40027a:	6818      	ldr	r0, [r3, #0]
  40027c:	2300      	movs	r3, #0
  40027e:	2202      	movs	r2, #2
  400280:	4619      	mov	r1, r3
  400282:	6880      	ldr	r0, [r0, #8]
  400284:	4c09      	ldr	r4, [pc, #36]	; (4002ac <DBG_Configure+0x94>)
  400286:	47a0      	blx	r4
#endif
}
  400288:	b007      	add	sp, #28
  40028a:	bdf0      	pop	{r4, r5, r6, r7, pc}
  40028c:	00408848 	.word	0x00408848
  400290:	40088000 	.word	0x40088000
  400294:	4d415400 	.word	0x4d415400
  400298:	0040065d 	.word	0x0040065d
  40029c:	40028000 	.word	0x40028000
  4002a0:	004007f9 	.word	0x004007f9
  4002a4:	20400a34 	.word	0x20400a34
  4002a8:	20400068 	.word	0x20400068
  4002ac:	00402b31 	.word	0x00402b31

004002b0 <DBG_PutChar>:
 *
 * \note This function is synchronous (i.e. uses polling).
 * \param c  Character to send.
 */
extern void DBG_PutChar(uint8_t c)
{
  4002b0:	b510      	push	{r4, lr}
  4002b2:	4604      	mov	r4, r0
#endif

#if defined CONSOLE_ON_USART
	Usart *pUsart = CONSOLE_Usart;

	if (!_ucIsConsoleInitialized)
  4002b4:	4b0a      	ldr	r3, [pc, #40]	; (4002e0 <DBG_PutChar+0x30>)
  4002b6:	781b      	ldrb	r3, [r3, #0]
  4002b8:	b163      	cbz	r3, 4002d4 <DBG_PutChar+0x24>
		DBG_Configure(CONSOLE_BAUDRATE, BOARD_MCK);

	// Wait for the transmitter to be ready
	while ((pUsart->US_CSR & US_CSR_TXEMPTY) == 0);
  4002ba:	4b0a      	ldr	r3, [pc, #40]	; (4002e4 <DBG_PutChar+0x34>)
  4002bc:	695b      	ldr	r3, [r3, #20]
  4002be:	f413 7f00 	tst.w	r3, #512	; 0x200
  4002c2:	d0fa      	beq.n	4002ba <DBG_PutChar+0xa>

	// Send character
	pUsart->US_THR = c;
  4002c4:	4b07      	ldr	r3, [pc, #28]	; (4002e4 <DBG_PutChar+0x34>)
  4002c6:	61dc      	str	r4, [r3, #28]

	// Wait for the transfer to complete
	while ((pUsart->US_CSR & US_CSR_TXEMPTY) == 0);
  4002c8:	4b06      	ldr	r3, [pc, #24]	; (4002e4 <DBG_PutChar+0x34>)
  4002ca:	695b      	ldr	r3, [r3, #20]
  4002cc:	f413 7f00 	tst.w	r3, #512	; 0x200
  4002d0:	d0fa      	beq.n	4002c8 <DBG_PutChar+0x18>

#endif
}
  4002d2:	bd10      	pop	{r4, pc}
		DBG_Configure(CONSOLE_BAUDRATE, BOARD_MCK);
  4002d4:	4904      	ldr	r1, [pc, #16]	; (4002e8 <DBG_PutChar+0x38>)
  4002d6:	f44f 30e1 	mov.w	r0, #115200	; 0x1c200
  4002da:	4b04      	ldr	r3, [pc, #16]	; (4002ec <DBG_PutChar+0x3c>)
  4002dc:	4798      	blx	r3
  4002de:	e7ec      	b.n	4002ba <DBG_PutChar+0xa>
  4002e0:	20400a34 	.word	0x20400a34
  4002e4:	40028000 	.word	0x40028000
  4002e8:	08f0d180 	.word	0x08f0d180
  4002ec:	00400219 	.word	0x00400219

004002f0 <_sbrk>:
extern void _exit(int status);
extern void _kill(int pid, int sig);
extern int _getpid (void);

extern caddr_t _sbrk (int incr)
{
  4002f0:	4603      	mov	r3, r0
	static unsigned char *heap = NULL;
	unsigned char *prev_sheap;

	if (heap == NULL)
  4002f2:	4a06      	ldr	r2, [pc, #24]	; (40030c <_sbrk+0x1c>)
  4002f4:	6812      	ldr	r2, [r2, #0]
  4002f6:	b122      	cbz	r2, 400302 <_sbrk+0x12>
		heap = (unsigned char *)&_sheap;

	prev_sheap = heap;
  4002f8:	4a04      	ldr	r2, [pc, #16]	; (40030c <_sbrk+0x1c>)
  4002fa:	6810      	ldr	r0, [r2, #0]

	heap += incr;
  4002fc:	4403      	add	r3, r0
  4002fe:	6013      	str	r3, [r2, #0]

	return (caddr_t) prev_sheap;
}
  400300:	4770      	bx	lr
		heap = (unsigned char *)&_sheap;
  400302:	4903      	ldr	r1, [pc, #12]	; (400310 <_sbrk+0x20>)
  400304:	4a01      	ldr	r2, [pc, #4]	; (40030c <_sbrk+0x1c>)
  400306:	6011      	str	r1, [r2, #0]
  400308:	e7f6      	b.n	4002f8 <_sbrk+0x8>
  40030a:	bf00      	nop
  40030c:	20400a3c 	.word	0x20400a3c
  400310:	20408cc8 	.word	0x20408cc8

00400314 <_close>:
}

extern int _close(int file)
{
	return -1;
}
  400314:	f04f 30ff 	mov.w	r0, #4294967295
  400318:	4770      	bx	lr

0040031a <_fstat>:

extern int _fstat(int file, struct stat *st)
{
	st->st_mode = S_IFCHR;
  40031a:	f44f 5300 	mov.w	r3, #8192	; 0x2000
  40031e:	604b      	str	r3, [r1, #4]

	return 0;
}
  400320:	2000      	movs	r0, #0
  400322:	4770      	bx	lr

00400324 <_isatty>:

extern int _isatty(int file)
{
	return 1;
}
  400324:	2001      	movs	r0, #1
  400326:	4770      	bx	lr

00400328 <_lseek>:

extern int _lseek(int file, int ptr, int dir)
{
	return 0;
}
  400328:	2000      	movs	r0, #0
  40032a:	4770      	bx	lr

0040032c <_read>:

extern int _read(int file, char *ptr, int len)
{
	return 0;
}
  40032c:	2000      	movs	r0, #0
  40032e:	4770      	bx	lr

00400330 <_write>:

extern int _write(int file, char *ptr, int len)
{
  400330:	b570      	push	{r4, r5, r6, lr}
  400332:	460d      	mov	r5, r1
  400334:	4616      	mov	r6, r2
	int iIndex;

	//    for (; *ptr != 0; ptr++)
	for (iIndex = 0; iIndex < len; iIndex++, ptr++)
  400336:	2400      	movs	r4, #0
  400338:	e004      	b.n	400344 <_write+0x14>
		DBG_PutChar(*ptr);
  40033a:	f815 0b01 	ldrb.w	r0, [r5], #1
  40033e:	4b03      	ldr	r3, [pc, #12]	; (40034c <_write+0x1c>)
  400340:	4798      	blx	r3
	for (iIndex = 0; iIndex < len; iIndex++, ptr++)
  400342:	3401      	adds	r4, #1
  400344:	42b4      	cmp	r4, r6
  400346:	dbf8      	blt.n	40033a <_write+0xa>

	return iIndex;
}
  400348:	4620      	mov	r0, r4
  40034a:	bd70      	pop	{r4, r5, r6, pc}
  40034c:	004002b1 	.word	0x004002b1

00400350 <_exit>:

extern void _exit(int status)
{
  400350:	b508      	push	{r3, lr}
	printf("Exiting with status %d.\n", status);
  400352:	4601      	mov	r1, r0
  400354:	4801      	ldr	r0, [pc, #4]	; (40035c <_exit+0xc>)
  400356:	4b02      	ldr	r3, [pc, #8]	; (400360 <_exit+0x10>)
  400358:	4798      	blx	r3
  40035a:	e7fe      	b.n	40035a <_exit+0xa>
  40035c:	00408860 	.word	0x00408860
  400360:	00402ae5 	.word	0x00402ae5

00400364 <_kill>:

	for (;;);
}

extern void _kill(int pid, int sig)
{
  400364:	4770      	bx	lr

00400366 <_getpid>:
}

extern int _getpid (void)
{
	return -1;
}
  400366:	f04f 30ff 	mov.w	r0, #4294967295
  40036a:	4770      	bx	lr

0040036c <WM8904_Read>:
 * \return value in the given register.
 */
uint16_t WM8904_Read(Twid *pTwid,
					 uint32_t device,
					 uint32_t regAddr)
{
  40036c:	b510      	push	{r4, lr}
  40036e:	b086      	sub	sp, #24
	uint16_t bitsDataRegister;
	uint8_t Tdata[2] = {0, 0};
  400370:	2300      	movs	r3, #0
  400372:	f88d 3014 	strb.w	r3, [sp, #20]
  400376:	f88d 3015 	strb.w	r3, [sp, #21]

	TWID_Read(pTwid, device, regAddr, 1, Tdata, 2, 0);
  40037a:	9302      	str	r3, [sp, #8]
  40037c:	2302      	movs	r3, #2
  40037e:	9301      	str	r3, [sp, #4]
  400380:	ab05      	add	r3, sp, #20
  400382:	9300      	str	r3, [sp, #0]
  400384:	2301      	movs	r3, #1
  400386:	b2c9      	uxtb	r1, r1
  400388:	4c04      	ldr	r4, [pc, #16]	; (40039c <WM8904_Read+0x30>)
  40038a:	47a0      	blx	r4
	bitsDataRegister = (Tdata[0] << 8) | Tdata[1];
  40038c:	f89d 0014 	ldrb.w	r0, [sp, #20]
  400390:	f89d 3015 	ldrb.w	r3, [sp, #21]
	return bitsDataRegister;
}
  400394:	ea43 2000 	orr.w	r0, r3, r0, lsl #8
  400398:	b006      	add	sp, #24
  40039a:	bd10      	pop	{r4, pc}
  40039c:	00400eed 	.word	0x00400eed

004003a0 <WM8904_Write>:
 */
void WM8904_Write(Twid *pTwid,
				  uint32_t device,
				  uint32_t regAddr,
				  uint16_t data)
{
  4003a0:	b510      	push	{r4, lr}
  4003a2:	b086      	sub	sp, #24
	uint8_t tmpData[2];

	tmpData[0] = (data & 0xff00) >> 8;
  4003a4:	0a1c      	lsrs	r4, r3, #8
  4003a6:	f88d 4014 	strb.w	r4, [sp, #20]
	tmpData[1] = data & 0xff;
  4003aa:	f88d 3015 	strb.w	r3, [sp, #21]
	TWID_Write(pTwid, device, regAddr, 1, tmpData, 2, 0);
  4003ae:	2300      	movs	r3, #0
  4003b0:	9302      	str	r3, [sp, #8]
  4003b2:	2302      	movs	r3, #2
  4003b4:	9301      	str	r3, [sp, #4]
  4003b6:	ab05      	add	r3, sp, #20
  4003b8:	9300      	str	r3, [sp, #0]
  4003ba:	2301      	movs	r3, #1
  4003bc:	b2c9      	uxtb	r1, r1
  4003be:	4c02      	ldr	r4, [pc, #8]	; (4003c8 <WM8904_Write+0x28>)
  4003c0:	47a0      	blx	r4
}
  4003c2:	b006      	add	sp, #24
  4003c4:	bd10      	pop	{r4, pc}
  4003c6:	bf00      	nop
  4003c8:	00401065 	.word	0x00401065

004003cc <WM8904_Init>:
	//{ 0x0019, 248}, /** R248 - FLL NCO Test 1 */
	{ 0x55AA, 255}  /** end */
};

uint8_t WM8904_Init(Twid *pTwid, uint32_t device,  uint32_t PCK)
{
  4003cc:	e92d 43f8 	stmdb	sp!, {r3, r4, r5, r6, r7, r8, r9, lr}
  4003d0:	4681      	mov	r9, r0
  4003d2:	4688      	mov	r8, r1
  4003d4:	4614      	mov	r4, r2
	uint8_t count, size;
	uint16_t data = 0;

	// Reset (write Reg@0x0 to reset)
	WM8904_Write(pTwid, device, 0, 0xFFFF);
  4003d6:	f64f 73ff 	movw	r3, #65535	; 0xffff
  4003da:	2200      	movs	r2, #0
  4003dc:	4d31      	ldr	r5, [pc, #196]	; (4004a4 <WM8904_Init+0xd8>)
  4003de:	47a8      	blx	r5

	for (data = 0; data < 1000; data++);
  4003e0:	2000      	movs	r0, #0
  4003e2:	e001      	b.n	4003e8 <WM8904_Init+0x1c>
  4003e4:	3001      	adds	r0, #1
  4003e6:	b280      	uxth	r0, r0
  4003e8:	f5b0 7f7a 	cmp.w	r0, #1000	; 0x3e8
  4003ec:	d3fa      	bcc.n	4003e4 <WM8904_Init+0x18>
  4003ee:	e004      	b.n	4003fa <WM8904_Init+0x2e>

	//wait ready
	while (data != 0x8904)
		data = WM8904_Read(pTwid, device, 0);
  4003f0:	2200      	movs	r2, #0
  4003f2:	4641      	mov	r1, r8
  4003f4:	4648      	mov	r0, r9
  4003f6:	4b2c      	ldr	r3, [pc, #176]	; (4004a8 <WM8904_Init+0xdc>)
  4003f8:	4798      	blx	r3
	while (data != 0x8904)
  4003fa:	f648 1304 	movw	r3, #35076	; 0x8904
  4003fe:	4298      	cmp	r0, r3
  400400:	d1f6      	bne.n	4003f0 <WM8904_Init+0x24>

	if (PMC_MCKR_CSS_SLOW_CLK == PCK) {
  400402:	2c00      	cmp	r4, #0
  400404:	d045      	beq.n	400492 <WM8904_Init+0xc6>
				 && (wm8904_access_slow[count].value == 0x00F0))
				|| ((wm8904_access_slow[count].address == 0x3A)
					&& (wm8904_access_slow[count].value == 0x00B9)))
				Wait(100);
		}
	} else if (PMC_MCKR_CSS_MAIN_CLK == PCK) {
  400406:	2c01      	cmp	r4, #1
  400408:	d145      	bne.n	400496 <WM8904_Init+0xca>
  40040a:	2400      	movs	r4, #0
		for (count = 0; count < 255; count++) {
  40040c:	2cff      	cmp	r4, #255	; 0xff
  40040e:	d046      	beq.n	40049e <WM8904_Init+0xd2>
			if (wm8904_access_main[count].address < 255) {
  400410:	4b26      	ldr	r3, [pc, #152]	; (4004ac <WM8904_Init+0xe0>)
  400412:	eb03 0384 	add.w	r3, r3, r4, lsl #2
  400416:	f893 2096 	ldrb.w	r2, [r3, #150]	; 0x96
  40041a:	2aff      	cmp	r2, #255	; 0xff
  40041c:	d03f      	beq.n	40049e <WM8904_Init+0xd2>
				WM8904_Write(pTwid, device, wm8904_access_main[count].address,
  40041e:	4b23      	ldr	r3, [pc, #140]	; (4004ac <WM8904_Init+0xe0>)
  400420:	eb03 0384 	add.w	r3, r3, r4, lsl #2
  400424:	f8b3 3094 	ldrh.w	r3, [r3, #148]	; 0x94
  400428:	4641      	mov	r1, r8
  40042a:	4648      	mov	r0, r9
  40042c:	4d1d      	ldr	r5, [pc, #116]	; (4004a4 <WM8904_Init+0xd8>)
  40042e:	47a8      	blx	r5
		for (count = 0; count < 255; count++) {
  400430:	3401      	adds	r4, #1
  400432:	b2e4      	uxtb	r4, r4
  400434:	e7ea      	b.n	40040c <WM8904_Init+0x40>
				 && (wm8904_access_slow[count].value == 0x0047))
  400436:	2e47      	cmp	r6, #71	; 0x47
  400438:	d118      	bne.n	40046c <WM8904_Init+0xa0>
				Wait(5);
  40043a:	2005      	movs	r0, #5
  40043c:	4b1c      	ldr	r3, [pc, #112]	; (4004b0 <WM8904_Init+0xe4>)
  40043e:	4798      	blx	r3
			if (((wm8904_access_slow[count].address == 0x44)
  400440:	2d44      	cmp	r5, #68	; 0x44
  400442:	d01d      	beq.n	400480 <WM8904_Init+0xb4>
				|| ((wm8904_access_slow[count].address == 0x3A)
  400444:	2d3a      	cmp	r5, #58	; 0x3a
  400446:	d021      	beq.n	40048c <WM8904_Init+0xc0>
		for (count = 0; count < size; count++) {
  400448:	3401      	adds	r4, #1
  40044a:	b2e4      	uxtb	r4, r4
  40044c:	2c24      	cmp	r4, #36	; 0x24
  40044e:	d826      	bhi.n	40049e <WM8904_Init+0xd2>
			WM8904_Write(pTwid, device, wm8904_access_slow[count].address,
  400450:	4b16      	ldr	r3, [pc, #88]	; (4004ac <WM8904_Init+0xe0>)
  400452:	eb03 0284 	add.w	r2, r3, r4, lsl #2
  400456:	7895      	ldrb	r5, [r2, #2]
  400458:	f833 6024 	ldrh.w	r6, [r3, r4, lsl #2]
  40045c:	4633      	mov	r3, r6
  40045e:	462a      	mov	r2, r5
  400460:	4641      	mov	r1, r8
  400462:	4648      	mov	r0, r9
  400464:	4f0f      	ldr	r7, [pc, #60]	; (4004a4 <WM8904_Init+0xd8>)
  400466:	47b8      	blx	r7
			if (((wm8904_access_slow[count].address == 0x05)
  400468:	2d05      	cmp	r5, #5
  40046a:	d0e4      	beq.n	400436 <WM8904_Init+0x6a>
				|| ((wm8904_access_slow[count].address == 0x74)
  40046c:	2d74      	cmp	r5, #116	; 0x74
  40046e:	d004      	beq.n	40047a <WM8904_Init+0xae>
				|| ((wm8904_access_slow[count].address == 0x12)
  400470:	2d12      	cmp	r5, #18
  400472:	d1e5      	bne.n	400440 <WM8904_Init+0x74>
					&& (wm8904_access_slow[count].value == 0x000F)))
  400474:	2e0f      	cmp	r6, #15
  400476:	d1e3      	bne.n	400440 <WM8904_Init+0x74>
  400478:	e7df      	b.n	40043a <WM8904_Init+0x6e>
					&& (wm8904_access_slow[count].value == 0x0005))
  40047a:	2e05      	cmp	r6, #5
  40047c:	d1f8      	bne.n	400470 <WM8904_Init+0xa4>
  40047e:	e7dc      	b.n	40043a <WM8904_Init+0x6e>
				 && (wm8904_access_slow[count].value == 0x00F0))
  400480:	2ef0      	cmp	r6, #240	; 0xf0
  400482:	d1df      	bne.n	400444 <WM8904_Init+0x78>
				Wait(100);
  400484:	2064      	movs	r0, #100	; 0x64
  400486:	4b0a      	ldr	r3, [pc, #40]	; (4004b0 <WM8904_Init+0xe4>)
  400488:	4798      	blx	r3
  40048a:	e7dd      	b.n	400448 <WM8904_Init+0x7c>
					&& (wm8904_access_slow[count].value == 0x00B9)))
  40048c:	2eb9      	cmp	r6, #185	; 0xb9
  40048e:	d1db      	bne.n	400448 <WM8904_Init+0x7c>
  400490:	e7f8      	b.n	400484 <WM8904_Init+0xb8>
  400492:	2400      	movs	r4, #0
  400494:	e7da      	b.n	40044c <WM8904_Init+0x80>
							 wm8904_access_main[count].value);
			} else
				break;
		}
	} else {
		printf("W: PCK not supported! \n\r");
  400496:	4807      	ldr	r0, [pc, #28]	; (4004b4 <WM8904_Init+0xe8>)
  400498:	4b07      	ldr	r3, [pc, #28]	; (4004b8 <WM8904_Init+0xec>)
  40049a:	4798      	blx	r3
  40049c:	e7fe      	b.n	40049c <WM8904_Init+0xd0>

		while (1);
	}

	return 0;
}
  40049e:	2000      	movs	r0, #0
  4004a0:	e8bd 83f8 	ldmia.w	sp!, {r3, r4, r5, r6, r7, r8, r9, pc}
  4004a4:	004003a1 	.word	0x004003a1
  4004a8:	0040036d 	.word	0x0040036d
  4004ac:	0040887c 	.word	0x0040887c
  4004b0:	00400a69 	.word	0x00400a69
  4004b4:	00408970 	.word	0x00408970
  4004b8:	00402ae5 	.word	0x00402ae5

004004bc <HardFault_reason>:
{
	uint32_t CFSRValue;
	TRACE_DEBUG("In Hard Fault Handler\n\r");
	TRACE_DEBUG("SCB->HFSR = 0x%08x\n\r", SCB->HFSR);

	if ((SCB->HFSR & SCB_HFSR_DEBUGEVT_Msk)) {
  4004bc:	4b10      	ldr	r3, [pc, #64]	; (400500 <HardFault_reason+0x44>)
  4004be:	6ada      	ldr	r2, [r3, #44]	; 0x2c
		TRACE_DEBUG("Debug Event Hard Fault\n\r");
		TRACE_DEBUG("SCB->DFSR = 0x%08x\n", SCB->DFSR);
	}

	if ((SCB->HFSR & SCB_HFSR_VECTTBL_Msk)) {
  4004c0:	6ada      	ldr	r2, [r3, #44]	; 0x2c
		TRACE_DEBUG("Fault was due to vector table read on \
			exception processing\n\r");
	}

	// Forced HardFault
	if ((SCB->HFSR & SCB_HFSR_FORCED_Msk)) {
  4004c2:	6adb      	ldr	r3, [r3, #44]	; 0x2c
  4004c4:	f013 4f80 	tst.w	r3, #1073741824	; 0x40000000
  4004c8:	d00d      	beq.n	4004e6 <HardFault_reason+0x2a>
		TRACE_DEBUG("Forced Hard Fault\n\r");
		TRACE_DEBUG("SCB->CFSR = 0x%08x\n\r", SCB->CFSR);

		// Usage Fault
		if ((SCB->CFSR & SCB_CFSR_USGFAULTSR_Msk)) {
  4004ca:	4b0d      	ldr	r3, [pc, #52]	; (400500 <HardFault_reason+0x44>)
  4004cc:	6a9a      	ldr	r2, [r3, #40]	; 0x28
  4004ce:	4b0d      	ldr	r3, [pc, #52]	; (400504 <HardFault_reason+0x48>)
  4004d0:	4013      	ands	r3, r2
  4004d2:	b10b      	cbz	r3, 4004d8 <HardFault_reason+0x1c>
			CFSRValue = SCB->CFSR;
  4004d4:	4b0a      	ldr	r3, [pc, #40]	; (400500 <HardFault_reason+0x44>)
  4004d6:	6a9b      	ldr	r3, [r3, #40]	; 0x28
			if ((CFSRValue & (1 << 2)))
				TRACE_DEBUG("Integrity check error on EXC_RETURN\n\r");
		}

		// Bus Fault
		if ((SCB->CFSR & SCB_CFSR_BUSFAULTSR_Msk)) {
  4004d8:	4b09      	ldr	r3, [pc, #36]	; (400500 <HardFault_reason+0x44>)
  4004da:	6a9b      	ldr	r3, [r3, #40]	; 0x28
  4004dc:	f413 4f7f 	tst.w	r3, #65280	; 0xff00
  4004e0:	d001      	beq.n	4004e6 <HardFault_reason+0x2a>
			CFSRValue = SCB->CFSR;
  4004e2:	4b07      	ldr	r3, [pc, #28]	; (400500 <HardFault_reason+0x44>)
  4004e4:	6a9b      	ldr	r3, [r3, #40]	; 0x28
			}
		}
	}

	// MemoryFault
	if ((SCB->CFSR & SCB_CFSR_MEMFAULTSR_Msk)) {
  4004e6:	4b06      	ldr	r3, [pc, #24]	; (400500 <HardFault_reason+0x44>)
  4004e8:	6a9b      	ldr	r3, [r3, #40]	; 0x28
  4004ea:	f013 0fff 	tst.w	r3, #255	; 0xff
  4004ee:	d001      	beq.n	4004f4 <HardFault_reason+0x38>
		CFSRValue = SCB->CFSR;
  4004f0:	4b03      	ldr	r3, [pc, #12]	; (400500 <HardFault_reason+0x44>)
  4004f2:	6a9b      	ldr	r3, [r3, #40]	; 0x28
           so that all instructions following the ISB are fetched from cache or memory,
           after the instruction has been completed.
 */
__attribute__((always_inline)) __STATIC_INLINE void __ISB(void)
{
  __ASM volatile ("isb 0xF":::"memory");
  4004f4:	f3bf 8f6f 	isb	sy
  \details Ensures the apparent order of the explicit memory operations before
           and after the instruction, without ensuring their completion.
 */
__attribute__((always_inline)) __STATIC_INLINE void __DMB(void)
{
  __ASM volatile ("dmb 0xF":::"memory");
  4004f8:	f3bf 8f5f 	dmb	sy
			TRACE_DEBUG("Divide by zero\n\r");
	}

	__ISB();
	__DMB();
	__ASM volatile("BKPT #01");
  4004fc:	be01      	bkpt	0x0001
  4004fe:	4770      	bx	lr
  400500:	e000ed00 	.word	0xe000ed00
  400504:	ffff0000 	.word	0xffff0000

00400508 <HardFault_Handler>:
/**
 * \brief Default HardFault interrupt handler.
 */

void HardFault_Handler(void)
{
  400508:	b508      	push	{r3, lr}
	__ASM("mrs r0, msp ");
  40050a:	f3ef 8008 	mrs	r0, MSP
	__ASM("ldr %0, [r0,#28]" : "=r" (Fault_Add));
  40050e:	69c1      	ldr	r1, [r0, #28]
	printf("\n\rHardFault at address 0X%x\n\r", (int)StackUnwind());
  400510:	4804      	ldr	r0, [pc, #16]	; (400524 <HardFault_Handler+0x1c>)
  400512:	4b05      	ldr	r3, [pc, #20]	; (400528 <HardFault_Handler+0x20>)
  400514:	4798      	blx	r3
  __ASM volatile ("isb 0xF":::"memory");
  400516:	f3bf 8f6f 	isb	sy
  __ASM volatile ("dmb 0xF":::"memory");
  40051a:	f3bf 8f5f 	dmb	sy
	__ISB();
	__DMB();
	HardFault_reason();
  40051e:	4b03      	ldr	r3, [pc, #12]	; (40052c <HardFault_Handler+0x24>)
  400520:	4798      	blx	r3
  400522:	bd08      	pop	{r3, pc}
  400524:	004089a8 	.word	0x004089a8
  400528:	00402ae5 	.word	0x00402ae5
  40052c:	004004bd 	.word	0x004004bd

00400530 <BusFault_Handler>:

/**
 * \brief Default BusFault interrupt handler.
 */
void BusFault_Handler(void)
{
  400530:	b508      	push	{r3, lr}
	__ASM("nop");
  400532:	bf00      	nop
	__ASM("nop");
  400534:	bf00      	nop
	__ASM("mrs r0, msp ");
  400536:	f3ef 8008 	mrs	r0, MSP
	__ASM("ldr %0, [r0,#28]" : "=r" (Fault_Add));
  40053a:	69c1      	ldr	r1, [r0, #28]
	printf("\n\rBus Fault at address 0X%x\n\r", (int)StackUnwind());
  40053c:	4804      	ldr	r0, [pc, #16]	; (400550 <BusFault_Handler+0x20>)
  40053e:	4b05      	ldr	r3, [pc, #20]	; (400554 <BusFault_Handler+0x24>)
  400540:	4798      	blx	r3
  __ASM volatile ("isb 0xF":::"memory");
  400542:	f3bf 8f6f 	isb	sy
  __ASM volatile ("dmb 0xF":::"memory");
  400546:	f3bf 8f5f 	dmb	sy

	__ISB();
	__DMB();
	__ASM volatile("BKPT #01");
  40054a:	be01      	bkpt	0x0001
  40054c:	bd08      	pop	{r3, pc}
  40054e:	bf00      	nop
  400550:	004089f8 	.word	0x004089f8
  400554:	00402ae5 	.word	0x00402ae5

00400558 <UsageFault_Handler>:

/**
 * \brief Default UsageFault interrupt handler.
 */
void UsageFault_Handler(void)
{
  400558:	b508      	push	{r3, lr}
	__ASM("mrs r0, msp ");
  40055a:	f3ef 8008 	mrs	r0, MSP
	__ASM("ldr %0, [r0,#28]" : "=r" (Fault_Add));
  40055e:	69c1      	ldr	r1, [r0, #28]
	printf("\r\nUsage fault at address 0X%x", (int)StackUnwind());
  400560:	4804      	ldr	r0, [pc, #16]	; (400574 <UsageFault_Handler+0x1c>)
  400562:	4b05      	ldr	r3, [pc, #20]	; (400578 <UsageFault_Handler+0x20>)
  400564:	4798      	blx	r3
  __ASM volatile ("isb 0xF":::"memory");
  400566:	f3bf 8f6f 	isb	sy
  __ASM volatile ("dmb 0xF":::"memory");
  40056a:	f3bf 8f5f 	dmb	sy

	__ISB();
	__DMB();
	__ASM volatile("BKPT #01");
  40056e:	be01      	bkpt	0x0001
  400570:	bd08      	pop	{r3, pc}
  400572:	bf00      	nop
  400574:	00408a18 	.word	0x00408a18
  400578:	00402ae5 	.word	0x00402ae5

0040057c <PIO_SetPeripheralA>:
 */
static void PIO_SetPeripheralA(
	Pio *pio,
	unsigned int mask,
	unsigned char enablePullUp)
{
  40057c:	b410      	push	{r4}
	unsigned int abcdsr;
	/* Disable interrupts on the pin(s) */
	pio->PIO_IDR = mask;
  40057e:	6441      	str	r1, [r0, #68]	; 0x44

	/* Enable the pull-up(s) if necessary */
	if (enablePullUp)
  400580:	b972      	cbnz	r2, 4005a0 <PIO_SetPeripheralA+0x24>
		pio->PIO_PUER = mask;
	else
		pio->PIO_PUDR = mask;
  400582:	6601      	str	r1, [r0, #96]	; 0x60

	abcdsr = pio->PIO_ABCDSR[0];
  400584:	6f04      	ldr	r4, [r0, #112]	; 0x70
	pio->PIO_ABCDSR[0] &= (~mask & abcdsr);
  400586:	6f02      	ldr	r2, [r0, #112]	; 0x70
  400588:	43cb      	mvns	r3, r1
  40058a:	401c      	ands	r4, r3
  40058c:	4022      	ands	r2, r4
  40058e:	6702      	str	r2, [r0, #112]	; 0x70
	abcdsr = pio->PIO_ABCDSR[1];
  400590:	6f44      	ldr	r4, [r0, #116]	; 0x74
	pio->PIO_ABCDSR[1] &= (~mask & abcdsr);
  400592:	6f42      	ldr	r2, [r0, #116]	; 0x74
  400594:	4023      	ands	r3, r4
  400596:	4013      	ands	r3, r2
  400598:	6743      	str	r3, [r0, #116]	; 0x74
	pio->PIO_PDR = mask;
  40059a:	6041      	str	r1, [r0, #4]
}
  40059c:	bc10      	pop	{r4}
  40059e:	4770      	bx	lr
		pio->PIO_PUER = mask;
  4005a0:	6641      	str	r1, [r0, #100]	; 0x64
  4005a2:	e7ef      	b.n	400584 <PIO_SetPeripheralA+0x8>

004005a4 <PIO_SetPeripheralB>:
	unsigned int mask,
	unsigned char enablePullUp)
{
	unsigned int abcdsr;
	/* Disable interrupts on the pin(s) */
	pio->PIO_IDR = mask;
  4005a4:	6441      	str	r1, [r0, #68]	; 0x44

	/* Enable the pull-up(s) if necessary */
	if (enablePullUp)
  4005a6:	b95a      	cbnz	r2, 4005c0 <PIO_SetPeripheralB+0x1c>
		pio->PIO_PUER = mask;
	else
		pio->PIO_PUDR = mask;
  4005a8:	6601      	str	r1, [r0, #96]	; 0x60

	abcdsr = pio->PIO_ABCDSR[0];
  4005aa:	6f03      	ldr	r3, [r0, #112]	; 0x70
	pio->PIO_ABCDSR[0] = (mask | abcdsr);
  4005ac:	430b      	orrs	r3, r1
  4005ae:	6703      	str	r3, [r0, #112]	; 0x70
	abcdsr = pio->PIO_ABCDSR[1];
  4005b0:	6f42      	ldr	r2, [r0, #116]	; 0x74
	pio->PIO_ABCDSR[1] &= (~mask & abcdsr);
  4005b2:	6f43      	ldr	r3, [r0, #116]	; 0x74
  4005b4:	ea22 0201 	bic.w	r2, r2, r1
  4005b8:	4013      	ands	r3, r2
  4005ba:	6743      	str	r3, [r0, #116]	; 0x74

	pio->PIO_PDR = mask;
  4005bc:	6041      	str	r1, [r0, #4]
  4005be:	4770      	bx	lr
		pio->PIO_PUER = mask;
  4005c0:	6641      	str	r1, [r0, #100]	; 0x64
  4005c2:	e7f2      	b.n	4005aa <PIO_SetPeripheralB+0x6>

004005c4 <PIO_SetPeripheralC>:
	unsigned int mask,
	unsigned char enablePullUp)
{
	unsigned int abcdsr;
	/* Disable interrupts on the pin(s) */
	pio->PIO_IDR = mask;
  4005c4:	6441      	str	r1, [r0, #68]	; 0x44

	/* Enable the pull-up(s) if necessary */
	if (enablePullUp)
  4005c6:	b95a      	cbnz	r2, 4005e0 <PIO_SetPeripheralC+0x1c>
		pio->PIO_PUER = mask;
	else
		pio->PIO_PUDR = mask;
  4005c8:	6601      	str	r1, [r0, #96]	; 0x60

	abcdsr = pio->PIO_ABCDSR[0];
  4005ca:	6f02      	ldr	r2, [r0, #112]	; 0x70
	pio->PIO_ABCDSR[0] &= (~mask & abcdsr);
  4005cc:	6f03      	ldr	r3, [r0, #112]	; 0x70
  4005ce:	ea22 0201 	bic.w	r2, r2, r1
  4005d2:	4013      	ands	r3, r2
  4005d4:	6703      	str	r3, [r0, #112]	; 0x70
	abcdsr = pio->PIO_ABCDSR[1];
  4005d6:	6f43      	ldr	r3, [r0, #116]	; 0x74
	pio->PIO_ABCDSR[1] = (mask | abcdsr);
  4005d8:	430b      	orrs	r3, r1
  4005da:	6743      	str	r3, [r0, #116]	; 0x74

	pio->PIO_PDR = mask;
  4005dc:	6041      	str	r1, [r0, #4]
  4005de:	4770      	bx	lr
		pio->PIO_PUER = mask;
  4005e0:	6641      	str	r1, [r0, #100]	; 0x64
  4005e2:	e7f2      	b.n	4005ca <PIO_SetPeripheralC+0x6>

004005e4 <PIO_SetPeripheralD>:
	unsigned int mask,
	unsigned char enablePullUp)
{
	unsigned int abcdsr;
	/* Disable interrupts on the pin(s) */
	pio->PIO_IDR = mask;
  4005e4:	6441      	str	r1, [r0, #68]	; 0x44

	/* Enable the pull-up(s) if necessary */
	if (enablePullUp)
  4005e6:	b942      	cbnz	r2, 4005fa <PIO_SetPeripheralD+0x16>
		pio->PIO_PUER = mask;
	else
		pio->PIO_PUDR = mask;
  4005e8:	6601      	str	r1, [r0, #96]	; 0x60

	abcdsr = pio->PIO_ABCDSR[0];
  4005ea:	6f03      	ldr	r3, [r0, #112]	; 0x70
	pio->PIO_ABCDSR[0] = (mask | abcdsr);
  4005ec:	430b      	orrs	r3, r1
  4005ee:	6703      	str	r3, [r0, #112]	; 0x70
	abcdsr = pio->PIO_ABCDSR[1];
  4005f0:	6f43      	ldr	r3, [r0, #116]	; 0x74
	pio->PIO_ABCDSR[1] = (mask | abcdsr);
  4005f2:	430b      	orrs	r3, r1
  4005f4:	6743      	str	r3, [r0, #116]	; 0x74

	pio->PIO_PDR = mask;
  4005f6:	6041      	str	r1, [r0, #4]
  4005f8:	4770      	bx	lr
		pio->PIO_PUER = mask;
  4005fa:	6641      	str	r1, [r0, #100]	; 0x64
  4005fc:	e7f5      	b.n	4005ea <PIO_SetPeripheralD+0x6>

004005fe <PIO_SetInput>:
	Pio *pio,
	unsigned int mask,
	unsigned char attribute)
{
	/* Disable interrupts */
	pio->PIO_IDR = mask;
  4005fe:	6441      	str	r1, [r0, #68]	; 0x44

	/* Enable pull-up(s) if necessary */
	if (attribute & PIO_PULLUP)
  400600:	f012 0f01 	tst.w	r2, #1
  400604:	d00d      	beq.n	400622 <PIO_SetInput+0x24>
		pio->PIO_PUER = mask;
  400606:	6641      	str	r1, [r0, #100]	; 0x64
	else
		pio->PIO_PUDR = mask;

	/* Enable Input Filter if necessary */
	if (attribute & (PIO_DEGLITCH | PIO_DEBOUNCE))
  400608:	f012 0f0a 	tst.w	r2, #10
  40060c:	d00b      	beq.n	400626 <PIO_SetInput+0x28>
		pio->PIO_IFER = mask;
  40060e:	6201      	str	r1, [r0, #32]
	else
		pio->PIO_IFDR = mask;

	/* Enable de-glitch or de-bounce if necessary */
	if (attribute & PIO_DEGLITCH)
  400610:	f012 0f02 	tst.w	r2, #2
  400614:	d109      	bne.n	40062a <PIO_SetInput+0x2c>
		pio->PIO_IFSCDR = mask;
	else {
		if (attribute & PIO_DEBOUNCE)
  400616:	f012 0f08 	tst.w	r2, #8
  40061a:	d008      	beq.n	40062e <PIO_SetInput+0x30>
			pio->PIO_IFSCER = mask;
  40061c:	f8c0 1084 	str.w	r1, [r0, #132]	; 0x84
  400620:	e005      	b.n	40062e <PIO_SetInput+0x30>
		pio->PIO_PUDR = mask;
  400622:	6601      	str	r1, [r0, #96]	; 0x60
  400624:	e7f0      	b.n	400608 <PIO_SetInput+0xa>
		pio->PIO_IFDR = mask;
  400626:	6241      	str	r1, [r0, #36]	; 0x24
  400628:	e7f2      	b.n	400610 <PIO_SetInput+0x12>
		pio->PIO_IFSCDR = mask;
  40062a:	f8c0 1080 	str.w	r1, [r0, #128]	; 0x80
	}

	/* Configure pin as input */
	pio->PIO_ODR = mask;
  40062e:	6141      	str	r1, [r0, #20]
	pio->PIO_PER = mask;
  400630:	6001      	str	r1, [r0, #0]
  400632:	4770      	bx	lr

00400634 <PIO_SetOutput>:
	Pio *pio,
	unsigned int mask,
	unsigned char defaultValue,
	unsigned char enableMultiDrive,
	unsigned char enablePullUp)
{
  400634:	b410      	push	{r4}
  400636:	f89d 4004 	ldrb.w	r4, [sp, #4]
	/* Disable interrupts */
	pio->PIO_IDR = mask;
  40063a:	6441      	str	r1, [r0, #68]	; 0x44

	/* Enable pull-up(s) if necessary */
	if (enablePullUp)
  40063c:	b144      	cbz	r4, 400650 <PIO_SetOutput+0x1c>
		pio->PIO_PUER = mask;
  40063e:	6641      	str	r1, [r0, #100]	; 0x64
	else
		pio->PIO_PUDR = mask;

	/* Enable multi-drive if necessary */
	if (enableMultiDrive)
  400640:	b143      	cbz	r3, 400654 <PIO_SetOutput+0x20>
		pio->PIO_MDER = mask;
  400642:	6501      	str	r1, [r0, #80]	; 0x50
	else
		pio->PIO_MDDR = mask;

	/* Set default value */
	if (defaultValue)
  400644:	b942      	cbnz	r2, 400658 <PIO_SetOutput+0x24>
		pio->PIO_SODR = mask;
	else
		pio->PIO_CODR = mask;
  400646:	6341      	str	r1, [r0, #52]	; 0x34

	/* Configure pin(s) as output(s) */
	pio->PIO_OER = mask;
  400648:	6101      	str	r1, [r0, #16]
	pio->PIO_PER = mask;
  40064a:	6001      	str	r1, [r0, #0]
}
  40064c:	bc10      	pop	{r4}
  40064e:	4770      	bx	lr
		pio->PIO_PUDR = mask;
  400650:	6601      	str	r1, [r0, #96]	; 0x60
  400652:	e7f5      	b.n	400640 <PIO_SetOutput+0xc>
		pio->PIO_MDDR = mask;
  400654:	6541      	str	r1, [r0, #84]	; 0x54
  400656:	e7f5      	b.n	400644 <PIO_SetOutput+0x10>
		pio->PIO_SODR = mask;
  400658:	6301      	str	r1, [r0, #48]	; 0x30
  40065a:	e7f5      	b.n	400648 <PIO_SetOutput+0x14>

0040065c <PIO_Configure>:
 * \param size  Size of the Pin list (calculated using PIO_LISTSIZE).
 *
 * \return 1 if the pins have been configured properly; otherwise 0.
 */
uint8_t PIO_Configure(const Pin *list, uint32_t size)
{
  40065c:	b570      	push	{r4, r5, r6, lr}
  40065e:	b082      	sub	sp, #8
  400660:	4604      	mov	r4, r0
  400662:	460d      	mov	r5, r1
	/* Configure pins */
	while (size > 0) {
  400664:	e008      	b.n	400678 <PIO_Configure+0x1c>
		switch (list->type) {
		case PIO_PERIPH_A:
			PIO_SetPeripheralA(list->pio,
							   list->mask,
							   (list->attribute & PIO_PULLUP) ? 1 : 0);
  400666:	7aa2      	ldrb	r2, [r4, #10]
			PIO_SetPeripheralA(list->pio,
  400668:	f002 0201 	and.w	r2, r2, #1
  40066c:	6821      	ldr	r1, [r4, #0]
  40066e:	6860      	ldr	r0, [r4, #4]
  400670:	4b27      	ldr	r3, [pc, #156]	; (400710 <PIO_Configure+0xb4>)
  400672:	4798      	blx	r3
			break;

		default: return 0;
		}

		list++;
  400674:	340c      	adds	r4, #12
		size--;
  400676:	3d01      	subs	r5, #1
	while (size > 0) {
  400678:	2d00      	cmp	r5, #0
  40067a:	d043      	beq.n	400704 <PIO_Configure+0xa8>
		switch (list->type) {
  40067c:	7a62      	ldrb	r2, [r4, #9]
  40067e:	2a06      	cmp	r2, #6
  400680:	d843      	bhi.n	40070a <PIO_Configure+0xae>
  400682:	a301      	add	r3, pc, #4	; (adr r3, 400688 <PIO_Configure+0x2c>)
  400684:	f853 f022 	ldr.w	pc, [r3, r2, lsl #2]
  400688:	00400667 	.word	0x00400667
  40068c:	004006a5 	.word	0x004006a5
  400690:	004006b5 	.word	0x004006b5
  400694:	004006c5 	.word	0x004006c5
  400698:	004006d5 	.word	0x004006d5
  40069c:	004006e7 	.word	0x004006e7
  4006a0:	004006e7 	.word	0x004006e7
							   (list->attribute & PIO_PULLUP) ? 1 : 0);
  4006a4:	7aa2      	ldrb	r2, [r4, #10]
			PIO_SetPeripheralB(list->pio,
  4006a6:	f002 0201 	and.w	r2, r2, #1
  4006aa:	6821      	ldr	r1, [r4, #0]
  4006ac:	6860      	ldr	r0, [r4, #4]
  4006ae:	4b19      	ldr	r3, [pc, #100]	; (400714 <PIO_Configure+0xb8>)
  4006b0:	4798      	blx	r3
			break;
  4006b2:	e7df      	b.n	400674 <PIO_Configure+0x18>
							   (list->attribute & PIO_PULLUP) ? 1 : 0);
  4006b4:	7aa2      	ldrb	r2, [r4, #10]
			PIO_SetPeripheralC(list->pio,
  4006b6:	f002 0201 	and.w	r2, r2, #1
  4006ba:	6821      	ldr	r1, [r4, #0]
  4006bc:	6860      	ldr	r0, [r4, #4]
  4006be:	4b16      	ldr	r3, [pc, #88]	; (400718 <PIO_Configure+0xbc>)
  4006c0:	4798      	blx	r3
			break;
  4006c2:	e7d7      	b.n	400674 <PIO_Configure+0x18>
							   (list->attribute & PIO_PULLUP) ? 1 : 0);
  4006c4:	7aa2      	ldrb	r2, [r4, #10]
			PIO_SetPeripheralD(list->pio,
  4006c6:	f002 0201 	and.w	r2, r2, #1
  4006ca:	6821      	ldr	r1, [r4, #0]
  4006cc:	6860      	ldr	r0, [r4, #4]
  4006ce:	4b13      	ldr	r3, [pc, #76]	; (40071c <PIO_Configure+0xc0>)
  4006d0:	4798      	blx	r3
			break;
  4006d2:	e7cf      	b.n	400674 <PIO_Configure+0x18>
			PMC_EnablePeripheral(list->id);
  4006d4:	7a20      	ldrb	r0, [r4, #8]
  4006d6:	4b12      	ldr	r3, [pc, #72]	; (400720 <PIO_Configure+0xc4>)
  4006d8:	4798      	blx	r3
			PIO_SetInput(list->pio,
  4006da:	7aa2      	ldrb	r2, [r4, #10]
  4006dc:	6821      	ldr	r1, [r4, #0]
  4006de:	6860      	ldr	r0, [r4, #4]
  4006e0:	4b10      	ldr	r3, [pc, #64]	; (400724 <PIO_Configure+0xc8>)
  4006e2:	4798      	blx	r3
			break;
  4006e4:	e7c6      	b.n	400674 <PIO_Configure+0x18>
						  (list->attribute & PIO_OPENDRAIN) ? 1 : 0,
  4006e6:	7aa3      	ldrb	r3, [r4, #10]
			PIO_SetOutput(list->pio,
  4006e8:	f003 0101 	and.w	r1, r3, #1
  4006ec:	9100      	str	r1, [sp, #0]
  4006ee:	f3c3 0380 	ubfx	r3, r3, #2, #1
  4006f2:	2a06      	cmp	r2, #6
  4006f4:	bf14      	ite	ne
  4006f6:	2200      	movne	r2, #0
  4006f8:	2201      	moveq	r2, #1
  4006fa:	6821      	ldr	r1, [r4, #0]
  4006fc:	6860      	ldr	r0, [r4, #4]
  4006fe:	4e0a      	ldr	r6, [pc, #40]	; (400728 <PIO_Configure+0xcc>)
  400700:	47b0      	blx	r6
			break;
  400702:	e7b7      	b.n	400674 <PIO_Configure+0x18>
	}

	return 1;
  400704:	2001      	movs	r0, #1
}
  400706:	b002      	add	sp, #8
  400708:	bd70      	pop	{r4, r5, r6, pc}
		default: return 0;
  40070a:	2000      	movs	r0, #0
  40070c:	e7fb      	b.n	400706 <PIO_Configure+0xaa>
  40070e:	bf00      	nop
  400710:	0040057d 	.word	0x0040057d
  400714:	004005a5 	.word	0x004005a5
  400718:	004005c5 	.word	0x004005c5
  40071c:	004005e5 	.word	0x004005e5
  400720:	004007f9 	.word	0x004007f9
  400724:	004005ff 	.word	0x004005ff
  400728:	00400635 	.word	0x00400635

0040072c <PioInterruptHandler>:
 * \brief Handles all interrupts on the given PIO controller.
 * \param id  PIO controller ID.
 * \param pPio  PIO controller base address.
 */
extern void PioInterruptHandler(uint32_t id, Pio *pPio)
{
  40072c:	b5f8      	push	{r3, r4, r5, r6, r7, lr}
	uint32_t status;
	uint32_t i;

	/* Read PIO controller status */
	status = pPio->PIO_ISR;
  40072e:	6ccd      	ldr	r5, [r1, #76]	; 0x4c
	status &= pPio->PIO_IMR;
  400730:	6c8b      	ldr	r3, [r1, #72]	; 0x48

	/* Check pending events */
	if (status != 0) {
  400732:	401d      	ands	r5, r3
  400734:	d002      	beq.n	40073c <PioInterruptHandler+0x10>
  400736:	4606      	mov	r6, r0
  400738:	2400      	movs	r4, #0
  40073a:	e007      	b.n	40074c <PioInterruptHandler+0x20>
  40073c:	bdf8      	pop	{r3, r4, r5, r6, r7, pc}
		/* Find triggering source */
		i = 0;

		while (status != 0) {
			/* There cannot be an un-configured source enabled. */
			assert(i < _dwNumSources);
  40073e:	4b10      	ldr	r3, [pc, #64]	; (400780 <PioInterruptHandler+0x54>)
  400740:	4a10      	ldr	r2, [pc, #64]	; (400784 <PioInterruptHandler+0x58>)
  400742:	2168      	movs	r1, #104	; 0x68
  400744:	4810      	ldr	r0, [pc, #64]	; (400788 <PioInterruptHandler+0x5c>)
  400746:	4c11      	ldr	r4, [pc, #68]	; (40078c <PioInterruptHandler+0x60>)
  400748:	47a0      	blx	r4
					_aIntSources[i].handler(_aIntSources[i].pPin);
					status &= ~(_aIntSources[i].pPin->mask);
				}
			}

			i++;
  40074a:	3401      	adds	r4, #1
		while (status != 0) {
  40074c:	b1bd      	cbz	r5, 40077e <PioInterruptHandler+0x52>
			assert(i < _dwNumSources);
  40074e:	4b10      	ldr	r3, [pc, #64]	; (400790 <PioInterruptHandler+0x64>)
  400750:	681b      	ldr	r3, [r3, #0]
  400752:	429c      	cmp	r4, r3
  400754:	d2f3      	bcs.n	40073e <PioInterruptHandler+0x12>
			if (_aIntSources[i].pPin->id == id) {
  400756:	4b0e      	ldr	r3, [pc, #56]	; (400790 <PioInterruptHandler+0x64>)
  400758:	eb03 03c4 	add.w	r3, r3, r4, lsl #3
  40075c:	6858      	ldr	r0, [r3, #4]
  40075e:	7a03      	ldrb	r3, [r0, #8]
  400760:	42b3      	cmp	r3, r6
  400762:	d1f2      	bne.n	40074a <PioInterruptHandler+0x1e>
				if ((status & _aIntSources[i].pPin->mask) != 0) {
  400764:	6803      	ldr	r3, [r0, #0]
  400766:	421d      	tst	r5, r3
  400768:	d0ef      	beq.n	40074a <PioInterruptHandler+0x1e>
					_aIntSources[i].handler(_aIntSources[i].pPin);
  40076a:	4f09      	ldr	r7, [pc, #36]	; (400790 <PioInterruptHandler+0x64>)
  40076c:	eb07 07c4 	add.w	r7, r7, r4, lsl #3
  400770:	68bb      	ldr	r3, [r7, #8]
  400772:	4798      	blx	r3
					status &= ~(_aIntSources[i].pPin->mask);
  400774:	687b      	ldr	r3, [r7, #4]
  400776:	681b      	ldr	r3, [r3, #0]
  400778:	ea25 0503 	bic.w	r5, r5, r3
  40077c:	e7e5      	b.n	40074a <PioInterruptHandler+0x1e>
  40077e:	bdf8      	pop	{r3, r4, r5, r6, r7, pc}
  400780:	00408a7c 	.word	0x00408a7c
  400784:	00408a38 	.word	0x00408a38
  400788:	00408a90 	.word	0x00408a90
  40078c:	004022d9 	.word	0x004022d9
  400790:	20400a48 	.word	0x20400a48

00400794 <PIOA_Handler>:
/**
 * \brief Parallel IO Controller A interrupt handler
 * \Redefined PIOA interrupt handler for NVIC interrupt table.
 */
extern void PIOA_Handler(void)
{
  400794:	b508      	push	{r3, lr}
	PioInterruptHandler(ID_PIOA, PIOA);
  400796:	4902      	ldr	r1, [pc, #8]	; (4007a0 <PIOA_Handler+0xc>)
  400798:	200a      	movs	r0, #10
  40079a:	4b02      	ldr	r3, [pc, #8]	; (4007a4 <PIOA_Handler+0x10>)
  40079c:	4798      	blx	r3
  40079e:	bd08      	pop	{r3, pc}
  4007a0:	400e0e00 	.word	0x400e0e00
  4007a4:	0040072d 	.word	0x0040072d

004007a8 <PIOB_Handler>:
/**
 * \brief Parallel IO Controller B interrupt handler
 * \Redefined PIOB interrupt handler for NVIC interrupt table.
 */
extern void PIOB_Handler(void)
{
  4007a8:	b508      	push	{r3, lr}
	PioInterruptHandler(ID_PIOB, PIOB);
  4007aa:	4902      	ldr	r1, [pc, #8]	; (4007b4 <PIOB_Handler+0xc>)
  4007ac:	200b      	movs	r0, #11
  4007ae:	4b02      	ldr	r3, [pc, #8]	; (4007b8 <PIOB_Handler+0x10>)
  4007b0:	4798      	blx	r3
  4007b2:	bd08      	pop	{r3, pc}
  4007b4:	400e1000 	.word	0x400e1000
  4007b8:	0040072d 	.word	0x0040072d

004007bc <PIOC_Handler>:
/**
 * \brief Parallel IO Controller C interrupt handler
 * \Redefined PIOC interrupt handler for NVIC interrupt table.
 */
extern void PIOC_Handler(void)
{
  4007bc:	b508      	push	{r3, lr}
	PioInterruptHandler(ID_PIOC, PIOC);
  4007be:	4902      	ldr	r1, [pc, #8]	; (4007c8 <PIOC_Handler+0xc>)
  4007c0:	200c      	movs	r0, #12
  4007c2:	4b02      	ldr	r3, [pc, #8]	; (4007cc <PIOC_Handler+0x10>)
  4007c4:	4798      	blx	r3
  4007c6:	bd08      	pop	{r3, pc}
  4007c8:	400e1200 	.word	0x400e1200
  4007cc:	0040072d 	.word	0x0040072d

004007d0 <PIOD_Handler>:
/**
 * \brief Parallel IO Controller D interrupt handler
 * \Redefined PIOD interrupt handler for NVIC interrupt table.
 */
extern void PIOD_Handler(void)
{
  4007d0:	b508      	push	{r3, lr}
	PioInterruptHandler(ID_PIOD, PIOD);
  4007d2:	4902      	ldr	r1, [pc, #8]	; (4007dc <PIOD_Handler+0xc>)
  4007d4:	2010      	movs	r0, #16
  4007d6:	4b02      	ldr	r3, [pc, #8]	; (4007e0 <PIOD_Handler+0x10>)
  4007d8:	4798      	blx	r3
  4007da:	bd08      	pop	{r3, pc}
  4007dc:	400e1400 	.word	0x400e1400
  4007e0:	0040072d 	.word	0x0040072d

004007e4 <PIOE_Handler>:
/**
 * \brief Parallel IO Controller E interrupt handler
 * \Redefined PIOE interrupt handler for NVIC interrupt table.
 */
extern void PIOE_Handler(void)
{
  4007e4:	b508      	push	{r3, lr}
	PioInterruptHandler(ID_PIOE, PIOE);
  4007e6:	4902      	ldr	r1, [pc, #8]	; (4007f0 <PIOE_Handler+0xc>)
  4007e8:	2011      	movs	r0, #17
  4007ea:	4b02      	ldr	r3, [pc, #8]	; (4007f4 <PIOE_Handler+0x10>)
  4007ec:	4798      	blx	r3
  4007ee:	bd08      	pop	{r3, pc}
  4007f0:	400e1600 	.word	0x400e1600
  4007f4:	0040072d 	.word	0x0040072d

004007f8 <PMC_EnablePeripheral>:
 *
 * \param id  Peripheral ID (ID_xxx).
 */
void PMC_EnablePeripheral(uint32_t dwId)
{
	assert(dwId < 63);
  4007f8:	283e      	cmp	r0, #62	; 0x3e
  4007fa:	d80d      	bhi.n	400818 <PMC_EnablePeripheral+0x20>

	if (dwId < 32) {
  4007fc:	281f      	cmp	r0, #31
  4007fe:	d812      	bhi.n	400826 <PMC_EnablePeripheral+0x2e>
		if ((PMC->PMC_PCSR0 & ((uint32_t)1 << dwId)) == ((uint32_t)1 << dwId)) {
  400800:	4b10      	ldr	r3, [pc, #64]	; (400844 <PMC_EnablePeripheral+0x4c>)
  400802:	699a      	ldr	r2, [r3, #24]
  400804:	2301      	movs	r3, #1
  400806:	4083      	lsls	r3, r0
  400808:	4393      	bics	r3, r2
  40080a:	d01a      	beq.n	400842 <PMC_EnablePeripheral+0x4a>
			TRACE_DEBUG("PMC_EnablePeripheral: clock of peripheral" \
						 " %u is already enabled\n\r", (unsigned int)dwId);
		} else
			PMC->PMC_PCER0 = 1 << dwId;
  40080c:	2301      	movs	r3, #1
  40080e:	fa03 f000 	lsl.w	r0, r3, r0
  400812:	4b0c      	ldr	r3, [pc, #48]	; (400844 <PMC_EnablePeripheral+0x4c>)
  400814:	6118      	str	r0, [r3, #16]
  400816:	e014      	b.n	400842 <PMC_EnablePeripheral+0x4a>
{
  400818:	b510      	push	{r4, lr}
	assert(dwId < 63);
  40081a:	4b0b      	ldr	r3, [pc, #44]	; (400848 <PMC_EnablePeripheral+0x50>)
  40081c:	4a0b      	ldr	r2, [pc, #44]	; (40084c <PMC_EnablePeripheral+0x54>)
  40081e:	219e      	movs	r1, #158	; 0x9e
  400820:	480b      	ldr	r0, [pc, #44]	; (400850 <PMC_EnablePeripheral+0x58>)
  400822:	4c0c      	ldr	r4, [pc, #48]	; (400854 <PMC_EnablePeripheral+0x5c>)
  400824:	47a0      	blx	r4
	} else {
		dwId -= 32;
  400826:	3820      	subs	r0, #32

		if ((PMC->PMC_PCSR1 & ((uint32_t)1 << dwId)) == ((uint32_t)1 << dwId)) {
  400828:	4b06      	ldr	r3, [pc, #24]	; (400844 <PMC_EnablePeripheral+0x4c>)
  40082a:	f8d3 2108 	ldr.w	r2, [r3, #264]	; 0x108
  40082e:	2301      	movs	r3, #1
  400830:	4083      	lsls	r3, r0
  400832:	4393      	bics	r3, r2
  400834:	d005      	beq.n	400842 <PMC_EnablePeripheral+0x4a>
			TRACE_DEBUG("PMC_EnablePeripheral: clock of peripheral" \
						 " %u is already enabled\n\r", (unsigned int)(dwId + 32));
		} else
			PMC->PMC_PCER1 = 1 << dwId;
  400836:	2301      	movs	r3, #1
  400838:	fa03 f000 	lsl.w	r0, r3, r0
  40083c:	4b01      	ldr	r3, [pc, #4]	; (400844 <PMC_EnablePeripheral+0x4c>)
  40083e:	f8c3 0100 	str.w	r0, [r3, #256]	; 0x100
  400842:	4770      	bx	lr
  400844:	400e0600 	.word	0x400e0600
  400848:	00408b40 	.word	0x00408b40
  40084c:	00408afc 	.word	0x00408afc
  400850:	00408b4c 	.word	0x00408b4c
  400854:	004022d9 	.word	0x004022d9

00400858 <PMC_IsPeriphEnabled>:
 *
 * \param id  Peripheral ID (ID_xxx).
 */
uint32_t PMC_IsPeriphEnabled(uint32_t dwId)
{
	assert(dwId < ID_PERIPH_COUNT);
  400858:	283f      	cmp	r0, #63	; 0x3f
  40085a:	d80a      	bhi.n	400872 <PMC_IsPeriphEnabled+0x1a>

	if (dwId < 32)
  40085c:	281f      	cmp	r0, #31
  40085e:	d90f      	bls.n	400880 <PMC_IsPeriphEnabled+0x28>
		return (PMC->PMC_PCSR0 & (1 << dwId));
	else
		return (PMC->PMC_PCSR1 & (1 << (dwId - 32)));
  400860:	4b0b      	ldr	r3, [pc, #44]	; (400890 <PMC_IsPeriphEnabled+0x38>)
  400862:	f8d3 3108 	ldr.w	r3, [r3, #264]	; 0x108
  400866:	3820      	subs	r0, #32
  400868:	2201      	movs	r2, #1
  40086a:	fa02 f000 	lsl.w	r0, r2, r0
  40086e:	4018      	ands	r0, r3
}
  400870:	4770      	bx	lr
{
  400872:	b510      	push	{r4, lr}
	assert(dwId < ID_PERIPH_COUNT);
  400874:	4b07      	ldr	r3, [pc, #28]	; (400894 <PMC_IsPeriphEnabled+0x3c>)
  400876:	4a08      	ldr	r2, [pc, #32]	; (400898 <PMC_IsPeriphEnabled+0x40>)
  400878:	21f5      	movs	r1, #245	; 0xf5
  40087a:	4808      	ldr	r0, [pc, #32]	; (40089c <PMC_IsPeriphEnabled+0x44>)
  40087c:	4c08      	ldr	r4, [pc, #32]	; (4008a0 <PMC_IsPeriphEnabled+0x48>)
  40087e:	47a0      	blx	r4
		return (PMC->PMC_PCSR0 & (1 << dwId));
  400880:	4b03      	ldr	r3, [pc, #12]	; (400890 <PMC_IsPeriphEnabled+0x38>)
  400882:	699b      	ldr	r3, [r3, #24]
  400884:	2201      	movs	r2, #1
  400886:	fa02 f000 	lsl.w	r0, r2, r0
  40088a:	4018      	ands	r0, r3
  40088c:	e7f0      	b.n	400870 <PMC_IsPeriphEnabled+0x18>
  40088e:	bf00      	nop
  400890:	400e0600 	.word	0x400e0600
  400894:	00408b64 	.word	0x00408b64
  400898:	00408b2c 	.word	0x00408b2c
  40089c:	00408b4c 	.word	0x00408b4c
  4008a0:	004022d9 	.word	0x004022d9

004008a4 <PMC_ConfigurePCK2>:
 * \param div        PLL divider factor (not shifted).
 * \param prescaler  Master Clock prescaler (shifted as in register).
 */
void PMC_ConfigurePCK2(uint32_t MasterClk, uint32_t prescaler)
{
	PMC->PMC_SCDR = PMC_SCDR_PCK2;  /* disable PCK */
  4008a4:	f44f 6280 	mov.w	r2, #1024	; 0x400
  4008a8:	4b09      	ldr	r3, [pc, #36]	; (4008d0 <PMC_ConfigurePCK2+0x2c>)
  4008aa:	605a      	str	r2, [r3, #4]

	while ((PMC->PMC_SCSR)& PMC_SCSR_PCK2);
  4008ac:	4b08      	ldr	r3, [pc, #32]	; (4008d0 <PMC_ConfigurePCK2+0x2c>)
  4008ae:	689b      	ldr	r3, [r3, #8]
  4008b0:	f413 6f80 	tst.w	r3, #1024	; 0x400
  4008b4:	d1fa      	bne.n	4008ac <PMC_ConfigurePCK2+0x8>

	PMC->PMC_PCK[2] = MasterClk | prescaler;
  4008b6:	4308      	orrs	r0, r1
  4008b8:	4b05      	ldr	r3, [pc, #20]	; (4008d0 <PMC_ConfigurePCK2+0x2c>)
  4008ba:	6498      	str	r0, [r3, #72]	; 0x48
	PMC->PMC_SCER = PMC_SCER_PCK2;
  4008bc:	f44f 6280 	mov.w	r2, #1024	; 0x400
  4008c0:	601a      	str	r2, [r3, #0]

	while (!((PMC->PMC_SR) & PMC_SR_PCKRDY2));
  4008c2:	4b03      	ldr	r3, [pc, #12]	; (4008d0 <PMC_ConfigurePCK2+0x2c>)
  4008c4:	6e9b      	ldr	r3, [r3, #104]	; 0x68
  4008c6:	f413 6f80 	tst.w	r3, #1024	; 0x400
  4008ca:	d0fa      	beq.n	4008c2 <PMC_ConfigurePCK2+0x1e>

}
  4008cc:	4770      	bx	lr
  4008ce:	bf00      	nop
  4008d0:	400e0600 	.word	0x400e0600

004008d4 <SSC_Configure>:
 * \param ssc  Pointer to an SSC instance.
 * \param bitRate  bit rate.
 * \param masterClock  master clock.
 */
void SSC_Configure(Ssc *ssc, uint32_t bitRate, uint32_t masterClock)
{
  4008d4:	b508      	push	{r3, lr}
	//    uint32_t maxClock;
	id = ID_SSC;
	//    maxClock = PMC_SetPeriMaxClock(id, masterClock);

	/* Reset, disable receiver & transmitter */
	ssc->SSC_CR = SSC_CR_RXDIS | SSC_CR_TXDIS | SSC_CR_SWRST;
  4008d6:	f248 2302 	movw	r3, #33282	; 0x8202
  4008da:	6003      	str	r3, [r0, #0]

	/* Configure clock frequency */
	if (bitRate != 0)
  4008dc:	b929      	cbnz	r1, 4008ea <SSC_Configure+0x16>
		ssc->SSC_CMR = masterClock / (2 * bitRate);
	else
		ssc->SSC_CMR = 0;
  4008de:	2300      	movs	r3, #0
  4008e0:	6043      	str	r3, [r0, #4]

	/* Enable SSC peripheral clock */
	PMC_EnablePeripheral(id);
  4008e2:	2016      	movs	r0, #22
  4008e4:	4b03      	ldr	r3, [pc, #12]	; (4008f4 <SSC_Configure+0x20>)
  4008e6:	4798      	blx	r3
  4008e8:	bd08      	pop	{r3, pc}
		ssc->SSC_CMR = masterClock / (2 * bitRate);
  4008ea:	004b      	lsls	r3, r1, #1
  4008ec:	fbb2 f2f3 	udiv	r2, r2, r3
  4008f0:	6042      	str	r2, [r0, #4]
  4008f2:	e7f6      	b.n	4008e2 <SSC_Configure+0xe>
  4008f4:	004007f9 	.word	0x004007f9

004008f8 <SSC_ConfigureTransmitter>:
 * \param tcmr Transmit Clock Mode Register value.
 * \param tfmr Transmit Frame Mode Register value.
 */
void SSC_ConfigureTransmitter(Ssc *ssc, uint32_t tcmr, uint32_t tfmr)
{
	ssc->SSC_TCMR = tcmr;
  4008f8:	6181      	str	r1, [r0, #24]
	ssc->SSC_TFMR = tfmr;
  4008fa:	61c2      	str	r2, [r0, #28]
  4008fc:	4770      	bx	lr

004008fe <SSC_ConfigureReceiver>:
 * \param rcmr Receive Clock Mode Register value.
 * \param rfmr Receive Frame Mode Register value.
 */
void SSC_ConfigureReceiver(Ssc *ssc, uint32_t rcmr, uint32_t rfmr)
{
	ssc->SSC_RCMR = rcmr;
  4008fe:	6101      	str	r1, [r0, #16]
	ssc->SSC_RFMR = rfmr;
  400900:	6142      	str	r2, [r0, #20]
  400902:	4770      	bx	lr

00400904 <SSC_EnableTransmitter>:
 * \brief Enables the transmitter of a SSC peripheral.
 * \param ssc  Pointer to an SSC instance.
 */
void SSC_EnableTransmitter(Ssc *ssc)
{
	ssc->SSC_CR = SSC_CR_TXEN;
  400904:	f44f 7380 	mov.w	r3, #256	; 0x100
  400908:	6003      	str	r3, [r0, #0]
  40090a:	4770      	bx	lr

0040090c <SSC_DisableTransmitter>:
 * \brief Disables the transmitter of a SSC peripheral.
 * \param ssc  Pointer to an SSC instance.
 */
void SSC_DisableTransmitter(Ssc *ssc)
{
	ssc->SSC_CR = SSC_CR_TXDIS;
  40090c:	f44f 7300 	mov.w	r3, #512	; 0x200
  400910:	6003      	str	r3, [r0, #0]
  400912:	4770      	bx	lr

00400914 <SSC_EnableReceiver>:
 * \brief Enables the receiver of a SSC peripheral.
 * \param ssc  Pointer to an SSC instance.
 */
void SSC_EnableReceiver(Ssc *ssc)
{
	ssc->SSC_CR = SSC_CR_RXEN;
  400914:	2301      	movs	r3, #1
  400916:	6003      	str	r3, [r0, #0]
  400918:	4770      	bx	lr

0040091a <SSC_DisableReceiver>:
 * \brief Disables the receiver of a SSC peripheral.
 * \param ssc  Pointer to an SSC instance.
 */
void SSC_DisableReceiver(Ssc *ssc)
{
	ssc->SSC_CR = SSC_CR_RXDIS;
  40091a:	2302      	movs	r3, #2
  40091c:	6003      	str	r3, [r0, #0]
  40091e:	4770      	bx	lr

00400920 <SysTick_Handler>:
 *  Increments the time-stamp counter.
 */
void SysTick_Handler(void)
{
	TimeEvent *pEvent;
	pEvent = pTimeEventList;
  400920:	4a0e      	ldr	r2, [pc, #56]	; (40095c <SysTick_Handler+0x3c>)
  400922:	6813      	ldr	r3, [r2, #0]
	_dwTickCount ++;
  400924:	6851      	ldr	r1, [r2, #4]
  400926:	3101      	adds	r1, #1
  400928:	6051      	str	r1, [r2, #4]

	if (_dwTickTimer)
  40092a:	6892      	ldr	r2, [r2, #8]
  40092c:	b12a      	cbz	r2, 40093a <SysTick_Handler+0x1a>
		_dwTickTimer --;
  40092e:	490b      	ldr	r1, [pc, #44]	; (40095c <SysTick_Handler+0x3c>)
  400930:	688a      	ldr	r2, [r1, #8]
  400932:	3a01      	subs	r2, #1
  400934:	608a      	str	r2, [r1, #8]
  400936:	e000      	b.n	40093a <SysTick_Handler+0x1a>
				pEvent->time_start = 0;
				pEvent->occur = 1;
			}
		}

		pEvent = pEvent->pNextEvent;
  400938:	695b      	ldr	r3, [r3, #20]
	while (pEvent) {
  40093a:	b173      	cbz	r3, 40095a <SysTick_Handler+0x3a>
		if (pEvent->time_start && pEvent->occur == 0) {
  40093c:	689a      	ldr	r2, [r3, #8]
  40093e:	2a00      	cmp	r2, #0
  400940:	d0fa      	beq.n	400938 <SysTick_Handler+0x18>
  400942:	68da      	ldr	r2, [r3, #12]
  400944:	2a00      	cmp	r2, #0
  400946:	d1f7      	bne.n	400938 <SysTick_Handler+0x18>
			pEvent->time_tick--;
  400948:	685a      	ldr	r2, [r3, #4]
  40094a:	3a01      	subs	r2, #1
  40094c:	605a      	str	r2, [r3, #4]
			if (pEvent->time_tick == 0) {
  40094e:	2a00      	cmp	r2, #0
  400950:	d1f2      	bne.n	400938 <SysTick_Handler+0x18>
				pEvent->time_start = 0;
  400952:	609a      	str	r2, [r3, #8]
				pEvent->occur = 1;
  400954:	2201      	movs	r2, #1
  400956:	60da      	str	r2, [r3, #12]
  400958:	e7ee      	b.n	400938 <SysTick_Handler+0x18>
	}
}
  40095a:	4770      	bx	lr
  40095c:	20400a8c 	.word	0x20400a8c

00400960 <TimeTick_Configure>:
 *  Systick interrupt handler will generates 1ms interrupt and increase a
 *  tickCount.
 *  \note IRQ handler must be configured before invoking this function.
 */
uint32_t TimeTick_Configure(void)
{
  400960:	b508      	push	{r3, lr}
	uint8_t Mdiv_Val;
	uint32_t Pck;
	_dwTickCount = 0;
  400962:	2200      	movs	r2, #0
  400964:	4b1c      	ldr	r3, [pc, #112]	; (4009d8 <TimeTick_Configure+0x78>)
  400966:	605a      	str	r2, [r3, #4]

	TRACE_INFO("Configure system tick to get 1ms tick period.\n\r");
  400968:	481c      	ldr	r0, [pc, #112]	; (4009dc <TimeTick_Configure+0x7c>)
  40096a:	4b1d      	ldr	r3, [pc, #116]	; (4009e0 <TimeTick_Configure+0x80>)
  40096c:	4798      	blx	r3
	/* check if there is MDIV value */
	Mdiv_Val = ((PMC->PMC_MCKR & PMC_MCKR_MDIV_Msk) >> PMC_MCKR_MDIV_Pos);
  40096e:	4b1d      	ldr	r3, [pc, #116]	; (4009e4 <TimeTick_Configure+0x84>)
  400970:	6b1b      	ldr	r3, [r3, #48]	; 0x30
  400972:	f3c3 2301 	ubfx	r3, r3, #8, #2

	if (Mdiv_Val == 0)
  400976:	b14b      	cbz	r3, 40098c <TimeTick_Configure+0x2c>
		Pck = BOARD_MCK;
	else if (Mdiv_Val == 3)
  400978:	2b03      	cmp	r3, #3
  40097a:	d003      	beq.n	400984 <TimeTick_Configure+0x24>
		Pck = BOARD_MCK * Mdiv_Val;
	else
		Pck = BOARD_MCK * (Mdiv_Val * 2);
  40097c:	4a1a      	ldr	r2, [pc, #104]	; (4009e8 <TimeTick_Configure+0x88>)
  40097e:	fb02 f303 	mul.w	r3, r2, r3
  400982:	e004      	b.n	40098e <TimeTick_Configure+0x2e>
		Pck = BOARD_MCK * Mdiv_Val;
  400984:	4a19      	ldr	r2, [pc, #100]	; (4009ec <TimeTick_Configure+0x8c>)
  400986:	fb02 f303 	mul.w	r3, r2, r3
  40098a:	e000      	b.n	40098e <TimeTick_Configure+0x2e>
		Pck = BOARD_MCK;
  40098c:	4b17      	ldr	r3, [pc, #92]	; (4009ec <TimeTick_Configure+0x8c>)

	DelayTimer.pTimer1 = NULL; DelayTimer.pTimer1 = NULL;
  40098e:	2100      	movs	r1, #0
  400990:	4a17      	ldr	r2, [pc, #92]	; (4009f0 <TimeTick_Configure+0x90>)
  400992:	6011      	str	r1, [r2, #0]

	/* Configure SysTick for 1 ms. */
	if (SysTick_Config(Pck / 1000)) {
  400994:	4a17      	ldr	r2, [pc, #92]	; (4009f4 <TimeTick_Configure+0x94>)
  400996:	fba2 2303 	umull	r2, r3, r2, r3
  40099a:	099b      	lsrs	r3, r3, #6
           function <b>SysTick_Config</b> is not included. In this case, the file <b><i>device</i>.h</b>
           must contain a vendor-specific implementation of this function.
 */
__STATIC_INLINE uint32_t SysTick_Config(uint32_t ticks)
{
  if ((ticks - 1UL) > SysTick_LOAD_RELOAD_Msk)
  40099c:	3b01      	subs	r3, #1
  40099e:	f1b3 7f80 	cmp.w	r3, #16777216	; 0x1000000
  4009a2:	d20f      	bcs.n	4009c4 <TimeTick_Configure+0x64>
  {
    return (1UL);                                                   /* Reload value impossible */
  }

  SysTick->LOAD  = (uint32_t)(ticks - 1UL);                         /* set reload register */
  4009a4:	4a14      	ldr	r2, [pc, #80]	; (4009f8 <TimeTick_Configure+0x98>)
  4009a6:	6053      	str	r3, [r2, #4]
    SCB->SHPR[(((uint32_t)(int32_t)IRQn) & 0xFUL)-4UL] = (uint8_t)((priority << (8U - __NVIC_PRIO_BITS)) & (uint32_t)0xFFUL);
  4009a8:	21e0      	movs	r1, #224	; 0xe0
  4009aa:	4b14      	ldr	r3, [pc, #80]	; (4009fc <TimeTick_Configure+0x9c>)
  4009ac:	f883 1023 	strb.w	r1, [r3, #35]	; 0x23
  NVIC_SetPriority (SysTick_IRQn, (1UL << __NVIC_PRIO_BITS) - 1UL); /* set Priority for Systick Interrupt */
  SysTick->VAL   = 0UL;                                             /* Load the SysTick Counter Value */
  4009b0:	2300      	movs	r3, #0
  4009b2:	6093      	str	r3, [r2, #8]
  SysTick->CTRL  = SysTick_CTRL_CLKSOURCE_Msk |
  4009b4:	2107      	movs	r1, #7
  4009b6:	6011      	str	r1, [r2, #0]
  4009b8:	b933      	cbnz	r3, 4009c8 <TimeTick_Configure+0x68>
		TRACE_ERROR("SysTick configuration error\n\r");
		SysTickConfigured = 0;
		return 1;
	}

	SysTickConfigured = 1;
  4009ba:	2201      	movs	r2, #1
  4009bc:	4b06      	ldr	r3, [pc, #24]	; (4009d8 <TimeTick_Configure+0x78>)
  4009be:	731a      	strb	r2, [r3, #12]
	return 0;
  4009c0:	2000      	movs	r0, #0
}
  4009c2:	bd08      	pop	{r3, pc}
    return (1UL);                                                   /* Reload value impossible */
  4009c4:	2301      	movs	r3, #1
  4009c6:	e7f7      	b.n	4009b8 <TimeTick_Configure+0x58>
		TRACE_ERROR("SysTick configuration error\n\r");
  4009c8:	480d      	ldr	r0, [pc, #52]	; (400a00 <TimeTick_Configure+0xa0>)
  4009ca:	4b05      	ldr	r3, [pc, #20]	; (4009e0 <TimeTick_Configure+0x80>)
  4009cc:	4798      	blx	r3
		SysTickConfigured = 0;
  4009ce:	2200      	movs	r2, #0
  4009d0:	4b01      	ldr	r3, [pc, #4]	; (4009d8 <TimeTick_Configure+0x78>)
  4009d2:	731a      	strb	r2, [r3, #12]
		return 1;
  4009d4:	2001      	movs	r0, #1
  4009d6:	bd08      	pop	{r3, pc}
  4009d8:	20400a8c 	.word	0x20400a8c
  4009dc:	00408ba8 	.word	0x00408ba8
  4009e0:	00402ae5 	.word	0x00402ae5
  4009e4:	400e0600 	.word	0x400e0600
  4009e8:	11e1a300 	.word	0x11e1a300
  4009ec:	08f0d180 	.word	0x08f0d180
  4009f0:	20408c90 	.word	0x20408c90
  4009f4:	10624dd3 	.word	0x10624dd3
  4009f8:	e000e010 	.word	0xe000e010
  4009fc:	e000ed00 	.word	0xe000ed00
  400a00:	00408bdc 	.word	0x00408bdc

00400a04 <GetDelayInTicks>:
 * \param startTick Start tick point.
 * \param endTick   End tick point.
 */
uint32_t GetDelayInTicks(uint32_t startTick, uint32_t endTick)
{
	assert(SysTickConfigured);
  400a04:	4b07      	ldr	r3, [pc, #28]	; (400a24 <GetDelayInTicks+0x20>)
  400a06:	7b1b      	ldrb	r3, [r3, #12]
  400a08:	b11b      	cbz	r3, 400a12 <GetDelayInTicks+0xe>

	if (endTick >= startTick) return (endTick - startTick);
  400a0a:	4281      	cmp	r1, r0
  400a0c:	d208      	bcs.n	400a20 <GetDelayInTicks+0x1c>

	return (endTick + (0xFFFFFFFF - startTick) + 1);
  400a0e:	1a08      	subs	r0, r1, r0

}
  400a10:	4770      	bx	lr
{
  400a12:	b510      	push	{r4, lr}
	assert(SysTickConfigured);
  400a14:	4b04      	ldr	r3, [pc, #16]	; (400a28 <GetDelayInTicks+0x24>)
  400a16:	4a05      	ldr	r2, [pc, #20]	; (400a2c <GetDelayInTicks+0x28>)
  400a18:	2188      	movs	r1, #136	; 0x88
  400a1a:	4805      	ldr	r0, [pc, #20]	; (400a30 <GetDelayInTicks+0x2c>)
  400a1c:	4c05      	ldr	r4, [pc, #20]	; (400a34 <GetDelayInTicks+0x30>)
  400a1e:	47a0      	blx	r4
	if (endTick >= startTick) return (endTick - startTick);
  400a20:	1a08      	subs	r0, r1, r0
  400a22:	e7f5      	b.n	400a10 <GetDelayInTicks+0xc>
  400a24:	20400a8c 	.word	0x20400a8c
  400a28:	00408c00 	.word	0x00408c00
  400a2c:	00408b7c 	.word	0x00408b7c
  400a30:	00408c14 	.word	0x00408c14
  400a34:	004022d9 	.word	0x004022d9

00400a38 <GetTicks>:
 * \param startTick Start tick point.
 * \param endTick   End tick point.
 */
uint32_t GetTicks(void)
{
	assert(SysTickConfigured);
  400a38:	4b06      	ldr	r3, [pc, #24]	; (400a54 <GetTicks+0x1c>)
  400a3a:	7b1b      	ldrb	r3, [r3, #12]
  400a3c:	b113      	cbz	r3, 400a44 <GetTicks+0xc>

	return _dwTickCount;
  400a3e:	4b05      	ldr	r3, [pc, #20]	; (400a54 <GetTicks+0x1c>)
  400a40:	6858      	ldr	r0, [r3, #4]
}
  400a42:	4770      	bx	lr
{
  400a44:	b510      	push	{r4, lr}
	assert(SysTickConfigured);
  400a46:	4b04      	ldr	r3, [pc, #16]	; (400a58 <GetTicks+0x20>)
  400a48:	4a04      	ldr	r2, [pc, #16]	; (400a5c <GetTicks+0x24>)
  400a4a:	2197      	movs	r1, #151	; 0x97
  400a4c:	4804      	ldr	r0, [pc, #16]	; (400a60 <GetTicks+0x28>)
  400a4e:	4c05      	ldr	r4, [pc, #20]	; (400a64 <GetTicks+0x2c>)
  400a50:	47a0      	blx	r4
  400a52:	bf00      	nop
  400a54:	20400a8c 	.word	0x20400a8c
  400a58:	00408c00 	.word	0x00408c00
  400a5c:	00408b8c 	.word	0x00408b8c
  400a60:	00408c14 	.word	0x00408c14
  400a64:	004022d9 	.word	0x004022d9

00400a68 <Wait>:
/**
 *  \brief Sync Wait for several ms
 *  \param dwMs    Waiting time in ms.
 */
void Wait(volatile uint32_t dwMs)
{
  400a68:	b510      	push	{r4, lr}
  400a6a:	b082      	sub	sp, #8
  400a6c:	9001      	str	r0, [sp, #4]
	uint32_t dwStart , dwEnd;

	assert(SysTickConfigured);
  400a6e:	4b0b      	ldr	r3, [pc, #44]	; (400a9c <Wait+0x34>)
  400a70:	7b1b      	ldrb	r3, [r3, #12]
  400a72:	b11b      	cbz	r3, 400a7c <Wait+0x14>

	dwStart = _dwTickCount;
  400a74:	4b09      	ldr	r3, [pc, #36]	; (400a9c <Wait+0x34>)
  400a76:	685c      	ldr	r4, [r3, #4]
	dwEnd = _dwTickCount;
  400a78:	6859      	ldr	r1, [r3, #4]

	while (GetDelayInTicks(dwStart, dwEnd) < dwMs)
  400a7a:	e007      	b.n	400a8c <Wait+0x24>
	assert(SysTickConfigured);
  400a7c:	4b08      	ldr	r3, [pc, #32]	; (400aa0 <Wait+0x38>)
  400a7e:	4a09      	ldr	r2, [pc, #36]	; (400aa4 <Wait+0x3c>)
  400a80:	21a4      	movs	r1, #164	; 0xa4
  400a82:	4809      	ldr	r0, [pc, #36]	; (400aa8 <Wait+0x40>)
  400a84:	4c09      	ldr	r4, [pc, #36]	; (400aac <Wait+0x44>)
  400a86:	47a0      	blx	r4
		dwEnd = _dwTickCount;
  400a88:	4b04      	ldr	r3, [pc, #16]	; (400a9c <Wait+0x34>)
  400a8a:	6859      	ldr	r1, [r3, #4]
	while (GetDelayInTicks(dwStart, dwEnd) < dwMs)
  400a8c:	4620      	mov	r0, r4
  400a8e:	4b08      	ldr	r3, [pc, #32]	; (400ab0 <Wait+0x48>)
  400a90:	4798      	blx	r3
  400a92:	9b01      	ldr	r3, [sp, #4]
  400a94:	4298      	cmp	r0, r3
  400a96:	d3f7      	bcc.n	400a88 <Wait+0x20>
}
  400a98:	b002      	add	sp, #8
  400a9a:	bd10      	pop	{r4, pc}
  400a9c:	20400a8c 	.word	0x20400a8c
  400aa0:	00408c00 	.word	0x00408c00
  400aa4:	00408b98 	.word	0x00408b98
  400aa8:	00408c14 	.word	0x00408c14
  400aac:	004022d9 	.word	0x004022d9
  400ab0:	00400a05 	.word	0x00400a05

00400ab4 <TWI_ConfigureMaster>:
 * \param pTwi  Pointer to an Twihs instance.
 * \param twck  Desired TWI clock frequency.
 * \param mck  Master clock frequency.
 */
void TWI_ConfigureMaster(Twihs *pTwi, uint32_t dwTwCk, uint32_t dwMCk)
{
  400ab4:	b538      	push	{r3, r4, r5, lr}
	uint32_t dwCkDiv = 0;
	uint32_t dwClDiv;
	uint32_t dwOk = 0;

	TRACE_DEBUG("TWI_ConfigureMaster()\n\r");
	assert(pTwi);
  400ab6:	b128      	cbz	r0, 400ac4 <TWI_ConfigureMaster+0x10>
  400ab8:	4605      	mov	r5, r0

	/* Reset the TWI */
	pTwi->TWIHS_CR = TWIHS_CR_SWRST;
  400aba:	2080      	movs	r0, #128	; 0x80
  400abc:	6028      	str	r0, [r5, #0]
	uint32_t dwOk = 0;
  400abe:	2400      	movs	r4, #0
	uint32_t dwCkDiv = 0;
  400ac0:	4620      	mov	r0, r4

	/* Configure clock */
	while (!dwOk) {
  400ac2:	e006      	b.n	400ad2 <TWI_ConfigureMaster+0x1e>
	assert(pTwi);
  400ac4:	4b11      	ldr	r3, [pc, #68]	; (400b0c <TWI_ConfigureMaster+0x58>)
  400ac6:	4a12      	ldr	r2, [pc, #72]	; (400b10 <TWI_ConfigureMaster+0x5c>)
  400ac8:	2177      	movs	r1, #119	; 0x77
  400aca:	4812      	ldr	r0, [pc, #72]	; (400b14 <TWI_ConfigureMaster+0x60>)
  400acc:	4c12      	ldr	r4, [pc, #72]	; (400b18 <TWI_ConfigureMaster+0x64>)
  400ace:	47a0      	blx	r4
		dwClDiv = ((dwMCk / (2 * dwTwCk)) - 4) / (1 << dwCkDiv);

		if (dwClDiv <= 255)
			dwOk = 1;
  400ad0:	2401      	movs	r4, #1
	while (!dwOk) {
  400ad2:	b944      	cbnz	r4, 400ae6 <TWI_ConfigureMaster+0x32>
		dwClDiv = ((dwMCk / (2 * dwTwCk)) - 4) / (1 << dwCkDiv);
  400ad4:	004b      	lsls	r3, r1, #1
  400ad6:	fbb2 f3f3 	udiv	r3, r2, r3
  400ada:	3b04      	subs	r3, #4
  400adc:	40c3      	lsrs	r3, r0
		if (dwClDiv <= 255)
  400ade:	2bff      	cmp	r3, #255	; 0xff
  400ae0:	d9f6      	bls.n	400ad0 <TWI_ConfigureMaster+0x1c>
		else
			dwCkDiv++;
  400ae2:	3001      	adds	r0, #1
  400ae4:	e7f5      	b.n	400ad2 <TWI_ConfigureMaster+0x1e>
	}

	assert(dwCkDiv < 8);
  400ae6:	2807      	cmp	r0, #7
  400ae8:	d809      	bhi.n	400afe <TWI_ConfigureMaster+0x4a>
	TRACE_DEBUG("Using CKDIV = %u and CLDIV/CHDIV = %u\n\r", dwCkDiv, dwClDiv);

	pTwi->TWIHS_CWGR = (dwCkDiv << 16) | (dwClDiv << 8) | dwClDiv;
  400aea:	021a      	lsls	r2, r3, #8
  400aec:	ea42 4000 	orr.w	r0, r2, r0, lsl #16
  400af0:	4303      	orrs	r3, r0
  400af2:	612b      	str	r3, [r5, #16]

	/* TWI Slave Mode Disabled. */
	pTwi->TWIHS_CR = TWIHS_CR_SVDIS;
  400af4:	2320      	movs	r3, #32
  400af6:	602b      	str	r3, [r5, #0]

	/* Set master mode */
	pTwi->TWIHS_CR = TWIHS_CR_MSEN;
  400af8:	2304      	movs	r3, #4
  400afa:	602b      	str	r3, [r5, #0]
  400afc:	bd38      	pop	{r3, r4, r5, pc}
	assert(dwCkDiv < 8);
  400afe:	4b07      	ldr	r3, [pc, #28]	; (400b1c <TWI_ConfigureMaster+0x68>)
  400b00:	4a03      	ldr	r2, [pc, #12]	; (400b10 <TWI_ConfigureMaster+0x5c>)
  400b02:	2186      	movs	r1, #134	; 0x86
  400b04:	4803      	ldr	r0, [pc, #12]	; (400b14 <TWI_ConfigureMaster+0x60>)
  400b06:	4c04      	ldr	r4, [pc, #16]	; (400b18 <TWI_ConfigureMaster+0x64>)
  400b08:	47a0      	blx	r4
  400b0a:	bf00      	nop
  400b0c:	00408d04 	.word	0x00408d04
  400b10:	00408c34 	.word	0x00408c34
  400b14:	00408d0c 	.word	0x00408d0c
  400b18:	004022d9 	.word	0x004022d9
  400b1c:	00408d24 	.word	0x00408d24

00400b20 <TWI_Stop>:
 * \brief Sends a STOP condition on the TWI.
 * \param pTwi  Pointer to an Twihs instance.
 */
void TWI_Stop(Twihs *pTwi)
{
	assert(pTwi != NULL);
  400b20:	b110      	cbz	r0, 400b28 <TWI_Stop+0x8>

	pTwi->TWIHS_CR = TWIHS_CR_STOP;
  400b22:	2202      	movs	r2, #2
  400b24:	6002      	str	r2, [r0, #0]
  400b26:	4770      	bx	lr
{
  400b28:	b510      	push	{r4, lr}
	assert(pTwi != NULL);
  400b2a:	4b03      	ldr	r3, [pc, #12]	; (400b38 <TWI_Stop+0x18>)
  400b2c:	4a03      	ldr	r2, [pc, #12]	; (400b3c <TWI_Stop+0x1c>)
  400b2e:	21ae      	movs	r1, #174	; 0xae
  400b30:	4803      	ldr	r0, [pc, #12]	; (400b40 <TWI_Stop+0x20>)
  400b32:	4c04      	ldr	r4, [pc, #16]	; (400b44 <TWI_Stop+0x24>)
  400b34:	47a0      	blx	r4
  400b36:	bf00      	nop
  400b38:	00408d64 	.word	0x00408d64
  400b3c:	00408c5c 	.word	0x00408c5c
  400b40:	00408d0c 	.word	0x00408d0c
  400b44:	004022d9 	.word	0x004022d9

00400b48 <TWI_StartRead>:
void TWI_StartRead(
	Twihs *pTwi,
	uint8_t address,
	uint32_t iaddress,
	uint8_t isize)
{
  400b48:	b510      	push	{r4, lr}
	assert(pTwi != NULL);
  400b4a:	b1d8      	cbz	r0, 400b84 <TWI_StartRead+0x3c>
  400b4c:	4604      	mov	r4, r0
	assert((address & 0x80) == 0);
  400b4e:	f011 0f80 	tst.w	r1, #128	; 0x80
  400b52:	d11d      	bne.n	400b90 <TWI_StartRead+0x48>
	assert((iaddress & 0xFF000000) == 0);
  400b54:	f012 4f7f 	tst.w	r2, #4278190080	; 0xff000000
  400b58:	d120      	bne.n	400b9c <TWI_StartRead+0x54>
	assert(isize < 4);
  400b5a:	2b03      	cmp	r3, #3
  400b5c:	d824      	bhi.n	400ba8 <TWI_StartRead+0x60>

	/* Set slave address and number of internal address bytes. */
	pTwi->TWIHS_MMR = 0;
  400b5e:	2000      	movs	r0, #0
  400b60:	6060      	str	r0, [r4, #4]
	pTwi->TWIHS_MMR = (isize << 8) | TWIHS_MMR_MREAD | (address << 16);
  400b62:	0409      	lsls	r1, r1, #16
  400b64:	ea41 2303 	orr.w	r3, r1, r3, lsl #8
  400b68:	f443 5380 	orr.w	r3, r3, #4096	; 0x1000
  400b6c:	6063      	str	r3, [r4, #4]

	/* Set internal address bytes */
	pTwi->TWIHS_IADR = 0;
  400b6e:	60e0      	str	r0, [r4, #12]
	pTwi->TWIHS_IADR = iaddress;
  400b70:	60e2      	str	r2, [r4, #12]

	/* Send START condition */
	if (0 == twi_send_stop)
  400b72:	4b12      	ldr	r3, [pc, #72]	; (400bbc <TWI_StartRead+0x74>)
  400b74:	681b      	ldr	r3, [r3, #0]
  400b76:	b1eb      	cbz	r3, 400bb4 <TWI_StartRead+0x6c>
		pTwi->TWIHS_CR = TWIHS_CR_START;
	else {
		twi_send_stop = 0;
  400b78:	2200      	movs	r2, #0
  400b7a:	4b10      	ldr	r3, [pc, #64]	; (400bbc <TWI_StartRead+0x74>)
  400b7c:	601a      	str	r2, [r3, #0]
		pTwi->TWIHS_CR = TWIHS_CR_START | TWIHS_CR_STOP;
  400b7e:	2303      	movs	r3, #3
  400b80:	6023      	str	r3, [r4, #0]
  400b82:	bd10      	pop	{r4, pc}
	assert(pTwi != NULL);
  400b84:	4b0e      	ldr	r3, [pc, #56]	; (400bc0 <TWI_StartRead+0x78>)
  400b86:	4a0f      	ldr	r2, [pc, #60]	; (400bc4 <TWI_StartRead+0x7c>)
  400b88:	21c2      	movs	r1, #194	; 0xc2
  400b8a:	480f      	ldr	r0, [pc, #60]	; (400bc8 <TWI_StartRead+0x80>)
  400b8c:	4c0f      	ldr	r4, [pc, #60]	; (400bcc <TWI_StartRead+0x84>)
  400b8e:	47a0      	blx	r4
	assert((address & 0x80) == 0);
  400b90:	4b0f      	ldr	r3, [pc, #60]	; (400bd0 <TWI_StartRead+0x88>)
  400b92:	4a0c      	ldr	r2, [pc, #48]	; (400bc4 <TWI_StartRead+0x7c>)
  400b94:	21c3      	movs	r1, #195	; 0xc3
  400b96:	480c      	ldr	r0, [pc, #48]	; (400bc8 <TWI_StartRead+0x80>)
  400b98:	4c0c      	ldr	r4, [pc, #48]	; (400bcc <TWI_StartRead+0x84>)
  400b9a:	47a0      	blx	r4
	assert((iaddress & 0xFF000000) == 0);
  400b9c:	4b0d      	ldr	r3, [pc, #52]	; (400bd4 <TWI_StartRead+0x8c>)
  400b9e:	4a09      	ldr	r2, [pc, #36]	; (400bc4 <TWI_StartRead+0x7c>)
  400ba0:	21c4      	movs	r1, #196	; 0xc4
  400ba2:	4809      	ldr	r0, [pc, #36]	; (400bc8 <TWI_StartRead+0x80>)
  400ba4:	4c09      	ldr	r4, [pc, #36]	; (400bcc <TWI_StartRead+0x84>)
  400ba6:	47a0      	blx	r4
	assert(isize < 4);
  400ba8:	4b0b      	ldr	r3, [pc, #44]	; (400bd8 <TWI_StartRead+0x90>)
  400baa:	4a06      	ldr	r2, [pc, #24]	; (400bc4 <TWI_StartRead+0x7c>)
  400bac:	21c5      	movs	r1, #197	; 0xc5
  400bae:	4806      	ldr	r0, [pc, #24]	; (400bc8 <TWI_StartRead+0x80>)
  400bb0:	4c06      	ldr	r4, [pc, #24]	; (400bcc <TWI_StartRead+0x84>)
  400bb2:	47a0      	blx	r4
		pTwi->TWIHS_CR = TWIHS_CR_START;
  400bb4:	2301      	movs	r3, #1
  400bb6:	6023      	str	r3, [r4, #0]
  400bb8:	bd10      	pop	{r4, pc}
  400bba:	bf00      	nop
  400bbc:	20400aa0 	.word	0x20400aa0
  400bc0:	00408d64 	.word	0x00408d64
  400bc4:	00408c68 	.word	0x00408c68
  400bc8:	00408d0c 	.word	0x00408d0c
  400bcc:	004022d9 	.word	0x004022d9
  400bd0:	00408d74 	.word	0x00408d74
  400bd4:	00408d8c 	.word	0x00408d8c
  400bd8:	00408dac 	.word	0x00408dac

00400bdc <TWI_ReadByte>:
 * \param pTwi  Pointer to an Twihs instance.
 * \return byte read.
 */
uint8_t TWI_ReadByte(Twihs *pTwi)
{
	assert(pTwi != NULL);
  400bdc:	b110      	cbz	r0, 400be4 <TWI_ReadByte+0x8>

	return pTwi->TWIHS_RHR;
  400bde:	6b00      	ldr	r0, [r0, #48]	; 0x30
}
  400be0:	b2c0      	uxtb	r0, r0
  400be2:	4770      	bx	lr
{
  400be4:	b510      	push	{r4, lr}
	assert(pTwi != NULL);
  400be6:	4b03      	ldr	r3, [pc, #12]	; (400bf4 <TWI_ReadByte+0x18>)
  400be8:	4a03      	ldr	r2, [pc, #12]	; (400bf8 <TWI_ReadByte+0x1c>)
  400bea:	21e0      	movs	r1, #224	; 0xe0
  400bec:	4803      	ldr	r0, [pc, #12]	; (400bfc <TWI_ReadByte+0x20>)
  400bee:	4c04      	ldr	r4, [pc, #16]	; (400c00 <TWI_ReadByte+0x24>)
  400bf0:	47a0      	blx	r4
  400bf2:	bf00      	nop
  400bf4:	00408d64 	.word	0x00408d64
  400bf8:	00408c78 	.word	0x00408c78
  400bfc:	00408d0c 	.word	0x00408d0c
  400c00:	004022d9 	.word	0x004022d9

00400c04 <TWI_WriteByte>:
 * \param pTwi  Pointer to an Twihs instance.
 * \param byte  Byte to send.
 */
void TWI_WriteByte(Twihs *pTwi, uint8_t byte)
{
	assert(pTwi != NULL);
  400c04:	b108      	cbz	r0, 400c0a <TWI_WriteByte+0x6>

	pTwi->TWIHS_THR = byte;
  400c06:	6341      	str	r1, [r0, #52]	; 0x34
  400c08:	4770      	bx	lr
{
  400c0a:	b510      	push	{r4, lr}
	assert(pTwi != NULL);
  400c0c:	4b02      	ldr	r3, [pc, #8]	; (400c18 <TWI_WriteByte+0x14>)
  400c0e:	4a03      	ldr	r2, [pc, #12]	; (400c1c <TWI_WriteByte+0x18>)
  400c10:	21ef      	movs	r1, #239	; 0xef
  400c12:	4803      	ldr	r0, [pc, #12]	; (400c20 <TWI_WriteByte+0x1c>)
  400c14:	4c03      	ldr	r4, [pc, #12]	; (400c24 <TWI_WriteByte+0x20>)
  400c16:	47a0      	blx	r4
  400c18:	00408d64 	.word	0x00408d64
  400c1c:	00408c88 	.word	0x00408c88
  400c20:	00408d0c 	.word	0x00408d0c
  400c24:	004022d9 	.word	0x004022d9

00400c28 <TWI_StartWrite>:
	Twihs *pTwi,
	uint8_t address,
	uint32_t iaddress,
	uint8_t isize,
	uint8_t byte)
{
  400c28:	b510      	push	{r4, lr}
	assert(pTwi != NULL);
  400c2a:	b1b0      	cbz	r0, 400c5a <TWI_StartWrite+0x32>
  400c2c:	4604      	mov	r4, r0
	assert((address & 0x80) == 0);
  400c2e:	f011 0f80 	tst.w	r1, #128	; 0x80
  400c32:	d119      	bne.n	400c68 <TWI_StartWrite+0x40>
	assert((iaddress & 0xFF000000) == 0);
  400c34:	f012 4f7f 	tst.w	r2, #4278190080	; 0xff000000
  400c38:	d11d      	bne.n	400c76 <TWI_StartWrite+0x4e>
	assert(isize < 4);
  400c3a:	2b03      	cmp	r3, #3
  400c3c:	d822      	bhi.n	400c84 <TWI_StartWrite+0x5c>

	/* Set slave address and number of internal address bytes. */
	pTwi->TWIHS_MMR = 0;
  400c3e:	2000      	movs	r0, #0
  400c40:	6060      	str	r0, [r4, #4]
	pTwi->TWIHS_MMR = (isize << 8) | (address << 16);
  400c42:	0409      	lsls	r1, r1, #16
  400c44:	ea41 2303 	orr.w	r3, r1, r3, lsl #8
  400c48:	6063      	str	r3, [r4, #4]

	/* Set internal address bytes. */
	pTwi->TWIHS_IADR = 0;
  400c4a:	60e0      	str	r0, [r4, #12]
	pTwi->TWIHS_IADR = iaddress;
  400c4c:	60e2      	str	r2, [r4, #12]

	/* Write first byte to send.*/
	TWI_WriteByte(pTwi, byte);
  400c4e:	f89d 1008 	ldrb.w	r1, [sp, #8]
  400c52:	4620      	mov	r0, r4
  400c54:	4b0f      	ldr	r3, [pc, #60]	; (400c94 <TWI_StartWrite+0x6c>)
  400c56:	4798      	blx	r3
  400c58:	bd10      	pop	{r4, pc}
	assert(pTwi != NULL);
  400c5a:	4b0f      	ldr	r3, [pc, #60]	; (400c98 <TWI_StartWrite+0x70>)
  400c5c:	4a0f      	ldr	r2, [pc, #60]	; (400c9c <TWI_StartWrite+0x74>)
  400c5e:	f44f 7183 	mov.w	r1, #262	; 0x106
  400c62:	480f      	ldr	r0, [pc, #60]	; (400ca0 <TWI_StartWrite+0x78>)
  400c64:	4c0f      	ldr	r4, [pc, #60]	; (400ca4 <TWI_StartWrite+0x7c>)
  400c66:	47a0      	blx	r4
	assert((address & 0x80) == 0);
  400c68:	4b0f      	ldr	r3, [pc, #60]	; (400ca8 <TWI_StartWrite+0x80>)
  400c6a:	4a0c      	ldr	r2, [pc, #48]	; (400c9c <TWI_StartWrite+0x74>)
  400c6c:	f240 1107 	movw	r1, #263	; 0x107
  400c70:	480b      	ldr	r0, [pc, #44]	; (400ca0 <TWI_StartWrite+0x78>)
  400c72:	4c0c      	ldr	r4, [pc, #48]	; (400ca4 <TWI_StartWrite+0x7c>)
  400c74:	47a0      	blx	r4
	assert((iaddress & 0xFF000000) == 0);
  400c76:	4b0d      	ldr	r3, [pc, #52]	; (400cac <TWI_StartWrite+0x84>)
  400c78:	4a08      	ldr	r2, [pc, #32]	; (400c9c <TWI_StartWrite+0x74>)
  400c7a:	f44f 7184 	mov.w	r1, #264	; 0x108
  400c7e:	4808      	ldr	r0, [pc, #32]	; (400ca0 <TWI_StartWrite+0x78>)
  400c80:	4c08      	ldr	r4, [pc, #32]	; (400ca4 <TWI_StartWrite+0x7c>)
  400c82:	47a0      	blx	r4
	assert(isize < 4);
  400c84:	4b0a      	ldr	r3, [pc, #40]	; (400cb0 <TWI_StartWrite+0x88>)
  400c86:	4a05      	ldr	r2, [pc, #20]	; (400c9c <TWI_StartWrite+0x74>)
  400c88:	f240 1109 	movw	r1, #265	; 0x109
  400c8c:	4804      	ldr	r0, [pc, #16]	; (400ca0 <TWI_StartWrite+0x78>)
  400c8e:	4c05      	ldr	r4, [pc, #20]	; (400ca4 <TWI_StartWrite+0x7c>)
  400c90:	47a0      	blx	r4
  400c92:	bf00      	nop
  400c94:	00400c05 	.word	0x00400c05
  400c98:	00408d64 	.word	0x00408d64
  400c9c:	00408c98 	.word	0x00408c98
  400ca0:	00408d0c 	.word	0x00408d0c
  400ca4:	004022d9 	.word	0x004022d9
  400ca8:	00408d74 	.word	0x00408d74
  400cac:	00408d8c 	.word	0x00408d8c
  400cb0:	00408dac 	.word	0x00408dac

00400cb4 <TWI_ByteReceived>:
 * \return 1 if a byte has been received and can be read on the given TWI
 * peripheral; otherwise, returns 0. This function resets the status register.
 */
uint8_t TWI_ByteReceived(Twihs *pTwi)
{
	return ((pTwi->TWIHS_SR & TWIHS_SR_RXRDY) == TWIHS_SR_RXRDY);
  400cb4:	6a00      	ldr	r0, [r0, #32]
}
  400cb6:	f3c0 0040 	ubfx	r0, r0, #1, #1
  400cba:	4770      	bx	lr

00400cbc <TWI_ByteSent>:
 * \return 1 if a byte has been sent  so another one can be stored for
 * transmission; otherwise returns 0. This function clears the status register.
 */
uint8_t TWI_ByteSent(Twihs *pTwi)
{
	return ((pTwi->TWIHS_SR & TWIHS_SR_TXRDY) == TWIHS_SR_TXRDY);
  400cbc:	6a00      	ldr	r0, [r0, #32]
}
  400cbe:	f3c0 0080 	ubfx	r0, r0, #2, #1
  400cc2:	4770      	bx	lr

00400cc4 <TWI_TransferComplete>:
 * \return  1 if the current transmission is complete (the STOP has been sent);
 * otherwise returns 0.
 */
uint8_t TWI_TransferComplete(Twihs *pTwi)
{
	return ((pTwi->TWIHS_SR & TWIHS_SR_TXCOMP) == TWIHS_SR_TXCOMP);
  400cc4:	6a00      	ldr	r0, [r0, #32]
  400cc6:	f000 0001 	and.w	r0, r0, #1
}
  400cca:	4770      	bx	lr

00400ccc <TWI_EnableIt>:
 * \brief Enables the selected interrupts sources on a TWI peripheral.
 * \param pTwi  Pointer to an Twihs instance.
 * \param sources  Bitwise OR of selected interrupt sources.
 */
void TWI_EnableIt(Twihs *pTwi, uint32_t sources)
{
  400ccc:	b510      	push	{r4, lr}
	assert(pTwi != NULL);
  400cce:	b120      	cbz	r0, 400cda <TWI_EnableIt+0xe>
	assert((sources & TWIHS_IT));
  400cd0:	4a09      	ldr	r2, [pc, #36]	; (400cf8 <TWI_EnableIt+0x2c>)
  400cd2:	4211      	tst	r1, r2
  400cd4:	d008      	beq.n	400ce8 <TWI_EnableIt+0x1c>

	pTwi->TWIHS_IER = sources;
  400cd6:	6241      	str	r1, [r0, #36]	; 0x24
  400cd8:	bd10      	pop	{r4, pc}
	assert(pTwi != NULL);
  400cda:	4b08      	ldr	r3, [pc, #32]	; (400cfc <TWI_EnableIt+0x30>)
  400cdc:	4a08      	ldr	r2, [pc, #32]	; (400d00 <TWI_EnableIt+0x34>)
  400cde:	f240 113f 	movw	r1, #319	; 0x13f
  400ce2:	4808      	ldr	r0, [pc, #32]	; (400d04 <TWI_EnableIt+0x38>)
  400ce4:	4c08      	ldr	r4, [pc, #32]	; (400d08 <TWI_EnableIt+0x3c>)
  400ce6:	47a0      	blx	r4
	assert((sources & TWIHS_IT));
  400ce8:	4b08      	ldr	r3, [pc, #32]	; (400d0c <TWI_EnableIt+0x40>)
  400cea:	4a05      	ldr	r2, [pc, #20]	; (400d00 <TWI_EnableIt+0x34>)
  400cec:	f44f 71a0 	mov.w	r1, #320	; 0x140
  400cf0:	4804      	ldr	r0, [pc, #16]	; (400d04 <TWI_EnableIt+0x38>)
  400cf2:	4c05      	ldr	r4, [pc, #20]	; (400d08 <TWI_EnableIt+0x3c>)
  400cf4:	47a0      	blx	r4
  400cf6:	bf00      	nop
  400cf8:	003d0ff7 	.word	0x003d0ff7
  400cfc:	00408d64 	.word	0x00408d64
  400d00:	00408ca8 	.word	0x00408ca8
  400d04:	00408d0c 	.word	0x00408d0c
  400d08:	004022d9 	.word	0x004022d9
  400d0c:	00408db8 	.word	0x00408db8

00400d10 <TWI_DisableIt>:
 * \brief Disables the selected interrupts sources on a TWI peripheral.
 * \param pTwi  Pointer to an Twihs instance.
 * \param sources  Bitwise OR of selected interrupt sources.
 */
void TWI_DisableIt(Twihs *pTwi, uint32_t sources)
{
  400d10:	b510      	push	{r4, lr}
	assert(pTwi != NULL);
  400d12:	b120      	cbz	r0, 400d1e <TWI_DisableIt+0xe>
	assert(sources & TWIHS_IT);
  400d14:	4a09      	ldr	r2, [pc, #36]	; (400d3c <TWI_DisableIt+0x2c>)
  400d16:	4211      	tst	r1, r2
  400d18:	d008      	beq.n	400d2c <TWI_DisableIt+0x1c>

	pTwi->TWIHS_IDR = sources;
  400d1a:	6281      	str	r1, [r0, #40]	; 0x28
  400d1c:	bd10      	pop	{r4, pc}
	assert(pTwi != NULL);
  400d1e:	4b08      	ldr	r3, [pc, #32]	; (400d40 <TWI_DisableIt+0x30>)
  400d20:	4a08      	ldr	r2, [pc, #32]	; (400d44 <TWI_DisableIt+0x34>)
  400d22:	f44f 71a6 	mov.w	r1, #332	; 0x14c
  400d26:	4808      	ldr	r0, [pc, #32]	; (400d48 <TWI_DisableIt+0x38>)
  400d28:	4c08      	ldr	r4, [pc, #32]	; (400d4c <TWI_DisableIt+0x3c>)
  400d2a:	47a0      	blx	r4
	assert(sources & TWIHS_IT);
  400d2c:	4b08      	ldr	r3, [pc, #32]	; (400d50 <TWI_DisableIt+0x40>)
  400d2e:	4a05      	ldr	r2, [pc, #20]	; (400d44 <TWI_DisableIt+0x34>)
  400d30:	f240 114d 	movw	r1, #333	; 0x14d
  400d34:	4804      	ldr	r0, [pc, #16]	; (400d48 <TWI_DisableIt+0x38>)
  400d36:	4c05      	ldr	r4, [pc, #20]	; (400d4c <TWI_DisableIt+0x3c>)
  400d38:	47a0      	blx	r4
  400d3a:	bf00      	nop
  400d3c:	003d0ff7 	.word	0x003d0ff7
  400d40:	00408d64 	.word	0x00408d64
  400d44:	00408cb8 	.word	0x00408cb8
  400d48:	00408d0c 	.word	0x00408d0c
  400d4c:	004022d9 	.word	0x004022d9
  400d50:	00408dd0 	.word	0x00408dd0

00400d54 <TWI_GetMaskedStatus>:
 */
uint32_t TWI_GetMaskedStatus(Twihs *pTwi)
{
	uint32_t status;

	assert(pTwi != NULL);
  400d54:	b120      	cbz	r0, 400d60 <TWI_GetMaskedStatus+0xc>
  400d56:	4603      	mov	r3, r0

	status = pTwi->TWIHS_SR;
  400d58:	6a00      	ldr	r0, [r0, #32]
	status &= pTwi->TWIHS_IMR;
  400d5a:	6adb      	ldr	r3, [r3, #44]	; 0x2c

	return status;
}
  400d5c:	4018      	ands	r0, r3
  400d5e:	4770      	bx	lr
{
  400d60:	b510      	push	{r4, lr}
	assert(pTwi != NULL);
  400d62:	4b03      	ldr	r3, [pc, #12]	; (400d70 <TWI_GetMaskedStatus+0x1c>)
  400d64:	4a03      	ldr	r2, [pc, #12]	; (400d74 <TWI_GetMaskedStatus+0x20>)
  400d66:	f240 116b 	movw	r1, #363	; 0x16b
  400d6a:	4803      	ldr	r0, [pc, #12]	; (400d78 <TWI_GetMaskedStatus+0x24>)
  400d6c:	4c03      	ldr	r4, [pc, #12]	; (400d7c <TWI_GetMaskedStatus+0x28>)
  400d6e:	47a0      	blx	r4
  400d70:	00408d64 	.word	0x00408d64
  400d74:	00408cd8 	.word	0x00408cd8
  400d78:	00408d0c 	.word	0x00408d0c
  400d7c:	004022d9 	.word	0x004022d9

00400d80 <TWI_SendSTOPCondition>:
 *  the current byte transmission in master read mode.
 * \param pTwi  Pointer to an Twihs instance.
 */
void TWI_SendSTOPCondition(Twihs *pTwi)
{
	assert(pTwi != NULL);
  400d80:	b120      	cbz	r0, 400d8c <TWI_SendSTOPCondition+0xc>

	pTwi->TWIHS_CR |= TWIHS_CR_STOP;
  400d82:	6803      	ldr	r3, [r0, #0]
  400d84:	f043 0302 	orr.w	r3, r3, #2
  400d88:	6003      	str	r3, [r0, #0]
  400d8a:	4770      	bx	lr
{
  400d8c:	b510      	push	{r4, lr}
	assert(pTwi != NULL);
  400d8e:	4b03      	ldr	r3, [pc, #12]	; (400d9c <TWI_SendSTOPCondition+0x1c>)
  400d90:	4a03      	ldr	r2, [pc, #12]	; (400da0 <TWI_SendSTOPCondition+0x20>)
  400d92:	f44f 71bd 	mov.w	r1, #378	; 0x17a
  400d96:	4803      	ldr	r0, [pc, #12]	; (400da4 <TWI_SendSTOPCondition+0x24>)
  400d98:	4c03      	ldr	r4, [pc, #12]	; (400da8 <TWI_SendSTOPCondition+0x28>)
  400d9a:	47a0      	blx	r4
  400d9c:	00408d64 	.word	0x00408d64
  400da0:	00408cec 	.word	0x00408cec
  400da4:	00408d0c 	.word	0x00408d0c
  400da8:	004022d9 	.word	0x004022d9

00400dac <TWID_Initialize>:
 * function.
 * \param pTwid  Pointer to the Twid instance to initialize.
 * \param pTwi  Pointer to the TWI peripheral to use.
 */
void TWID_Initialize(Twid *pTwid, Twihs *pTwi)
{
  400dac:	b510      	push	{r4, lr}
	TRACE_DEBUG("TWID_Initialize()\n\r");
	assert(pTwid != NULL);
  400dae:	b120      	cbz	r0, 400dba <TWID_Initialize+0xe>
	assert(pTwi != NULL);
  400db0:	b149      	cbz	r1, 400dc6 <TWID_Initialize+0x1a>

	/* Initialize driver. */
	pTwid->pTwi = pTwi;
  400db2:	6001      	str	r1, [r0, #0]
	pTwid->pTransfer = 0;
  400db4:	2200      	movs	r2, #0
  400db6:	6042      	str	r2, [r0, #4]
  400db8:	bd10      	pop	{r4, pc}
	assert(pTwid != NULL);
  400dba:	4b06      	ldr	r3, [pc, #24]	; (400dd4 <TWID_Initialize+0x28>)
  400dbc:	4a06      	ldr	r2, [pc, #24]	; (400dd8 <TWID_Initialize+0x2c>)
  400dbe:	21e2      	movs	r1, #226	; 0xe2
  400dc0:	4806      	ldr	r0, [pc, #24]	; (400ddc <TWID_Initialize+0x30>)
  400dc2:	4c07      	ldr	r4, [pc, #28]	; (400de0 <TWID_Initialize+0x34>)
  400dc4:	47a0      	blx	r4
	assert(pTwi != NULL);
  400dc6:	4b07      	ldr	r3, [pc, #28]	; (400de4 <TWID_Initialize+0x38>)
  400dc8:	4a03      	ldr	r2, [pc, #12]	; (400dd8 <TWID_Initialize+0x2c>)
  400dca:	21e3      	movs	r1, #227	; 0xe3
  400dcc:	4803      	ldr	r0, [pc, #12]	; (400ddc <TWID_Initialize+0x30>)
  400dce:	4c04      	ldr	r4, [pc, #16]	; (400de0 <TWID_Initialize+0x34>)
  400dd0:	47a0      	blx	r4
  400dd2:	bf00      	nop
  400dd4:	00408e74 	.word	0x00408e74
  400dd8:	00408de4 	.word	0x00408de4
  400ddc:	00408e84 	.word	0x00408e84
  400de0:	004022d9 	.word	0x004022d9
  400de4:	00408d64 	.word	0x00408d64

00400de8 <TWID_Handler>:
 * occurring on the bus. This function MUST be called by the interrupt service
 * routine of the TWI peripheral if asynchronous read/write are needed.
 * \param pTwid  Pointer to a Twid instance.
 */
void TWID_Handler(Twid *pTwid)
{
  400de8:	b5f8      	push	{r3, r4, r5, r6, r7, lr}
	uint8_t status;
	AsyncTwi *pTransfer;
	Twihs *pTwi;

	assert(pTwid != NULL);
  400dea:	b1d0      	cbz	r0, 400e22 <TWID_Handler+0x3a>
  400dec:	4606      	mov	r6, r0

	pTransfer = (AsyncTwi *)pTwid->pTransfer;
  400dee:	6844      	ldr	r4, [r0, #4]
	assert(pTransfer != NULL);
  400df0:	b1ec      	cbz	r4, 400e2e <TWID_Handler+0x46>
	pTwi = pTwid->pTwi;
  400df2:	6805      	ldr	r5, [r0, #0]
	assert(pTwi != NULL);
  400df4:	b30d      	cbz	r5, 400e3a <TWID_Handler+0x52>

	/* Retrieve interrupt status */
	status = TWI_GetMaskedStatus(pTwi);
  400df6:	4628      	mov	r0, r5
  400df8:	4b2f      	ldr	r3, [pc, #188]	; (400eb8 <TWID_Handler+0xd0>)
  400dfa:	4798      	blx	r3

	/* Byte received */
	if (TWI_STATUS_RXRDY(status)) {
  400dfc:	f010 0f02 	tst.w	r0, #2
  400e00:	d121      	bne.n	400e46 <TWID_Handler+0x5e>
		else if (pTransfer->transferred == (pTransfer->num - 1))

			TWI_Stop(pTwi);
	}
	/* Byte sent*/
	else if (TWI_STATUS_TXRDY(status)) {
  400e02:	f010 0f04 	tst.w	r0, #4
  400e06:	d047      	beq.n	400e98 <TWID_Handler+0xb0>

		/* Transfer finished ? */
		if (pTransfer->transferred == pTransfer->num) {
  400e08:	6923      	ldr	r3, [r4, #16]
  400e0a:	68e2      	ldr	r2, [r4, #12]
  400e0c:	4293      	cmp	r3, r2
  400e0e:	d037      	beq.n	400e80 <TWID_Handler+0x98>
			TWI_SendSTOPCondition(pTwi);
		}
		/* Bytes remaining */
		else {

			TWI_WriteByte(pTwi, pTransfer->pData[pTransfer->transferred]);
  400e10:	68a2      	ldr	r2, [r4, #8]
  400e12:	5cd1      	ldrb	r1, [r2, r3]
  400e14:	4628      	mov	r0, r5
  400e16:	4b29      	ldr	r3, [pc, #164]	; (400ebc <TWID_Handler+0xd4>)
  400e18:	4798      	blx	r3
			pTransfer->transferred++;
  400e1a:	6923      	ldr	r3, [r4, #16]
  400e1c:	3301      	adds	r3, #1
  400e1e:	6123      	str	r3, [r4, #16]
  400e20:	bdf8      	pop	{r3, r4, r5, r6, r7, pc}
	assert(pTwid != NULL);
  400e22:	4b27      	ldr	r3, [pc, #156]	; (400ec0 <TWID_Handler+0xd8>)
  400e24:	4a27      	ldr	r2, [pc, #156]	; (400ec4 <TWID_Handler+0xdc>)
  400e26:	21f6      	movs	r1, #246	; 0xf6
  400e28:	4827      	ldr	r0, [pc, #156]	; (400ec8 <TWID_Handler+0xe0>)
  400e2a:	4c28      	ldr	r4, [pc, #160]	; (400ecc <TWID_Handler+0xe4>)
  400e2c:	47a0      	blx	r4
	assert(pTransfer != NULL);
  400e2e:	4b28      	ldr	r3, [pc, #160]	; (400ed0 <TWID_Handler+0xe8>)
  400e30:	4a24      	ldr	r2, [pc, #144]	; (400ec4 <TWID_Handler+0xdc>)
  400e32:	21f9      	movs	r1, #249	; 0xf9
  400e34:	4824      	ldr	r0, [pc, #144]	; (400ec8 <TWID_Handler+0xe0>)
  400e36:	4c25      	ldr	r4, [pc, #148]	; (400ecc <TWID_Handler+0xe4>)
  400e38:	47a0      	blx	r4
	assert(pTwi != NULL);
  400e3a:	4b26      	ldr	r3, [pc, #152]	; (400ed4 <TWID_Handler+0xec>)
  400e3c:	4a21      	ldr	r2, [pc, #132]	; (400ec4 <TWID_Handler+0xdc>)
  400e3e:	21fb      	movs	r1, #251	; 0xfb
  400e40:	4821      	ldr	r0, [pc, #132]	; (400ec8 <TWID_Handler+0xe0>)
  400e42:	4c22      	ldr	r4, [pc, #136]	; (400ecc <TWID_Handler+0xe4>)
  400e44:	47a0      	blx	r4
		pTransfer->pData[pTransfer->transferred] = TWI_ReadByte(pTwi);
  400e46:	68a7      	ldr	r7, [r4, #8]
  400e48:	6926      	ldr	r6, [r4, #16]
  400e4a:	4628      	mov	r0, r5
  400e4c:	4b22      	ldr	r3, [pc, #136]	; (400ed8 <TWID_Handler+0xf0>)
  400e4e:	4798      	blx	r3
  400e50:	55b8      	strb	r0, [r7, r6]
		pTransfer->transferred++;
  400e52:	6923      	ldr	r3, [r4, #16]
  400e54:	3301      	adds	r3, #1
  400e56:	6123      	str	r3, [r4, #16]
		if (pTransfer->transferred == pTransfer->num) {
  400e58:	68e2      	ldr	r2, [r4, #12]
  400e5a:	4293      	cmp	r3, r2
  400e5c:	d003      	beq.n	400e66 <TWID_Handler+0x7e>
		else if (pTransfer->transferred == (pTransfer->num - 1))
  400e5e:	3a01      	subs	r2, #1
  400e60:	4293      	cmp	r3, r2
  400e62:	d009      	beq.n	400e78 <TWID_Handler+0x90>
  400e64:	bdf8      	pop	{r3, r4, r5, r6, r7, pc}
			TWI_DisableIt(pTwi, TWIHS_IDR_RXRDY);
  400e66:	2102      	movs	r1, #2
  400e68:	4628      	mov	r0, r5
  400e6a:	4b1c      	ldr	r3, [pc, #112]	; (400edc <TWID_Handler+0xf4>)
  400e6c:	4798      	blx	r3
			TWI_EnableIt(pTwi, TWIHS_IER_TXCOMP);
  400e6e:	2101      	movs	r1, #1
  400e70:	4628      	mov	r0, r5
  400e72:	4b1b      	ldr	r3, [pc, #108]	; (400ee0 <TWID_Handler+0xf8>)
  400e74:	4798      	blx	r3
  400e76:	bdf8      	pop	{r3, r4, r5, r6, r7, pc}
			TWI_Stop(pTwi);
  400e78:	4628      	mov	r0, r5
  400e7a:	4b1a      	ldr	r3, [pc, #104]	; (400ee4 <TWID_Handler+0xfc>)
  400e7c:	4798      	blx	r3
  400e7e:	bdf8      	pop	{r3, r4, r5, r6, r7, pc}
			TWI_DisableIt(pTwi, TWIHS_IDR_TXRDY);
  400e80:	2104      	movs	r1, #4
  400e82:	4628      	mov	r0, r5
  400e84:	4b15      	ldr	r3, [pc, #84]	; (400edc <TWID_Handler+0xf4>)
  400e86:	4798      	blx	r3
			TWI_EnableIt(pTwi, TWIHS_IER_TXCOMP);
  400e88:	2101      	movs	r1, #1
  400e8a:	4628      	mov	r0, r5
  400e8c:	4b14      	ldr	r3, [pc, #80]	; (400ee0 <TWID_Handler+0xf8>)
  400e8e:	4798      	blx	r3
			TWI_SendSTOPCondition(pTwi);
  400e90:	4628      	mov	r0, r5
  400e92:	4b15      	ldr	r3, [pc, #84]	; (400ee8 <TWID_Handler+0x100>)
  400e94:	4798      	blx	r3
  400e96:	bdf8      	pop	{r3, r4, r5, r6, r7, pc}
		}
	}
	/* Transfer complete*/
	else if (TWI_STATUS_TXCOMP(status)) {
  400e98:	f010 0f01 	tst.w	r0, #1
  400e9c:	d0e2      	beq.n	400e64 <TWID_Handler+0x7c>

		TWI_DisableIt(pTwi, TWIHS_IDR_TXCOMP);
  400e9e:	2101      	movs	r1, #1
  400ea0:	4628      	mov	r0, r5
  400ea2:	4b0e      	ldr	r3, [pc, #56]	; (400edc <TWID_Handler+0xf4>)
  400ea4:	4798      	blx	r3
		pTransfer->status = 0;
  400ea6:	2300      	movs	r3, #0
  400ea8:	7023      	strb	r3, [r4, #0]

		if (pTransfer->callback)
  400eaa:	6863      	ldr	r3, [r4, #4]
  400eac:	b10b      	cbz	r3, 400eb2 <TWID_Handler+0xca>
			pTransfer->callback((Async *) pTransfer);
  400eae:	4620      	mov	r0, r4
  400eb0:	4798      	blx	r3

		pTwid->pTransfer = 0;
  400eb2:	2300      	movs	r3, #0
  400eb4:	6073      	str	r3, [r6, #4]
	}
}
  400eb6:	e7d5      	b.n	400e64 <TWID_Handler+0x7c>
  400eb8:	00400d55 	.word	0x00400d55
  400ebc:	00400c05 	.word	0x00400c05
  400ec0:	00408e74 	.word	0x00408e74
  400ec4:	00408df4 	.word	0x00408df4
  400ec8:	00408e84 	.word	0x00408e84
  400ecc:	004022d9 	.word	0x004022d9
  400ed0:	00408ea0 	.word	0x00408ea0
  400ed4:	00408d64 	.word	0x00408d64
  400ed8:	00400bdd 	.word	0x00400bdd
  400edc:	00400d11 	.word	0x00400d11
  400ee0:	00400ccd 	.word	0x00400ccd
  400ee4:	00400b21 	.word	0x00400b21
  400ee8:	00400d81 	.word	0x00400d81

00400eec <TWID_Read>:
	uint32_t iaddress,
	uint8_t isize,
	uint8_t *pData,
	uint32_t num,
	Async *pAsync)
{
  400eec:	e92d 47f0 	stmdb	sp!, {r4, r5, r6, r7, r8, r9, sl, lr}
  400ef0:	4691      	mov	r9, r2
  400ef2:	9f08      	ldr	r7, [sp, #32]
  400ef4:	9e09      	ldr	r6, [sp, #36]	; 0x24
  400ef6:	9a0a      	ldr	r2, [sp, #40]	; 0x28
	Twihs *pTwi;
	AsyncTwi *pTransfer;
	uint32_t startTime;
	assert(pTwid != NULL);
  400ef8:	b1a8      	cbz	r0, 400f26 <TWID_Read+0x3a>
  400efa:	4688      	mov	r8, r1
  400efc:	469a      	mov	sl, r3
  400efe:	4603      	mov	r3, r0
	pTwi = pTwid->pTwi;
  400f00:	6804      	ldr	r4, [r0, #0]
	pTransfer = (AsyncTwi *) pTwid->pTransfer;
  400f02:	6841      	ldr	r1, [r0, #4]

	assert((address & 0x80) == 0);
  400f04:	f018 0f80 	tst.w	r8, #128	; 0x80
  400f08:	d114      	bne.n	400f34 <TWID_Read+0x48>
	assert((iaddress & 0xFF000000) == 0);
  400f0a:	f019 4f7f 	tst.w	r9, #4278190080	; 0xff000000
  400f0e:	d118      	bne.n	400f42 <TWID_Read+0x56>
	assert(isize < 4);
  400f10:	f1ba 0f03 	cmp.w	sl, #3
  400f14:	d81c      	bhi.n	400f50 <TWID_Read+0x64>

	/* Check that no transfer is already pending*/
	if (pTransfer) {
  400f16:	b311      	cbz	r1, 400f5e <TWID_Read+0x72>

		TRACE_ERROR("TWID_Read: A transfer is already pending\n\r");
  400f18:	483e      	ldr	r0, [pc, #248]	; (401014 <TWID_Read+0x128>)
  400f1a:	4b3f      	ldr	r3, [pc, #252]	; (401018 <TWID_Read+0x12c>)
  400f1c:	4798      	blx	r3
		return TWID_ERROR_BUSY;
  400f1e:	2501      	movs	r5, #1
			}
		}
	}

	return 0;
}
  400f20:	4628      	mov	r0, r5
  400f22:	e8bd 87f0 	ldmia.w	sp!, {r4, r5, r6, r7, r8, r9, sl, pc}
	assert(pTwid != NULL);
  400f26:	4b3d      	ldr	r3, [pc, #244]	; (40101c <TWID_Read+0x130>)
  400f28:	4a3d      	ldr	r2, [pc, #244]	; (401020 <TWID_Read+0x134>)
  400f2a:	f240 1147 	movw	r1, #327	; 0x147
  400f2e:	483d      	ldr	r0, [pc, #244]	; (401024 <TWID_Read+0x138>)
  400f30:	4c3d      	ldr	r4, [pc, #244]	; (401028 <TWID_Read+0x13c>)
  400f32:	47a0      	blx	r4
	assert((address & 0x80) == 0);
  400f34:	4b3d      	ldr	r3, [pc, #244]	; (40102c <TWID_Read+0x140>)
  400f36:	4a3a      	ldr	r2, [pc, #232]	; (401020 <TWID_Read+0x134>)
  400f38:	f240 114b 	movw	r1, #331	; 0x14b
  400f3c:	4839      	ldr	r0, [pc, #228]	; (401024 <TWID_Read+0x138>)
  400f3e:	4c3a      	ldr	r4, [pc, #232]	; (401028 <TWID_Read+0x13c>)
  400f40:	47a0      	blx	r4
	assert((iaddress & 0xFF000000) == 0);
  400f42:	4b3b      	ldr	r3, [pc, #236]	; (401030 <TWID_Read+0x144>)
  400f44:	4a36      	ldr	r2, [pc, #216]	; (401020 <TWID_Read+0x134>)
  400f46:	f44f 71a6 	mov.w	r1, #332	; 0x14c
  400f4a:	4836      	ldr	r0, [pc, #216]	; (401024 <TWID_Read+0x138>)
  400f4c:	4c36      	ldr	r4, [pc, #216]	; (401028 <TWID_Read+0x13c>)
  400f4e:	47a0      	blx	r4
	assert(isize < 4);
  400f50:	4b38      	ldr	r3, [pc, #224]	; (401034 <TWID_Read+0x148>)
  400f52:	4a33      	ldr	r2, [pc, #204]	; (401020 <TWID_Read+0x134>)
  400f54:	f240 114d 	movw	r1, #333	; 0x14d
  400f58:	4832      	ldr	r0, [pc, #200]	; (401024 <TWID_Read+0x138>)
  400f5a:	4c33      	ldr	r4, [pc, #204]	; (401028 <TWID_Read+0x13c>)
  400f5c:	47a0      	blx	r4
	twi_send_stop = (num == 1) ? 1 : 0;
  400f5e:	2e01      	cmp	r6, #1
  400f60:	bf14      	ite	ne
  400f62:	2000      	movne	r0, #0
  400f64:	2001      	moveq	r0, #1
  400f66:	4934      	ldr	r1, [pc, #208]	; (401038 <TWID_Read+0x14c>)
  400f68:	6008      	str	r0, [r1, #0]
	if (pAsync) {
  400f6a:	b18a      	cbz	r2, 400f90 <TWID_Read+0xa4>
		pTwid->pTransfer = pAsync;
  400f6c:	605a      	str	r2, [r3, #4]
		pTransfer->status = ASYNC_STATUS_PENDING;
  400f6e:	23ff      	movs	r3, #255	; 0xff
  400f70:	7013      	strb	r3, [r2, #0]
		pTransfer->pData = pData;
  400f72:	6097      	str	r7, [r2, #8]
		pTransfer->num = num;
  400f74:	60d6      	str	r6, [r2, #12]
		pTransfer->transferred = 0;
  400f76:	2500      	movs	r5, #0
  400f78:	6115      	str	r5, [r2, #16]
		TWI_EnableIt(pTwi, TWIHS_IER_RXRDY);
  400f7a:	2102      	movs	r1, #2
  400f7c:	4620      	mov	r0, r4
  400f7e:	4b2f      	ldr	r3, [pc, #188]	; (40103c <TWID_Read+0x150>)
  400f80:	4798      	blx	r3
		TWI_StartRead(pTwi, address, iaddress, isize);
  400f82:	4653      	mov	r3, sl
  400f84:	464a      	mov	r2, r9
  400f86:	4641      	mov	r1, r8
  400f88:	4620      	mov	r0, r4
  400f8a:	4c2d      	ldr	r4, [pc, #180]	; (401040 <TWID_Read+0x154>)
  400f8c:	47a0      	blx	r4
  400f8e:	e7c7      	b.n	400f20 <TWID_Read+0x34>
		TWI_StartRead(pTwi, address, iaddress, isize);
  400f90:	4653      	mov	r3, sl
  400f92:	464a      	mov	r2, r9
  400f94:	4641      	mov	r1, r8
  400f96:	4620      	mov	r0, r4
  400f98:	4d29      	ldr	r5, [pc, #164]	; (401040 <TWID_Read+0x154>)
  400f9a:	47a8      	blx	r5
		while (num > 0) {
  400f9c:	e00a      	b.n	400fb4 <TWID_Read+0xc8>
				TWI_Stop(pTwi);
  400f9e:	4620      	mov	r0, r4
  400fa0:	4b28      	ldr	r3, [pc, #160]	; (401044 <TWID_Read+0x158>)
  400fa2:	4798      	blx	r3
  400fa4:	e009      	b.n	400fba <TWID_Read+0xce>
			*pData++ = TWI_ReadByte(pTwi);
  400fa6:	1c7d      	adds	r5, r7, #1
  400fa8:	4620      	mov	r0, r4
  400faa:	4b27      	ldr	r3, [pc, #156]	; (401048 <TWID_Read+0x15c>)
  400fac:	4798      	blx	r3
  400fae:	7038      	strb	r0, [r7, #0]
			num--;
  400fb0:	3e01      	subs	r6, #1
			*pData++ = TWI_ReadByte(pTwi);
  400fb2:	462f      	mov	r7, r5
		while (num > 0) {
  400fb4:	b1b6      	cbz	r6, 400fe4 <TWID_Read+0xf8>
			if (num == 1)
  400fb6:	2e01      	cmp	r6, #1
  400fb8:	d0f1      	beq.n	400f9e <TWID_Read+0xb2>
			startTime = GetTicks();
  400fba:	4b24      	ldr	r3, [pc, #144]	; (40104c <TWID_Read+0x160>)
  400fbc:	4798      	blx	r3
  400fbe:	4605      	mov	r5, r0
			while (!TWI_ByteReceived(pTwi)) {
  400fc0:	4620      	mov	r0, r4
  400fc2:	4b23      	ldr	r3, [pc, #140]	; (401050 <TWID_Read+0x164>)
  400fc4:	4798      	blx	r3
  400fc6:	2800      	cmp	r0, #0
  400fc8:	d1ed      	bne.n	400fa6 <TWID_Read+0xba>
				if ((GetDelayInTicks(startTime, GetTicks())) > TWITIMEOUTMAX) {
  400fca:	4b20      	ldr	r3, [pc, #128]	; (40104c <TWID_Read+0x160>)
  400fcc:	4798      	blx	r3
  400fce:	4601      	mov	r1, r0
  400fd0:	4628      	mov	r0, r5
  400fd2:	4b20      	ldr	r3, [pc, #128]	; (401054 <TWID_Read+0x168>)
  400fd4:	4798      	blx	r3
  400fd6:	f5b0 7fc8 	cmp.w	r0, #400	; 0x190
  400fda:	d9f1      	bls.n	400fc0 <TWID_Read+0xd4>
					TRACE_ERROR("TWID Timeout BR\n\r");
  400fdc:	481e      	ldr	r0, [pc, #120]	; (401058 <TWID_Read+0x16c>)
  400fde:	4b0e      	ldr	r3, [pc, #56]	; (401018 <TWID_Read+0x12c>)
  400fe0:	4798      	blx	r3
					break;
  400fe2:	e7e0      	b.n	400fa6 <TWID_Read+0xba>
		startTime = GetTicks();
  400fe4:	4b19      	ldr	r3, [pc, #100]	; (40104c <TWID_Read+0x160>)
  400fe6:	4798      	blx	r3
  400fe8:	4606      	mov	r6, r0
		while (!TWI_TransferComplete(pTwi)) {
  400fea:	4620      	mov	r0, r4
  400fec:	4b1b      	ldr	r3, [pc, #108]	; (40105c <TWID_Read+0x170>)
  400fee:	4798      	blx	r3
  400ff0:	4605      	mov	r5, r0
  400ff2:	b960      	cbnz	r0, 40100e <TWID_Read+0x122>
			if ((GetDelayInTicks(startTime, GetTicks())) > TWITIMEOUTMAX) {
  400ff4:	4b15      	ldr	r3, [pc, #84]	; (40104c <TWID_Read+0x160>)
  400ff6:	4798      	blx	r3
  400ff8:	4601      	mov	r1, r0
  400ffa:	4630      	mov	r0, r6
  400ffc:	4b15      	ldr	r3, [pc, #84]	; (401054 <TWID_Read+0x168>)
  400ffe:	4798      	blx	r3
  401000:	f5b0 7fc8 	cmp.w	r0, #400	; 0x190
  401004:	d9f1      	bls.n	400fea <TWID_Read+0xfe>
				TRACE_ERROR("TWID Timeout TC\n\r");
  401006:	4816      	ldr	r0, [pc, #88]	; (401060 <TWID_Read+0x174>)
  401008:	4b03      	ldr	r3, [pc, #12]	; (401018 <TWID_Read+0x12c>)
  40100a:	4798      	blx	r3
				break;
  40100c:	e788      	b.n	400f20 <TWID_Read+0x34>
	return 0;
  40100e:	2500      	movs	r5, #0
  401010:	e786      	b.n	400f20 <TWID_Read+0x34>
  401012:	bf00      	nop
  401014:	00408eb4 	.word	0x00408eb4
  401018:	00402ae5 	.word	0x00402ae5
  40101c:	00408e74 	.word	0x00408e74
  401020:	00408e04 	.word	0x00408e04
  401024:	00408e84 	.word	0x00408e84
  401028:	004022d9 	.word	0x004022d9
  40102c:	00408d74 	.word	0x00408d74
  401030:	00408d8c 	.word	0x00408d8c
  401034:	00408dac 	.word	0x00408dac
  401038:	20400aa0 	.word	0x20400aa0
  40103c:	00400ccd 	.word	0x00400ccd
  401040:	00400b49 	.word	0x00400b49
  401044:	00400b21 	.word	0x00400b21
  401048:	00400bdd 	.word	0x00400bdd
  40104c:	00400a39 	.word	0x00400a39
  401050:	00400cb5 	.word	0x00400cb5
  401054:	00400a05 	.word	0x00400a05
  401058:	00408ee4 	.word	0x00408ee4
  40105c:	00400cc5 	.word	0x00400cc5
  401060:	00408efc 	.word	0x00408efc

00401064 <TWID_Write>:
	uint32_t iaddress,
	uint8_t isize,
	uint8_t *pData,
	uint32_t num,
	Async *pAsync)
{
  401064:	b5f0      	push	{r4, r5, r6, r7, lr}
  401066:	b083      	sub	sp, #12
  401068:	9d0a      	ldr	r5, [sp, #40]	; 0x28
	Twihs *pTwi = pTwid->pTwi;
  40106a:	6804      	ldr	r4, [r0, #0]
	uint32_t startTime;
	AsyncTwi *pTransfer = (AsyncTwi *) pTwid->pTransfer;
  40106c:	6846      	ldr	r6, [r0, #4]

	assert(pTwi != NULL);
  40106e:	b17c      	cbz	r4, 401090 <TWID_Write+0x2c>
	assert((address & 0x80) == 0);
  401070:	f011 0f80 	tst.w	r1, #128	; 0x80
  401074:	d113      	bne.n	40109e <TWID_Write+0x3a>
	assert((iaddress & 0xFF000000) == 0);
  401076:	f012 4f7f 	tst.w	r2, #4278190080	; 0xff000000
  40107a:	d117      	bne.n	4010ac <TWID_Write+0x48>
	assert(isize < 4);
  40107c:	2b03      	cmp	r3, #3
  40107e:	d81c      	bhi.n	4010ba <TWID_Write+0x56>

	/* Check that no transfer is already pending */
	if (pTransfer) {
  401080:	b316      	cbz	r6, 4010c8 <TWID_Write+0x64>
		TRACE_ERROR("TWI_Write: A transfer is already pending\n\r");
  401082:	483d      	ldr	r0, [pc, #244]	; (401178 <TWID_Write+0x114>)
  401084:	4b3d      	ldr	r3, [pc, #244]	; (40117c <TWID_Write+0x118>)
  401086:	4798      	blx	r3
		return TWID_ERROR_BUSY;
  401088:	2501      	movs	r5, #1
			}
		}
	}

	return 0;
}
  40108a:	4628      	mov	r0, r5
  40108c:	b003      	add	sp, #12
  40108e:	bdf0      	pop	{r4, r5, r6, r7, pc}
	assert(pTwi != NULL);
  401090:	4b3b      	ldr	r3, [pc, #236]	; (401180 <TWID_Write+0x11c>)
  401092:	4a3c      	ldr	r2, [pc, #240]	; (401184 <TWID_Write+0x120>)
  401094:	f44f 71d5 	mov.w	r1, #426	; 0x1aa
  401098:	483b      	ldr	r0, [pc, #236]	; (401188 <TWID_Write+0x124>)
  40109a:	4c3c      	ldr	r4, [pc, #240]	; (40118c <TWID_Write+0x128>)
  40109c:	47a0      	blx	r4
	assert((address & 0x80) == 0);
  40109e:	4b3c      	ldr	r3, [pc, #240]	; (401190 <TWID_Write+0x12c>)
  4010a0:	4a38      	ldr	r2, [pc, #224]	; (401184 <TWID_Write+0x120>)
  4010a2:	f240 11ab 	movw	r1, #427	; 0x1ab
  4010a6:	4838      	ldr	r0, [pc, #224]	; (401188 <TWID_Write+0x124>)
  4010a8:	4c38      	ldr	r4, [pc, #224]	; (40118c <TWID_Write+0x128>)
  4010aa:	47a0      	blx	r4
	assert((iaddress & 0xFF000000) == 0);
  4010ac:	4b39      	ldr	r3, [pc, #228]	; (401194 <TWID_Write+0x130>)
  4010ae:	4a35      	ldr	r2, [pc, #212]	; (401184 <TWID_Write+0x120>)
  4010b0:	f44f 71d6 	mov.w	r1, #428	; 0x1ac
  4010b4:	4834      	ldr	r0, [pc, #208]	; (401188 <TWID_Write+0x124>)
  4010b6:	4c35      	ldr	r4, [pc, #212]	; (40118c <TWID_Write+0x128>)
  4010b8:	47a0      	blx	r4
	assert(isize < 4);
  4010ba:	4b37      	ldr	r3, [pc, #220]	; (401198 <TWID_Write+0x134>)
  4010bc:	4a31      	ldr	r2, [pc, #196]	; (401184 <TWID_Write+0x120>)
  4010be:	f240 11ad 	movw	r1, #429	; 0x1ad
  4010c2:	4831      	ldr	r0, [pc, #196]	; (401188 <TWID_Write+0x124>)
  4010c4:	4c31      	ldr	r4, [pc, #196]	; (40118c <TWID_Write+0x128>)
  4010c6:	47a0      	blx	r4
	if (pAsync) {
  4010c8:	b1a5      	cbz	r5, 4010f4 <TWID_Write+0x90>
		pTwid->pTransfer = pAsync;
  4010ca:	6045      	str	r5, [r0, #4]
		pTransfer->status = ASYNC_STATUS_PENDING;
  4010cc:	20ff      	movs	r0, #255	; 0xff
  4010ce:	7028      	strb	r0, [r5, #0]
		pTransfer->pData = pData;
  4010d0:	9808      	ldr	r0, [sp, #32]
  4010d2:	60a8      	str	r0, [r5, #8]
		pTransfer->num = num;
  4010d4:	9809      	ldr	r0, [sp, #36]	; 0x24
  4010d6:	60e8      	str	r0, [r5, #12]
		pTransfer->transferred = 1;
  4010d8:	2001      	movs	r0, #1
  4010da:	6128      	str	r0, [r5, #16]
		TWI_StartWrite(pTwi, address, iaddress, isize, *pData);
  4010dc:	9808      	ldr	r0, [sp, #32]
  4010de:	7800      	ldrb	r0, [r0, #0]
  4010e0:	9000      	str	r0, [sp, #0]
  4010e2:	4620      	mov	r0, r4
  4010e4:	4d2d      	ldr	r5, [pc, #180]	; (40119c <TWID_Write+0x138>)
  4010e6:	47a8      	blx	r5
		TWI_EnableIt(pTwi, TWIHS_IER_TXRDY);
  4010e8:	2104      	movs	r1, #4
  4010ea:	4620      	mov	r0, r4
  4010ec:	4b2c      	ldr	r3, [pc, #176]	; (4011a0 <TWID_Write+0x13c>)
  4010ee:	4798      	blx	r3
	return 0;
  4010f0:	2500      	movs	r5, #0
  4010f2:	e7ca      	b.n	40108a <TWID_Write+0x26>
		TWI_StartWrite(pTwi, address, iaddress, isize, *pData++);
  4010f4:	9808      	ldr	r0, [sp, #32]
  4010f6:	1c47      	adds	r7, r0, #1
  4010f8:	7800      	ldrb	r0, [r0, #0]
  4010fa:	9000      	str	r0, [sp, #0]
  4010fc:	4620      	mov	r0, r4
  4010fe:	4d27      	ldr	r5, [pc, #156]	; (40119c <TWID_Write+0x138>)
  401100:	47a8      	blx	r5
		num--;
  401102:	9b09      	ldr	r3, [sp, #36]	; 0x24
  401104:	1e5e      	subs	r6, r3, #1
		while (num > 0) {
  401106:	e006      	b.n	401116 <TWID_Write+0xb2>
			TWI_WriteByte(pTwi, *pData++);
  401108:	1c7d      	adds	r5, r7, #1
  40110a:	7839      	ldrb	r1, [r7, #0]
  40110c:	4620      	mov	r0, r4
  40110e:	4b25      	ldr	r3, [pc, #148]	; (4011a4 <TWID_Write+0x140>)
  401110:	4798      	blx	r3
			num--;
  401112:	3e01      	subs	r6, #1
			TWI_WriteByte(pTwi, *pData++);
  401114:	462f      	mov	r7, r5
		while (num > 0) {
  401116:	b1a6      	cbz	r6, 401142 <TWID_Write+0xde>
			startTime = GetTicks();
  401118:	4b23      	ldr	r3, [pc, #140]	; (4011a8 <TWID_Write+0x144>)
  40111a:	4798      	blx	r3
  40111c:	4605      	mov	r5, r0
			while (!TWI_ByteSent(pTwi)) {
  40111e:	4620      	mov	r0, r4
  401120:	4b22      	ldr	r3, [pc, #136]	; (4011ac <TWID_Write+0x148>)
  401122:	4798      	blx	r3
  401124:	2800      	cmp	r0, #0
  401126:	d1ef      	bne.n	401108 <TWID_Write+0xa4>
				if ((GetDelayInTicks(startTime, GetTicks())) > TWITIMEOUTMAX) {
  401128:	4b1f      	ldr	r3, [pc, #124]	; (4011a8 <TWID_Write+0x144>)
  40112a:	4798      	blx	r3
  40112c:	4601      	mov	r1, r0
  40112e:	4628      	mov	r0, r5
  401130:	4b1f      	ldr	r3, [pc, #124]	; (4011b0 <TWID_Write+0x14c>)
  401132:	4798      	blx	r3
  401134:	f5b0 7fc8 	cmp.w	r0, #400	; 0x190
  401138:	d9f1      	bls.n	40111e <TWID_Write+0xba>
					TRACE_ERROR("TWID Timeout BS\n\r");
  40113a:	481e      	ldr	r0, [pc, #120]	; (4011b4 <TWID_Write+0x150>)
  40113c:	4b0f      	ldr	r3, [pc, #60]	; (40117c <TWID_Write+0x118>)
  40113e:	4798      	blx	r3
					break;
  401140:	e7e2      	b.n	401108 <TWID_Write+0xa4>
		startTime = GetTicks();
  401142:	4b19      	ldr	r3, [pc, #100]	; (4011a8 <TWID_Write+0x144>)
  401144:	4798      	blx	r3
  401146:	4606      	mov	r6, r0
		TWI_SendSTOPCondition(pTwi);
  401148:	4620      	mov	r0, r4
  40114a:	4b1b      	ldr	r3, [pc, #108]	; (4011b8 <TWID_Write+0x154>)
  40114c:	4798      	blx	r3
		while (!TWI_TransferComplete(pTwi)) {
  40114e:	4620      	mov	r0, r4
  401150:	4b1a      	ldr	r3, [pc, #104]	; (4011bc <TWID_Write+0x158>)
  401152:	4798      	blx	r3
  401154:	4605      	mov	r5, r0
  401156:	b960      	cbnz	r0, 401172 <TWID_Write+0x10e>
			if ((GetDelayInTicks(startTime, GetTicks())) > TWITIMEOUTMAX) {
  401158:	4b13      	ldr	r3, [pc, #76]	; (4011a8 <TWID_Write+0x144>)
  40115a:	4798      	blx	r3
  40115c:	4601      	mov	r1, r0
  40115e:	4630      	mov	r0, r6
  401160:	4b13      	ldr	r3, [pc, #76]	; (4011b0 <TWID_Write+0x14c>)
  401162:	4798      	blx	r3
  401164:	f5b0 7fc8 	cmp.w	r0, #400	; 0x190
  401168:	d9f1      	bls.n	40114e <TWID_Write+0xea>
				TRACE_ERROR("TWID Timeout TC2\n\r");
  40116a:	4815      	ldr	r0, [pc, #84]	; (4011c0 <TWID_Write+0x15c>)
  40116c:	4b03      	ldr	r3, [pc, #12]	; (40117c <TWID_Write+0x118>)
  40116e:	4798      	blx	r3
				break;
  401170:	e78b      	b.n	40108a <TWID_Write+0x26>
	return 0;
  401172:	2500      	movs	r5, #0
  401174:	e789      	b.n	40108a <TWID_Write+0x26>
  401176:	bf00      	nop
  401178:	00408f14 	.word	0x00408f14
  40117c:	00402ae5 	.word	0x00402ae5
  401180:	00408d64 	.word	0x00408d64
  401184:	00408e10 	.word	0x00408e10
  401188:	00408e84 	.word	0x00408e84
  40118c:	004022d9 	.word	0x004022d9
  401190:	00408d74 	.word	0x00408d74
  401194:	00408d8c 	.word	0x00408d8c
  401198:	00408dac 	.word	0x00408dac
  40119c:	00400c29 	.word	0x00400c29
  4011a0:	00400ccd 	.word	0x00400ccd
  4011a4:	00400c05 	.word	0x00400c05
  4011a8:	00400a39 	.word	0x00400a39
  4011ac:	00400cbd 	.word	0x00400cbd
  4011b0:	00400a05 	.word	0x00400a05
  4011b4:	00408f44 	.word	0x00408f44
  4011b8:	00400d81 	.word	0x00400d81
  4011bc:	00400cc5 	.word	0x00400cc5
  4011c0:	00408f5c 	.word	0x00408f5c

004011c4 <WDT_Disable>:
 * \note The Watchdog Mode Register (WDT_MR) can be written only once.
 * Only a processor reset resets it.
 */
extern void WDT_Disable(Wdt *pWDT)
{
	pWDT->WDT_MR = WDT_MR_WDDIS;
  4011c4:	f44f 4300 	mov.w	r3, #32768	; 0x8000
  4011c8:	6043      	str	r3, [r0, #4]
  4011ca:	4770      	bx	lr

004011cc <XDMAC_GetType>:
 *
 * \param pXdmac Pointer to the XDMAC peripheral.
 */
uint32_t XDMAC_GetType(Xdmac *pXdmac)
{
	assert(pXdmac);
  4011cc:	b108      	cbz	r0, 4011d2 <XDMAC_GetType+0x6>
	return pXdmac->XDMAC_GTYPE;
  4011ce:	6800      	ldr	r0, [r0, #0]
}
  4011d0:	4770      	bx	lr
{
  4011d2:	b510      	push	{r4, lr}
	assert(pXdmac);
  4011d4:	4b02      	ldr	r3, [pc, #8]	; (4011e0 <XDMAC_GetType+0x14>)
  4011d6:	4a03      	ldr	r2, [pc, #12]	; (4011e4 <XDMAC_GetType+0x18>)
  4011d8:	213d      	movs	r1, #61	; 0x3d
  4011da:	4803      	ldr	r0, [pc, #12]	; (4011e8 <XDMAC_GetType+0x1c>)
  4011dc:	4c03      	ldr	r4, [pc, #12]	; (4011ec <XDMAC_GetType+0x20>)
  4011de:	47a0      	blx	r4
  4011e0:	004093c4 	.word	0x004093c4
  4011e4:	00409034 	.word	0x00409034
  4011e8:	004093cc 	.word	0x004093cc
  4011ec:	004022d9 	.word	0x004022d9

004011f0 <XDMAC_EnableGIt>:
 * \param pXdmac Pointer to the XDMAC peripheral.
 * \param dwInteruptMask IT to be enabled.
 */
void XDMAC_EnableGIt (Xdmac *pXdmac, uint8_t dwInteruptMask)
{
	assert(pXdmac);
  4011f0:	b120      	cbz	r0, 4011fc <XDMAC_EnableGIt+0xc>
	pXdmac->XDMAC_GIE = (XDMAC_GIE_IE0 << dwInteruptMask);
  4011f2:	2301      	movs	r3, #1
  4011f4:	fa03 f101 	lsl.w	r1, r3, r1
  4011f8:	60c1      	str	r1, [r0, #12]
  4011fa:	4770      	bx	lr
{
  4011fc:	b510      	push	{r4, lr}
	assert(pXdmac);
  4011fe:	4b03      	ldr	r3, [pc, #12]	; (40120c <XDMAC_EnableGIt+0x1c>)
  401200:	4a03      	ldr	r2, [pc, #12]	; (401210 <XDMAC_EnableGIt+0x20>)
  401202:	215f      	movs	r1, #95	; 0x5f
  401204:	4803      	ldr	r0, [pc, #12]	; (401214 <XDMAC_EnableGIt+0x24>)
  401206:	4c04      	ldr	r4, [pc, #16]	; (401218 <XDMAC_EnableGIt+0x28>)
  401208:	47a0      	blx	r4
  40120a:	bf00      	nop
  40120c:	004093c4 	.word	0x004093c4
  401210:	00409068 	.word	0x00409068
  401214:	004093cc 	.word	0x004093cc
  401218:	004022d9 	.word	0x004022d9

0040121c <XDMAC_DisableGIt>:
 * \param pXdmac Pointer to the XDMAC peripheral.
 * \param dwInteruptMask IT to be enabled
 */
void XDMAC_DisableGIt (Xdmac *pXdmac, uint8_t dwInteruptMask)
{
	assert(pXdmac);
  40121c:	b120      	cbz	r0, 401228 <XDMAC_DisableGIt+0xc>
	pXdmac->XDMAC_GID = (XDMAC_GID_ID0 << dwInteruptMask);
  40121e:	2301      	movs	r3, #1
  401220:	fa03 f101 	lsl.w	r1, r3, r1
  401224:	6101      	str	r1, [r0, #16]
  401226:	4770      	bx	lr
{
  401228:	b510      	push	{r4, lr}
	assert(pXdmac);
  40122a:	4b03      	ldr	r3, [pc, #12]	; (401238 <XDMAC_DisableGIt+0x1c>)
  40122c:	4a03      	ldr	r2, [pc, #12]	; (40123c <XDMAC_DisableGIt+0x20>)
  40122e:	216b      	movs	r1, #107	; 0x6b
  401230:	4803      	ldr	r0, [pc, #12]	; (401240 <XDMAC_DisableGIt+0x24>)
  401232:	4c04      	ldr	r4, [pc, #16]	; (401244 <XDMAC_DisableGIt+0x28>)
  401234:	47a0      	blx	r4
  401236:	bf00      	nop
  401238:	004093c4 	.word	0x004093c4
  40123c:	00409078 	.word	0x00409078
  401240:	004093cc 	.word	0x004093cc
  401244:	004022d9 	.word	0x004022d9

00401248 <XDMAC_GetGIsr>:
 *
 * \param pXdmac Pointer to the XDMAC peripheral.
 */
uint32_t XDMAC_GetGIsr(Xdmac *pXdmac)
{
	assert(pXdmac);
  401248:	b108      	cbz	r0, 40124e <XDMAC_GetGIsr+0x6>
	return (pXdmac->XDMAC_GIS);
  40124a:	6980      	ldr	r0, [r0, #24]
}
  40124c:	4770      	bx	lr
{
  40124e:	b510      	push	{r4, lr}
	assert(pXdmac);
  401250:	4b02      	ldr	r3, [pc, #8]	; (40125c <XDMAC_GetGIsr+0x14>)
  401252:	4a03      	ldr	r2, [pc, #12]	; (401260 <XDMAC_GetGIsr+0x18>)
  401254:	2181      	movs	r1, #129	; 0x81
  401256:	4803      	ldr	r0, [pc, #12]	; (401264 <XDMAC_GetGIsr+0x1c>)
  401258:	4c03      	ldr	r4, [pc, #12]	; (401268 <XDMAC_GetGIsr+0x20>)
  40125a:	47a0      	blx	r4
  40125c:	004093c4 	.word	0x004093c4
  401260:	004090a0 	.word	0x004090a0
  401264:	004093cc 	.word	0x004093cc
  401268:	004022d9 	.word	0x004022d9

0040126c <XDMAC_EnableChannel>:
 *
 * \param pXdmac Pointer to the XDMAC peripheral.
 * \param channel Particular channel number.
 */
void XDMAC_EnableChannel(Xdmac *pXdmac, uint8_t channel)
{
  40126c:	b510      	push	{r4, lr}
	assert(pXdmac);
  40126e:	b130      	cbz	r0, 40127e <XDMAC_EnableChannel+0x12>
	assert(channel < XDMAC_CHANNEL_NUM);
  401270:	2917      	cmp	r1, #23
  401272:	d80a      	bhi.n	40128a <XDMAC_EnableChannel+0x1e>
	pXdmac->XDMAC_GE = (XDMAC_GE_EN0 << channel);
  401274:	2301      	movs	r3, #1
  401276:	fa03 f101 	lsl.w	r1, r3, r1
  40127a:	61c1      	str	r1, [r0, #28]
  40127c:	bd10      	pop	{r4, pc}
	assert(pXdmac);
  40127e:	4b06      	ldr	r3, [pc, #24]	; (401298 <XDMAC_EnableChannel+0x2c>)
  401280:	4a06      	ldr	r2, [pc, #24]	; (40129c <XDMAC_EnableChannel+0x30>)
  401282:	219b      	movs	r1, #155	; 0x9b
  401284:	4806      	ldr	r0, [pc, #24]	; (4012a0 <XDMAC_EnableChannel+0x34>)
  401286:	4c07      	ldr	r4, [pc, #28]	; (4012a4 <XDMAC_EnableChannel+0x38>)
  401288:	47a0      	blx	r4
	assert(channel < XDMAC_CHANNEL_NUM);
  40128a:	4b07      	ldr	r3, [pc, #28]	; (4012a8 <XDMAC_EnableChannel+0x3c>)
  40128c:	4a03      	ldr	r2, [pc, #12]	; (40129c <XDMAC_EnableChannel+0x30>)
  40128e:	219c      	movs	r1, #156	; 0x9c
  401290:	4803      	ldr	r0, [pc, #12]	; (4012a0 <XDMAC_EnableChannel+0x34>)
  401292:	4c04      	ldr	r4, [pc, #16]	; (4012a4 <XDMAC_EnableChannel+0x38>)
  401294:	47a0      	blx	r4
  401296:	bf00      	nop
  401298:	004093c4 	.word	0x004093c4
  40129c:	004090c4 	.word	0x004090c4
  4012a0:	004093cc 	.word	0x004093cc
  4012a4:	004022d9 	.word	0x004022d9
  4012a8:	004093e8 	.word	0x004093e8

004012ac <XDMAC_DisableChannel>:
 *
 * \param pXdmac Pointer to the XDMAC peripheral.
 * \param channel Particular channel number.
 */
void XDMAC_DisableChannel(Xdmac *pXdmac, uint8_t channel)
{
  4012ac:	b510      	push	{r4, lr}
	assert(pXdmac);
  4012ae:	b130      	cbz	r0, 4012be <XDMAC_DisableChannel+0x12>
	assert(channel < XDMAC_CHANNEL_NUM);
  4012b0:	2917      	cmp	r1, #23
  4012b2:	d80a      	bhi.n	4012ca <XDMAC_DisableChannel+0x1e>
	pXdmac->XDMAC_GD = (XDMAC_GD_DI0 << channel);
  4012b4:	2301      	movs	r3, #1
  4012b6:	fa03 f101 	lsl.w	r1, r3, r1
  4012ba:	6201      	str	r1, [r0, #32]
  4012bc:	bd10      	pop	{r4, pc}
	assert(pXdmac);
  4012be:	4b06      	ldr	r3, [pc, #24]	; (4012d8 <XDMAC_DisableChannel+0x2c>)
  4012c0:	4a06      	ldr	r2, [pc, #24]	; (4012dc <XDMAC_DisableChannel+0x30>)
  4012c2:	21b4      	movs	r1, #180	; 0xb4
  4012c4:	4806      	ldr	r0, [pc, #24]	; (4012e0 <XDMAC_DisableChannel+0x34>)
  4012c6:	4c07      	ldr	r4, [pc, #28]	; (4012e4 <XDMAC_DisableChannel+0x38>)
  4012c8:	47a0      	blx	r4
	assert(channel < XDMAC_CHANNEL_NUM);
  4012ca:	4b07      	ldr	r3, [pc, #28]	; (4012e8 <XDMAC_DisableChannel+0x3c>)
  4012cc:	4a03      	ldr	r2, [pc, #12]	; (4012dc <XDMAC_DisableChannel+0x30>)
  4012ce:	21b5      	movs	r1, #181	; 0xb5
  4012d0:	4803      	ldr	r0, [pc, #12]	; (4012e0 <XDMAC_DisableChannel+0x34>)
  4012d2:	4c04      	ldr	r4, [pc, #16]	; (4012e4 <XDMAC_DisableChannel+0x38>)
  4012d4:	47a0      	blx	r4
  4012d6:	bf00      	nop
  4012d8:	004093c4 	.word	0x004093c4
  4012dc:	004090f0 	.word	0x004090f0
  4012e0:	004093cc 	.word	0x004093cc
  4012e4:	004022d9 	.word	0x004022d9
  4012e8:	004093e8 	.word	0x004093e8

004012ec <XDMAC_GetGlobalChStatus>:
   until pending transaction is completed.
 * \param pXdmac Pointer to the XDMAC peripheral.
 */
uint32_t XDMAC_GetGlobalChStatus(Xdmac *pXdmac)
{
	assert(pXdmac);
  4012ec:	b108      	cbz	r0, 4012f2 <XDMAC_GetGlobalChStatus+0x6>
	return pXdmac->XDMAC_GS;
  4012ee:	6a40      	ldr	r0, [r0, #36]	; 0x24
}
  4012f0:	4770      	bx	lr
{
  4012f2:	b510      	push	{r4, lr}
	assert(pXdmac);
  4012f4:	4b02      	ldr	r3, [pc, #8]	; (401300 <XDMAC_GetGlobalChStatus+0x14>)
  4012f6:	4a03      	ldr	r2, [pc, #12]	; (401304 <XDMAC_GetGlobalChStatus+0x18>)
  4012f8:	21cf      	movs	r1, #207	; 0xcf
  4012fa:	4803      	ldr	r0, [pc, #12]	; (401308 <XDMAC_GetGlobalChStatus+0x1c>)
  4012fc:	4c03      	ldr	r4, [pc, #12]	; (40130c <XDMAC_GetGlobalChStatus+0x20>)
  4012fe:	47a0      	blx	r4
  401300:	004093c4 	.word	0x004093c4
  401304:	00409120 	.word	0x00409120
  401308:	004093cc 	.word	0x004093cc
  40130c:	004022d9 	.word	0x004022d9

00401310 <XDMAC_EnableChannelIt>:
 * \param channel Particular channel number.
 * \param dwInteruptMask Interrupt mask.
 */
void XDMAC_EnableChannelIt (Xdmac *pXdmac, uint8_t channel,
							uint8_t dwInteruptMask)
{
  401310:	b510      	push	{r4, lr}
	assert(pXdmac);
  401312:	b128      	cbz	r0, 401320 <XDMAC_EnableChannelIt+0x10>
	assert(channel < XDMAC_CHANNEL_NUM);
  401314:	2917      	cmp	r1, #23
  401316:	d80a      	bhi.n	40132e <XDMAC_EnableChannelIt+0x1e>
	pXdmac->XDMAC_CHID[channel].XDMAC_CIE = dwInteruptMask;
  401318:	eb00 1381 	add.w	r3, r0, r1, lsl #6
  40131c:	651a      	str	r2, [r3, #80]	; 0x50
  40131e:	bd10      	pop	{r4, pc}
	assert(pXdmac);
  401320:	4b06      	ldr	r3, [pc, #24]	; (40133c <XDMAC_EnableChannelIt+0x2c>)
  401322:	4a07      	ldr	r2, [pc, #28]	; (401340 <XDMAC_EnableChannelIt+0x30>)
  401324:	f240 113b 	movw	r1, #315	; 0x13b
  401328:	4806      	ldr	r0, [pc, #24]	; (401344 <XDMAC_EnableChannelIt+0x34>)
  40132a:	4c07      	ldr	r4, [pc, #28]	; (401348 <XDMAC_EnableChannelIt+0x38>)
  40132c:	47a0      	blx	r4
	assert(channel < XDMAC_CHANNEL_NUM);
  40132e:	4b07      	ldr	r3, [pc, #28]	; (40134c <XDMAC_EnableChannelIt+0x3c>)
  401330:	4a03      	ldr	r2, [pc, #12]	; (401340 <XDMAC_EnableChannelIt+0x30>)
  401332:	f44f 719e 	mov.w	r1, #316	; 0x13c
  401336:	4803      	ldr	r0, [pc, #12]	; (401344 <XDMAC_EnableChannelIt+0x34>)
  401338:	4c03      	ldr	r4, [pc, #12]	; (401348 <XDMAC_EnableChannelIt+0x38>)
  40133a:	47a0      	blx	r4
  40133c:	004093c4 	.word	0x004093c4
  401340:	004091ec 	.word	0x004091ec
  401344:	004093cc 	.word	0x004093cc
  401348:	004022d9 	.word	0x004022d9
  40134c:	004093e8 	.word	0x004093e8

00401350 <XDMAC_DisableChannelIt>:
 * \param channel Particular channel number.
 * \param dwInteruptMask Interrupt mask.
 */
void XDMAC_DisableChannelIt (Xdmac *pXdmac, uint8_t channel,
							 uint8_t dwInteruptMask)
{
  401350:	b510      	push	{r4, lr}
	assert(pXdmac);
  401352:	b128      	cbz	r0, 401360 <XDMAC_DisableChannelIt+0x10>
	assert(channel < XDMAC_CHANNEL_NUM);
  401354:	2917      	cmp	r1, #23
  401356:	d80a      	bhi.n	40136e <XDMAC_DisableChannelIt+0x1e>
	pXdmac->XDMAC_CHID[channel].XDMAC_CID = dwInteruptMask;
  401358:	eb00 1381 	add.w	r3, r0, r1, lsl #6
  40135c:	655a      	str	r2, [r3, #84]	; 0x54
  40135e:	bd10      	pop	{r4, pc}
	assert(pXdmac);
  401360:	4b06      	ldr	r3, [pc, #24]	; (40137c <XDMAC_DisableChannelIt+0x2c>)
  401362:	4a07      	ldr	r2, [pc, #28]	; (401380 <XDMAC_DisableChannelIt+0x30>)
  401364:	f44f 71a5 	mov.w	r1, #330	; 0x14a
  401368:	4806      	ldr	r0, [pc, #24]	; (401384 <XDMAC_DisableChannelIt+0x34>)
  40136a:	4c07      	ldr	r4, [pc, #28]	; (401388 <XDMAC_DisableChannelIt+0x38>)
  40136c:	47a0      	blx	r4
	assert(channel < XDMAC_CHANNEL_NUM);
  40136e:	4b07      	ldr	r3, [pc, #28]	; (40138c <XDMAC_DisableChannelIt+0x3c>)
  401370:	4a03      	ldr	r2, [pc, #12]	; (401380 <XDMAC_DisableChannelIt+0x30>)
  401372:	f240 114b 	movw	r1, #331	; 0x14b
  401376:	4803      	ldr	r0, [pc, #12]	; (401384 <XDMAC_DisableChannelIt+0x34>)
  401378:	4c03      	ldr	r4, [pc, #12]	; (401388 <XDMAC_DisableChannelIt+0x38>)
  40137a:	47a0      	blx	r4
  40137c:	004093c4 	.word	0x004093c4
  401380:	00409204 	.word	0x00409204
  401384:	004093cc 	.word	0x004093cc
  401388:	004022d9 	.word	0x004022d9
  40138c:	004093e8 	.word	0x004093e8

00401390 <XDMAC_GetChannelItMask>:
 *
 * \param pXdmac Pointer to the XDMAC peripheral.
 * \param channel Particular channel number.
 */
uint32_t XDMAC_GetChannelItMask (Xdmac *pXdmac, uint8_t channel)
{
  401390:	b510      	push	{r4, lr}
	assert(pXdmac);
  401392:	b128      	cbz	r0, 4013a0 <XDMAC_GetChannelItMask+0x10>
	assert(channel < XDMAC_CHANNEL_NUM);
  401394:	2917      	cmp	r1, #23
  401396:	d80a      	bhi.n	4013ae <XDMAC_GetChannelItMask+0x1e>
	return pXdmac->XDMAC_CHID[channel].XDMAC_CIM;
  401398:	eb00 1381 	add.w	r3, r0, r1, lsl #6
  40139c:	6d98      	ldr	r0, [r3, #88]	; 0x58
}
  40139e:	bd10      	pop	{r4, pc}
	assert(pXdmac);
  4013a0:	4b06      	ldr	r3, [pc, #24]	; (4013bc <XDMAC_GetChannelItMask+0x2c>)
  4013a2:	4a07      	ldr	r2, [pc, #28]	; (4013c0 <XDMAC_GetChannelItMask+0x30>)
  4013a4:	f240 1157 	movw	r1, #343	; 0x157
  4013a8:	4806      	ldr	r0, [pc, #24]	; (4013c4 <XDMAC_GetChannelItMask+0x34>)
  4013aa:	4c07      	ldr	r4, [pc, #28]	; (4013c8 <XDMAC_GetChannelItMask+0x38>)
  4013ac:	47a0      	blx	r4
	assert(channel < XDMAC_CHANNEL_NUM);
  4013ae:	4b07      	ldr	r3, [pc, #28]	; (4013cc <XDMAC_GetChannelItMask+0x3c>)
  4013b0:	4a03      	ldr	r2, [pc, #12]	; (4013c0 <XDMAC_GetChannelItMask+0x30>)
  4013b2:	f44f 71ac 	mov.w	r1, #344	; 0x158
  4013b6:	4803      	ldr	r0, [pc, #12]	; (4013c4 <XDMAC_GetChannelItMask+0x34>)
  4013b8:	4c03      	ldr	r4, [pc, #12]	; (4013c8 <XDMAC_GetChannelItMask+0x38>)
  4013ba:	47a0      	blx	r4
  4013bc:	004093c4 	.word	0x004093c4
  4013c0:	0040921c 	.word	0x0040921c
  4013c4:	004093cc 	.word	0x004093cc
  4013c8:	004022d9 	.word	0x004022d9
  4013cc:	004093e8 	.word	0x004093e8

004013d0 <XDMAC_GetChannelIsr>:
 *
 * \param pXdmac Pointer to the XDMAC peripheral.
 * \param channel Particular channel number.
 */
uint32_t XDMAC_GetChannelIsr (Xdmac *pXdmac, uint8_t channel)
{
  4013d0:	b510      	push	{r4, lr}
	assert(pXdmac);
  4013d2:	b128      	cbz	r0, 4013e0 <XDMAC_GetChannelIsr+0x10>
	assert(channel < XDMAC_CHANNEL_NUM);
  4013d4:	2917      	cmp	r1, #23
  4013d6:	d80a      	bhi.n	4013ee <XDMAC_GetChannelIsr+0x1e>
	return pXdmac->XDMAC_CHID[channel].XDMAC_CIS;
  4013d8:	eb00 1381 	add.w	r3, r0, r1, lsl #6
  4013dc:	6dd8      	ldr	r0, [r3, #92]	; 0x5c
}
  4013de:	bd10      	pop	{r4, pc}
	assert(pXdmac);
  4013e0:	4b06      	ldr	r3, [pc, #24]	; (4013fc <XDMAC_GetChannelIsr+0x2c>)
  4013e2:	4a07      	ldr	r2, [pc, #28]	; (401400 <XDMAC_GetChannelIsr+0x30>)
  4013e4:	f44f 71b2 	mov.w	r1, #356	; 0x164
  4013e8:	4806      	ldr	r0, [pc, #24]	; (401404 <XDMAC_GetChannelIsr+0x34>)
  4013ea:	4c07      	ldr	r4, [pc, #28]	; (401408 <XDMAC_GetChannelIsr+0x38>)
  4013ec:	47a0      	blx	r4
	assert(channel < XDMAC_CHANNEL_NUM);
  4013ee:	4b07      	ldr	r3, [pc, #28]	; (40140c <XDMAC_GetChannelIsr+0x3c>)
  4013f0:	4a03      	ldr	r2, [pc, #12]	; (401400 <XDMAC_GetChannelIsr+0x30>)
  4013f2:	f240 1165 	movw	r1, #357	; 0x165
  4013f6:	4803      	ldr	r0, [pc, #12]	; (401404 <XDMAC_GetChannelIsr+0x34>)
  4013f8:	4c03      	ldr	r4, [pc, #12]	; (401408 <XDMAC_GetChannelIsr+0x38>)
  4013fa:	47a0      	blx	r4
  4013fc:	004093c4 	.word	0x004093c4
  401400:	00409234 	.word	0x00409234
  401404:	004093cc 	.word	0x004093cc
  401408:	004022d9 	.word	0x004022d9
  40140c:	004093e8 	.word	0x004093e8

00401410 <XDMAC_GetMaskChannelIsr>:
 *
 * \param pXdmac Pointer to the XDMAC peripheral.
 * \param channel Particular channel number.
 */
uint32_t XDMAC_GetMaskChannelIsr (Xdmac *pXdmac, uint8_t channel)
{
  401410:	b510      	push	{r4, lr}
	uint32_t status;
	assert(pXdmac);
  401412:	b138      	cbz	r0, 401424 <XDMAC_GetMaskChannelIsr+0x14>
	assert(channel < XDMAC_CHANNEL_NUM);
  401414:	2917      	cmp	r1, #23
  401416:	d80c      	bhi.n	401432 <XDMAC_GetMaskChannelIsr+0x22>
	status = pXdmac->XDMAC_CHID[channel].XDMAC_CIS;
  401418:	eb00 1181 	add.w	r1, r0, r1, lsl #6
  40141c:	6dc8      	ldr	r0, [r1, #92]	; 0x5c
	status &= pXdmac->XDMAC_CHID[channel].XDMAC_CIM;
  40141e:	6d8b      	ldr	r3, [r1, #88]	; 0x58

	return status;
}
  401420:	4018      	ands	r0, r3
  401422:	bd10      	pop	{r4, pc}
	assert(pXdmac);
  401424:	4b06      	ldr	r3, [pc, #24]	; (401440 <XDMAC_GetMaskChannelIsr+0x30>)
  401426:	4a07      	ldr	r2, [pc, #28]	; (401444 <XDMAC_GetMaskChannelIsr+0x34>)
  401428:	f44f 71b9 	mov.w	r1, #370	; 0x172
  40142c:	4806      	ldr	r0, [pc, #24]	; (401448 <XDMAC_GetMaskChannelIsr+0x38>)
  40142e:	4c07      	ldr	r4, [pc, #28]	; (40144c <XDMAC_GetMaskChannelIsr+0x3c>)
  401430:	47a0      	blx	r4
	assert(channel < XDMAC_CHANNEL_NUM);
  401432:	4b07      	ldr	r3, [pc, #28]	; (401450 <XDMAC_GetMaskChannelIsr+0x40>)
  401434:	4a03      	ldr	r2, [pc, #12]	; (401444 <XDMAC_GetMaskChannelIsr+0x34>)
  401436:	f240 1173 	movw	r1, #371	; 0x173
  40143a:	4803      	ldr	r0, [pc, #12]	; (401448 <XDMAC_GetMaskChannelIsr+0x38>)
  40143c:	4c03      	ldr	r4, [pc, #12]	; (40144c <XDMAC_GetMaskChannelIsr+0x3c>)
  40143e:	47a0      	blx	r4
  401440:	004093c4 	.word	0x004093c4
  401444:	00409260 	.word	0x00409260
  401448:	004093cc 	.word	0x004093cc
  40144c:	004022d9 	.word	0x004022d9
  401450:	004093e8 	.word	0x004093e8

00401454 <XDMAC_SetSourceAddr>:
 * \param pXdmac Pointer to the XDMAC peripheral.
 * \param channel Particular channel number.
 * \param addr Source address.
 */
void XDMAC_SetSourceAddr(Xdmac *pXdmac, uint8_t channel, uint32_t addr)
{
  401454:	b510      	push	{r4, lr}
	assert(pXdmac);
  401456:	b128      	cbz	r0, 401464 <XDMAC_SetSourceAddr+0x10>
	assert(channel < XDMAC_CHANNEL_NUM);
  401458:	2917      	cmp	r1, #23
  40145a:	d80a      	bhi.n	401472 <XDMAC_SetSourceAddr+0x1e>
	pXdmac->XDMAC_CHID[channel].XDMAC_CSA = addr;
  40145c:	eb00 1381 	add.w	r3, r0, r1, lsl #6
  401460:	661a      	str	r2, [r3, #96]	; 0x60
  401462:	bd10      	pop	{r4, pc}
	assert(pXdmac);
  401464:	4b06      	ldr	r3, [pc, #24]	; (401480 <XDMAC_SetSourceAddr+0x2c>)
  401466:	4a07      	ldr	r2, [pc, #28]	; (401484 <XDMAC_SetSourceAddr+0x30>)
  401468:	f240 1183 	movw	r1, #387	; 0x183
  40146c:	4806      	ldr	r0, [pc, #24]	; (401488 <XDMAC_SetSourceAddr+0x34>)
  40146e:	4c07      	ldr	r4, [pc, #28]	; (40148c <XDMAC_SetSourceAddr+0x38>)
  401470:	47a0      	blx	r4
	assert(channel < XDMAC_CHANNEL_NUM);
  401472:	4b07      	ldr	r3, [pc, #28]	; (401490 <XDMAC_SetSourceAddr+0x3c>)
  401474:	4a03      	ldr	r2, [pc, #12]	; (401484 <XDMAC_SetSourceAddr+0x30>)
  401476:	f44f 71c2 	mov.w	r1, #388	; 0x184
  40147a:	4803      	ldr	r0, [pc, #12]	; (401488 <XDMAC_SetSourceAddr+0x34>)
  40147c:	4c03      	ldr	r4, [pc, #12]	; (40148c <XDMAC_SetSourceAddr+0x38>)
  40147e:	47a0      	blx	r4
  401480:	004093c4 	.word	0x004093c4
  401484:	00409278 	.word	0x00409278
  401488:	004093cc 	.word	0x004093cc
  40148c:	004022d9 	.word	0x004022d9
  401490:	004093e8 	.word	0x004093e8

00401494 <XDMAC_SetDestinationAddr>:
 * \param pXdmac Pointer to the XDMAC peripheral.
 * \param channel Particular channel number.
 * \param addr Destination address.
 */
void XDMAC_SetDestinationAddr(Xdmac *pXdmac, uint8_t channel, uint32_t addr)
{
  401494:	b510      	push	{r4, lr}
	assert(pXdmac);
  401496:	b128      	cbz	r0, 4014a4 <XDMAC_SetDestinationAddr+0x10>
	assert(channel < XDMAC_CHANNEL_NUM);
  401498:	2917      	cmp	r1, #23
  40149a:	d80a      	bhi.n	4014b2 <XDMAC_SetDestinationAddr+0x1e>
	pXdmac->XDMAC_CHID[channel].XDMAC_CDA = addr;
  40149c:	eb00 1381 	add.w	r3, r0, r1, lsl #6
  4014a0:	665a      	str	r2, [r3, #100]	; 0x64
  4014a2:	bd10      	pop	{r4, pc}
	assert(pXdmac);
  4014a4:	4b06      	ldr	r3, [pc, #24]	; (4014c0 <XDMAC_SetDestinationAddr+0x2c>)
  4014a6:	4a07      	ldr	r2, [pc, #28]	; (4014c4 <XDMAC_SetDestinationAddr+0x30>)
  4014a8:	f240 1191 	movw	r1, #401	; 0x191
  4014ac:	4806      	ldr	r0, [pc, #24]	; (4014c8 <XDMAC_SetDestinationAddr+0x34>)
  4014ae:	4c07      	ldr	r4, [pc, #28]	; (4014cc <XDMAC_SetDestinationAddr+0x38>)
  4014b0:	47a0      	blx	r4
	assert(channel < XDMAC_CHANNEL_NUM);
  4014b2:	4b07      	ldr	r3, [pc, #28]	; (4014d0 <XDMAC_SetDestinationAddr+0x3c>)
  4014b4:	4a03      	ldr	r2, [pc, #12]	; (4014c4 <XDMAC_SetDestinationAddr+0x30>)
  4014b6:	f44f 71c9 	mov.w	r1, #402	; 0x192
  4014ba:	4803      	ldr	r0, [pc, #12]	; (4014c8 <XDMAC_SetDestinationAddr+0x34>)
  4014bc:	4c03      	ldr	r4, [pc, #12]	; (4014cc <XDMAC_SetDestinationAddr+0x38>)
  4014be:	47a0      	blx	r4
  4014c0:	004093c4 	.word	0x004093c4
  4014c4:	0040928c 	.word	0x0040928c
  4014c8:	004093cc 	.word	0x004093cc
  4014cc:	004022d9 	.word	0x004022d9
  4014d0:	004093e8 	.word	0x004093e8

004014d4 <XDMAC_SetDescriptorAddr>:
 * \param addr Address of next descriptor.
 * \param ndaif Interface of next descriptor.
 */
void XDMAC_SetDescriptorAddr(Xdmac *pXdmac, uint8_t channel,
							 uint32_t addr, uint8_t ndaif)
{
  4014d4:	b510      	push	{r4, lr}
	assert(pXdmac);
  4014d6:	b150      	cbz	r0, 4014ee <XDMAC_SetDescriptorAddr+0x1a>
	assert(ndaif < 2);
  4014d8:	2b01      	cmp	r3, #1
  4014da:	d80f      	bhi.n	4014fc <XDMAC_SetDescriptorAddr+0x28>
	assert(channel < XDMAC_CHANNEL_NUM);
  4014dc:	2917      	cmp	r1, #23
  4014de:	d814      	bhi.n	40150a <XDMAC_SetDescriptorAddr+0x36>
	pXdmac->XDMAC_CHID[channel].XDMAC_CNDA =  (addr & 0xFFFFFFFC) | ndaif;
  4014e0:	f022 0203 	bic.w	r2, r2, #3
  4014e4:	4313      	orrs	r3, r2
  4014e6:	eb00 1481 	add.w	r4, r0, r1, lsl #6
  4014ea:	66a3      	str	r3, [r4, #104]	; 0x68
  4014ec:	bd10      	pop	{r4, pc}
	assert(pXdmac);
  4014ee:	4b0a      	ldr	r3, [pc, #40]	; (401518 <XDMAC_SetDescriptorAddr+0x44>)
  4014f0:	4a0a      	ldr	r2, [pc, #40]	; (40151c <XDMAC_SetDescriptorAddr+0x48>)
  4014f2:	f44f 71d1 	mov.w	r1, #418	; 0x1a2
  4014f6:	480a      	ldr	r0, [pc, #40]	; (401520 <XDMAC_SetDescriptorAddr+0x4c>)
  4014f8:	4c0a      	ldr	r4, [pc, #40]	; (401524 <XDMAC_SetDescriptorAddr+0x50>)
  4014fa:	47a0      	blx	r4
	assert(ndaif < 2);
  4014fc:	4b0a      	ldr	r3, [pc, #40]	; (401528 <XDMAC_SetDescriptorAddr+0x54>)
  4014fe:	4a07      	ldr	r2, [pc, #28]	; (40151c <XDMAC_SetDescriptorAddr+0x48>)
  401500:	f240 11a3 	movw	r1, #419	; 0x1a3
  401504:	4806      	ldr	r0, [pc, #24]	; (401520 <XDMAC_SetDescriptorAddr+0x4c>)
  401506:	4c07      	ldr	r4, [pc, #28]	; (401524 <XDMAC_SetDescriptorAddr+0x50>)
  401508:	47a0      	blx	r4
	assert(channel < XDMAC_CHANNEL_NUM);
  40150a:	4b08      	ldr	r3, [pc, #32]	; (40152c <XDMAC_SetDescriptorAddr+0x58>)
  40150c:	4a03      	ldr	r2, [pc, #12]	; (40151c <XDMAC_SetDescriptorAddr+0x48>)
  40150e:	f44f 71d2 	mov.w	r1, #420	; 0x1a4
  401512:	4803      	ldr	r0, [pc, #12]	; (401520 <XDMAC_SetDescriptorAddr+0x4c>)
  401514:	4c03      	ldr	r4, [pc, #12]	; (401524 <XDMAC_SetDescriptorAddr+0x50>)
  401516:	47a0      	blx	r4
  401518:	004093c4 	.word	0x004093c4
  40151c:	004092a8 	.word	0x004092a8
  401520:	004093cc 	.word	0x004093cc
  401524:	004022d9 	.word	0x004022d9
  401528:	00409404 	.word	0x00409404
  40152c:	004093e8 	.word	0x004093e8

00401530 <XDMAC_SetDescriptorControl>:
 * \param pXdmac Pointer to the XDMAC peripheral.
 * \param channel Particular channel number.
 * \param config Configuration of next descriptor.
 */
void XDMAC_SetDescriptorControl(Xdmac *pXdmac, uint8_t channel, uint8_t config)
{
  401530:	b510      	push	{r4, lr}
	assert(pXdmac);
  401532:	b128      	cbz	r0, 401540 <XDMAC_SetDescriptorControl+0x10>
	assert(channel < XDMAC_CHANNEL_NUM);
  401534:	2917      	cmp	r1, #23
  401536:	d80a      	bhi.n	40154e <XDMAC_SetDescriptorControl+0x1e>
	pXdmac->XDMAC_CHID[channel].XDMAC_CNDC = config;
  401538:	eb00 1381 	add.w	r3, r0, r1, lsl #6
  40153c:	66da      	str	r2, [r3, #108]	; 0x6c
  40153e:	bd10      	pop	{r4, pc}
	assert(pXdmac);
  401540:	4b06      	ldr	r3, [pc, #24]	; (40155c <XDMAC_SetDescriptorControl+0x2c>)
  401542:	4a07      	ldr	r2, [pc, #28]	; (401560 <XDMAC_SetDescriptorControl+0x30>)
  401544:	f44f 71d9 	mov.w	r1, #434	; 0x1b2
  401548:	4806      	ldr	r0, [pc, #24]	; (401564 <XDMAC_SetDescriptorControl+0x34>)
  40154a:	4c07      	ldr	r4, [pc, #28]	; (401568 <XDMAC_SetDescriptorControl+0x38>)
  40154c:	47a0      	blx	r4
	assert(channel < XDMAC_CHANNEL_NUM);
  40154e:	4b07      	ldr	r3, [pc, #28]	; (40156c <XDMAC_SetDescriptorControl+0x3c>)
  401550:	4a03      	ldr	r2, [pc, #12]	; (401560 <XDMAC_SetDescriptorControl+0x30>)
  401552:	f240 11b3 	movw	r1, #435	; 0x1b3
  401556:	4803      	ldr	r0, [pc, #12]	; (401564 <XDMAC_SetDescriptorControl+0x34>)
  401558:	4c03      	ldr	r4, [pc, #12]	; (401568 <XDMAC_SetDescriptorControl+0x38>)
  40155a:	47a0      	blx	r4
  40155c:	004093c4 	.word	0x004093c4
  401560:	004092c0 	.word	0x004092c0
  401564:	004093cc 	.word	0x004093cc
  401568:	004022d9 	.word	0x004022d9
  40156c:	004093e8 	.word	0x004093e8

00401570 <XDMAC_SetMicroblockControl>:
 * \param pXdmac Pointer to the XDMAC peripheral.
 * \param channel Particular channel number.
 * \param ublen Microblock length.
 */
void XDMAC_SetMicroblockControl(Xdmac *pXdmac, uint8_t channel, uint32_t ublen)
{
  401570:	b510      	push	{r4, lr}
	assert(pXdmac);
  401572:	b138      	cbz	r0, 401584 <XDMAC_SetMicroblockControl+0x14>
	assert(channel < XDMAC_CHANNEL_NUM);
  401574:	2917      	cmp	r1, #23
  401576:	d80c      	bhi.n	401592 <XDMAC_SetMicroblockControl+0x22>
	pXdmac->XDMAC_CHID[channel].XDMAC_CUBC = XDMAC_CUBC_UBLEN(ublen);
  401578:	f022 427f 	bic.w	r2, r2, #4278190080	; 0xff000000
  40157c:	eb00 1381 	add.w	r3, r0, r1, lsl #6
  401580:	671a      	str	r2, [r3, #112]	; 0x70
  401582:	bd10      	pop	{r4, pc}
	assert(pXdmac);
  401584:	4b06      	ldr	r3, [pc, #24]	; (4015a0 <XDMAC_SetMicroblockControl+0x30>)
  401586:	4a07      	ldr	r2, [pc, #28]	; (4015a4 <XDMAC_SetMicroblockControl+0x34>)
  401588:	f44f 71e0 	mov.w	r1, #448	; 0x1c0
  40158c:	4806      	ldr	r0, [pc, #24]	; (4015a8 <XDMAC_SetMicroblockControl+0x38>)
  40158e:	4c07      	ldr	r4, [pc, #28]	; (4015ac <XDMAC_SetMicroblockControl+0x3c>)
  401590:	47a0      	blx	r4
	assert(channel < XDMAC_CHANNEL_NUM);
  401592:	4b07      	ldr	r3, [pc, #28]	; (4015b0 <XDMAC_SetMicroblockControl+0x40>)
  401594:	4a03      	ldr	r2, [pc, #12]	; (4015a4 <XDMAC_SetMicroblockControl+0x34>)
  401596:	f240 11c1 	movw	r1, #449	; 0x1c1
  40159a:	4803      	ldr	r0, [pc, #12]	; (4015a8 <XDMAC_SetMicroblockControl+0x38>)
  40159c:	4c03      	ldr	r4, [pc, #12]	; (4015ac <XDMAC_SetMicroblockControl+0x3c>)
  40159e:	47a0      	blx	r4
  4015a0:	004093c4 	.word	0x004093c4
  4015a4:	004092dc 	.word	0x004092dc
  4015a8:	004093cc 	.word	0x004093cc
  4015ac:	004022d9 	.word	0x004022d9
  4015b0:	004093e8 	.word	0x004093e8

004015b4 <XDMAC_SetBlockControl>:
 * \param pXdmac Pointer to the XDMAC peripheral.
 * \param channel Particular channel number.
 * \param blen Block length.
 */
void XDMAC_SetBlockControl(Xdmac *pXdmac, uint8_t channel, uint16_t blen)
{
  4015b4:	b510      	push	{r4, lr}
	assert(pXdmac);
  4015b6:	b138      	cbz	r0, 4015c8 <XDMAC_SetBlockControl+0x14>
	assert(channel < XDMAC_CHANNEL_NUM);
  4015b8:	2917      	cmp	r1, #23
  4015ba:	d80c      	bhi.n	4015d6 <XDMAC_SetBlockControl+0x22>
	pXdmac->XDMAC_CHID[channel].XDMAC_CBC = XDMAC_CBC_BLEN(blen);
  4015bc:	f3c2 020b 	ubfx	r2, r2, #0, #12
  4015c0:	eb00 1381 	add.w	r3, r0, r1, lsl #6
  4015c4:	675a      	str	r2, [r3, #116]	; 0x74
  4015c6:	bd10      	pop	{r4, pc}
	assert(pXdmac);
  4015c8:	4b06      	ldr	r3, [pc, #24]	; (4015e4 <XDMAC_SetBlockControl+0x30>)
  4015ca:	4a07      	ldr	r2, [pc, #28]	; (4015e8 <XDMAC_SetBlockControl+0x34>)
  4015cc:	f44f 71e7 	mov.w	r1, #462	; 0x1ce
  4015d0:	4806      	ldr	r0, [pc, #24]	; (4015ec <XDMAC_SetBlockControl+0x38>)
  4015d2:	4c07      	ldr	r4, [pc, #28]	; (4015f0 <XDMAC_SetBlockControl+0x3c>)
  4015d4:	47a0      	blx	r4
	assert(channel < XDMAC_CHANNEL_NUM);
  4015d6:	4b07      	ldr	r3, [pc, #28]	; (4015f4 <XDMAC_SetBlockControl+0x40>)
  4015d8:	4a03      	ldr	r2, [pc, #12]	; (4015e8 <XDMAC_SetBlockControl+0x34>)
  4015da:	f240 11cf 	movw	r1, #463	; 0x1cf
  4015de:	4803      	ldr	r0, [pc, #12]	; (4015ec <XDMAC_SetBlockControl+0x38>)
  4015e0:	4c03      	ldr	r4, [pc, #12]	; (4015f0 <XDMAC_SetBlockControl+0x3c>)
  4015e2:	47a0      	blx	r4
  4015e4:	004093c4 	.word	0x004093c4
  4015e8:	004092f8 	.word	0x004092f8
  4015ec:	004093cc 	.word	0x004093cc
  4015f0:	004022d9 	.word	0x004022d9
  4015f4:	004093e8 	.word	0x004093e8

004015f8 <XDMAC_SetChannelConfig>:
 * \param pXdmac Pointer to the XDMAC peripheral.
 * \param channel Particular channel number.
 * \param config Channel configuration.
 */
void XDMAC_SetChannelConfig(Xdmac *pXdmac, uint8_t channel, uint32_t config)
{
  4015f8:	b510      	push	{r4, lr}
	assert(pXdmac);
  4015fa:	b128      	cbz	r0, 401608 <XDMAC_SetChannelConfig+0x10>
	assert(channel < XDMAC_CHANNEL_NUM);
  4015fc:	2917      	cmp	r1, #23
  4015fe:	d80a      	bhi.n	401616 <XDMAC_SetChannelConfig+0x1e>
	pXdmac->XDMAC_CHID[channel].XDMAC_CC = config;
  401600:	eb00 1381 	add.w	r3, r0, r1, lsl #6
  401604:	679a      	str	r2, [r3, #120]	; 0x78
  401606:	bd10      	pop	{r4, pc}
	assert(pXdmac);
  401608:	4b06      	ldr	r3, [pc, #24]	; (401624 <XDMAC_SetChannelConfig+0x2c>)
  40160a:	4a07      	ldr	r2, [pc, #28]	; (401628 <XDMAC_SetChannelConfig+0x30>)
  40160c:	f44f 71ee 	mov.w	r1, #476	; 0x1dc
  401610:	4806      	ldr	r0, [pc, #24]	; (40162c <XDMAC_SetChannelConfig+0x34>)
  401612:	4c07      	ldr	r4, [pc, #28]	; (401630 <XDMAC_SetChannelConfig+0x38>)
  401614:	47a0      	blx	r4
	assert(channel < XDMAC_CHANNEL_NUM);
  401616:	4b07      	ldr	r3, [pc, #28]	; (401634 <XDMAC_SetChannelConfig+0x3c>)
  401618:	4a03      	ldr	r2, [pc, #12]	; (401628 <XDMAC_SetChannelConfig+0x30>)
  40161a:	f240 11dd 	movw	r1, #477	; 0x1dd
  40161e:	4803      	ldr	r0, [pc, #12]	; (40162c <XDMAC_SetChannelConfig+0x34>)
  401620:	4c03      	ldr	r4, [pc, #12]	; (401630 <XDMAC_SetChannelConfig+0x38>)
  401622:	47a0      	blx	r4
  401624:	004093c4 	.word	0x004093c4
  401628:	00409310 	.word	0x00409310
  40162c:	004093cc 	.word	0x004093cc
  401630:	004022d9 	.word	0x004022d9
  401634:	004093e8 	.word	0x004093e8

00401638 <XDMAC_SetDataStride_MemPattern>:
 * \param channel Particular channel number.
 * \param dds_msp Data stride memory pattern.
 */
void XDMAC_SetDataStride_MemPattern(Xdmac *pXdmac, uint8_t channel,
									uint32_t dds_msp)
{
  401638:	b510      	push	{r4, lr}

	assert(pXdmac);
  40163a:	b128      	cbz	r0, 401648 <XDMAC_SetDataStride_MemPattern+0x10>
	assert(channel < XDMAC_CHANNEL_NUM);
  40163c:	2917      	cmp	r1, #23
  40163e:	d80a      	bhi.n	401656 <XDMAC_SetDataStride_MemPattern+0x1e>
	pXdmac->XDMAC_CHID[channel].XDMAC_CDS_MSP = dds_msp;
  401640:	eb00 1381 	add.w	r3, r0, r1, lsl #6
  401644:	67da      	str	r2, [r3, #124]	; 0x7c
  401646:	bd10      	pop	{r4, pc}
	assert(pXdmac);
  401648:	4b06      	ldr	r3, [pc, #24]	; (401664 <XDMAC_SetDataStride_MemPattern+0x2c>)
  40164a:	4a07      	ldr	r2, [pc, #28]	; (401668 <XDMAC_SetDataStride_MemPattern+0x30>)
  40164c:	f240 11f9 	movw	r1, #505	; 0x1f9
  401650:	4806      	ldr	r0, [pc, #24]	; (40166c <XDMAC_SetDataStride_MemPattern+0x34>)
  401652:	4c07      	ldr	r4, [pc, #28]	; (401670 <XDMAC_SetDataStride_MemPattern+0x38>)
  401654:	47a0      	blx	r4
	assert(channel < XDMAC_CHANNEL_NUM);
  401656:	4b07      	ldr	r3, [pc, #28]	; (401674 <XDMAC_SetDataStride_MemPattern+0x3c>)
  401658:	4a03      	ldr	r2, [pc, #12]	; (401668 <XDMAC_SetDataStride_MemPattern+0x30>)
  40165a:	f44f 71fd 	mov.w	r1, #506	; 0x1fa
  40165e:	4803      	ldr	r0, [pc, #12]	; (40166c <XDMAC_SetDataStride_MemPattern+0x34>)
  401660:	4c03      	ldr	r4, [pc, #12]	; (401670 <XDMAC_SetDataStride_MemPattern+0x38>)
  401662:	47a0      	blx	r4
  401664:	004093c4 	.word	0x004093c4
  401668:	00409340 	.word	0x00409340
  40166c:	004093cc 	.word	0x004093cc
  401670:	004022d9 	.word	0x004022d9
  401674:	004093e8 	.word	0x004093e8

00401678 <XDMAC_SetSourceMicroBlockStride>:
 * \param channel Particular channel number.
 * \param subs Source microblock stride.
 */
void XDMAC_SetSourceMicroBlockStride(Xdmac *pXdmac, uint8_t channel,
									 uint32_t subs)
{
  401678:	b510      	push	{r4, lr}
	assert(pXdmac);
  40167a:	b138      	cbz	r0, 40168c <XDMAC_SetSourceMicroBlockStride+0x14>
	assert(channel < XDMAC_CHANNEL_NUM);
  40167c:	2917      	cmp	r1, #23
  40167e:	d80c      	bhi.n	40169a <XDMAC_SetSourceMicroBlockStride+0x22>
	pXdmac->XDMAC_CHID[channel].XDMAC_CSUS = XDMAC_CSUS_SUBS(subs);
  401680:	f022 427f 	bic.w	r2, r2, #4278190080	; 0xff000000
  401684:	3102      	adds	r1, #2
  401686:	0189      	lsls	r1, r1, #6
  401688:	5042      	str	r2, [r0, r1]
  40168a:	bd10      	pop	{r4, pc}
	assert(pXdmac);
  40168c:	4b06      	ldr	r3, [pc, #24]	; (4016a8 <XDMAC_SetSourceMicroBlockStride+0x30>)
  40168e:	4a07      	ldr	r2, [pc, #28]	; (4016ac <XDMAC_SetSourceMicroBlockStride+0x34>)
  401690:	f44f 7102 	mov.w	r1, #520	; 0x208
  401694:	4806      	ldr	r0, [pc, #24]	; (4016b0 <XDMAC_SetSourceMicroBlockStride+0x38>)
  401696:	4c07      	ldr	r4, [pc, #28]	; (4016b4 <XDMAC_SetSourceMicroBlockStride+0x3c>)
  401698:	47a0      	blx	r4
	assert(channel < XDMAC_CHANNEL_NUM);
  40169a:	4b07      	ldr	r3, [pc, #28]	; (4016b8 <XDMAC_SetSourceMicroBlockStride+0x40>)
  40169c:	4a03      	ldr	r2, [pc, #12]	; (4016ac <XDMAC_SetSourceMicroBlockStride+0x34>)
  40169e:	f240 2109 	movw	r1, #521	; 0x209
  4016a2:	4803      	ldr	r0, [pc, #12]	; (4016b0 <XDMAC_SetSourceMicroBlockStride+0x38>)
  4016a4:	4c03      	ldr	r4, [pc, #12]	; (4016b4 <XDMAC_SetSourceMicroBlockStride+0x3c>)
  4016a6:	47a0      	blx	r4
  4016a8:	004093c4 	.word	0x004093c4
  4016ac:	00409360 	.word	0x00409360
  4016b0:	004093cc 	.word	0x004093cc
  4016b4:	004022d9 	.word	0x004022d9
  4016b8:	004093e8 	.word	0x004093e8

004016bc <XDMAC_SetDestinationMicroBlockStride>:
 * \param channel Particular channel number.
 * \param dubs Destination microblock stride.
 */
void XDMAC_SetDestinationMicroBlockStride(Xdmac *pXdmac, uint8_t channel,
		uint32_t dubs)
{
  4016bc:	b510      	push	{r4, lr}
	assert(pXdmac);
  4016be:	b140      	cbz	r0, 4016d2 <XDMAC_SetDestinationMicroBlockStride+0x16>
	assert(channel < XDMAC_CHANNEL_NUM);
  4016c0:	2917      	cmp	r1, #23
  4016c2:	d80d      	bhi.n	4016e0 <XDMAC_SetDestinationMicroBlockStride+0x24>
	pXdmac->XDMAC_CHID[channel].XDMAC_CDUS = XDMAC_CDUS_DUBS(dubs);
  4016c4:	f022 427f 	bic.w	r2, r2, #4278190080	; 0xff000000
  4016c8:	3102      	adds	r1, #2
  4016ca:	eb00 1181 	add.w	r1, r0, r1, lsl #6
  4016ce:	604a      	str	r2, [r1, #4]
  4016d0:	bd10      	pop	{r4, pc}
	assert(pXdmac);
  4016d2:	4b07      	ldr	r3, [pc, #28]	; (4016f0 <XDMAC_SetDestinationMicroBlockStride+0x34>)
  4016d4:	4a07      	ldr	r2, [pc, #28]	; (4016f4 <XDMAC_SetDestinationMicroBlockStride+0x38>)
  4016d6:	f240 2117 	movw	r1, #535	; 0x217
  4016da:	4807      	ldr	r0, [pc, #28]	; (4016f8 <XDMAC_SetDestinationMicroBlockStride+0x3c>)
  4016dc:	4c07      	ldr	r4, [pc, #28]	; (4016fc <XDMAC_SetDestinationMicroBlockStride+0x40>)
  4016de:	47a0      	blx	r4
	assert(channel < XDMAC_CHANNEL_NUM);
  4016e0:	4b07      	ldr	r3, [pc, #28]	; (401700 <XDMAC_SetDestinationMicroBlockStride+0x44>)
  4016e2:	4a04      	ldr	r2, [pc, #16]	; (4016f4 <XDMAC_SetDestinationMicroBlockStride+0x38>)
  4016e4:	f44f 7106 	mov.w	r1, #536	; 0x218
  4016e8:	4803      	ldr	r0, [pc, #12]	; (4016f8 <XDMAC_SetDestinationMicroBlockStride+0x3c>)
  4016ea:	4c04      	ldr	r4, [pc, #16]	; (4016fc <XDMAC_SetDestinationMicroBlockStride+0x40>)
  4016ec:	47a0      	blx	r4
  4016ee:	bf00      	nop
  4016f0:	004093c4 	.word	0x004093c4
  4016f4:	00409380 	.word	0x00409380
  4016f8:	004093cc 	.word	0x004093cc
  4016fc:	004022d9 	.word	0x004022d9
  401700:	004093e8 	.word	0x004093e8

00401704 <XDMAD_AllocateXdmacChannel>:
		uint8_t bDstID)
{
	uint32_t i;

	/* Can't support peripheral to peripheral */
	if (((bSrcID != XDMAD_TRANSFER_MEMORY)
  401704:	29ff      	cmp	r1, #255	; 0xff
  401706:	bf18      	it	ne
  401708:	2aff      	cmpne	r2, #255	; 0xff
  40170a:	d002      	beq.n	401712 <XDMAD_AllocateXdmacChannel+0xe>
		 && (bDstID != XDMAD_TRANSFER_MEMORY)))
		return XDMAD_ALLOC_FAILED;
  40170c:	f64f 70ff 	movw	r0, #65535	; 0xffff
  401710:	4770      	bx	lr
{
  401712:	e92d 43f8 	stmdb	sp!, {r3, r4, r5, r6, r7, r8, r9, lr}
  401716:	4616      	mov	r6, r2
  401718:	460f      	mov	r7, r1
  40171a:	4605      	mov	r5, r0

	/* dma transfer from peripheral to memory */
	if (bDstID == XDMAD_TRANSFER_MEMORY) {
  40171c:	2aff      	cmp	r2, #255	; 0xff
  40171e:	d00c      	beq.n	40173a <XDMAD_AllocateXdmacChannel+0x36>
			return XDMAD_ALLOC_FAILED;
		}
	}

	/* dma transfer from memory to peripheral */
	if (bSrcID == XDMAD_TRANSFER_MEMORY) {
  401720:	2fff      	cmp	r7, #255	; 0xff
  401722:	d017      	beq.n	401754 <XDMAD_AllocateXdmacChannel+0x50>
			TRACE_ERROR("%s:: Allocation failed", __FUNCTION__);
			return XDMAD_ALLOC_FAILED;
		}
	}

	for (i = 0; i < pXdmad->numChannels; i ++) {
  401724:	2400      	movs	r4, #0
  401726:	f895 3185 	ldrb.w	r3, [r5, #389]	; 0x185
  40172a:	429c      	cmp	r4, r3
  40172c:	d23c      	bcs.n	4017a8 <XDMAD_AllocateXdmacChannel+0xa4>
		if (pXdmad->XdmaChannels[i].state == XDMAD_STATE_FREE) {
  40172e:	eb05 1304 	add.w	r3, r5, r4, lsl #4
  401732:	7cdb      	ldrb	r3, [r3, #19]
  401734:	b1db      	cbz	r3, 40176e <XDMAD_AllocateXdmacChannel+0x6a>
	for (i = 0; i < pXdmad->numChannels; i ++) {
  401736:	3401      	adds	r4, #1
  401738:	e7f5      	b.n	401726 <XDMAD_AllocateXdmacChannel+0x22>
		if ((!XDMAIF_IsValidatedPeripherOnDma(bSrcID))) {
  40173a:	4608      	mov	r0, r1
  40173c:	4b1e      	ldr	r3, [pc, #120]	; (4017b8 <XDMAD_AllocateXdmacChannel+0xb4>)
  40173e:	4798      	blx	r3
  401740:	2800      	cmp	r0, #0
  401742:	d1ed      	bne.n	401720 <XDMAD_AllocateXdmacChannel+0x1c>
			TRACE_ERROR("%s:: Allocation failed", __FUNCTION__);
  401744:	491d      	ldr	r1, [pc, #116]	; (4017bc <XDMAD_AllocateXdmacChannel+0xb8>)
  401746:	481e      	ldr	r0, [pc, #120]	; (4017c0 <XDMAD_AllocateXdmacChannel+0xbc>)
  401748:	4b1e      	ldr	r3, [pc, #120]	; (4017c4 <XDMAD_AllocateXdmacChannel+0xc0>)
  40174a:	4798      	blx	r3
			return XDMAD_ALLOC_FAILED;
  40174c:	f64f 70ff 	movw	r0, #65535	; 0xffff
  401750:	e8bd 83f8 	ldmia.w	sp!, {r3, r4, r5, r6, r7, r8, r9, pc}
		if ((!XDMAIF_IsValidatedPeripherOnDma(bDstID))) {
  401754:	4630      	mov	r0, r6
  401756:	4b18      	ldr	r3, [pc, #96]	; (4017b8 <XDMAD_AllocateXdmacChannel+0xb4>)
  401758:	4798      	blx	r3
  40175a:	2800      	cmp	r0, #0
  40175c:	d1e2      	bne.n	401724 <XDMAD_AllocateXdmacChannel+0x20>
			TRACE_ERROR("%s:: Allocation failed", __FUNCTION__);
  40175e:	4917      	ldr	r1, [pc, #92]	; (4017bc <XDMAD_AllocateXdmacChannel+0xb8>)
  401760:	4817      	ldr	r0, [pc, #92]	; (4017c0 <XDMAD_AllocateXdmacChannel+0xbc>)
  401762:	4b18      	ldr	r3, [pc, #96]	; (4017c4 <XDMAD_AllocateXdmacChannel+0xc0>)
  401764:	4798      	blx	r3
			return XDMAD_ALLOC_FAILED;
  401766:	f64f 70ff 	movw	r0, #65535	; 0xffff
  40176a:	e8bd 83f8 	ldmia.w	sp!, {r3, r4, r5, r6, r7, r8, r9, pc}
			/* Allocate the channel */
			pXdmad->XdmaChannels[i].state = XDMAD_STATE_ALLOCATED;
  40176e:	eb05 1504 	add.w	r5, r5, r4, lsl #4
  401772:	f04f 0901 	mov.w	r9, #1
  401776:	f885 9013 	strb.w	r9, [r5, #19]
			/* Get general informations */
			pXdmad->XdmaChannels[i].bSrcPeriphID = bSrcID;
  40177a:	736f      	strb	r7, [r5, #13]
			pXdmad->XdmaChannels[i].bDstPeriphID = bDstID;
  40177c:	73ae      	strb	r6, [r5, #14]
			pXdmad->XdmaChannels[i].bSrcTxIfID =
				XDMAIF_Get_ChannelNumber(bSrcID, 0);
  40177e:	2100      	movs	r1, #0
  401780:	4638      	mov	r0, r7
  401782:	f8df 8048 	ldr.w	r8, [pc, #72]	; 4017cc <XDMAD_AllocateXdmacChannel+0xc8>
  401786:	47c0      	blx	r8
			pXdmad->XdmaChannels[i].bSrcTxIfID =
  401788:	73e8      	strb	r0, [r5, #15]
			pXdmad->XdmaChannels[i].bSrcRxIfID =
				XDMAIF_Get_ChannelNumber(bSrcID, 1);
  40178a:	4649      	mov	r1, r9
  40178c:	4638      	mov	r0, r7
  40178e:	47c0      	blx	r8
			pXdmad->XdmaChannels[i].bSrcRxIfID =
  401790:	7428      	strb	r0, [r5, #16]
			pXdmad->XdmaChannels[i].bDstTxIfID =
				XDMAIF_Get_ChannelNumber(bDstID, 0);
  401792:	2100      	movs	r1, #0
  401794:	4630      	mov	r0, r6
  401796:	47c0      	blx	r8
			pXdmad->XdmaChannels[i].bDstTxIfID =
  401798:	7468      	strb	r0, [r5, #17]
			pXdmad->XdmaChannels[i].bDstRxIfID =
				XDMAIF_Get_ChannelNumber(bDstID, 1);
  40179a:	4649      	mov	r1, r9
  40179c:	4630      	mov	r0, r6
  40179e:	47c0      	blx	r8
			pXdmad->XdmaChannels[i].bDstRxIfID =
  4017a0:	74a8      	strb	r0, [r5, #18]
			return  ((i) & 0xFF);
  4017a2:	b2e0      	uxtb	r0, r4
  4017a4:	e8bd 83f8 	ldmia.w	sp!, {r3, r4, r5, r6, r7, r8, r9, pc}
		}
	}

	TRACE_ERROR("%s:: Allocation failed, all channels are occupied", __FUNCTION__);
  4017a8:	4904      	ldr	r1, [pc, #16]	; (4017bc <XDMAD_AllocateXdmacChannel+0xb8>)
  4017aa:	4807      	ldr	r0, [pc, #28]	; (4017c8 <XDMAD_AllocateXdmacChannel+0xc4>)
  4017ac:	4b05      	ldr	r3, [pc, #20]	; (4017c4 <XDMAD_AllocateXdmacChannel+0xc0>)
  4017ae:	4798      	blx	r3
	return XDMAD_ALLOC_FAILED;
  4017b0:	f64f 70ff 	movw	r0, #65535	; 0xffff
  4017b4:	e8bd 83f8 	ldmia.w	sp!, {r3, r4, r5, r6, r7, r8, r9, pc}
  4017b8:	00401e55 	.word	0x00401e55
  4017bc:	00409410 	.word	0x00409410
  4017c0:	004094fc 	.word	0x004094fc
  4017c4:	00402ae5 	.word	0x00402ae5
  4017c8:	00409518 	.word	0x00409518
  4017cc:	00401e05 	.word	0x00401e05

004017d0 <XDMAD_Initialize>:
 * \param bPollingMode Polling DMA transfer:
 *                     1. Via XDMAD_IsTransferDone(); or
 *                     2. Via XDMAD_Handler().
 */
void XDMAD_Initialize(sXdmad *pXdmad, uint8_t bPollingMode)
{
  4017d0:	b510      	push	{r4, lr}
  4017d2:	b082      	sub	sp, #8
	uint32_t j;
	uint32_t volatile timer = 0x7FF;
  4017d4:	f240 73ff 	movw	r3, #2047	; 0x7ff
  4017d8:	9301      	str	r3, [sp, #4]

	assert(pXdmad);
  4017da:	b168      	cbz	r0, 4017f8 <XDMAD_Initialize+0x28>
  4017dc:	4604      	mov	r4, r0
	LockMutex(pXdmad->xdmaMutex, timer);
  4017de:	f500 72c4 	add.w	r2, r0, #392	; 0x188
    
}

__STATIC_INLINE uint8_t get_lock(volatile uint8_t *Lock_Variable, const uint8_t maxValue, volatile uint32_t *pTimeout)
{
    while (*pTimeout)
  4017e2:	9b01      	ldr	r3, [sp, #4]
  4017e4:	b1eb      	cbz	r3, 401822 <XDMAD_Initialize+0x52>
__attribute__((always_inline)) __STATIC_INLINE uint8_t __LDREXB(volatile uint8_t *addr)
{
    uint32_t result;

#if (__GNUC__ > 4) || (__GNUC__ == 4 && __GNUC_MINOR__ >= 8)
   __ASM volatile ("ldrexb %0, %1" : "=r" (result) : "Q" (*addr) );
  4017e6:	e8d2 3f4f 	ldrexb	r3, [r2]
	{
        if(__LDREXB(Lock_Variable) < maxValue)
  4017ea:	f013 0fff 	tst.w	r3, #255	; 0xff
  4017ee:	d009      	beq.n	401804 <XDMAD_Initialize+0x34>
          __DMB();
          TRACE_DEBUG("Mutex locked ");
          return 0;
        }
        
        ((*pTimeout)--);
  4017f0:	9b01      	ldr	r3, [sp, #4]
  4017f2:	3b01      	subs	r3, #1
  4017f4:	9301      	str	r3, [sp, #4]
  4017f6:	e7f4      	b.n	4017e2 <XDMAD_Initialize+0x12>
	assert(pXdmad);
  4017f8:	4b33      	ldr	r3, [pc, #204]	; (4018c8 <XDMAD_Initialize+0xf8>)
  4017fa:	4a34      	ldr	r2, [pc, #208]	; (4018cc <XDMAD_Initialize+0xfc>)
  4017fc:	2191      	movs	r1, #145	; 0x91
  4017fe:	4834      	ldr	r0, [pc, #208]	; (4018d0 <XDMAD_Initialize+0x100>)
  401800:	4c34      	ldr	r4, [pc, #208]	; (4018d4 <XDMAD_Initialize+0x104>)
  401802:	47a0      	blx	r4
          while( __STREXB(((*Lock_Variable) + 1), Lock_Variable) )
  401804:	f894 3188 	ldrb.w	r3, [r4, #392]	; 0x188
  401808:	3301      	adds	r3, #1
  40180a:	b2db      	uxtb	r3, r3
 */
__attribute__((always_inline)) __STATIC_INLINE uint32_t __STREXB(uint8_t value, volatile uint8_t *addr)
{
   uint32_t result;

   __ASM volatile ("strexb %0, %2, %1" : "=&r" (result), "=Q" (*addr) : "r" ((uint32_t)value) );
  40180c:	e8c2 3f40 	strexb	r0, r3, [r2]
  401810:	b128      	cbz	r0, 40181e <XDMAD_Initialize+0x4e>
            if(!(*pTimeout)--)
  401812:	9b01      	ldr	r3, [sp, #4]
  401814:	1e58      	subs	r0, r3, #1
  401816:	9001      	str	r0, [sp, #4]
  401818:	2b00      	cmp	r3, #0
  40181a:	d1f3      	bne.n	401804 <XDMAD_Initialize+0x34>
  40181c:	e001      	b.n	401822 <XDMAD_Initialize+0x52>
  __ASM volatile ("dmb 0xF":::"memory");
  40181e:	f3bf 8f5f 	dmb	sy

	if (xDmad_Initialized) {
  401822:	4b2d      	ldr	r3, [pc, #180]	; (4018d8 <XDMAD_Initialize+0x108>)
  401824:	781b      	ldrb	r3, [r3, #0]
  401826:	b1b3      	cbz	r3, 401856 <XDMAD_Initialize+0x86>
  __ASM volatile ("dsb 0xF":::"memory");
  401828:	f3bf 8f4f 	dsb	sy
   __ASM volatile ("ldrexb %0, %1" : "=r" (result) : "Q" (*addr) );
  40182c:	f504 73c4 	add.w	r3, r4, #392	; 0x188
  401830:	e8d3 3f4f 	ldrexb	r3, [r3]

__STATIC_INLINE uint8_t free_lock(volatile uint8_t *Lock_Variable)
{
    /* Memory access barrier Ensure memory operations completed before releasing lock  */
    __DSB();
    if(__LDREXB(Lock_Variable))
  401834:	f013 0fff 	tst.w	r3, #255	; 0xff
  401838:	d00b      	beq.n	401852 <XDMAD_Initialize+0x82>
    {
      __STREXB( ((*Lock_Variable) - 1), Lock_Variable);
  40183a:	f894 3188 	ldrb.w	r3, [r4, #392]	; 0x188
  40183e:	3b01      	subs	r3, #1
  401840:	b2db      	uxtb	r3, r3
   __ASM volatile ("strexb %0, %2, %1" : "=&r" (result), "=Q" (*addr) : "r" ((uint32_t)value) );
  401842:	f504 71c4 	add.w	r1, r4, #392	; 0x188
  401846:	e8c1 3f42 	strexb	r2, r3, [r1]
  __ASM volatile ("dsb 0xF":::"memory");
  40184a:	f3bf 8f4f 	dsb	sy
  __ASM volatile ("dmb 0xF":::"memory");
  40184e:	f3bf 8f5f 	dmb	sy
		pXdmad->XdmaChannels[j].state = XDMAD_STATE_FREE;
	}

	xDmad_Initialized = 1;
	ReleaseMutex(pXdmad->xdmaMutex);
}
  401852:	b002      	add	sp, #8
  401854:	bd10      	pop	{r4, pc}
	pXdmad->pXdmacs = XDMAC;
  401856:	4821      	ldr	r0, [pc, #132]	; (4018dc <XDMAD_Initialize+0x10c>)
  401858:	6020      	str	r0, [r4, #0]
	pXdmad->pollingMode = bPollingMode;
  40185a:	f884 1186 	strb.w	r1, [r4, #390]	; 0x186
	pXdmad->numControllers = XDMAC_CONTROLLER_NUM;
  40185e:	2301      	movs	r3, #1
  401860:	f884 3184 	strb.w	r3, [r4, #388]	; 0x184
	pXdmad->numChannels    = (XDMAC_GTYPE_NB_CH(XDMAC_GetType(XDMAC)) + 1);
  401864:	4b1e      	ldr	r3, [pc, #120]	; (4018e0 <XDMAD_Initialize+0x110>)
  401866:	4798      	blx	r3
  401868:	f000 001f 	and.w	r0, r0, #31
  40186c:	3001      	adds	r0, #1
  40186e:	f884 0185 	strb.w	r0, [r4, #389]	; 0x185
	for (j = 0; j < pXdmad->numChannels; j ++) {
  401872:	2100      	movs	r1, #0
  401874:	e00d      	b.n	401892 <XDMAD_Initialize+0xc2>
		pXdmad->XdmaChannels[j].fCallback = 0;
  401876:	eb04 1301 	add.w	r3, r4, r1, lsl #4
  40187a:	2200      	movs	r2, #0
  40187c:	605a      	str	r2, [r3, #4]
		pXdmad->XdmaChannels[j].pArg      = 0;
  40187e:	609a      	str	r2, [r3, #8]
		pXdmad->XdmaChannels[j].bIrqOwner    = 0;
  401880:	731a      	strb	r2, [r3, #12]
		pXdmad->XdmaChannels[j].bSrcPeriphID = 0;
  401882:	735a      	strb	r2, [r3, #13]
		pXdmad->XdmaChannels[j].bDstPeriphID = 0;
  401884:	739a      	strb	r2, [r3, #14]
		pXdmad->XdmaChannels[j].bSrcTxIfID   = 0;
  401886:	73da      	strb	r2, [r3, #15]
		pXdmad->XdmaChannels[j].bSrcRxIfID   = 0;
  401888:	741a      	strb	r2, [r3, #16]
		pXdmad->XdmaChannels[j].bDstTxIfID   = 0;
  40188a:	745a      	strb	r2, [r3, #17]
		pXdmad->XdmaChannels[j].bDstRxIfID   = 0;
  40188c:	749a      	strb	r2, [r3, #18]
		pXdmad->XdmaChannels[j].state = XDMAD_STATE_FREE;
  40188e:	74da      	strb	r2, [r3, #19]
	for (j = 0; j < pXdmad->numChannels; j ++) {
  401890:	3101      	adds	r1, #1
  401892:	4281      	cmp	r1, r0
  401894:	d3ef      	bcc.n	401876 <XDMAD_Initialize+0xa6>
	xDmad_Initialized = 1;
  401896:	2201      	movs	r2, #1
  401898:	4b0f      	ldr	r3, [pc, #60]	; (4018d8 <XDMAD_Initialize+0x108>)
  40189a:	701a      	strb	r2, [r3, #0]
  __ASM volatile ("dsb 0xF":::"memory");
  40189c:	f3bf 8f4f 	dsb	sy
   __ASM volatile ("ldrexb %0, %1" : "=r" (result) : "Q" (*addr) );
  4018a0:	f504 73c4 	add.w	r3, r4, #392	; 0x188
  4018a4:	e8d3 3f4f 	ldrexb	r3, [r3]
    if(__LDREXB(Lock_Variable))
  4018a8:	f013 0fff 	tst.w	r3, #255	; 0xff
  4018ac:	d0d1      	beq.n	401852 <XDMAD_Initialize+0x82>
      __STREXB( ((*Lock_Variable) - 1), Lock_Variable);
  4018ae:	f894 3188 	ldrb.w	r3, [r4, #392]	; 0x188
  4018b2:	3b01      	subs	r3, #1
  4018b4:	b2db      	uxtb	r3, r3
   __ASM volatile ("strexb %0, %2, %1" : "=&r" (result), "=Q" (*addr) : "r" ((uint32_t)value) );
  4018b6:	f504 71c4 	add.w	r1, r4, #392	; 0x188
  4018ba:	e8c1 3f42 	strexb	r2, r3, [r1]
  __ASM volatile ("dsb 0xF":::"memory");
  4018be:	f3bf 8f4f 	dsb	sy
  __ASM volatile ("dmb 0xF":::"memory");
  4018c2:	f3bf 8f5f 	dmb	sy
  4018c6:	e7c4      	b.n	401852 <XDMAD_Initialize+0x82>
  4018c8:	00409550 	.word	0x00409550
  4018cc:	0040942c 	.word	0x0040942c
  4018d0:	00409558 	.word	0x00409558
  4018d4:	004022d9 	.word	0x004022d9
  4018d8:	20400aac 	.word	0x20400aac
  4018dc:	40078000 	.word	0x40078000
  4018e0:	004011cd 	.word	0x004011cd

004018e4 <XDMAD_AllocateChannel>:
 * XDMAD_ALLOC_FAILED if allocation failed.
 */
uint32_t XDMAD_AllocateChannel(sXdmad *pXdmad,
								uint8_t bSrcID,
								uint8_t bDstID)
{
  4018e4:	b530      	push	{r4, r5, lr}
  4018e6:	b083      	sub	sp, #12
  4018e8:	4604      	mov	r4, r0
	uint32_t dwChannel = XDMAD_ALLOC_FAILED;
	uint32_t volatile timer = 0x7FF;
  4018ea:	f240 73ff 	movw	r3, #2047	; 0x7ff
  4018ee:	9301      	str	r3, [sp, #4]

	LockMutex(pXdmad->xdmaMutex, timer);
  4018f0:	f500 70c4 	add.w	r0, r0, #392	; 0x188
    while (*pTimeout)
  4018f4:	9b01      	ldr	r3, [sp, #4]
  4018f6:	b1bb      	cbz	r3, 401928 <XDMAD_AllocateChannel+0x44>
   __ASM volatile ("ldrexb %0, %1" : "=r" (result) : "Q" (*addr) );
  4018f8:	e8d0 3f4f 	ldrexb	r3, [r0]
        if(__LDREXB(Lock_Variable) < maxValue)
  4018fc:	f013 0fff 	tst.w	r3, #255	; 0xff
  401900:	d003      	beq.n	40190a <XDMAD_AllocateChannel+0x26>
        ((*pTimeout)--);
  401902:	9b01      	ldr	r3, [sp, #4]
  401904:	3b01      	subs	r3, #1
  401906:	9301      	str	r3, [sp, #4]
  401908:	e7f4      	b.n	4018f4 <XDMAD_AllocateChannel+0x10>
          while( __STREXB(((*Lock_Variable) + 1), Lock_Variable) )
  40190a:	f894 3188 	ldrb.w	r3, [r4, #392]	; 0x188
  40190e:	3301      	adds	r3, #1
  401910:	b2db      	uxtb	r3, r3
   __ASM volatile ("strexb %0, %2, %1" : "=&r" (result), "=Q" (*addr) : "r" ((uint32_t)value) );
  401912:	e8c0 3f45 	strexb	r5, r3, [r0]
  401916:	b12d      	cbz	r5, 401924 <XDMAD_AllocateChannel+0x40>
            if(!(*pTimeout)--)
  401918:	9b01      	ldr	r3, [sp, #4]
  40191a:	1e5d      	subs	r5, r3, #1
  40191c:	9501      	str	r5, [sp, #4]
  40191e:	2b00      	cmp	r3, #0
  401920:	d1f3      	bne.n	40190a <XDMAD_AllocateChannel+0x26>
  401922:	e001      	b.n	401928 <XDMAD_AllocateChannel+0x44>
  __ASM volatile ("dmb 0xF":::"memory");
  401924:	f3bf 8f5f 	dmb	sy
	dwChannel = XDMAD_AllocateXdmacChannel(pXdmad,  bSrcID, bDstID);
  401928:	4620      	mov	r0, r4
  40192a:	4b0c      	ldr	r3, [pc, #48]	; (40195c <XDMAD_AllocateChannel+0x78>)
  40192c:	4798      	blx	r3
  __ASM volatile ("dsb 0xF":::"memory");
  40192e:	f3bf 8f4f 	dsb	sy
   __ASM volatile ("ldrexb %0, %1" : "=r" (result) : "Q" (*addr) );
  401932:	f504 73c4 	add.w	r3, r4, #392	; 0x188
  401936:	e8d3 3f4f 	ldrexb	r3, [r3]
    if(__LDREXB(Lock_Variable))
  40193a:	f013 0fff 	tst.w	r3, #255	; 0xff
  40193e:	d00b      	beq.n	401958 <XDMAD_AllocateChannel+0x74>
      __STREXB( ((*Lock_Variable) - 1), Lock_Variable);
  401940:	f894 3188 	ldrb.w	r3, [r4, #392]	; 0x188
  401944:	3b01      	subs	r3, #1
  401946:	b2db      	uxtb	r3, r3
   __ASM volatile ("strexb %0, %2, %1" : "=&r" (result), "=Q" (*addr) : "r" ((uint32_t)value) );
  401948:	f504 71c4 	add.w	r1, r4, #392	; 0x188
  40194c:	e8c1 3f42 	strexb	r2, r3, [r1]
  __ASM volatile ("dsb 0xF":::"memory");
  401950:	f3bf 8f4f 	dsb	sy
  __ASM volatile ("dmb 0xF":::"memory");
  401954:	f3bf 8f5f 	dmb	sy
	ReleaseMutex(pXdmad->xdmaMutex);

	return dwChannel;
}
  401958:	b003      	add	sp, #12
  40195a:	bd30      	pop	{r4, r5, pc}
  40195c:	00401705 	.word	0x00401705

00401960 <XDMAD_SetCallback>:
 */
eXdmadRC XDMAD_SetCallback(sXdmad *pXdmad,
							uint32_t dwChannel,
							XdmadTransferCallback fCallback,
							void *pArg)
{
  401960:	b538      	push	{r3, r4, r5, lr}

	uint8_t iChannel    = (dwChannel) & 0xFF;
	assert(pXdmad != NULL);
  401962:	b138      	cbz	r0, 401974 <XDMAD_SetCallback+0x14>
  401964:	b2cd      	uxtb	r5, r1
  401966:	4604      	mov	r4, r0

	if (iChannel >= pXdmad->numChannels) return XDMAD_ERROR;
  401968:	f890 0185 	ldrb.w	r0, [r0, #389]	; 0x185
  40196c:	4285      	cmp	r5, r0
  40196e:	d307      	bcc.n	401980 <XDMAD_SetCallback+0x20>
  401970:	2004      	movs	r0, #4
  401972:	bd38      	pop	{r3, r4, r5, pc}
	assert(pXdmad != NULL);
  401974:	4b0d      	ldr	r3, [pc, #52]	; (4019ac <XDMAD_SetCallback+0x4c>)
  401976:	4a0e      	ldr	r2, [pc, #56]	; (4019b0 <XDMAD_SetCallback+0x50>)
  401978:	21f0      	movs	r1, #240	; 0xf0
  40197a:	480e      	ldr	r0, [pc, #56]	; (4019b4 <XDMAD_SetCallback+0x54>)
  40197c:	4c0e      	ldr	r4, [pc, #56]	; (4019b8 <XDMAD_SetCallback+0x58>)
  40197e:	47a0      	blx	r4

	if (pXdmad->XdmaChannels[iChannel].state == XDMAD_STATE_FREE)
  401980:	b2c9      	uxtb	r1, r1
  401982:	eb04 1001 	add.w	r0, r4, r1, lsl #4
  401986:	7cc0      	ldrb	r0, [r0, #19]
  401988:	b908      	cbnz	r0, 40198e <XDMAD_SetCallback+0x2e>
		return XDMAD_ERROR;
  40198a:	2004      	movs	r0, #4
  40198c:	bd38      	pop	{r3, r4, r5, pc}
	else if (pXdmad->XdmaChannels[iChannel].state == XDMAD_STATE_START)
  40198e:	eb04 1001 	add.w	r0, r4, r1, lsl #4
  401992:	7cc0      	ldrb	r0, [r0, #19]
  401994:	b2c0      	uxtb	r0, r0
  401996:	2802      	cmp	r0, #2
  401998:	d005      	beq.n	4019a6 <XDMAD_SetCallback+0x46>
		return XDMAD_BUSY;

	pXdmad->XdmaChannels[iChannel].fCallback = fCallback;
  40199a:	eb04 1101 	add.w	r1, r4, r1, lsl #4
  40199e:	604a      	str	r2, [r1, #4]
	pXdmad->XdmaChannels[iChannel].pArg = pArg;
  4019a0:	608b      	str	r3, [r1, #8]

	return XDMAD_OK;
  4019a2:	2000      	movs	r0, #0
  4019a4:	bd38      	pop	{r3, r4, r5, pc}
		return XDMAD_BUSY;
  4019a6:	2003      	movs	r0, #3
}
  4019a8:	bd38      	pop	{r3, r4, r5, pc}
  4019aa:	bf00      	nop
  4019ac:	00409574 	.word	0x00409574
  4019b0:	00409454 	.word	0x00409454
  4019b4:	00409558 	.word	0x00409558
  4019b8:	004022d9 	.word	0x004022d9

004019bc <XDMAD_PrepareChannel>:
 * \param pXdmad     Pointer to xDMA driver instance.
 * \param dwChannel ControllerNumber << 8 | ChannelNumber.
 * \param dwCfg     Configuration value.
 */
eXdmadRC XDMAD_PrepareChannel(sXdmad *pXdmad, uint32_t dwChannel)
{
  4019bc:	b570      	push	{r4, r5, r6, lr}

	uint8_t iChannel    = (dwChannel) & 0xFF;
	Xdmac *pXdmac = pXdmad->pXdmacs;
  4019be:	6805      	ldr	r5, [r0, #0]

	assert(pXdmad != NULL);
  4019c0:	b130      	cbz	r0, 4019d0 <XDMAD_PrepareChannel+0x14>
  4019c2:	b2cc      	uxtb	r4, r1

	if (iChannel >= pXdmad->numChannels) return XDMAD_ERROR;
  4019c4:	f890 3185 	ldrb.w	r3, [r0, #389]	; 0x185
  4019c8:	429c      	cmp	r4, r3
  4019ca:	d308      	bcc.n	4019de <XDMAD_PrepareChannel+0x22>
  4019cc:	2004      	movs	r0, #4
  4019ce:	bd70      	pop	{r4, r5, r6, pc}
	assert(pXdmad != NULL);
  4019d0:	4b2c      	ldr	r3, [pc, #176]	; (401a84 <XDMAD_PrepareChannel+0xc8>)
  4019d2:	4a2d      	ldr	r2, [pc, #180]	; (401a88 <XDMAD_PrepareChannel+0xcc>)
  4019d4:	f240 110d 	movw	r1, #269	; 0x10d
  4019d8:	482c      	ldr	r0, [pc, #176]	; (401a8c <XDMAD_PrepareChannel+0xd0>)
  4019da:	4c2d      	ldr	r4, [pc, #180]	; (401a90 <XDMAD_PrepareChannel+0xd4>)
  4019dc:	47a0      	blx	r4

	if (pXdmad->XdmaChannels[iChannel].state == XDMAD_STATE_FREE)
  4019de:	b2c9      	uxtb	r1, r1
  4019e0:	eb00 1301 	add.w	r3, r0, r1, lsl #4
  4019e4:	7cdb      	ldrb	r3, [r3, #19]
  4019e6:	b90b      	cbnz	r3, 4019ec <XDMAD_PrepareChannel+0x30>
		return XDMAD_ERROR;
  4019e8:	2004      	movs	r0, #4
  4019ea:	bd70      	pop	{r4, r5, r6, pc}
	else if ((pXdmad->XdmaChannels[iChannel].state == XDMAD_STATE_START)
  4019ec:	eb00 1301 	add.w	r3, r0, r1, lsl #4
  4019f0:	7cdb      	ldrb	r3, [r3, #19]
  4019f2:	b2db      	uxtb	r3, r3
  4019f4:	2b02      	cmp	r3, #2
  4019f6:	d042      	beq.n	401a7e <XDMAD_PrepareChannel+0xc2>
			  || (pXdmad->XdmaChannels[iChannel].state == XDMAD_STATE_IN_XFR))
  4019f8:	eb00 1001 	add.w	r0, r0, r1, lsl #4
  4019fc:	7cc3      	ldrb	r3, [r0, #19]
  4019fe:	b2db      	uxtb	r3, r3
  401a00:	2b03      	cmp	r3, #3
  401a02:	d101      	bne.n	401a08 <XDMAD_PrepareChannel+0x4c>
		return XDMAD_BUSY;
  401a04:	2003      	movs	r0, #3
	XDMAC_SetBlockControl(pXdmac, iChannel, 0);
	XDMAC_SetChannelConfig(pXdmac, iChannel, 0x20);
	XDMAC_SetDescriptorAddr(pXdmac, iChannel, 0, 0);
	XDMAC_SetDescriptorControl(pXdmac, iChannel, 0);
	return XDMAD_OK;
}
  401a06:	bd70      	pop	{r4, r5, r6, pc}
	if (!PMC_IsPeriphEnabled(ID_XDMAC))
  401a08:	203a      	movs	r0, #58	; 0x3a
  401a0a:	4b22      	ldr	r3, [pc, #136]	; (401a94 <XDMAD_PrepareChannel+0xd8>)
  401a0c:	4798      	blx	r3
  401a0e:	2800      	cmp	r0, #0
  401a10:	d031      	beq.n	401a76 <XDMAD_PrepareChannel+0xba>
	XDMAC_GetChannelIsr(pXdmac, iChannel);
  401a12:	4621      	mov	r1, r4
  401a14:	4628      	mov	r0, r5
  401a16:	4b20      	ldr	r3, [pc, #128]	; (401a98 <XDMAD_PrepareChannel+0xdc>)
  401a18:	4798      	blx	r3
	XDMAC_DisableGIt (pXdmac, iChannel);
  401a1a:	4621      	mov	r1, r4
  401a1c:	4628      	mov	r0, r5
  401a1e:	4b1f      	ldr	r3, [pc, #124]	; (401a9c <XDMAD_PrepareChannel+0xe0>)
  401a20:	4798      	blx	r3
	XDMAC_DisableChannelIt (pXdmac, iChannel, 0xFF);
  401a22:	22ff      	movs	r2, #255	; 0xff
  401a24:	4621      	mov	r1, r4
  401a26:	4628      	mov	r0, r5
  401a28:	4b1d      	ldr	r3, [pc, #116]	; (401aa0 <XDMAD_PrepareChannel+0xe4>)
  401a2a:	4798      	blx	r3
	XDMAC_DisableChannel(pXdmac, iChannel);
  401a2c:	4621      	mov	r1, r4
  401a2e:	4628      	mov	r0, r5
  401a30:	4b1c      	ldr	r3, [pc, #112]	; (401aa4 <XDMAD_PrepareChannel+0xe8>)
  401a32:	4798      	blx	r3
	XDMAC_SetSourceAddr(pXdmac, iChannel, 0);
  401a34:	2200      	movs	r2, #0
  401a36:	4621      	mov	r1, r4
  401a38:	4628      	mov	r0, r5
  401a3a:	4b1b      	ldr	r3, [pc, #108]	; (401aa8 <XDMAD_PrepareChannel+0xec>)
  401a3c:	4798      	blx	r3
	XDMAC_SetDestinationAddr(pXdmac, iChannel, 0);
  401a3e:	2200      	movs	r2, #0
  401a40:	4621      	mov	r1, r4
  401a42:	4628      	mov	r0, r5
  401a44:	4b19      	ldr	r3, [pc, #100]	; (401aac <XDMAD_PrepareChannel+0xf0>)
  401a46:	4798      	blx	r3
	XDMAC_SetBlockControl(pXdmac, iChannel, 0);
  401a48:	2200      	movs	r2, #0
  401a4a:	4621      	mov	r1, r4
  401a4c:	4628      	mov	r0, r5
  401a4e:	4b18      	ldr	r3, [pc, #96]	; (401ab0 <XDMAD_PrepareChannel+0xf4>)
  401a50:	4798      	blx	r3
	XDMAC_SetChannelConfig(pXdmac, iChannel, 0x20);
  401a52:	2220      	movs	r2, #32
  401a54:	4621      	mov	r1, r4
  401a56:	4628      	mov	r0, r5
  401a58:	4b16      	ldr	r3, [pc, #88]	; (401ab4 <XDMAD_PrepareChannel+0xf8>)
  401a5a:	4798      	blx	r3
	XDMAC_SetDescriptorAddr(pXdmac, iChannel, 0, 0);
  401a5c:	2300      	movs	r3, #0
  401a5e:	461a      	mov	r2, r3
  401a60:	4621      	mov	r1, r4
  401a62:	4628      	mov	r0, r5
  401a64:	4e14      	ldr	r6, [pc, #80]	; (401ab8 <XDMAD_PrepareChannel+0xfc>)
  401a66:	47b0      	blx	r6
	XDMAC_SetDescriptorControl(pXdmac, iChannel, 0);
  401a68:	2200      	movs	r2, #0
  401a6a:	4621      	mov	r1, r4
  401a6c:	4628      	mov	r0, r5
  401a6e:	4b13      	ldr	r3, [pc, #76]	; (401abc <XDMAD_PrepareChannel+0x100>)
  401a70:	4798      	blx	r3
	return XDMAD_OK;
  401a72:	2000      	movs	r0, #0
  401a74:	bd70      	pop	{r4, r5, r6, pc}
		PMC_EnablePeripheral(ID_XDMAC);
  401a76:	203a      	movs	r0, #58	; 0x3a
  401a78:	4b11      	ldr	r3, [pc, #68]	; (401ac0 <XDMAD_PrepareChannel+0x104>)
  401a7a:	4798      	blx	r3
  401a7c:	e7c9      	b.n	401a12 <XDMAD_PrepareChannel+0x56>
		return XDMAD_BUSY;
  401a7e:	2003      	movs	r0, #3
  401a80:	bd70      	pop	{r4, r5, r6, pc}
  401a82:	bf00      	nop
  401a84:	00409574 	.word	0x00409574
  401a88:	00409468 	.word	0x00409468
  401a8c:	00409558 	.word	0x00409558
  401a90:	004022d9 	.word	0x004022d9
  401a94:	00400859 	.word	0x00400859
  401a98:	004013d1 	.word	0x004013d1
  401a9c:	0040121d 	.word	0x0040121d
  401aa0:	00401351 	.word	0x00401351
  401aa4:	004012ad 	.word	0x004012ad
  401aa8:	00401455 	.word	0x00401455
  401aac:	00401495 	.word	0x00401495
  401ab0:	004015b5 	.word	0x004015b5
  401ab4:	004015f9 	.word	0x004015f9
  401ab8:	004014d5 	.word	0x004014d5
  401abc:	00401531 	.word	0x00401531
  401ac0:	004007f9 	.word	0x004007f9

00401ac4 <XDMAD_Handler>:
/**
 * \brief xDMA interrupt handler
 * \param pxDmad Pointer to DMA driver instance.
 */
void XDMAD_Handler(sXdmad *pDmad)
{
  401ac4:	e92d 4ff8 	stmdb	sp!, {r3, r4, r5, r6, r7, r8, r9, sl, fp, lr}
	Xdmac *pXdmac;
	sXdmadChannel *pCh;
	uint32_t xdmaChannelIntStatus, xdmaGlobaIntStatus, xdmaGlobalChStatus;
	uint8_t bExec = 0;
	uint8_t _iChannel;
	assert(pDmad != NULL);
  401ac8:	b158      	cbz	r0, 401ae2 <XDMAD_Handler+0x1e>
  401aca:	4605      	mov	r5, r0

	pXdmac = pDmad->pXdmacs;
  401acc:	f8d0 9000 	ldr.w	r9, [r0]
	xdmaGlobaIntStatus = XDMAC_GetGIsr(pXdmac);
  401ad0:	4648      	mov	r0, r9
  401ad2:	4b39      	ldr	r3, [pc, #228]	; (401bb8 <XDMAD_Handler+0xf4>)
  401ad4:	4798      	blx	r3
  401ad6:	4607      	mov	r7, r0

	if ((xdmaGlobaIntStatus & 0xFFFFFF) != 0) {
  401ad8:	f030 437f 	bics.w	r3, r0, #4278190080	; 0xff000000
  401adc:	d108      	bne.n	401af0 <XDMAD_Handler+0x2c>
  401ade:	e8bd 8ff8 	ldmia.w	sp!, {r3, r4, r5, r6, r7, r8, r9, sl, fp, pc}
	assert(pDmad != NULL);
  401ae2:	4b36      	ldr	r3, [pc, #216]	; (401bbc <XDMAD_Handler+0xf8>)
  401ae4:	4a36      	ldr	r2, [pc, #216]	; (401bc0 <XDMAD_Handler+0xfc>)
  401ae6:	f240 1137 	movw	r1, #311	; 0x137
  401aea:	4836      	ldr	r0, [pc, #216]	; (401bc4 <XDMAD_Handler+0x100>)
  401aec:	4c36      	ldr	r4, [pc, #216]	; (401bc8 <XDMAD_Handler+0x104>)
  401aee:	47a0      	blx	r4
		xdmaGlobalChStatus = XDMAC_GetGlobalChStatus(pXdmac);
  401af0:	4648      	mov	r0, r9
  401af2:	4b36      	ldr	r3, [pc, #216]	; (401bcc <XDMAD_Handler+0x108>)
  401af4:	4798      	blx	r3
  401af6:	4682      	mov	sl, r0

		for (_iChannel = 0; _iChannel < pDmad->numChannels; _iChannel ++) {
  401af8:	2400      	movs	r4, #0
	uint8_t bExec = 0;
  401afa:	46a0      	mov	r8, r4
		for (_iChannel = 0; _iChannel < pDmad->numChannels; _iChannel ++) {
  401afc:	e025      	b.n	401b4a <XDMAD_Handler+0x86>
			if ((xdmaGlobalChStatus & (XDMAC_GS_ST0 << _iChannel)) == 0) {
				bExec = 0;
				xdmaChannelIntStatus = XDMAC_GetMaskChannelIsr(pXdmac, _iChannel);

				if (xdmaChannelIntStatus & XDMAC_CIS_BIS) {
					if ((XDMAC_GetChannelItMask(pXdmac, _iChannel) & XDMAC_CIM_LIM)
  401afe:	4621      	mov	r1, r4
  401b00:	4648      	mov	r0, r9
  401b02:	4b33      	ldr	r3, [pc, #204]	; (401bd0 <XDMAD_Handler+0x10c>)
  401b04:	4798      	blx	r3
  401b06:	f010 0f02 	tst.w	r0, #2
  401b0a:	d106      	bne.n	401b1a <XDMAD_Handler+0x56>
						== 0) {
						pCh->state = XDMAD_STATE_DONE;
  401b0c:	eb05 1304 	add.w	r3, r5, r4, lsl #4
  401b10:	2204      	movs	r2, #4
  401b12:	74da      	strb	r2, [r3, #19]
						bExec = 1;
  401b14:	f04f 0801 	mov.w	r8, #1
  401b18:	e034      	b.n	401b84 <XDMAD_Handler+0xc0>
				bExec = 0;
  401b1a:	f04f 0800 	mov.w	r8, #0
  401b1e:	e031      	b.n	401b84 <XDMAD_Handler+0xc0>
					bExec = 1;
				}

			} else {
				/* Block end interrupt for LLI dma mode */
				if (XDMAC_GetChannelIsr(pXdmac, _iChannel) & XDMAC_CIS_BIS) {
  401b20:	4621      	mov	r1, r4
  401b22:	4648      	mov	r0, r9
  401b24:	4b2b      	ldr	r3, [pc, #172]	; (401bd4 <XDMAD_Handler+0x110>)
  401b26:	4798      	blx	r3
  401b28:	f010 0f01 	tst.w	r0, #1
  401b2c:	d13d      	bne.n	401baa <XDMAD_Handler+0xe6>
					pCh->fCallback(_iChannel, pCh->pArg);
				}
			}

			/* Execute callback */
			if (bExec && pCh->fCallback)
  401b2e:	f1b8 0f00 	cmp.w	r8, #0
  401b32:	d008      	beq.n	401b46 <XDMAD_Handler+0x82>
  401b34:	eb05 1306 	add.w	r3, r5, r6, lsl #4
  401b38:	685b      	ldr	r3, [r3, #4]
  401b3a:	b123      	cbz	r3, 401b46 <XDMAD_Handler+0x82>
				pCh->fCallback(_iChannel, pCh->pArg);
  401b3c:	eb05 1606 	add.w	r6, r5, r6, lsl #4
  401b40:	68b1      	ldr	r1, [r6, #8]
  401b42:	4620      	mov	r0, r4
  401b44:	4798      	blx	r3
		for (_iChannel = 0; _iChannel < pDmad->numChannels; _iChannel ++) {
  401b46:	3401      	adds	r4, #1
  401b48:	b2e4      	uxtb	r4, r4
  401b4a:	f895 3185 	ldrb.w	r3, [r5, #389]	; 0x185
  401b4e:	429c      	cmp	r4, r3
  401b50:	d2c5      	bcs.n	401ade <XDMAD_Handler+0x1a>
			if (!(xdmaGlobaIntStatus & (1 << _iChannel))) continue;
  401b52:	4626      	mov	r6, r4
  401b54:	2301      	movs	r3, #1
  401b56:	40a3      	lsls	r3, r4
  401b58:	421f      	tst	r7, r3
  401b5a:	d0f4      	beq.n	401b46 <XDMAD_Handler+0x82>
			if (pCh->state == XDMAD_STATE_FREE) return;
  401b5c:	eb05 1304 	add.w	r3, r5, r4, lsl #4
  401b60:	7cdb      	ldrb	r3, [r3, #19]
  401b62:	2b00      	cmp	r3, #0
  401b64:	d0bb      	beq.n	401ade <XDMAD_Handler+0x1a>
			if ((xdmaGlobalChStatus & (XDMAC_GS_ST0 << _iChannel)) == 0) {
  401b66:	2301      	movs	r3, #1
  401b68:	40a3      	lsls	r3, r4
  401b6a:	ea1a 0f03 	tst.w	sl, r3
  401b6e:	d1d7      	bne.n	401b20 <XDMAD_Handler+0x5c>
				xdmaChannelIntStatus = XDMAC_GetMaskChannelIsr(pXdmac, _iChannel);
  401b70:	4621      	mov	r1, r4
  401b72:	4648      	mov	r0, r9
  401b74:	4b18      	ldr	r3, [pc, #96]	; (401bd8 <XDMAD_Handler+0x114>)
  401b76:	4798      	blx	r3
  401b78:	4683      	mov	fp, r0
				if (xdmaChannelIntStatus & XDMAC_CIS_BIS) {
  401b7a:	f010 0f01 	tst.w	r0, #1
  401b7e:	d1be      	bne.n	401afe <XDMAD_Handler+0x3a>
				bExec = 0;
  401b80:	f04f 0800 	mov.w	r8, #0
				if (xdmaChannelIntStatus & XDMAC_CIS_LIS) {
  401b84:	f01b 0f02 	tst.w	fp, #2
  401b88:	d005      	beq.n	401b96 <XDMAD_Handler+0xd2>
					pCh->state = XDMAD_STATE_DONE;
  401b8a:	eb05 1306 	add.w	r3, r5, r6, lsl #4
  401b8e:	2204      	movs	r2, #4
  401b90:	74da      	strb	r2, [r3, #19]
					bExec = 1;
  401b92:	f04f 0801 	mov.w	r8, #1
				if (xdmaChannelIntStatus & XDMAC_CIS_DIS) {
  401b96:	f01b 0f04 	tst.w	fp, #4
  401b9a:	d0c8      	beq.n	401b2e <XDMAD_Handler+0x6a>
					pCh->state = XDMAD_STATE_DONE;
  401b9c:	eb05 1306 	add.w	r3, r5, r6, lsl #4
  401ba0:	2204      	movs	r2, #4
  401ba2:	74da      	strb	r2, [r3, #19]
					bExec = 1;
  401ba4:	f04f 0801 	mov.w	r8, #1
  401ba8:	e7c1      	b.n	401b2e <XDMAD_Handler+0x6a>
					pCh->fCallback(_iChannel, pCh->pArg);
  401baa:	eb05 1304 	add.w	r3, r5, r4, lsl #4
  401bae:	685a      	ldr	r2, [r3, #4]
  401bb0:	6899      	ldr	r1, [r3, #8]
  401bb2:	4620      	mov	r0, r4
  401bb4:	4790      	blx	r2
  401bb6:	e7ba      	b.n	401b2e <XDMAD_Handler+0x6a>
  401bb8:	00401249 	.word	0x00401249
  401bbc:	00409584 	.word	0x00409584
  401bc0:	00409480 	.word	0x00409480
  401bc4:	00409558 	.word	0x00409558
  401bc8:	004022d9 	.word	0x004022d9
  401bcc:	004012ed 	.word	0x004012ed
  401bd0:	00401391 	.word	0x00401391
  401bd4:	004013d1 	.word	0x004013d1
  401bd8:	00401411 	.word	0x00401411

00401bdc <XDMAD_ConfigureTransfer>:
								  uint32_t dwChannel,
								  sXdmadCfg *pXdmaParam,
								  uint32_t dwXdmaDescCfg,
								  uint32_t dwXdmaDescAddr,
								  uint32_t dwXdmaIntEn)
{
  401bdc:	e92d 43f8 	stmdb	sp!, {r3, r4, r5, r6, r7, r8, r9, lr}
	uint8_t iChannel    = (dwChannel) & 0xFF;

	assert(pXdmad != NULL);
  401be0:	b158      	cbz	r0, 401bfa <XDMAD_ConfigureTransfer+0x1e>
  401be2:	460c      	mov	r4, r1
  401be4:	4617      	mov	r7, r2
  401be6:	4698      	mov	r8, r3
  401be8:	b2ce      	uxtb	r6, r1
  401bea:	4605      	mov	r5, r0

	if (iChannel >= pXdmad->numChannels)
  401bec:	f890 3185 	ldrb.w	r3, [r0, #389]	; 0x185
  401bf0:	429e      	cmp	r6, r3
  401bf2:	d309      	bcc.n	401c08 <XDMAD_ConfigureTransfer+0x2c>
		return XDMAD_ERROR;
  401bf4:	2004      	movs	r0, #4
  401bf6:	e8bd 83f8 	ldmia.w	sp!, {r3, r4, r5, r6, r7, r8, r9, pc}
	assert(pXdmad != NULL);
  401bfa:	4b49      	ldr	r3, [pc, #292]	; (401d20 <XDMAD_ConfigureTransfer+0x144>)
  401bfc:	4a49      	ldr	r2, [pc, #292]	; (401d24 <XDMAD_ConfigureTransfer+0x148>)
  401bfe:	f44f 71d3 	mov.w	r1, #422	; 0x1a6
  401c02:	4849      	ldr	r0, [pc, #292]	; (401d28 <XDMAD_ConfigureTransfer+0x14c>)
  401c04:	4c49      	ldr	r4, [pc, #292]	; (401d2c <XDMAD_ConfigureTransfer+0x150>)
  401c06:	47a0      	blx	r4

	Xdmac *pXdmac = pXdmad->pXdmacs;
  401c08:	f8d0 9000 	ldr.w	r9, [r0]
	XDMAC_GetChannelIsr(pXdmac, iChannel);
  401c0c:	4631      	mov	r1, r6
  401c0e:	4648      	mov	r0, r9
  401c10:	4b47      	ldr	r3, [pc, #284]	; (401d30 <XDMAD_ConfigureTransfer+0x154>)
  401c12:	4798      	blx	r3

	if (pXdmad->XdmaChannels[iChannel].state == XDMAD_STATE_FREE)
  401c14:	b2e4      	uxtb	r4, r4
  401c16:	eb05 1304 	add.w	r3, r5, r4, lsl #4
  401c1a:	7cdb      	ldrb	r3, [r3, #19]
  401c1c:	b913      	cbnz	r3, 401c24 <XDMAD_ConfigureTransfer+0x48>
		return XDMAD_ERROR;
  401c1e:	2004      	movs	r0, #4
  401c20:	e8bd 83f8 	ldmia.w	sp!, {r3, r4, r5, r6, r7, r8, r9, pc}

	if (pXdmad->XdmaChannels[iChannel].state == XDMAD_STATE_START)
  401c24:	eb05 1404 	add.w	r4, r5, r4, lsl #4
  401c28:	7ce3      	ldrb	r3, [r4, #19]
  401c2a:	b2db      	uxtb	r3, r3
  401c2c:	2b02      	cmp	r3, #2
  401c2e:	d073      	beq.n	401d18 <XDMAD_ConfigureTransfer+0x13c>
		return XDMAD_BUSY;

	/* Linked List is enabled */
	if ((dwXdmaDescCfg & XDMAC_CNDC_NDE) == XDMAC_CNDC_NDE_DSCR_FETCH_EN) {
  401c30:	f018 0f01 	tst.w	r8, #1
  401c34:	d034      	beq.n	401ca0 <XDMAD_ConfigureTransfer+0xc4>
		if ((dwXdmaDescCfg & XDMAC_CNDC_NDVIEW_Msk) == XDMAC_CNDC_NDVIEW_NDV0) {
  401c36:	f018 0418 	ands.w	r4, r8, #24
  401c3a:	d01b      	beq.n	401c74 <XDMAD_ConfigureTransfer+0x98>
			XDMAC_SetChannelConfig(pXdmac, iChannel, pXdmaParam->mbr_cfg);
			XDMAC_SetSourceAddr(pXdmac, iChannel, pXdmaParam->mbr_sa);
			XDMAC_SetDestinationAddr(pXdmac, iChannel, pXdmaParam->mbr_da);
		}

		if ((dwXdmaDescCfg & XDMAC_CNDC_NDVIEW_Msk) == XDMAC_CNDC_NDVIEW_NDV1)
  401c3c:	2c08      	cmp	r4, #8
  401c3e:	d029      	beq.n	401c94 <XDMAD_ConfigureTransfer+0xb8>
			XDMAC_SetChannelConfig(pXdmac, iChannel, pXdmaParam->mbr_cfg);

		XDMAC_SetDescriptorAddr(pXdmac, iChannel, dwXdmaDescAddr, 0);
  401c40:	2300      	movs	r3, #0
  401c42:	9a08      	ldr	r2, [sp, #32]
  401c44:	4631      	mov	r1, r6
  401c46:	4648      	mov	r0, r9
  401c48:	4c3a      	ldr	r4, [pc, #232]	; (401d34 <XDMAD_ConfigureTransfer+0x158>)
  401c4a:	47a0      	blx	r4
		XDMAC_SetDescriptorControl(pXdmac, iChannel, dwXdmaDescCfg);
  401c4c:	fa5f f288 	uxtb.w	r2, r8
  401c50:	4631      	mov	r1, r6
  401c52:	4648      	mov	r0, r9
  401c54:	4b38      	ldr	r3, [pc, #224]	; (401d38 <XDMAD_ConfigureTransfer+0x15c>)
  401c56:	4798      	blx	r3
		XDMAC_DisableChannelIt (pXdmac, iChannel, 0xFF);
  401c58:	22ff      	movs	r2, #255	; 0xff
  401c5a:	4631      	mov	r1, r6
  401c5c:	4648      	mov	r0, r9
  401c5e:	4b37      	ldr	r3, [pc, #220]	; (401d3c <XDMAD_ConfigureTransfer+0x160>)
  401c60:	4798      	blx	r3
		XDMAC_EnableChannelIt (pXdmac, iChannel, dwXdmaIntEn);
  401c62:	f89d 2024 	ldrb.w	r2, [sp, #36]	; 0x24
  401c66:	4631      	mov	r1, r6
  401c68:	4648      	mov	r0, r9
  401c6a:	4b35      	ldr	r3, [pc, #212]	; (401d40 <XDMAD_ConfigureTransfer+0x164>)
  401c6c:	4798      	blx	r3
		XDMAC_SetDescriptorAddr(pXdmac, iChannel, 0, 0);
		XDMAC_SetDescriptorControl(pXdmac, iChannel, 0);
		XDMAC_EnableChannelIt (pXdmac, iChannel, dwXdmaIntEn);
	}

	return XDMAD_OK;
  401c6e:	2000      	movs	r0, #0
  401c70:	e8bd 83f8 	ldmia.w	sp!, {r3, r4, r5, r6, r7, r8, r9, pc}
			XDMAC_SetChannelConfig(pXdmac, iChannel, pXdmaParam->mbr_cfg);
  401c74:	68fa      	ldr	r2, [r7, #12]
  401c76:	4631      	mov	r1, r6
  401c78:	4648      	mov	r0, r9
  401c7a:	4b32      	ldr	r3, [pc, #200]	; (401d44 <XDMAD_ConfigureTransfer+0x168>)
  401c7c:	4798      	blx	r3
			XDMAC_SetSourceAddr(pXdmac, iChannel, pXdmaParam->mbr_sa);
  401c7e:	687a      	ldr	r2, [r7, #4]
  401c80:	4631      	mov	r1, r6
  401c82:	4648      	mov	r0, r9
  401c84:	4b30      	ldr	r3, [pc, #192]	; (401d48 <XDMAD_ConfigureTransfer+0x16c>)
  401c86:	4798      	blx	r3
			XDMAC_SetDestinationAddr(pXdmac, iChannel, pXdmaParam->mbr_da);
  401c88:	68ba      	ldr	r2, [r7, #8]
  401c8a:	4631      	mov	r1, r6
  401c8c:	4648      	mov	r0, r9
  401c8e:	4b2f      	ldr	r3, [pc, #188]	; (401d4c <XDMAD_ConfigureTransfer+0x170>)
  401c90:	4798      	blx	r3
  401c92:	e7d3      	b.n	401c3c <XDMAD_ConfigureTransfer+0x60>
			XDMAC_SetChannelConfig(pXdmac, iChannel, pXdmaParam->mbr_cfg);
  401c94:	68fa      	ldr	r2, [r7, #12]
  401c96:	4631      	mov	r1, r6
  401c98:	4648      	mov	r0, r9
  401c9a:	4b2a      	ldr	r3, [pc, #168]	; (401d44 <XDMAD_ConfigureTransfer+0x168>)
  401c9c:	4798      	blx	r3
  401c9e:	e7cf      	b.n	401c40 <XDMAD_ConfigureTransfer+0x64>
		XDMAC_SetSourceAddr(pXdmac, iChannel, pXdmaParam->mbr_sa);
  401ca0:	687a      	ldr	r2, [r7, #4]
  401ca2:	4631      	mov	r1, r6
  401ca4:	4648      	mov	r0, r9
  401ca6:	4b28      	ldr	r3, [pc, #160]	; (401d48 <XDMAD_ConfigureTransfer+0x16c>)
  401ca8:	4798      	blx	r3
		XDMAC_SetDestinationAddr(pXdmac, iChannel, pXdmaParam->mbr_da);
  401caa:	68ba      	ldr	r2, [r7, #8]
  401cac:	4631      	mov	r1, r6
  401cae:	4648      	mov	r0, r9
  401cb0:	4b26      	ldr	r3, [pc, #152]	; (401d4c <XDMAD_ConfigureTransfer+0x170>)
  401cb2:	4798      	blx	r3
		XDMAC_SetMicroblockControl(pXdmac, iChannel, pXdmaParam->mbr_ubc);
  401cb4:	683a      	ldr	r2, [r7, #0]
  401cb6:	4631      	mov	r1, r6
  401cb8:	4648      	mov	r0, r9
  401cba:	4b25      	ldr	r3, [pc, #148]	; (401d50 <XDMAD_ConfigureTransfer+0x174>)
  401cbc:	4798      	blx	r3
		XDMAC_SetBlockControl(pXdmac, iChannel, pXdmaParam->mbr_bc);
  401cbe:	8a3a      	ldrh	r2, [r7, #16]
  401cc0:	4631      	mov	r1, r6
  401cc2:	4648      	mov	r0, r9
  401cc4:	4b23      	ldr	r3, [pc, #140]	; (401d54 <XDMAD_ConfigureTransfer+0x178>)
  401cc6:	4798      	blx	r3
		XDMAC_SetDataStride_MemPattern(pXdmac, iChannel, pXdmaParam->mbr_ds);
  401cc8:	697a      	ldr	r2, [r7, #20]
  401cca:	4631      	mov	r1, r6
  401ccc:	4648      	mov	r0, r9
  401cce:	4b22      	ldr	r3, [pc, #136]	; (401d58 <XDMAD_ConfigureTransfer+0x17c>)
  401cd0:	4798      	blx	r3
		XDMAC_SetSourceMicroBlockStride(pXdmac, iChannel, pXdmaParam->mbr_sus);
  401cd2:	69ba      	ldr	r2, [r7, #24]
  401cd4:	4631      	mov	r1, r6
  401cd6:	4648      	mov	r0, r9
  401cd8:	4b20      	ldr	r3, [pc, #128]	; (401d5c <XDMAD_ConfigureTransfer+0x180>)
  401cda:	4798      	blx	r3
		XDMAC_SetDestinationMicroBlockStride(pXdmac, iChannel, pXdmaParam->mbr_dus);
  401cdc:	69fa      	ldr	r2, [r7, #28]
  401cde:	4631      	mov	r1, r6
  401ce0:	4648      	mov	r0, r9
  401ce2:	4b1f      	ldr	r3, [pc, #124]	; (401d60 <XDMAD_ConfigureTransfer+0x184>)
  401ce4:	4798      	blx	r3
		XDMAC_SetChannelConfig(pXdmac, iChannel, pXdmaParam->mbr_cfg);
  401ce6:	68fa      	ldr	r2, [r7, #12]
  401ce8:	4631      	mov	r1, r6
  401cea:	4648      	mov	r0, r9
  401cec:	4b15      	ldr	r3, [pc, #84]	; (401d44 <XDMAD_ConfigureTransfer+0x168>)
  401cee:	4798      	blx	r3
		XDMAC_SetDescriptorAddr(pXdmac, iChannel, 0, 0);
  401cf0:	2300      	movs	r3, #0
  401cf2:	461a      	mov	r2, r3
  401cf4:	4631      	mov	r1, r6
  401cf6:	4648      	mov	r0, r9
  401cf8:	4c0e      	ldr	r4, [pc, #56]	; (401d34 <XDMAD_ConfigureTransfer+0x158>)
  401cfa:	47a0      	blx	r4
		XDMAC_SetDescriptorControl(pXdmac, iChannel, 0);
  401cfc:	2200      	movs	r2, #0
  401cfe:	4631      	mov	r1, r6
  401d00:	4648      	mov	r0, r9
  401d02:	4b0d      	ldr	r3, [pc, #52]	; (401d38 <XDMAD_ConfigureTransfer+0x15c>)
  401d04:	4798      	blx	r3
		XDMAC_EnableChannelIt (pXdmac, iChannel, dwXdmaIntEn);
  401d06:	f89d 2024 	ldrb.w	r2, [sp, #36]	; 0x24
  401d0a:	4631      	mov	r1, r6
  401d0c:	4648      	mov	r0, r9
  401d0e:	4b0c      	ldr	r3, [pc, #48]	; (401d40 <XDMAD_ConfigureTransfer+0x164>)
  401d10:	4798      	blx	r3
	return XDMAD_OK;
  401d12:	2000      	movs	r0, #0
  401d14:	e8bd 83f8 	ldmia.w	sp!, {r3, r4, r5, r6, r7, r8, r9, pc}
		return XDMAD_BUSY;
  401d18:	2003      	movs	r0, #3
}
  401d1a:	e8bd 83f8 	ldmia.w	sp!, {r3, r4, r5, r6, r7, r8, r9, pc}
  401d1e:	bf00      	nop
  401d20:	00409574 	.word	0x00409574
  401d24:	004094a8 	.word	0x004094a8
  401d28:	00409558 	.word	0x00409558
  401d2c:	004022d9 	.word	0x004022d9
  401d30:	004013d1 	.word	0x004013d1
  401d34:	004014d5 	.word	0x004014d5
  401d38:	00401531 	.word	0x00401531
  401d3c:	00401351 	.word	0x00401351
  401d40:	00401311 	.word	0x00401311
  401d44:	004015f9 	.word	0x004015f9
  401d48:	00401455 	.word	0x00401455
  401d4c:	00401495 	.word	0x00401495
  401d50:	00401571 	.word	0x00401571
  401d54:	004015b5 	.word	0x004015b5
  401d58:	00401639 	.word	0x00401639
  401d5c:	00401679 	.word	0x00401679
  401d60:	004016bd 	.word	0x004016bd

00401d64 <XDMAD_StartTransfer>:
 * \brief Start xDMA transfer.
 * \param pXdmad     Pointer to XDMA driver instance.
 * \param dwChannel ControllerNumber << 8 | ChannelNumber.
 */
eXdmadRC XDMAD_StartTransfer(sXdmad *pXdmad, uint32_t dwChannel)
{
  401d64:	b570      	push	{r4, r5, r6, lr}
	uint8_t iChannel    = (dwChannel) & 0xFF;

	assert(pXdmad != NULL);
  401d66:	b138      	cbz	r0, 401d78 <XDMAD_StartTransfer+0x14>
  401d68:	b2cd      	uxtb	r5, r1
  401d6a:	4604      	mov	r4, r0

	if (iChannel >= pXdmad->numChannels) return XDMAD_ERROR;
  401d6c:	f890 3185 	ldrb.w	r3, [r0, #389]	; 0x185
  401d70:	429d      	cmp	r5, r3
  401d72:	d308      	bcc.n	401d86 <XDMAD_StartTransfer+0x22>
  401d74:	2004      	movs	r0, #4
  401d76:	bd70      	pop	{r4, r5, r6, pc}
	assert(pXdmad != NULL);
  401d78:	4b18      	ldr	r3, [pc, #96]	; (401ddc <XDMAD_StartTransfer+0x78>)
  401d7a:	4a19      	ldr	r2, [pc, #100]	; (401de0 <XDMAD_StartTransfer+0x7c>)
  401d7c:	f44f 71ef 	mov.w	r1, #478	; 0x1de
  401d80:	4818      	ldr	r0, [pc, #96]	; (401de4 <XDMAD_StartTransfer+0x80>)
  401d82:	4c19      	ldr	r4, [pc, #100]	; (401de8 <XDMAD_StartTransfer+0x84>)
  401d84:	47a0      	blx	r4

	Xdmac *pXdmac = pXdmad->pXdmacs;
  401d86:	6806      	ldr	r6, [r0, #0]

	if (pXdmad->XdmaChannels[iChannel].state == XDMAD_STATE_FREE) {
  401d88:	b2c9      	uxtb	r1, r1
  401d8a:	eb00 1301 	add.w	r3, r0, r1, lsl #4
  401d8e:	7cdb      	ldrb	r3, [r3, #19]
  401d90:	b193      	cbz	r3, 401db8 <XDMAD_StartTransfer+0x54>
		TRACE_ERROR("%s:: XDMAD_STATE_FREE \n\r", __FUNCTION__);
		return XDMAD_ERROR;
	} else if (pXdmad->XdmaChannels[iChannel].state == XDMAD_STATE_START) {
  401d92:	eb00 1301 	add.w	r3, r0, r1, lsl #4
  401d96:	7cdb      	ldrb	r3, [r3, #19]
  401d98:	b2db      	uxtb	r3, r3
  401d9a:	2b02      	cmp	r3, #2
  401d9c:	d012      	beq.n	401dc4 <XDMAD_StartTransfer+0x60>
		TRACE_ERROR("%s:: XDMAD_STATE_START \n\r", __FUNCTION__)
		return XDMAD_BUSY;
	}

	/* Change state to transferring */
	pXdmad->XdmaChannels[iChannel].state = XDMAD_STATE_START;
  401d9e:	eb00 1101 	add.w	r1, r0, r1, lsl #4
  401da2:	2302      	movs	r3, #2
  401da4:	74cb      	strb	r3, [r1, #19]
	XDMAC_EnableChannel(pXdmac, iChannel);
  401da6:	4629      	mov	r1, r5
  401da8:	4630      	mov	r0, r6
  401daa:	4b10      	ldr	r3, [pc, #64]	; (401dec <XDMAD_StartTransfer+0x88>)
  401dac:	4798      	blx	r3

	if (pXdmad->pollingMode == 0)
  401dae:	f894 3186 	ldrb.w	r3, [r4, #390]	; 0x186
  401db2:	b16b      	cbz	r3, 401dd0 <XDMAD_StartTransfer+0x6c>
		XDMAC_EnableGIt(pXdmac, iChannel);

	return XDMAD_OK;
  401db4:	2000      	movs	r0, #0
}
  401db6:	bd70      	pop	{r4, r5, r6, pc}
		TRACE_ERROR("%s:: XDMAD_STATE_FREE \n\r", __FUNCTION__);
  401db8:	490d      	ldr	r1, [pc, #52]	; (401df0 <XDMAD_StartTransfer+0x8c>)
  401dba:	480e      	ldr	r0, [pc, #56]	; (401df4 <XDMAD_StartTransfer+0x90>)
  401dbc:	4b0e      	ldr	r3, [pc, #56]	; (401df8 <XDMAD_StartTransfer+0x94>)
  401dbe:	4798      	blx	r3
		return XDMAD_ERROR;
  401dc0:	2004      	movs	r0, #4
  401dc2:	bd70      	pop	{r4, r5, r6, pc}
		TRACE_ERROR("%s:: XDMAD_STATE_START \n\r", __FUNCTION__)
  401dc4:	490a      	ldr	r1, [pc, #40]	; (401df0 <XDMAD_StartTransfer+0x8c>)
  401dc6:	480d      	ldr	r0, [pc, #52]	; (401dfc <XDMAD_StartTransfer+0x98>)
  401dc8:	4b0b      	ldr	r3, [pc, #44]	; (401df8 <XDMAD_StartTransfer+0x94>)
  401dca:	4798      	blx	r3
		return XDMAD_BUSY;
  401dcc:	2003      	movs	r0, #3
  401dce:	bd70      	pop	{r4, r5, r6, pc}
		XDMAC_EnableGIt(pXdmac, iChannel);
  401dd0:	4629      	mov	r1, r5
  401dd2:	4630      	mov	r0, r6
  401dd4:	4b0a      	ldr	r3, [pc, #40]	; (401e00 <XDMAD_StartTransfer+0x9c>)
  401dd6:	4798      	blx	r3
	return XDMAD_OK;
  401dd8:	2000      	movs	r0, #0
  401dda:	bd70      	pop	{r4, r5, r6, pc}
  401ddc:	00409574 	.word	0x00409574
  401de0:	004094c0 	.word	0x004094c0
  401de4:	00409558 	.word	0x00409558
  401de8:	004022d9 	.word	0x004022d9
  401dec:	0040126d 	.word	0x0040126d
  401df0:	004094d4 	.word	0x004094d4
  401df4:	00409594 	.word	0x00409594
  401df8:	00402ae5 	.word	0x00402ae5
  401dfc:	004095b4 	.word	0x004095b4
  401e00:	004011f1 	.word	0x004011f1

00401e04 <XDMAIF_Get_ChannelNumber>:
 * \return 0-15 peripheral identifier coded.
 *         0xff : no associated peripheral identifier coded.
 */
uint8_t XDMAIF_Get_ChannelNumber (uint8_t bPeriphID,
								  uint8_t bTransfer)
{
  401e04:	b570      	push	{r4, r5, r6, lr}
  401e06:	4604      	mov	r4, r0
  401e08:	460d      	mov	r5, r1
	uint8_t i;
	uint8_t NumOfPeripheral = ((XDMAC_GetType(XDMAC) & 0x00FF0000) >> 16);
  401e0a:	480f      	ldr	r0, [pc, #60]	; (401e48 <XDMAIF_Get_ChannelNumber+0x44>)
  401e0c:	4b0f      	ldr	r3, [pc, #60]	; (401e4c <XDMAIF_Get_ChannelNumber+0x48>)
  401e0e:	4798      	blx	r3
  401e10:	f3c0 4007 	ubfx	r0, r0, #16, #8

	for (i = 0; i <= NumOfPeripheral; i++) {
  401e14:	2300      	movs	r3, #0
  401e16:	e001      	b.n	401e1c <XDMAIF_Get_ChannelNumber+0x18>
  401e18:	3301      	adds	r3, #1
  401e1a:	b2db      	uxtb	r3, r3
  401e1c:	4283      	cmp	r3, r0
  401e1e:	d810      	bhi.n	401e42 <XDMAIF_Get_ChannelNumber+0x3e>
		if ((xdmaHwIf[i].bPeriphID == bPeriphID) &&
  401e20:	eb03 0243 	add.w	r2, r3, r3, lsl #1
  401e24:	0091      	lsls	r1, r2, #2
  401e26:	4a0a      	ldr	r2, [pc, #40]	; (401e50 <XDMAIF_Get_ChannelNumber+0x4c>)
  401e28:	440a      	add	r2, r1
  401e2a:	6852      	ldr	r2, [r2, #4]
  401e2c:	42a2      	cmp	r2, r4
  401e2e:	d1f3      	bne.n	401e18 <XDMAIF_Get_ChannelNumber+0x14>
			 (xdmaHwIf[i].bTransfer == bTransfer))
  401e30:	4a07      	ldr	r2, [pc, #28]	; (401e50 <XDMAIF_Get_ChannelNumber+0x4c>)
  401e32:	440a      	add	r2, r1
  401e34:	7a12      	ldrb	r2, [r2, #8]
		if ((xdmaHwIf[i].bPeriphID == bPeriphID) &&
  401e36:	42aa      	cmp	r2, r5
  401e38:	d1ee      	bne.n	401e18 <XDMAIF_Get_ChannelNumber+0x14>
			return xdmaHwIf[i].bIfID;
  401e3a:	4b05      	ldr	r3, [pc, #20]	; (401e50 <XDMAIF_Get_ChannelNumber+0x4c>)
  401e3c:	440b      	add	r3, r1
  401e3e:	7a58      	ldrb	r0, [r3, #9]
  401e40:	bd70      	pop	{r4, r5, r6, pc}
	}

	return 0xff;
  401e42:	20ff      	movs	r0, #255	; 0xff
}
  401e44:	bd70      	pop	{r4, r5, r6, pc}
  401e46:	bf00      	nop
  401e48:	40078000 	.word	0x40078000
  401e4c:	004011cd 	.word	0x004011cd
  401e50:	004095d4 	.word	0x004095d4

00401e54 <XDMAIF_IsValidatedPeripherOnDma>:
 * \param bPeriphID  Peripheral ID (0xff : memory only).
 * \return 1:  Is a validated peripheral. 0: no associated peripheral identifier
 * coded.
 */
uint8_t XDMAIF_IsValidatedPeripherOnDma(uint8_t bPeriphID)
{
  401e54:	b510      	push	{r4, lr}
  401e56:	4604      	mov	r4, r0
	uint8_t i;
	uint8_t NumOfPeripheral = ((XDMAC_GetType(XDMAC) & 0x00FF0000) >> 16);
  401e58:	480d      	ldr	r0, [pc, #52]	; (401e90 <XDMAIF_IsValidatedPeripherOnDma+0x3c>)
  401e5a:	4b0e      	ldr	r3, [pc, #56]	; (401e94 <XDMAIF_IsValidatedPeripherOnDma+0x40>)
  401e5c:	4798      	blx	r3
  401e5e:	f3c0 4007 	ubfx	r0, r0, #16, #8

	/* It is always validated when transfer to memory */
	if (bPeriphID == 0xFF)
  401e62:	2cff      	cmp	r4, #255	; 0xff
  401e64:	d00f      	beq.n	401e86 <XDMAIF_IsValidatedPeripherOnDma+0x32>
  401e66:	2300      	movs	r3, #0
		return 1;

	for (i = 0; i <= NumOfPeripheral; i++) {
  401e68:	4283      	cmp	r3, r0
  401e6a:	d80a      	bhi.n	401e82 <XDMAIF_IsValidatedPeripherOnDma+0x2e>
		if ((xdmaHwIf[i].bPeriphID == bPeriphID))
  401e6c:	eb03 0243 	add.w	r2, r3, r3, lsl #1
  401e70:	0091      	lsls	r1, r2, #2
  401e72:	4a09      	ldr	r2, [pc, #36]	; (401e98 <XDMAIF_IsValidatedPeripherOnDma+0x44>)
  401e74:	440a      	add	r2, r1
  401e76:	6852      	ldr	r2, [r2, #4]
  401e78:	42a2      	cmp	r2, r4
  401e7a:	d006      	beq.n	401e8a <XDMAIF_IsValidatedPeripherOnDma+0x36>
	for (i = 0; i <= NumOfPeripheral; i++) {
  401e7c:	3301      	adds	r3, #1
  401e7e:	b2db      	uxtb	r3, r3
  401e80:	e7f2      	b.n	401e68 <XDMAIF_IsValidatedPeripherOnDma+0x14>
			return 1;
	}

	return 0;
  401e82:	2000      	movs	r0, #0
  401e84:	bd10      	pop	{r4, pc}
		return 1;
  401e86:	2001      	movs	r0, #1
  401e88:	bd10      	pop	{r4, pc}
			return 1;
  401e8a:	2001      	movs	r0, #1
}
  401e8c:	bd10      	pop	{r4, pc}
  401e8e:	bf00      	nop
  401e90:	40078000 	.word	0x40078000
  401e94:	004011cd 	.word	0x004011cd
  401e98:	004095d4 	.word	0x004095d4

00401e9c <Dma_configure>:

/**
 * \brief DMA driver configuration
 */
static void Dma_configure(void)
{
  401e9c:	b538      	push	{r3, r4, r5, lr}
	sXdmad *pDmad = &dmad;

	/* Driver initialize */
	XDMAD_Initialize( pDmad, 0);
  401e9e:	4c1d      	ldr	r4, [pc, #116]	; (401f14 <Dma_configure+0x78>)
  401ea0:	2100      	movs	r1, #0
  401ea2:	4620      	mov	r0, r4
  401ea4:	4b1c      	ldr	r3, [pc, #112]	; (401f18 <Dma_configure+0x7c>)
  401ea6:	4798      	blx	r3
    NVIC->ICPR[(((uint32_t)(int32_t)IRQn) >> 5UL)] = (uint32_t)(1UL << (((uint32_t)(int32_t)IRQn) & 0x1FUL));
  401ea8:	4b1c      	ldr	r3, [pc, #112]	; (401f1c <Dma_configure+0x80>)
  401eaa:	f04f 6280 	mov.w	r2, #67108864	; 0x4000000
  401eae:	f8c3 2184 	str.w	r2, [r3, #388]	; 0x184
    NVIC->ISER[(((uint32_t)(int32_t)IRQn) >> 5UL)] = (uint32_t)(1UL << (((uint32_t)(int32_t)IRQn) & 0x1FUL));
  401eb2:	605a      	str	r2, [r3, #4]
	/* Configure TWI interrupts */
	NVIC_ClearPendingIRQ(XDMAC_IRQn);
	NVIC_EnableIRQ(XDMAC_IRQn);
	/* Allocate DMA channels for SSC */
	sscDmaTxChannel = XDMAD_AllocateChannel(pDmad, XDMAD_TRANSFER_MEMORY, ID_SSC);
  401eb4:	2216      	movs	r2, #22
  401eb6:	21ff      	movs	r1, #255	; 0xff
  401eb8:	4620      	mov	r0, r4
  401eba:	4d19      	ldr	r5, [pc, #100]	; (401f20 <Dma_configure+0x84>)
  401ebc:	47a8      	blx	r5
  401ebe:	f8c4 018c 	str.w	r0, [r4, #396]	; 0x18c
	sscDmaRxChannel = XDMAD_AllocateChannel(pDmad, ID_SSC, XDMAD_TRANSFER_MEMORY);
  401ec2:	22ff      	movs	r2, #255	; 0xff
  401ec4:	2116      	movs	r1, #22
  401ec6:	4620      	mov	r0, r4
  401ec8:	47a8      	blx	r5
  401eca:	f8c4 0190 	str.w	r0, [r4, #400]	; 0x190
	if (sscDmaTxChannel == XDMAD_ALLOC_FAILED || sscDmaRxChannel == XDMAD_ALLOC_FAILED) 
  401ece:	f8d4 218c 	ldr.w	r2, [r4, #396]	; 0x18c
  401ed2:	f64f 73ff 	movw	r3, #65535	; 0xffff
  401ed6:	429a      	cmp	r2, r3
  401ed8:	d002      	beq.n	401ee0 <Dma_configure+0x44>
  401eda:	4601      	mov	r1, r0
  401edc:	4298      	cmp	r0, r3
  401ede:	d103      	bne.n	401ee8 <Dma_configure+0x4c>
	{
		printf("xDMA channel allocation error\n\r");
  401ee0:	4810      	ldr	r0, [pc, #64]	; (401f24 <Dma_configure+0x88>)
  401ee2:	4b11      	ldr	r3, [pc, #68]	; (401f28 <Dma_configure+0x8c>)
  401ee4:	4798      	blx	r3
  401ee6:	e7fe      	b.n	401ee6 <Dma_configure+0x4a>
		while (1);
	}

	XDMAD_SetCallback( pDmad, sscDmaRxChannel, sscDmaRxClk, 0);
  401ee8:	4c0a      	ldr	r4, [pc, #40]	; (401f14 <Dma_configure+0x78>)
  401eea:	2300      	movs	r3, #0
  401eec:	4a0f      	ldr	r2, [pc, #60]	; (401f2c <Dma_configure+0x90>)
  401eee:	4620      	mov	r0, r4
  401ef0:	4d0f      	ldr	r5, [pc, #60]	; (401f30 <Dma_configure+0x94>)
  401ef2:	47a8      	blx	r5
	XDMAD_SetCallback( pDmad, sscDmaTxChannel, sscDmaTxClk, 0);
  401ef4:	2300      	movs	r3, #0
  401ef6:	4a0f      	ldr	r2, [pc, #60]	; (401f34 <Dma_configure+0x98>)
  401ef8:	f8d4 118c 	ldr.w	r1, [r4, #396]	; 0x18c
  401efc:	4620      	mov	r0, r4
  401efe:	47a8      	blx	r5
	XDMAD_PrepareChannel(pDmad, sscDmaTxChannel);
  401f00:	f8d4 118c 	ldr.w	r1, [r4, #396]	; 0x18c
  401f04:	4620      	mov	r0, r4
  401f06:	4d0c      	ldr	r5, [pc, #48]	; (401f38 <Dma_configure+0x9c>)
  401f08:	47a8      	blx	r5
	XDMAD_PrepareChannel(pDmad, sscDmaRxChannel);
  401f0a:	f8d4 1190 	ldr.w	r1, [r4, #400]	; 0x190
  401f0e:	4620      	mov	r0, r4
  401f10:	47a8      	blx	r5
  401f12:	bd38      	pop	{r3, r4, r5, pc}
  401f14:	20400ab4 	.word	0x20400ab4
  401f18:	004017d1 	.word	0x004017d1
  401f1c:	e000e100 	.word	0xe000e100
  401f20:	004018e5 	.word	0x004018e5
  401f24:	0040985c 	.word	0x0040985c
  401f28:	00402ae5 	.word	0x00402ae5
  401f2c:	00401fa5 	.word	0x00401fa5
  401f30:	00401961 	.word	0x00401961
  401f34:	00401f3d 	.word	0x00401f3d
  401f38:	004019bd 	.word	0x004019bd

00401f3c <sscDmaTxClk>:
{
  401f3c:	b538      	push	{r3, r4, r5, lr}
	Xdmac *pXdmac = dmad.pXdmacs;
  401f3e:	4b14      	ldr	r3, [pc, #80]	; (401f90 <sscDmaTxClk+0x54>)
  401f40:	681d      	ldr	r5, [r3, #0]
	if (outPingPong)
  401f42:	4b14      	ldr	r3, [pc, #80]	; (401f94 <sscDmaTxClk+0x58>)
  401f44:	681b      	ldr	r3, [r3, #0]
  401f46:	b9bb      	cbnz	r3, 401f78 <sscDmaTxClk+0x3c>
		XDMAC_SetSourceAddr(pXdmac, sscDmaTxChannel, (uint32_t)outPingBuffer);
  401f48:	4c11      	ldr	r4, [pc, #68]	; (401f90 <sscDmaTxClk+0x54>)
  401f4a:	4a13      	ldr	r2, [pc, #76]	; (401f98 <sscDmaTxClk+0x5c>)
  401f4c:	f894 118c 	ldrb.w	r1, [r4, #396]	; 0x18c
  401f50:	4628      	mov	r0, r5
  401f52:	4b12      	ldr	r3, [pc, #72]	; (401f9c <sscDmaTxClk+0x60>)
  401f54:	4798      	blx	r3
		outBuffer = outPongBuffer;
  401f56:	f504 74ca 	add.w	r4, r4, #404	; 0x194
  401f5a:	4b0e      	ldr	r3, [pc, #56]	; (401f94 <sscDmaTxClk+0x58>)
  401f5c:	605c      	str	r4, [r3, #4]
	outPingPong = !outPingPong;
  401f5e:	4a0d      	ldr	r2, [pc, #52]	; (401f94 <sscDmaTxClk+0x58>)
  401f60:	6813      	ldr	r3, [r2, #0]
  401f62:	fab3 f383 	clz	r3, r3
  401f66:	095b      	lsrs	r3, r3, #5
  401f68:	6013      	str	r3, [r2, #0]
	XDMAC_EnableChannel(pXdmac, sscDmaTxChannel);
  401f6a:	4b09      	ldr	r3, [pc, #36]	; (401f90 <sscDmaTxClk+0x54>)
  401f6c:	f893 118c 	ldrb.w	r1, [r3, #396]	; 0x18c
  401f70:	4628      	mov	r0, r5
  401f72:	4b0b      	ldr	r3, [pc, #44]	; (401fa0 <sscDmaTxClk+0x64>)
  401f74:	4798      	blx	r3
  401f76:	bd38      	pop	{r3, r4, r5, pc}
		XDMAC_SetSourceAddr(pXdmac, sscDmaTxChannel, (uint32_t)outPongBuffer);
  401f78:	4b05      	ldr	r3, [pc, #20]	; (401f90 <sscDmaTxClk+0x54>)
  401f7a:	f503 72ca 	add.w	r2, r3, #404	; 0x194
  401f7e:	f893 118c 	ldrb.w	r1, [r3, #396]	; 0x18c
  401f82:	4628      	mov	r0, r5
  401f84:	4b05      	ldr	r3, [pc, #20]	; (401f9c <sscDmaTxClk+0x60>)
  401f86:	4798      	blx	r3
		outBuffer = outPingBuffer;
  401f88:	4a03      	ldr	r2, [pc, #12]	; (401f98 <sscDmaTxClk+0x5c>)
  401f8a:	4b02      	ldr	r3, [pc, #8]	; (401f94 <sscDmaTxClk+0x58>)
  401f8c:	605a      	str	r2, [r3, #4]
  401f8e:	e7e6      	b.n	401f5e <sscDmaTxClk+0x22>
  401f90:	20400ab4 	.word	0x20400ab4
  401f94:	20400000 	.word	0x20400000
  401f98:	20402c48 	.word	0x20402c48
  401f9c:	00401455 	.word	0x00401455
  401fa0:	0040126d 	.word	0x0040126d

00401fa4 <sscDmaRxClk>:
{
  401fa4:	b510      	push	{r4, lr}
	Xdmac *pXdmac = dmad.pXdmacs;		
  401fa6:	4b15      	ldr	r3, [pc, #84]	; (401ffc <sscDmaRxClk+0x58>)
  401fa8:	681c      	ldr	r4, [r3, #0]
	if (inPingPong) 
  401faa:	4b15      	ldr	r3, [pc, #84]	; (402000 <sscDmaRxClk+0x5c>)
  401fac:	689b      	ldr	r3, [r3, #8]
  401fae:	b9d3      	cbnz	r3, 401fe6 <sscDmaRxClk+0x42>
		XDMAC_SetDestinationAddr(pXdmac, sscDmaRxChannel, (uint32_t)inPingBuffer);
  401fb0:	4a14      	ldr	r2, [pc, #80]	; (402004 <sscDmaRxClk+0x60>)
  401fb2:	4b12      	ldr	r3, [pc, #72]	; (401ffc <sscDmaRxClk+0x58>)
  401fb4:	f893 1190 	ldrb.w	r1, [r3, #400]	; 0x190
  401fb8:	4620      	mov	r0, r4
  401fba:	4b13      	ldr	r3, [pc, #76]	; (402008 <sscDmaRxClk+0x64>)
  401fbc:	4798      	blx	r3
		inBuffer = inPongBuffer;
  401fbe:	4a13      	ldr	r2, [pc, #76]	; (40200c <sscDmaRxClk+0x68>)
  401fc0:	4b0f      	ldr	r3, [pc, #60]	; (402000 <sscDmaRxClk+0x5c>)
  401fc2:	60da      	str	r2, [r3, #12]
	inPingPong = !inPingPong; 
  401fc4:	4a0e      	ldr	r2, [pc, #56]	; (402000 <sscDmaRxClk+0x5c>)
  401fc6:	6893      	ldr	r3, [r2, #8]
  401fc8:	fab3 f383 	clz	r3, r3
  401fcc:	095b      	lsrs	r3, r3, #5
  401fce:	6093      	str	r3, [r2, #8]
	dataReceived = 1; 
  401fd0:	2201      	movs	r2, #1
  401fd2:	4b0f      	ldr	r3, [pc, #60]	; (402010 <sscDmaRxClk+0x6c>)
  401fd4:	f8c3 2acc 	str.w	r2, [r3, #2764]	; 0xacc
	XDMAC_EnableChannel(pXdmac, sscDmaRxChannel);
  401fd8:	4b08      	ldr	r3, [pc, #32]	; (401ffc <sscDmaRxClk+0x58>)
  401fda:	f893 1190 	ldrb.w	r1, [r3, #400]	; 0x190
  401fde:	4620      	mov	r0, r4
  401fe0:	4b0c      	ldr	r3, [pc, #48]	; (402014 <sscDmaRxClk+0x70>)
  401fe2:	4798      	blx	r3
  401fe4:	bd10      	pop	{r4, pc}
		XDMAC_SetDestinationAddr(pXdmac, sscDmaRxChannel, (uint32_t)inPongBuffer); 
  401fe6:	4a09      	ldr	r2, [pc, #36]	; (40200c <sscDmaRxClk+0x68>)
  401fe8:	4b04      	ldr	r3, [pc, #16]	; (401ffc <sscDmaRxClk+0x58>)
  401fea:	f893 1190 	ldrb.w	r1, [r3, #400]	; 0x190
  401fee:	4620      	mov	r0, r4
  401ff0:	4b05      	ldr	r3, [pc, #20]	; (402008 <sscDmaRxClk+0x64>)
  401ff2:	4798      	blx	r3
		inBuffer = inPingBuffer; 
  401ff4:	4a03      	ldr	r2, [pc, #12]	; (402004 <sscDmaRxClk+0x60>)
  401ff6:	4b02      	ldr	r3, [pc, #8]	; (402000 <sscDmaRxClk+0x5c>)
  401ff8:	60da      	str	r2, [r3, #12]
  401ffa:	e7e3      	b.n	401fc4 <sscDmaRxClk+0x20>
  401ffc:	20400ab4 	.word	0x20400ab4
  402000:	20400000 	.word	0x20400000
  402004:	20406c48 	.word	0x20406c48
  402008:	00401495 	.word	0x00401495
  40200c:	20404c48 	.word	0x20404c48
  402010:	2040817c 	.word	0x2040817c
  402014:	0040126d 	.word	0x0040126d

00402018 <PlayRecording>:

/**
 * \brief Receive and play audio with DMA.
 */
static void PlayRecording(void)
{
  402018:	e92d 43f0 	stmdb	sp!, {r4, r5, r6, r7, r8, r9, lr}
  40201c:	b08b      	sub	sp, #44	; 0x2c
	uint32_t xdmaCndc;
	sXdmadCfg xdmadCfg;

	/******************** In **************/ 
	/* Microblock Control Member */ 
	xdmadCfg.mbr_ubc = BUF_SIZE; 
  40201e:	f44f 5780 	mov.w	r7, #4096	; 0x1000
  402022:	9702      	str	r7, [sp, #8]
	
	/* Source Address Member */ 
	xdmadCfg.mbr_sa = (uint32_t)&(AUDIO_IF->SSC_RHR);
  402024:	4b27      	ldr	r3, [pc, #156]	; (4020c4 <PlayRecording+0xac>)
  402026:	9303      	str	r3, [sp, #12]
	
	/* Destination Address Member */ 
	xdmadCfg.mbr_da = (uint32_t)&inPingBuffer[0]; 
  402028:	4e27      	ldr	r6, [pc, #156]	; (4020c8 <PlayRecording+0xb0>)
  40202a:	9604      	str	r6, [sp, #16]
		| XDMAC_CC_DWIDTH_HALFWORD
		| XDMAC_CC_SIF_AHB_IF1
		| XDMAC_CC_DIF_AHB_IF0
		| XDMAC_CC_SAM_FIXED_AM
		| XDMAC_CC_DAM_INCREMENTED_AM
		| XDMAC_CC_PERID(XDMAIF_Get_ChannelNumber(ID_SSC, XDMAD_TRANSFER_RX));
  40202c:	2101      	movs	r1, #1
  40202e:	2016      	movs	r0, #22
  402030:	f8df 90bc 	ldr.w	r9, [pc, #188]	; 4020f0 <PlayRecording+0xd8>
  402034:	47c8      	blx	r9
  402036:	0600      	lsls	r0, r0, #24
  402038:	f000 40fe 	and.w	r0, r0, #2130706432	; 0x7f000000
  40203c:	4b23      	ldr	r3, [pc, #140]	; (4020cc <PlayRecording+0xb4>)
  40203e:	4303      	orrs	r3, r0
	xdmadCfg.mbr_cfg = XDMAC_CC_TYPE_PER_TRAN
  402040:	9305      	str	r3, [sp, #20]
	
	/* Block Control Member */ 
	xdmadCfg.mbr_bc = 0; 
  402042:	2400      	movs	r4, #0
  402044:	9406      	str	r4, [sp, #24]
	
	/* Data Stride Member */ 
	xdmadCfg.mbr_ds = 0; 
  402046:	9407      	str	r4, [sp, #28]
	
	/* Source Microblock Stride Member */ 
	xdmadCfg.mbr_sus = 0; 
  402048:	9408      	str	r4, [sp, #32]
	
	/* Destination Microblock Stride Member */ 
	xdmadCfg.mbr_dus = 0; 
  40204a:	9409      	str	r4, [sp, #36]	; 0x24
	
	/* Next Descriptor Control Register */ 
	xdmaCndc = XDMAC_CNDC_NDE_DSCR_FETCH_DIS; 

	/*XDMAC_CIE_BIE make interrupts can be generated on per block basis*/
	XDMAD_ConfigureTransfer( &dmad, sscDmaRxChannel, &xdmadCfg, xdmaCndc,
  40204c:	4d20      	ldr	r5, [pc, #128]	; (4020d0 <PlayRecording+0xb8>)
  40204e:	f04f 0801 	mov.w	r8, #1
  402052:	f8cd 8004 	str.w	r8, [sp, #4]
  402056:	9600      	str	r6, [sp, #0]
  402058:	4623      	mov	r3, r4
  40205a:	aa02      	add	r2, sp, #8
  40205c:	f8d5 1190 	ldr.w	r1, [r5, #400]	; 0x190
  402060:	4628      	mov	r0, r5
  402062:	4e1c      	ldr	r6, [pc, #112]	; (4020d4 <PlayRecording+0xbc>)
  402064:	47b0      	blx	r6
			(uint32_t)&inPingBuffer[0], XDMAC_CIE_BIE);

	/***************** Out *****************/ 
	/* Microblock Control Member */
	xdmadCfg.mbr_ubc = BUF_SIZE;
  402066:	9702      	str	r7, [sp, #8]
	
	/* Source Address Member */
	xdmadCfg.mbr_sa = (uint32_t)&outPingBuffer[0];
  402068:	4f1b      	ldr	r7, [pc, #108]	; (4020d8 <PlayRecording+0xc0>)
  40206a:	9703      	str	r7, [sp, #12]
	
	/* Destination Address Member */
	xdmadCfg.mbr_da = (uint32_t)&(AUDIO_IF->SSC_THR);	
  40206c:	4b1b      	ldr	r3, [pc, #108]	; (4020dc <PlayRecording+0xc4>)
  40206e:	9304      	str	r3, [sp, #16]
	| XDMAC_CC_DWIDTH_HALFWORD
	| XDMAC_CC_SIF_AHB_IF0
	| XDMAC_CC_DIF_AHB_IF1
	| XDMAC_CC_SAM_INCREMENTED_AM
	| XDMAC_CC_DAM_FIXED_AM
	| XDMAC_CC_PERID(XDMAIF_Get_ChannelNumber(ID_SSC, XDMAD_TRANSFER_TX));
  402070:	4621      	mov	r1, r4
  402072:	2016      	movs	r0, #22
  402074:	47c8      	blx	r9
  402076:	0600      	lsls	r0, r0, #24
  402078:	f000 40fe 	and.w	r0, r0, #2130706432	; 0x7f000000
  40207c:	4b18      	ldr	r3, [pc, #96]	; (4020e0 <PlayRecording+0xc8>)
  40207e:	4303      	orrs	r3, r0
	xdmadCfg.mbr_cfg = XDMAC_CC_TYPE_PER_TRAN
  402080:	9305      	str	r3, [sp, #20]
	
	/* Block Control Member */
	xdmadCfg.mbr_bc = 0;
  402082:	9406      	str	r4, [sp, #24]
	
	/* Data Stride Member */
	xdmadCfg.mbr_ds = 0;
  402084:	9407      	str	r4, [sp, #28]
	
	/* Source Microblock Stride Member */
	xdmadCfg.mbr_sus = 0;
  402086:	9408      	str	r4, [sp, #32]
	
	/* Destination Microblock Stride Member */
	xdmadCfg.mbr_dus = 0;
  402088:	9409      	str	r4, [sp, #36]	; 0x24
	 
	XDMAD_ConfigureTransfer( &dmad, sscDmaTxChannel, &xdmadCfg, xdmaCndc,
  40208a:	f8cd 8004 	str.w	r8, [sp, #4]
  40208e:	9700      	str	r7, [sp, #0]
  402090:	4623      	mov	r3, r4
  402092:	aa02      	add	r2, sp, #8
  402094:	f8d5 118c 	ldr.w	r1, [r5, #396]	; 0x18c
  402098:	4628      	mov	r0, r5
  40209a:	47b0      	blx	r6
			(uint32_t)&outPingBuffer[0], XDMAC_CIE_BIE);

	SSC_EnableReceiver(AUDIO_IF);
  40209c:	f04f 2040 	mov.w	r0, #1073758208	; 0x40004000
  4020a0:	4b10      	ldr	r3, [pc, #64]	; (4020e4 <PlayRecording+0xcc>)
  4020a2:	4798      	blx	r3
	XDMAD_StartTransfer( &dmad, sscDmaRxChannel);
  4020a4:	f8d5 1190 	ldr.w	r1, [r5, #400]	; 0x190
  4020a8:	4628      	mov	r0, r5
  4020aa:	4c0f      	ldr	r4, [pc, #60]	; (4020e8 <PlayRecording+0xd0>)
  4020ac:	47a0      	blx	r4

	//Wait(50);
	/* Enable playback(SSC TX) */
	SSC_EnableTransmitter(AUDIO_IF);
  4020ae:	f04f 2040 	mov.w	r0, #1073758208	; 0x40004000
  4020b2:	4b0e      	ldr	r3, [pc, #56]	; (4020ec <PlayRecording+0xd4>)
  4020b4:	4798      	blx	r3
	XDMAD_StartTransfer( &dmad, sscDmaTxChannel);
  4020b6:	f8d5 118c 	ldr.w	r1, [r5, #396]	; 0x18c
  4020ba:	4628      	mov	r0, r5
  4020bc:	47a0      	blx	r4

}
  4020be:	b00b      	add	sp, #44	; 0x2c
  4020c0:	e8bd 83f0 	ldmia.w	sp!, {r4, r5, r6, r7, r8, r9, pc}
  4020c4:	40004020 	.word	0x40004020
  4020c8:	20406c48 	.word	0x20406c48
  4020cc:	00042801 	.word	0x00042801
  4020d0:	20400ab4 	.word	0x20400ab4
  4020d4:	00401bdd 	.word	0x00401bdd
  4020d8:	20402c48 	.word	0x20402c48
  4020dc:	40004024 	.word	0x40004024
  4020e0:	00014811 	.word	0x00014811
  4020e4:	00400915 	.word	0x00400915
  4020e8:	00401d65 	.word	0x00401d65
  4020ec:	00400905 	.word	0x00400905
  4020f0:	00401e05 	.word	0x00401e05

004020f4 <XDMAC_Handler>:
{
  4020f4:	b508      	push	{r3, lr}
	XDMAD_Handler(&dmad);
  4020f6:	4802      	ldr	r0, [pc, #8]	; (402100 <XDMAC_Handler+0xc>)
  4020f8:	4b02      	ldr	r3, [pc, #8]	; (402104 <XDMAC_Handler+0x10>)
  4020fa:	4798      	blx	r3
  4020fc:	bd08      	pop	{r3, pc}
  4020fe:	bf00      	nop
  402100:	20400ab4 	.word	0x20400ab4
  402104:	00401ac5 	.word	0x00401ac5

00402108 <TWIHS0_Handler>:
{
  402108:	b508      	push	{r3, lr}
	TWID_Handler(&twid);
  40210a:	4802      	ldr	r0, [pc, #8]	; (402114 <TWIHS0_Handler+0xc>)
  40210c:	4b02      	ldr	r3, [pc, #8]	; (402118 <TWIHS0_Handler+0x10>)
  40210e:	4798      	blx	r3
  402110:	bd08      	pop	{r3, pc}
  402112:	bf00      	nop
  402114:	20408c4c 	.word	0x20408c4c
  402118:	00400de9 	.word	0x00400de9

0040211c <main>:
uint16_t SIN_WAVE[44] = {32767,37420,41978,46350,50446,54185,57489,60292,62538,64180,65185,65534,
	65218,64245,62634,60418,57641,54361,50643,46562,42202,37651,33000,28345,23780,19397,15285,
11527,	8199,	5369,	3095,	1422,	384,	2,	284,	1225,	2804,	4991,	7741,	10998,	14696,	18761,	23109,	27653};

int main( void )
{
  40211c:	b538      	push	{r3, r4, r5, lr}
	uint16_t data = 0;
	/* Disable watchdog */
	WDT_Disable(WDT);
  40211e:	4845      	ldr	r0, [pc, #276]	; (402234 <main+0x118>)
  402120:	4b45      	ldr	r3, [pc, #276]	; (402238 <main+0x11c>)
  402122:	4798      	blx	r3
	/* Enable I and D cache */
	//SCB_EnableICache();
	//SCB_EnableDCache();

	/* Output example information */
	printf("-- SSC DMA Audio Example %s --\n\r", SOFTPACK_VERSION);
  402124:	4945      	ldr	r1, [pc, #276]	; (40223c <main+0x120>)
  402126:	4846      	ldr	r0, [pc, #280]	; (402240 <main+0x124>)
  402128:	4c46      	ldr	r4, [pc, #280]	; (402244 <main+0x128>)
  40212a:	47a0      	blx	r4
	printf("-- %s\n\r", BOARD_NAME);
  40212c:	4946      	ldr	r1, [pc, #280]	; (402248 <main+0x12c>)
  40212e:	4847      	ldr	r0, [pc, #284]	; (40224c <main+0x130>)
  402130:	47a0      	blx	r4
	printf("-- Compiled: %s %s With %s--\n\r", __DATE__, __TIME__, COMPILER_NAME);
  402132:	4b47      	ldr	r3, [pc, #284]	; (402250 <main+0x134>)
  402134:	4a47      	ldr	r2, [pc, #284]	; (402254 <main+0x138>)
  402136:	4948      	ldr	r1, [pc, #288]	; (402258 <main+0x13c>)
  402138:	4848      	ldr	r0, [pc, #288]	; (40225c <main+0x140>)
  40213a:	47a0      	blx	r4

	/* Configure systick for 1 ms. */
	printf( "Configure system tick to get 1ms tick period.\n\r" );
  40213c:	4848      	ldr	r0, [pc, #288]	; (402260 <main+0x144>)
  40213e:	47a0      	blx	r4
	if (TimeTick_Configure())
  402140:	4b48      	ldr	r3, [pc, #288]	; (402264 <main+0x148>)
  402142:	4798      	blx	r3
  402144:	b108      	cbz	r0, 40214a <main+0x2e>
		printf("-F- Systick configuration error\n\r" );
  402146:	4848      	ldr	r0, [pc, #288]	; (402268 <main+0x14c>)
  402148:	47a0      	blx	r4

	/* Configure all pins */
	PIO_Configure(pinsSsc, PIO_LISTSIZE(pinsSsc));
  40214a:	2109      	movs	r1, #9
  40214c:	4847      	ldr	r0, [pc, #284]	; (40226c <main+0x150>)
  40214e:	4b48      	ldr	r3, [pc, #288]	; (402270 <main+0x154>)
  402150:	4798      	blx	r3

	/* Configure SSC */
	SSC_Configure(AUDIO_IF , 0 , SSC_MCK);
  402152:	4c48      	ldr	r4, [pc, #288]	; (402274 <main+0x158>)
  402154:	4622      	mov	r2, r4
  402156:	2100      	movs	r1, #0
  402158:	f04f 2040 	mov.w	r0, #1073758208	; 0x40004000
  40215c:	4b46      	ldr	r3, [pc, #280]	; (402278 <main+0x15c>)
  40215e:	4798      	blx	r3
	SSC_ConfigureReceiver(AUDIO_IF,I2S_SLAVE_RX_SETTING,I2S_SLAVE_RX_FRM_SETTING);
  402160:	228f      	movs	r2, #143	; 0x8f
  402162:	4946      	ldr	r1, [pc, #280]	; (40227c <main+0x160>)
  402164:	f04f 2040 	mov.w	r0, #1073758208	; 0x40004000
  402168:	4b45      	ldr	r3, [pc, #276]	; (402280 <main+0x164>)
  40216a:	4798      	blx	r3
	SSC_DisableReceiver(AUDIO_IF);
  40216c:	f04f 2040 	mov.w	r0, #1073758208	; 0x40004000
  402170:	4b44      	ldr	r3, [pc, #272]	; (402284 <main+0x168>)
  402172:	4798      	blx	r3
	SSC_ConfigureTransmitter(AUDIO_IF,I2S_SLAVE_TX_SETTING,I2S_SLAVE_TX_FRM_SETTING);
  402174:	228f      	movs	r2, #143	; 0x8f
  402176:	4944      	ldr	r1, [pc, #272]	; (402288 <main+0x16c>)
  402178:	f04f 2040 	mov.w	r0, #1073758208	; 0x40004000
  40217c:	4b43      	ldr	r3, [pc, #268]	; (40228c <main+0x170>)
  40217e:	4798      	blx	r3
	SSC_DisableTransmitter(AUDIO_IF);
  402180:	f04f 2040 	mov.w	r0, #1073758208	; 0x40004000
  402184:	4b42      	ldr	r3, [pc, #264]	; (402290 <main+0x174>)
  402186:	4798      	blx	r3

	/* Configure DMA */
	Dma_configure();
  402188:	4b42      	ldr	r3, [pc, #264]	; (402294 <main+0x178>)
  40218a:	4798      	blx	r3

	/* Configure and enable the TWI (required for accessing the DAC) */
	PMC_EnablePeripheral(ID_TWIHS0);
  40218c:	2013      	movs	r0, #19
  40218e:	4b42      	ldr	r3, [pc, #264]	; (402298 <main+0x17c>)
  402190:	4798      	blx	r3
	TWI_ConfigureMaster(TWIHS0, TWI_CLOCK, BOARD_MCK);
  402192:	4d42      	ldr	r5, [pc, #264]	; (40229c <main+0x180>)
  402194:	4622      	mov	r2, r4
  402196:	4942      	ldr	r1, [pc, #264]	; (4022a0 <main+0x184>)
  402198:	4628      	mov	r0, r5
  40219a:	4b42      	ldr	r3, [pc, #264]	; (4022a4 <main+0x188>)
  40219c:	4798      	blx	r3
	TWID_Initialize(&twid, TWIHS0);
  40219e:	4c42      	ldr	r4, [pc, #264]	; (4022a8 <main+0x18c>)
  4021a0:	4629      	mov	r1, r5
  4021a2:	4620      	mov	r0, r4
  4021a4:	4b41      	ldr	r3, [pc, #260]	; (4022ac <main+0x190>)
  4021a6:	4798      	blx	r3
    NVIC->ICPR[(((uint32_t)(int32_t)IRQn) >> 5UL)] = (uint32_t)(1UL << (((uint32_t)(int32_t)IRQn) & 0x1FUL));
  4021a8:	4b41      	ldr	r3, [pc, #260]	; (4022b0 <main+0x194>)
  4021aa:	f44f 2200 	mov.w	r2, #524288	; 0x80000
  4021ae:	f8c3 2180 	str.w	r2, [r3, #384]	; 0x180
    NVIC->ISER[(((uint32_t)(int32_t)IRQn) >> 5UL)] = (uint32_t)(1UL << (((uint32_t)(int32_t)IRQn) & 0x1FUL));
  4021b2:	601a      	str	r2, [r3, #0]
	/* Configure TWI interrupts */
	NVIC_ClearPendingIRQ(TWIHS0_IRQn);
	NVIC_EnableIRQ(TWIHS0_IRQn);

	/* check that WM8904 is present */
	WM8904_Write(&twid,WM8904_SLAVE_ADDRESS, 22, 0);
  4021b4:	2300      	movs	r3, #0
  4021b6:	2216      	movs	r2, #22
  4021b8:	211a      	movs	r1, #26
  4021ba:	4620      	mov	r0, r4
  4021bc:	4d3d      	ldr	r5, [pc, #244]	; (4022b4 <main+0x198>)
  4021be:	47a8      	blx	r5
	data=WM8904_Read(&twid, WM8904_SLAVE_ADDRESS, 0);
  4021c0:	2200      	movs	r2, #0
  4021c2:	211a      	movs	r1, #26
  4021c4:	4620      	mov	r0, r4
  4021c6:	4b3c      	ldr	r3, [pc, #240]	; (4022b8 <main+0x19c>)
  4021c8:	4798      	blx	r3
	if (data != 0x8904) {
  4021ca:	f648 1304 	movw	r3, #35076	; 0x8904
  4021ce:	4298      	cmp	r0, r3
  4021d0:	d003      	beq.n	4021da <main+0xbe>
		printf("WM8904 not found!\n\r");
  4021d2:	483a      	ldr	r0, [pc, #232]	; (4022bc <main+0x1a0>)
  4021d4:	4b1b      	ldr	r3, [pc, #108]	; (402244 <main+0x128>)
  4021d6:	4798      	blx	r3
  4021d8:	e7fe      	b.n	4021d8 <main+0xbc>
		while (1);
	}
	/* Initialize the audio DAC */
	WM8904_Init(&twid, WM8904_SLAVE_ADDRESS, PMC_MCKR_CSS_SLOW_CLK);
  4021da:	2200      	movs	r2, #0
  4021dc:	211a      	movs	r1, #26
  4021de:	4832      	ldr	r0, [pc, #200]	; (4022a8 <main+0x18c>)
  4021e0:	4b37      	ldr	r3, [pc, #220]	; (4022c0 <main+0x1a4>)
  4021e2:	4798      	blx	r3

	/* Enable the DAC master clock */
	PMC_ConfigurePCK2(PMC_MCKR_CSS_SLOW_CLK, PMC_MCKR_PRES_CLK_1);
  4021e4:	2100      	movs	r1, #0
  4021e6:	4608      	mov	r0, r1
  4021e8:	4b36      	ldr	r3, [pc, #216]	; (4022c4 <main+0x1a8>)
  4021ea:	4798      	blx	r3
	printf("Insert Line-in cable with PC Headphone output\n\r");
  4021ec:	4836      	ldr	r0, [pc, #216]	; (4022c8 <main+0x1ac>)
  4021ee:	4b15      	ldr	r3, [pc, #84]	; (402244 <main+0x128>)
  4021f0:	4798      	blx	r3
	
	PlayRecording();
  4021f2:	4b36      	ldr	r3, [pc, #216]	; (4022cc <main+0x1b0>)
  4021f4:	4798      	blx	r3
  4021f6:	e015      	b.n	402224 <main+0x108>
			

			for(i = 0; i < BUF_SIZE; i++)
			{
		
				outBuffer[i] = (uint16_t)( (int16_t)inBuffer[i] / 2); 
  4021f8:	f3c3 034f 	ubfx	r3, r3, #1, #16
  4021fc:	5243      	strh	r3, [r0, r1]
			for(i = 0; i < BUF_SIZE; i++)
  4021fe:	3201      	adds	r2, #1
  402200:	f5b2 5f80 	cmp.w	r2, #4096	; 0x1000
  402204:	da0a      	bge.n	40221c <main+0x100>
				outBuffer[i] = (uint16_t)( (int16_t)inBuffer[i] / 2); 
  402206:	0051      	lsls	r1, r2, #1
  402208:	4b31      	ldr	r3, [pc, #196]	; (4022d0 <main+0x1b4>)
  40220a:	6858      	ldr	r0, [r3, #4]
  40220c:	68db      	ldr	r3, [r3, #12]
  40220e:	f833 3012 	ldrh.w	r3, [r3, r2, lsl #1]
  402212:	b21b      	sxth	r3, r3
  402214:	2b00      	cmp	r3, #0
  402216:	daef      	bge.n	4021f8 <main+0xdc>
  402218:	3301      	adds	r3, #1
  40221a:	e7ed      	b.n	4021f8 <main+0xdc>
			}
			 

			dataReceived = 0; 
  40221c:	2200      	movs	r2, #0
  40221e:	4b2d      	ldr	r3, [pc, #180]	; (4022d4 <main+0x1b8>)
  402220:	f8c3 2acc 	str.w	r2, [r3, #2764]	; 0xacc
		if (dataReceived == 1) {
  402224:	4b2b      	ldr	r3, [pc, #172]	; (4022d4 <main+0x1b8>)
  402226:	f8d3 3acc 	ldr.w	r3, [r3, #2764]	; 0xacc
  40222a:	2b01      	cmp	r3, #1
  40222c:	d1fa      	bne.n	402224 <main+0x108>
  40222e:	2200      	movs	r2, #0
  402230:	e7e6      	b.n	402200 <main+0xe4>
  402232:	bf00      	nop
  402234:	400e1850 	.word	0x400e1850
  402238:	004011c5 	.word	0x004011c5
  40223c:	0040987c 	.word	0x0040987c
  402240:	00409880 	.word	0x00409880
  402244:	00402ae5 	.word	0x00402ae5
  402248:	004098a4 	.word	0x004098a4
  40224c:	004098bc 	.word	0x004098bc
  402250:	004098c4 	.word	0x004098c4
  402254:	004098c8 	.word	0x004098c8
  402258:	004098d4 	.word	0x004098d4
  40225c:	004098e0 	.word	0x004098e0
  402260:	00408bac 	.word	0x00408bac
  402264:	00400961 	.word	0x00400961
  402268:	00409900 	.word	0x00409900
  40226c:	004097f0 	.word	0x004097f0
  402270:	0040065d 	.word	0x0040065d
  402274:	08f0d180 	.word	0x08f0d180
  402278:	004008d5 	.word	0x004008d5
  40227c:	00010721 	.word	0x00010721
  402280:	004008ff 	.word	0x004008ff
  402284:	0040091b 	.word	0x0040091b
  402288:	00010702 	.word	0x00010702
  40228c:	004008f9 	.word	0x004008f9
  402290:	0040090d 	.word	0x0040090d
  402294:	00401e9d 	.word	0x00401e9d
  402298:	004007f9 	.word	0x004007f9
  40229c:	40018000 	.word	0x40018000
  4022a0:	00061a80 	.word	0x00061a80
  4022a4:	00400ab5 	.word	0x00400ab5
  4022a8:	20408c4c 	.word	0x20408c4c
  4022ac:	00400dad 	.word	0x00400dad
  4022b0:	e000e100 	.word	0xe000e100
  4022b4:	004003a1 	.word	0x004003a1
  4022b8:	0040036d 	.word	0x0040036d
  4022bc:	00409924 	.word	0x00409924
  4022c0:	004003cd 	.word	0x004003cd
  4022c4:	004008a5 	.word	0x004008a5
  4022c8:	00409938 	.word	0x00409938
  4022cc:	00402019 	.word	0x00402019
  4022d0:	20400000 	.word	0x20400000
  4022d4:	2040817c 	.word	0x2040817c

004022d8 <__assert_func>:
  4022d8:	b500      	push	{lr}
  4022da:	4c0a      	ldr	r4, [pc, #40]	; (402304 <__assert_func+0x2c>)
  4022dc:	6826      	ldr	r6, [r4, #0]
  4022de:	4605      	mov	r5, r0
  4022e0:	b085      	sub	sp, #20
  4022e2:	461c      	mov	r4, r3
  4022e4:	68f0      	ldr	r0, [r6, #12]
  4022e6:	b152      	cbz	r2, 4022fe <__assert_func+0x26>
  4022e8:	4b07      	ldr	r3, [pc, #28]	; (402308 <__assert_func+0x30>)
  4022ea:	9202      	str	r2, [sp, #8]
  4022ec:	e88d 000a 	stmia.w	sp, {r1, r3}
  4022f0:	4622      	mov	r2, r4
  4022f2:	462b      	mov	r3, r5
  4022f4:	4905      	ldr	r1, [pc, #20]	; (40230c <__assert_func+0x34>)
  4022f6:	f000 f80d 	bl	402314 <fiprintf>
  4022fa:	f002 ff11 	bl	405120 <abort>
  4022fe:	4b04      	ldr	r3, [pc, #16]	; (402310 <__assert_func+0x38>)
  402300:	461a      	mov	r2, r3
  402302:	e7f2      	b.n	4022ea <__assert_func+0x12>
  402304:	20400068 	.word	0x20400068
  402308:	00409968 	.word	0x00409968
  40230c:	00409978 	.word	0x00409978
  402310:	00408878 	.word	0x00408878

00402314 <fiprintf>:
  402314:	b40e      	push	{r1, r2, r3}
  402316:	b510      	push	{r4, lr}
  402318:	b083      	sub	sp, #12
  40231a:	ab05      	add	r3, sp, #20
  40231c:	4c06      	ldr	r4, [pc, #24]	; (402338 <fiprintf+0x24>)
  40231e:	f853 2b04 	ldr.w	r2, [r3], #4
  402322:	9301      	str	r3, [sp, #4]
  402324:	4601      	mov	r1, r0
  402326:	6820      	ldr	r0, [r4, #0]
  402328:	f000 fd14 	bl	402d54 <_vfiprintf_r>
  40232c:	b003      	add	sp, #12
  40232e:	e8bd 4010 	ldmia.w	sp!, {r4, lr}
  402332:	b003      	add	sp, #12
  402334:	4770      	bx	lr
  402336:	bf00      	nop
  402338:	20400068 	.word	0x20400068

0040233c <__libc_init_array>:
  40233c:	b570      	push	{r4, r5, r6, lr}
  40233e:	4e0f      	ldr	r6, [pc, #60]	; (40237c <__libc_init_array+0x40>)
  402340:	4d0f      	ldr	r5, [pc, #60]	; (402380 <__libc_init_array+0x44>)
  402342:	1b76      	subs	r6, r6, r5
  402344:	10b6      	asrs	r6, r6, #2
  402346:	bf18      	it	ne
  402348:	2400      	movne	r4, #0
  40234a:	d005      	beq.n	402358 <__libc_init_array+0x1c>
  40234c:	3401      	adds	r4, #1
  40234e:	f855 3b04 	ldr.w	r3, [r5], #4
  402352:	4798      	blx	r3
  402354:	42a6      	cmp	r6, r4
  402356:	d1f9      	bne.n	40234c <__libc_init_array+0x10>
  402358:	4e0a      	ldr	r6, [pc, #40]	; (402384 <__libc_init_array+0x48>)
  40235a:	4d0b      	ldr	r5, [pc, #44]	; (402388 <__libc_init_array+0x4c>)
  40235c:	1b76      	subs	r6, r6, r5
  40235e:	f007 fc77 	bl	409c50 <_init>
  402362:	10b6      	asrs	r6, r6, #2
  402364:	bf18      	it	ne
  402366:	2400      	movne	r4, #0
  402368:	d006      	beq.n	402378 <__libc_init_array+0x3c>
  40236a:	3401      	adds	r4, #1
  40236c:	f855 3b04 	ldr.w	r3, [r5], #4
  402370:	4798      	blx	r3
  402372:	42a6      	cmp	r6, r4
  402374:	d1f9      	bne.n	40236a <__libc_init_array+0x2e>
  402376:	bd70      	pop	{r4, r5, r6, pc}
  402378:	bd70      	pop	{r4, r5, r6, pc}
  40237a:	bf00      	nop
  40237c:	00409c5c 	.word	0x00409c5c
  402380:	00409c5c 	.word	0x00409c5c
  402384:	00409c64 	.word	0x00409c64
  402388:	00409c5c 	.word	0x00409c5c

0040238c <malloc>:
  40238c:	4b02      	ldr	r3, [pc, #8]	; (402398 <malloc+0xc>)
  40238e:	4601      	mov	r1, r0
  402390:	6818      	ldr	r0, [r3, #0]
  402392:	f000 b803 	b.w	40239c <_malloc_r>
  402396:	bf00      	nop
  402398:	20400068 	.word	0x20400068

0040239c <_malloc_r>:
  40239c:	e92d 4ff0 	stmdb	sp!, {r4, r5, r6, r7, r8, r9, sl, fp, lr}
  4023a0:	f101 060b 	add.w	r6, r1, #11
  4023a4:	2e16      	cmp	r6, #22
  4023a6:	b083      	sub	sp, #12
  4023a8:	4605      	mov	r5, r0
  4023aa:	f240 809e 	bls.w	4024ea <_malloc_r+0x14e>
  4023ae:	f036 0607 	bics.w	r6, r6, #7
  4023b2:	f100 80bd 	bmi.w	402530 <_malloc_r+0x194>
  4023b6:	42b1      	cmp	r1, r6
  4023b8:	f200 80ba 	bhi.w	402530 <_malloc_r+0x194>
  4023bc:	f000 fb86 	bl	402acc <__malloc_lock>
  4023c0:	f5b6 7ffc 	cmp.w	r6, #504	; 0x1f8
  4023c4:	f0c0 8293 	bcc.w	4028ee <_malloc_r+0x552>
  4023c8:	0a73      	lsrs	r3, r6, #9
  4023ca:	f000 80b8 	beq.w	40253e <_malloc_r+0x1a2>
  4023ce:	2b04      	cmp	r3, #4
  4023d0:	f200 8179 	bhi.w	4026c6 <_malloc_r+0x32a>
  4023d4:	09b3      	lsrs	r3, r6, #6
  4023d6:	f103 0039 	add.w	r0, r3, #57	; 0x39
  4023da:	f103 0e38 	add.w	lr, r3, #56	; 0x38
  4023de:	00c3      	lsls	r3, r0, #3
  4023e0:	4fbf      	ldr	r7, [pc, #764]	; (4026e0 <_malloc_r+0x344>)
  4023e2:	443b      	add	r3, r7
  4023e4:	f1a3 0108 	sub.w	r1, r3, #8
  4023e8:	685c      	ldr	r4, [r3, #4]
  4023ea:	42a1      	cmp	r1, r4
  4023ec:	d106      	bne.n	4023fc <_malloc_r+0x60>
  4023ee:	e00c      	b.n	40240a <_malloc_r+0x6e>
  4023f0:	2a00      	cmp	r2, #0
  4023f2:	f280 80aa 	bge.w	40254a <_malloc_r+0x1ae>
  4023f6:	68e4      	ldr	r4, [r4, #12]
  4023f8:	42a1      	cmp	r1, r4
  4023fa:	d006      	beq.n	40240a <_malloc_r+0x6e>
  4023fc:	6863      	ldr	r3, [r4, #4]
  4023fe:	f023 0303 	bic.w	r3, r3, #3
  402402:	1b9a      	subs	r2, r3, r6
  402404:	2a0f      	cmp	r2, #15
  402406:	ddf3      	ble.n	4023f0 <_malloc_r+0x54>
  402408:	4670      	mov	r0, lr
  40240a:	693c      	ldr	r4, [r7, #16]
  40240c:	f8df e2e4 	ldr.w	lr, [pc, #740]	; 4026f4 <_malloc_r+0x358>
  402410:	4574      	cmp	r4, lr
  402412:	f000 81ab 	beq.w	40276c <_malloc_r+0x3d0>
  402416:	6863      	ldr	r3, [r4, #4]
  402418:	f023 0303 	bic.w	r3, r3, #3
  40241c:	1b9a      	subs	r2, r3, r6
  40241e:	2a0f      	cmp	r2, #15
  402420:	f300 8190 	bgt.w	402744 <_malloc_r+0x3a8>
  402424:	2a00      	cmp	r2, #0
  402426:	f8c7 e014 	str.w	lr, [r7, #20]
  40242a:	f8c7 e010 	str.w	lr, [r7, #16]
  40242e:	f280 809d 	bge.w	40256c <_malloc_r+0x1d0>
  402432:	f5b3 7f00 	cmp.w	r3, #512	; 0x200
  402436:	f080 8161 	bcs.w	4026fc <_malloc_r+0x360>
  40243a:	08db      	lsrs	r3, r3, #3
  40243c:	f103 0c01 	add.w	ip, r3, #1
  402440:	1099      	asrs	r1, r3, #2
  402442:	687a      	ldr	r2, [r7, #4]
  402444:	f857 803c 	ldr.w	r8, [r7, ip, lsl #3]
  402448:	f8c4 8008 	str.w	r8, [r4, #8]
  40244c:	2301      	movs	r3, #1
  40244e:	408b      	lsls	r3, r1
  402450:	eb07 01cc 	add.w	r1, r7, ip, lsl #3
  402454:	4313      	orrs	r3, r2
  402456:	3908      	subs	r1, #8
  402458:	60e1      	str	r1, [r4, #12]
  40245a:	607b      	str	r3, [r7, #4]
  40245c:	f847 403c 	str.w	r4, [r7, ip, lsl #3]
  402460:	f8c8 400c 	str.w	r4, [r8, #12]
  402464:	1082      	asrs	r2, r0, #2
  402466:	2401      	movs	r4, #1
  402468:	4094      	lsls	r4, r2
  40246a:	429c      	cmp	r4, r3
  40246c:	f200 808b 	bhi.w	402586 <_malloc_r+0x1ea>
  402470:	421c      	tst	r4, r3
  402472:	d106      	bne.n	402482 <_malloc_r+0xe6>
  402474:	f020 0003 	bic.w	r0, r0, #3
  402478:	0064      	lsls	r4, r4, #1
  40247a:	421c      	tst	r4, r3
  40247c:	f100 0004 	add.w	r0, r0, #4
  402480:	d0fa      	beq.n	402478 <_malloc_r+0xdc>
  402482:	eb07 09c0 	add.w	r9, r7, r0, lsl #3
  402486:	46cc      	mov	ip, r9
  402488:	4680      	mov	r8, r0
  40248a:	f8dc 300c 	ldr.w	r3, [ip, #12]
  40248e:	459c      	cmp	ip, r3
  402490:	d107      	bne.n	4024a2 <_malloc_r+0x106>
  402492:	e16d      	b.n	402770 <_malloc_r+0x3d4>
  402494:	2a00      	cmp	r2, #0
  402496:	f280 817b 	bge.w	402790 <_malloc_r+0x3f4>
  40249a:	68db      	ldr	r3, [r3, #12]
  40249c:	459c      	cmp	ip, r3
  40249e:	f000 8167 	beq.w	402770 <_malloc_r+0x3d4>
  4024a2:	6859      	ldr	r1, [r3, #4]
  4024a4:	f021 0103 	bic.w	r1, r1, #3
  4024a8:	1b8a      	subs	r2, r1, r6
  4024aa:	2a0f      	cmp	r2, #15
  4024ac:	ddf2      	ble.n	402494 <_malloc_r+0xf8>
  4024ae:	f8d3 c00c 	ldr.w	ip, [r3, #12]
  4024b2:	f8d3 8008 	ldr.w	r8, [r3, #8]
  4024b6:	9300      	str	r3, [sp, #0]
  4024b8:	199c      	adds	r4, r3, r6
  4024ba:	4628      	mov	r0, r5
  4024bc:	f046 0601 	orr.w	r6, r6, #1
  4024c0:	f042 0501 	orr.w	r5, r2, #1
  4024c4:	605e      	str	r6, [r3, #4]
  4024c6:	f8c8 c00c 	str.w	ip, [r8, #12]
  4024ca:	f8cc 8008 	str.w	r8, [ip, #8]
  4024ce:	617c      	str	r4, [r7, #20]
  4024d0:	613c      	str	r4, [r7, #16]
  4024d2:	f8c4 e00c 	str.w	lr, [r4, #12]
  4024d6:	f8c4 e008 	str.w	lr, [r4, #8]
  4024da:	6065      	str	r5, [r4, #4]
  4024dc:	505a      	str	r2, [r3, r1]
  4024de:	f000 fafb 	bl	402ad8 <__malloc_unlock>
  4024e2:	9b00      	ldr	r3, [sp, #0]
  4024e4:	f103 0408 	add.w	r4, r3, #8
  4024e8:	e01e      	b.n	402528 <_malloc_r+0x18c>
  4024ea:	2910      	cmp	r1, #16
  4024ec:	d820      	bhi.n	402530 <_malloc_r+0x194>
  4024ee:	f000 faed 	bl	402acc <__malloc_lock>
  4024f2:	2610      	movs	r6, #16
  4024f4:	2318      	movs	r3, #24
  4024f6:	2002      	movs	r0, #2
  4024f8:	4f79      	ldr	r7, [pc, #484]	; (4026e0 <_malloc_r+0x344>)
  4024fa:	443b      	add	r3, r7
  4024fc:	f1a3 0208 	sub.w	r2, r3, #8
  402500:	685c      	ldr	r4, [r3, #4]
  402502:	4294      	cmp	r4, r2
  402504:	f000 813d 	beq.w	402782 <_malloc_r+0x3e6>
  402508:	6863      	ldr	r3, [r4, #4]
  40250a:	68e1      	ldr	r1, [r4, #12]
  40250c:	68a6      	ldr	r6, [r4, #8]
  40250e:	f023 0303 	bic.w	r3, r3, #3
  402512:	4423      	add	r3, r4
  402514:	4628      	mov	r0, r5
  402516:	685a      	ldr	r2, [r3, #4]
  402518:	60f1      	str	r1, [r6, #12]
  40251a:	f042 0201 	orr.w	r2, r2, #1
  40251e:	608e      	str	r6, [r1, #8]
  402520:	605a      	str	r2, [r3, #4]
  402522:	f000 fad9 	bl	402ad8 <__malloc_unlock>
  402526:	3408      	adds	r4, #8
  402528:	4620      	mov	r0, r4
  40252a:	b003      	add	sp, #12
  40252c:	e8bd 8ff0 	ldmia.w	sp!, {r4, r5, r6, r7, r8, r9, sl, fp, pc}
  402530:	2400      	movs	r4, #0
  402532:	230c      	movs	r3, #12
  402534:	4620      	mov	r0, r4
  402536:	602b      	str	r3, [r5, #0]
  402538:	b003      	add	sp, #12
  40253a:	e8bd 8ff0 	ldmia.w	sp!, {r4, r5, r6, r7, r8, r9, sl, fp, pc}
  40253e:	2040      	movs	r0, #64	; 0x40
  402540:	f44f 7300 	mov.w	r3, #512	; 0x200
  402544:	f04f 0e3f 	mov.w	lr, #63	; 0x3f
  402548:	e74a      	b.n	4023e0 <_malloc_r+0x44>
  40254a:	4423      	add	r3, r4
  40254c:	68e1      	ldr	r1, [r4, #12]
  40254e:	685a      	ldr	r2, [r3, #4]
  402550:	68a6      	ldr	r6, [r4, #8]
  402552:	f042 0201 	orr.w	r2, r2, #1
  402556:	60f1      	str	r1, [r6, #12]
  402558:	4628      	mov	r0, r5
  40255a:	608e      	str	r6, [r1, #8]
  40255c:	605a      	str	r2, [r3, #4]
  40255e:	f000 fabb 	bl	402ad8 <__malloc_unlock>
  402562:	3408      	adds	r4, #8
  402564:	4620      	mov	r0, r4
  402566:	b003      	add	sp, #12
  402568:	e8bd 8ff0 	ldmia.w	sp!, {r4, r5, r6, r7, r8, r9, sl, fp, pc}
  40256c:	4423      	add	r3, r4
  40256e:	4628      	mov	r0, r5
  402570:	685a      	ldr	r2, [r3, #4]
  402572:	f042 0201 	orr.w	r2, r2, #1
  402576:	605a      	str	r2, [r3, #4]
  402578:	f000 faae 	bl	402ad8 <__malloc_unlock>
  40257c:	3408      	adds	r4, #8
  40257e:	4620      	mov	r0, r4
  402580:	b003      	add	sp, #12
  402582:	e8bd 8ff0 	ldmia.w	sp!, {r4, r5, r6, r7, r8, r9, sl, fp, pc}
  402586:	68bc      	ldr	r4, [r7, #8]
  402588:	6863      	ldr	r3, [r4, #4]
  40258a:	f023 0803 	bic.w	r8, r3, #3
  40258e:	45b0      	cmp	r8, r6
  402590:	d304      	bcc.n	40259c <_malloc_r+0x200>
  402592:	eba8 0306 	sub.w	r3, r8, r6
  402596:	2b0f      	cmp	r3, #15
  402598:	f300 8085 	bgt.w	4026a6 <_malloc_r+0x30a>
  40259c:	f8df 9158 	ldr.w	r9, [pc, #344]	; 4026f8 <_malloc_r+0x35c>
  4025a0:	4b50      	ldr	r3, [pc, #320]	; (4026e4 <_malloc_r+0x348>)
  4025a2:	f8d9 2000 	ldr.w	r2, [r9]
  4025a6:	681b      	ldr	r3, [r3, #0]
  4025a8:	3201      	adds	r2, #1
  4025aa:	4433      	add	r3, r6
  4025ac:	eb04 0a08 	add.w	sl, r4, r8
  4025b0:	f000 8155 	beq.w	40285e <_malloc_r+0x4c2>
  4025b4:	f503 5380 	add.w	r3, r3, #4096	; 0x1000
  4025b8:	330f      	adds	r3, #15
  4025ba:	f423 6b7f 	bic.w	fp, r3, #4080	; 0xff0
  4025be:	f02b 0b0f 	bic.w	fp, fp, #15
  4025c2:	4659      	mov	r1, fp
  4025c4:	4628      	mov	r0, r5
  4025c6:	f000 faa1 	bl	402b0c <_sbrk_r>
  4025ca:	1c41      	adds	r1, r0, #1
  4025cc:	4602      	mov	r2, r0
  4025ce:	f000 80fc 	beq.w	4027ca <_malloc_r+0x42e>
  4025d2:	4582      	cmp	sl, r0
  4025d4:	f200 80f7 	bhi.w	4027c6 <_malloc_r+0x42a>
  4025d8:	4b43      	ldr	r3, [pc, #268]	; (4026e8 <_malloc_r+0x34c>)
  4025da:	6819      	ldr	r1, [r3, #0]
  4025dc:	4459      	add	r1, fp
  4025de:	6019      	str	r1, [r3, #0]
  4025e0:	f000 814d 	beq.w	40287e <_malloc_r+0x4e2>
  4025e4:	f8d9 0000 	ldr.w	r0, [r9]
  4025e8:	3001      	adds	r0, #1
  4025ea:	bf1b      	ittet	ne
  4025ec:	eba2 0a0a 	subne.w	sl, r2, sl
  4025f0:	4451      	addne	r1, sl
  4025f2:	f8c9 2000 	streq.w	r2, [r9]
  4025f6:	6019      	strne	r1, [r3, #0]
  4025f8:	f012 0107 	ands.w	r1, r2, #7
  4025fc:	f000 8115 	beq.w	40282a <_malloc_r+0x48e>
  402600:	f1c1 0008 	rsb	r0, r1, #8
  402604:	f5c1 5180 	rsb	r1, r1, #4096	; 0x1000
  402608:	4402      	add	r2, r0
  40260a:	3108      	adds	r1, #8
  40260c:	eb02 090b 	add.w	r9, r2, fp
  402610:	f3c9 090b 	ubfx	r9, r9, #0, #12
  402614:	eba1 0909 	sub.w	r9, r1, r9
  402618:	4649      	mov	r1, r9
  40261a:	4628      	mov	r0, r5
  40261c:	9301      	str	r3, [sp, #4]
  40261e:	9200      	str	r2, [sp, #0]
  402620:	f000 fa74 	bl	402b0c <_sbrk_r>
  402624:	1c43      	adds	r3, r0, #1
  402626:	e89d 000c 	ldmia.w	sp, {r2, r3}
  40262a:	f000 8143 	beq.w	4028b4 <_malloc_r+0x518>
  40262e:	1a80      	subs	r0, r0, r2
  402630:	4448      	add	r0, r9
  402632:	f040 0001 	orr.w	r0, r0, #1
  402636:	6819      	ldr	r1, [r3, #0]
  402638:	60ba      	str	r2, [r7, #8]
  40263a:	4449      	add	r1, r9
  40263c:	42bc      	cmp	r4, r7
  40263e:	6050      	str	r0, [r2, #4]
  402640:	6019      	str	r1, [r3, #0]
  402642:	d017      	beq.n	402674 <_malloc_r+0x2d8>
  402644:	f1b8 0f0f 	cmp.w	r8, #15
  402648:	f240 80fb 	bls.w	402842 <_malloc_r+0x4a6>
  40264c:	6860      	ldr	r0, [r4, #4]
  40264e:	f1a8 020c 	sub.w	r2, r8, #12
  402652:	f022 0207 	bic.w	r2, r2, #7
  402656:	eb04 0e02 	add.w	lr, r4, r2
  40265a:	f000 0001 	and.w	r0, r0, #1
  40265e:	f04f 0c05 	mov.w	ip, #5
  402662:	4310      	orrs	r0, r2
  402664:	2a0f      	cmp	r2, #15
  402666:	6060      	str	r0, [r4, #4]
  402668:	f8ce c004 	str.w	ip, [lr, #4]
  40266c:	f8ce c008 	str.w	ip, [lr, #8]
  402670:	f200 8117 	bhi.w	4028a2 <_malloc_r+0x506>
  402674:	4b1d      	ldr	r3, [pc, #116]	; (4026ec <_malloc_r+0x350>)
  402676:	68bc      	ldr	r4, [r7, #8]
  402678:	681a      	ldr	r2, [r3, #0]
  40267a:	4291      	cmp	r1, r2
  40267c:	bf88      	it	hi
  40267e:	6019      	strhi	r1, [r3, #0]
  402680:	4b1b      	ldr	r3, [pc, #108]	; (4026f0 <_malloc_r+0x354>)
  402682:	681a      	ldr	r2, [r3, #0]
  402684:	4291      	cmp	r1, r2
  402686:	6862      	ldr	r2, [r4, #4]
  402688:	bf88      	it	hi
  40268a:	6019      	strhi	r1, [r3, #0]
  40268c:	f022 0203 	bic.w	r2, r2, #3
  402690:	4296      	cmp	r6, r2
  402692:	eba2 0306 	sub.w	r3, r2, r6
  402696:	d801      	bhi.n	40269c <_malloc_r+0x300>
  402698:	2b0f      	cmp	r3, #15
  40269a:	dc04      	bgt.n	4026a6 <_malloc_r+0x30a>
  40269c:	4628      	mov	r0, r5
  40269e:	f000 fa1b 	bl	402ad8 <__malloc_unlock>
  4026a2:	2400      	movs	r4, #0
  4026a4:	e740      	b.n	402528 <_malloc_r+0x18c>
  4026a6:	19a2      	adds	r2, r4, r6
  4026a8:	f043 0301 	orr.w	r3, r3, #1
  4026ac:	f046 0601 	orr.w	r6, r6, #1
  4026b0:	6066      	str	r6, [r4, #4]
  4026b2:	4628      	mov	r0, r5
  4026b4:	60ba      	str	r2, [r7, #8]
  4026b6:	6053      	str	r3, [r2, #4]
  4026b8:	f000 fa0e 	bl	402ad8 <__malloc_unlock>
  4026bc:	3408      	adds	r4, #8
  4026be:	4620      	mov	r0, r4
  4026c0:	b003      	add	sp, #12
  4026c2:	e8bd 8ff0 	ldmia.w	sp!, {r4, r5, r6, r7, r8, r9, sl, fp, pc}
  4026c6:	2b14      	cmp	r3, #20
  4026c8:	d971      	bls.n	4027ae <_malloc_r+0x412>
  4026ca:	2b54      	cmp	r3, #84	; 0x54
  4026cc:	f200 80a3 	bhi.w	402816 <_malloc_r+0x47a>
  4026d0:	0b33      	lsrs	r3, r6, #12
  4026d2:	f103 006f 	add.w	r0, r3, #111	; 0x6f
  4026d6:	f103 0e6e 	add.w	lr, r3, #110	; 0x6e
  4026da:	00c3      	lsls	r3, r0, #3
  4026dc:	e680      	b.n	4023e0 <_malloc_r+0x44>
  4026de:	bf00      	nop
  4026e0:	20400498 	.word	0x20400498
  4026e4:	20408c8c 	.word	0x20408c8c
  4026e8:	20408c5c 	.word	0x20408c5c
  4026ec:	20408c84 	.word	0x20408c84
  4026f0:	20408c88 	.word	0x20408c88
  4026f4:	204004a0 	.word	0x204004a0
  4026f8:	204008a0 	.word	0x204008a0
  4026fc:	0a5a      	lsrs	r2, r3, #9
  4026fe:	2a04      	cmp	r2, #4
  402700:	d95b      	bls.n	4027ba <_malloc_r+0x41e>
  402702:	2a14      	cmp	r2, #20
  402704:	f200 80ae 	bhi.w	402864 <_malloc_r+0x4c8>
  402708:	f102 015c 	add.w	r1, r2, #92	; 0x5c
  40270c:	00c9      	lsls	r1, r1, #3
  40270e:	325b      	adds	r2, #91	; 0x5b
  402710:	eb07 0c01 	add.w	ip, r7, r1
  402714:	5879      	ldr	r1, [r7, r1]
  402716:	f1ac 0c08 	sub.w	ip, ip, #8
  40271a:	458c      	cmp	ip, r1
  40271c:	f000 8088 	beq.w	402830 <_malloc_r+0x494>
  402720:	684a      	ldr	r2, [r1, #4]
  402722:	f022 0203 	bic.w	r2, r2, #3
  402726:	4293      	cmp	r3, r2
  402728:	d273      	bcs.n	402812 <_malloc_r+0x476>
  40272a:	6889      	ldr	r1, [r1, #8]
  40272c:	458c      	cmp	ip, r1
  40272e:	d1f7      	bne.n	402720 <_malloc_r+0x384>
  402730:	f8dc 200c 	ldr.w	r2, [ip, #12]
  402734:	687b      	ldr	r3, [r7, #4]
  402736:	60e2      	str	r2, [r4, #12]
  402738:	f8c4 c008 	str.w	ip, [r4, #8]
  40273c:	6094      	str	r4, [r2, #8]
  40273e:	f8cc 400c 	str.w	r4, [ip, #12]
  402742:	e68f      	b.n	402464 <_malloc_r+0xc8>
  402744:	19a1      	adds	r1, r4, r6
  402746:	f046 0c01 	orr.w	ip, r6, #1
  40274a:	f042 0601 	orr.w	r6, r2, #1
  40274e:	f8c4 c004 	str.w	ip, [r4, #4]
  402752:	4628      	mov	r0, r5
  402754:	6179      	str	r1, [r7, #20]
  402756:	6139      	str	r1, [r7, #16]
  402758:	f8c1 e00c 	str.w	lr, [r1, #12]
  40275c:	f8c1 e008 	str.w	lr, [r1, #8]
  402760:	604e      	str	r6, [r1, #4]
  402762:	50e2      	str	r2, [r4, r3]
  402764:	f000 f9b8 	bl	402ad8 <__malloc_unlock>
  402768:	3408      	adds	r4, #8
  40276a:	e6dd      	b.n	402528 <_malloc_r+0x18c>
  40276c:	687b      	ldr	r3, [r7, #4]
  40276e:	e679      	b.n	402464 <_malloc_r+0xc8>
  402770:	f108 0801 	add.w	r8, r8, #1
  402774:	f018 0f03 	tst.w	r8, #3
  402778:	f10c 0c08 	add.w	ip, ip, #8
  40277c:	f47f ae85 	bne.w	40248a <_malloc_r+0xee>
  402780:	e02d      	b.n	4027de <_malloc_r+0x442>
  402782:	68dc      	ldr	r4, [r3, #12]
  402784:	42a3      	cmp	r3, r4
  402786:	bf08      	it	eq
  402788:	3002      	addeq	r0, #2
  40278a:	f43f ae3e 	beq.w	40240a <_malloc_r+0x6e>
  40278e:	e6bb      	b.n	402508 <_malloc_r+0x16c>
  402790:	4419      	add	r1, r3
  402792:	461c      	mov	r4, r3
  402794:	684a      	ldr	r2, [r1, #4]
  402796:	68db      	ldr	r3, [r3, #12]
  402798:	f854 6f08 	ldr.w	r6, [r4, #8]!
  40279c:	f042 0201 	orr.w	r2, r2, #1
  4027a0:	604a      	str	r2, [r1, #4]
  4027a2:	4628      	mov	r0, r5
  4027a4:	60f3      	str	r3, [r6, #12]
  4027a6:	609e      	str	r6, [r3, #8]
  4027a8:	f000 f996 	bl	402ad8 <__malloc_unlock>
  4027ac:	e6bc      	b.n	402528 <_malloc_r+0x18c>
  4027ae:	f103 005c 	add.w	r0, r3, #92	; 0x5c
  4027b2:	f103 0e5b 	add.w	lr, r3, #91	; 0x5b
  4027b6:	00c3      	lsls	r3, r0, #3
  4027b8:	e612      	b.n	4023e0 <_malloc_r+0x44>
  4027ba:	099a      	lsrs	r2, r3, #6
  4027bc:	f102 0139 	add.w	r1, r2, #57	; 0x39
  4027c0:	00c9      	lsls	r1, r1, #3
  4027c2:	3238      	adds	r2, #56	; 0x38
  4027c4:	e7a4      	b.n	402710 <_malloc_r+0x374>
  4027c6:	42bc      	cmp	r4, r7
  4027c8:	d054      	beq.n	402874 <_malloc_r+0x4d8>
  4027ca:	68bc      	ldr	r4, [r7, #8]
  4027cc:	6862      	ldr	r2, [r4, #4]
  4027ce:	f022 0203 	bic.w	r2, r2, #3
  4027d2:	e75d      	b.n	402690 <_malloc_r+0x2f4>
  4027d4:	f859 3908 	ldr.w	r3, [r9], #-8
  4027d8:	4599      	cmp	r9, r3
  4027da:	f040 8086 	bne.w	4028ea <_malloc_r+0x54e>
  4027de:	f010 0f03 	tst.w	r0, #3
  4027e2:	f100 30ff 	add.w	r0, r0, #4294967295
  4027e6:	d1f5      	bne.n	4027d4 <_malloc_r+0x438>
  4027e8:	687b      	ldr	r3, [r7, #4]
  4027ea:	ea23 0304 	bic.w	r3, r3, r4
  4027ee:	607b      	str	r3, [r7, #4]
  4027f0:	0064      	lsls	r4, r4, #1
  4027f2:	429c      	cmp	r4, r3
  4027f4:	f63f aec7 	bhi.w	402586 <_malloc_r+0x1ea>
  4027f8:	2c00      	cmp	r4, #0
  4027fa:	f43f aec4 	beq.w	402586 <_malloc_r+0x1ea>
  4027fe:	421c      	tst	r4, r3
  402800:	4640      	mov	r0, r8
  402802:	f47f ae3e 	bne.w	402482 <_malloc_r+0xe6>
  402806:	0064      	lsls	r4, r4, #1
  402808:	421c      	tst	r4, r3
  40280a:	f100 0004 	add.w	r0, r0, #4
  40280e:	d0fa      	beq.n	402806 <_malloc_r+0x46a>
  402810:	e637      	b.n	402482 <_malloc_r+0xe6>
  402812:	468c      	mov	ip, r1
  402814:	e78c      	b.n	402730 <_malloc_r+0x394>
  402816:	f5b3 7faa 	cmp.w	r3, #340	; 0x154
  40281a:	d815      	bhi.n	402848 <_malloc_r+0x4ac>
  40281c:	0bf3      	lsrs	r3, r6, #15
  40281e:	f103 0078 	add.w	r0, r3, #120	; 0x78
  402822:	f103 0e77 	add.w	lr, r3, #119	; 0x77
  402826:	00c3      	lsls	r3, r0, #3
  402828:	e5da      	b.n	4023e0 <_malloc_r+0x44>
  40282a:	f44f 5180 	mov.w	r1, #4096	; 0x1000
  40282e:	e6ed      	b.n	40260c <_malloc_r+0x270>
  402830:	687b      	ldr	r3, [r7, #4]
  402832:	1092      	asrs	r2, r2, #2
  402834:	2101      	movs	r1, #1
  402836:	fa01 f202 	lsl.w	r2, r1, r2
  40283a:	4313      	orrs	r3, r2
  40283c:	607b      	str	r3, [r7, #4]
  40283e:	4662      	mov	r2, ip
  402840:	e779      	b.n	402736 <_malloc_r+0x39a>
  402842:	2301      	movs	r3, #1
  402844:	6053      	str	r3, [r2, #4]
  402846:	e729      	b.n	40269c <_malloc_r+0x300>
  402848:	f240 5254 	movw	r2, #1364	; 0x554
  40284c:	4293      	cmp	r3, r2
  40284e:	d822      	bhi.n	402896 <_malloc_r+0x4fa>
  402850:	0cb3      	lsrs	r3, r6, #18
  402852:	f103 007d 	add.w	r0, r3, #125	; 0x7d
  402856:	f103 0e7c 	add.w	lr, r3, #124	; 0x7c
  40285a:	00c3      	lsls	r3, r0, #3
  40285c:	e5c0      	b.n	4023e0 <_malloc_r+0x44>
  40285e:	f103 0b10 	add.w	fp, r3, #16
  402862:	e6ae      	b.n	4025c2 <_malloc_r+0x226>
  402864:	2a54      	cmp	r2, #84	; 0x54
  402866:	d829      	bhi.n	4028bc <_malloc_r+0x520>
  402868:	0b1a      	lsrs	r2, r3, #12
  40286a:	f102 016f 	add.w	r1, r2, #111	; 0x6f
  40286e:	00c9      	lsls	r1, r1, #3
  402870:	326e      	adds	r2, #110	; 0x6e
  402872:	e74d      	b.n	402710 <_malloc_r+0x374>
  402874:	4b20      	ldr	r3, [pc, #128]	; (4028f8 <_malloc_r+0x55c>)
  402876:	6819      	ldr	r1, [r3, #0]
  402878:	4459      	add	r1, fp
  40287a:	6019      	str	r1, [r3, #0]
  40287c:	e6b2      	b.n	4025e4 <_malloc_r+0x248>
  40287e:	f3ca 000b 	ubfx	r0, sl, #0, #12
  402882:	2800      	cmp	r0, #0
  402884:	f47f aeae 	bne.w	4025e4 <_malloc_r+0x248>
  402888:	eb08 030b 	add.w	r3, r8, fp
  40288c:	68ba      	ldr	r2, [r7, #8]
  40288e:	f043 0301 	orr.w	r3, r3, #1
  402892:	6053      	str	r3, [r2, #4]
  402894:	e6ee      	b.n	402674 <_malloc_r+0x2d8>
  402896:	207f      	movs	r0, #127	; 0x7f
  402898:	f44f 737e 	mov.w	r3, #1016	; 0x3f8
  40289c:	f04f 0e7e 	mov.w	lr, #126	; 0x7e
  4028a0:	e59e      	b.n	4023e0 <_malloc_r+0x44>
  4028a2:	f104 0108 	add.w	r1, r4, #8
  4028a6:	4628      	mov	r0, r5
  4028a8:	9300      	str	r3, [sp, #0]
  4028aa:	f003 fe25 	bl	4064f8 <_free_r>
  4028ae:	9b00      	ldr	r3, [sp, #0]
  4028b0:	6819      	ldr	r1, [r3, #0]
  4028b2:	e6df      	b.n	402674 <_malloc_r+0x2d8>
  4028b4:	2001      	movs	r0, #1
  4028b6:	f04f 0900 	mov.w	r9, #0
  4028ba:	e6bc      	b.n	402636 <_malloc_r+0x29a>
  4028bc:	f5b2 7faa 	cmp.w	r2, #340	; 0x154
  4028c0:	d805      	bhi.n	4028ce <_malloc_r+0x532>
  4028c2:	0bda      	lsrs	r2, r3, #15
  4028c4:	f102 0178 	add.w	r1, r2, #120	; 0x78
  4028c8:	00c9      	lsls	r1, r1, #3
  4028ca:	3277      	adds	r2, #119	; 0x77
  4028cc:	e720      	b.n	402710 <_malloc_r+0x374>
  4028ce:	f240 5154 	movw	r1, #1364	; 0x554
  4028d2:	428a      	cmp	r2, r1
  4028d4:	d805      	bhi.n	4028e2 <_malloc_r+0x546>
  4028d6:	0c9a      	lsrs	r2, r3, #18
  4028d8:	f102 017d 	add.w	r1, r2, #125	; 0x7d
  4028dc:	00c9      	lsls	r1, r1, #3
  4028de:	327c      	adds	r2, #124	; 0x7c
  4028e0:	e716      	b.n	402710 <_malloc_r+0x374>
  4028e2:	f44f 717e 	mov.w	r1, #1016	; 0x3f8
  4028e6:	227e      	movs	r2, #126	; 0x7e
  4028e8:	e712      	b.n	402710 <_malloc_r+0x374>
  4028ea:	687b      	ldr	r3, [r7, #4]
  4028ec:	e780      	b.n	4027f0 <_malloc_r+0x454>
  4028ee:	08f0      	lsrs	r0, r6, #3
  4028f0:	f106 0308 	add.w	r3, r6, #8
  4028f4:	e600      	b.n	4024f8 <_malloc_r+0x15c>
  4028f6:	bf00      	nop
  4028f8:	20408c5c 	.word	0x20408c5c

004028fc <memcpy>:
  4028fc:	4684      	mov	ip, r0
  4028fe:	ea41 0300 	orr.w	r3, r1, r0
  402902:	f013 0303 	ands.w	r3, r3, #3
  402906:	d16d      	bne.n	4029e4 <memcpy+0xe8>
  402908:	3a40      	subs	r2, #64	; 0x40
  40290a:	d341      	bcc.n	402990 <memcpy+0x94>
  40290c:	f851 3b04 	ldr.w	r3, [r1], #4
  402910:	f840 3b04 	str.w	r3, [r0], #4
  402914:	f851 3b04 	ldr.w	r3, [r1], #4
  402918:	f840 3b04 	str.w	r3, [r0], #4
  40291c:	f851 3b04 	ldr.w	r3, [r1], #4
  402920:	f840 3b04 	str.w	r3, [r0], #4
  402924:	f851 3b04 	ldr.w	r3, [r1], #4
  402928:	f840 3b04 	str.w	r3, [r0], #4
  40292c:	f851 3b04 	ldr.w	r3, [r1], #4
  402930:	f840 3b04 	str.w	r3, [r0], #4
  402934:	f851 3b04 	ldr.w	r3, [r1], #4
  402938:	f840 3b04 	str.w	r3, [r0], #4
  40293c:	f851 3b04 	ldr.w	r3, [r1], #4
  402940:	f840 3b04 	str.w	r3, [r0], #4
  402944:	f851 3b04 	ldr.w	r3, [r1], #4
  402948:	f840 3b04 	str.w	r3, [r0], #4
  40294c:	f851 3b04 	ldr.w	r3, [r1], #4
  402950:	f840 3b04 	str.w	r3, [r0], #4
  402954:	f851 3b04 	ldr.w	r3, [r1], #4
  402958:	f840 3b04 	str.w	r3, [r0], #4
  40295c:	f851 3b04 	ldr.w	r3, [r1], #4
  402960:	f840 3b04 	str.w	r3, [r0], #4
  402964:	f851 3b04 	ldr.w	r3, [r1], #4
  402968:	f840 3b04 	str.w	r3, [r0], #4
  40296c:	f851 3b04 	ldr.w	r3, [r1], #4
  402970:	f840 3b04 	str.w	r3, [r0], #4
  402974:	f851 3b04 	ldr.w	r3, [r1], #4
  402978:	f840 3b04 	str.w	r3, [r0], #4
  40297c:	f851 3b04 	ldr.w	r3, [r1], #4
  402980:	f840 3b04 	str.w	r3, [r0], #4
  402984:	f851 3b04 	ldr.w	r3, [r1], #4
  402988:	f840 3b04 	str.w	r3, [r0], #4
  40298c:	3a40      	subs	r2, #64	; 0x40
  40298e:	d2bd      	bcs.n	40290c <memcpy+0x10>
  402990:	3230      	adds	r2, #48	; 0x30
  402992:	d311      	bcc.n	4029b8 <memcpy+0xbc>
  402994:	f851 3b04 	ldr.w	r3, [r1], #4
  402998:	f840 3b04 	str.w	r3, [r0], #4
  40299c:	f851 3b04 	ldr.w	r3, [r1], #4
  4029a0:	f840 3b04 	str.w	r3, [r0], #4
  4029a4:	f851 3b04 	ldr.w	r3, [r1], #4
  4029a8:	f840 3b04 	str.w	r3, [r0], #4
  4029ac:	f851 3b04 	ldr.w	r3, [r1], #4
  4029b0:	f840 3b04 	str.w	r3, [r0], #4
  4029b4:	3a10      	subs	r2, #16
  4029b6:	d2ed      	bcs.n	402994 <memcpy+0x98>
  4029b8:	320c      	adds	r2, #12
  4029ba:	d305      	bcc.n	4029c8 <memcpy+0xcc>
  4029bc:	f851 3b04 	ldr.w	r3, [r1], #4
  4029c0:	f840 3b04 	str.w	r3, [r0], #4
  4029c4:	3a04      	subs	r2, #4
  4029c6:	d2f9      	bcs.n	4029bc <memcpy+0xc0>
  4029c8:	3204      	adds	r2, #4
  4029ca:	d008      	beq.n	4029de <memcpy+0xe2>
  4029cc:	07d2      	lsls	r2, r2, #31
  4029ce:	bf1c      	itt	ne
  4029d0:	f811 3b01 	ldrbne.w	r3, [r1], #1
  4029d4:	f800 3b01 	strbne.w	r3, [r0], #1
  4029d8:	d301      	bcc.n	4029de <memcpy+0xe2>
  4029da:	880b      	ldrh	r3, [r1, #0]
  4029dc:	8003      	strh	r3, [r0, #0]
  4029de:	4660      	mov	r0, ip
  4029e0:	4770      	bx	lr
  4029e2:	bf00      	nop
  4029e4:	2a08      	cmp	r2, #8
  4029e6:	d313      	bcc.n	402a10 <memcpy+0x114>
  4029e8:	078b      	lsls	r3, r1, #30
  4029ea:	d08d      	beq.n	402908 <memcpy+0xc>
  4029ec:	f010 0303 	ands.w	r3, r0, #3
  4029f0:	d08a      	beq.n	402908 <memcpy+0xc>
  4029f2:	f1c3 0304 	rsb	r3, r3, #4
  4029f6:	1ad2      	subs	r2, r2, r3
  4029f8:	07db      	lsls	r3, r3, #31
  4029fa:	bf1c      	itt	ne
  4029fc:	f811 3b01 	ldrbne.w	r3, [r1], #1
  402a00:	f800 3b01 	strbne.w	r3, [r0], #1
  402a04:	d380      	bcc.n	402908 <memcpy+0xc>
  402a06:	f831 3b02 	ldrh.w	r3, [r1], #2
  402a0a:	f820 3b02 	strh.w	r3, [r0], #2
  402a0e:	e77b      	b.n	402908 <memcpy+0xc>
  402a10:	3a04      	subs	r2, #4
  402a12:	d3d9      	bcc.n	4029c8 <memcpy+0xcc>
  402a14:	3a01      	subs	r2, #1
  402a16:	f811 3b01 	ldrb.w	r3, [r1], #1
  402a1a:	f800 3b01 	strb.w	r3, [r0], #1
  402a1e:	d2f9      	bcs.n	402a14 <memcpy+0x118>
  402a20:	780b      	ldrb	r3, [r1, #0]
  402a22:	7003      	strb	r3, [r0, #0]
  402a24:	784b      	ldrb	r3, [r1, #1]
  402a26:	7043      	strb	r3, [r0, #1]
  402a28:	788b      	ldrb	r3, [r1, #2]
  402a2a:	7083      	strb	r3, [r0, #2]
  402a2c:	4660      	mov	r0, ip
  402a2e:	4770      	bx	lr

00402a30 <memset>:
  402a30:	b470      	push	{r4, r5, r6}
  402a32:	0786      	lsls	r6, r0, #30
  402a34:	d046      	beq.n	402ac4 <memset+0x94>
  402a36:	1e54      	subs	r4, r2, #1
  402a38:	2a00      	cmp	r2, #0
  402a3a:	d041      	beq.n	402ac0 <memset+0x90>
  402a3c:	b2ca      	uxtb	r2, r1
  402a3e:	4603      	mov	r3, r0
  402a40:	e002      	b.n	402a48 <memset+0x18>
  402a42:	f114 34ff 	adds.w	r4, r4, #4294967295
  402a46:	d33b      	bcc.n	402ac0 <memset+0x90>
  402a48:	f803 2b01 	strb.w	r2, [r3], #1
  402a4c:	079d      	lsls	r5, r3, #30
  402a4e:	d1f8      	bne.n	402a42 <memset+0x12>
  402a50:	2c03      	cmp	r4, #3
  402a52:	d92e      	bls.n	402ab2 <memset+0x82>
  402a54:	b2cd      	uxtb	r5, r1
  402a56:	ea45 2505 	orr.w	r5, r5, r5, lsl #8
  402a5a:	2c0f      	cmp	r4, #15
  402a5c:	ea45 4505 	orr.w	r5, r5, r5, lsl #16
  402a60:	d919      	bls.n	402a96 <memset+0x66>
  402a62:	f103 0210 	add.w	r2, r3, #16
  402a66:	4626      	mov	r6, r4
  402a68:	3e10      	subs	r6, #16
  402a6a:	2e0f      	cmp	r6, #15
  402a6c:	f842 5c10 	str.w	r5, [r2, #-16]
  402a70:	f842 5c0c 	str.w	r5, [r2, #-12]
  402a74:	f842 5c08 	str.w	r5, [r2, #-8]
  402a78:	f842 5c04 	str.w	r5, [r2, #-4]
  402a7c:	f102 0210 	add.w	r2, r2, #16
  402a80:	d8f2      	bhi.n	402a68 <memset+0x38>
  402a82:	f1a4 0210 	sub.w	r2, r4, #16
  402a86:	f022 020f 	bic.w	r2, r2, #15
  402a8a:	f004 040f 	and.w	r4, r4, #15
  402a8e:	3210      	adds	r2, #16
  402a90:	2c03      	cmp	r4, #3
  402a92:	4413      	add	r3, r2
  402a94:	d90d      	bls.n	402ab2 <memset+0x82>
  402a96:	461e      	mov	r6, r3
  402a98:	4622      	mov	r2, r4
  402a9a:	3a04      	subs	r2, #4
  402a9c:	2a03      	cmp	r2, #3
  402a9e:	f846 5b04 	str.w	r5, [r6], #4
  402aa2:	d8fa      	bhi.n	402a9a <memset+0x6a>
  402aa4:	1f22      	subs	r2, r4, #4
  402aa6:	f022 0203 	bic.w	r2, r2, #3
  402aaa:	3204      	adds	r2, #4
  402aac:	4413      	add	r3, r2
  402aae:	f004 0403 	and.w	r4, r4, #3
  402ab2:	b12c      	cbz	r4, 402ac0 <memset+0x90>
  402ab4:	b2c9      	uxtb	r1, r1
  402ab6:	441c      	add	r4, r3
  402ab8:	f803 1b01 	strb.w	r1, [r3], #1
  402abc:	429c      	cmp	r4, r3
  402abe:	d1fb      	bne.n	402ab8 <memset+0x88>
  402ac0:	bc70      	pop	{r4, r5, r6}
  402ac2:	4770      	bx	lr
  402ac4:	4614      	mov	r4, r2
  402ac6:	4603      	mov	r3, r0
  402ac8:	e7c2      	b.n	402a50 <memset+0x20>
  402aca:	bf00      	nop

00402acc <__malloc_lock>:
  402acc:	4801      	ldr	r0, [pc, #4]	; (402ad4 <__malloc_lock+0x8>)
  402ace:	f003 bfbb 	b.w	406a48 <__retarget_lock_acquire_recursive>
  402ad2:	bf00      	nop
  402ad4:	20408cb0 	.word	0x20408cb0

00402ad8 <__malloc_unlock>:
  402ad8:	4801      	ldr	r0, [pc, #4]	; (402ae0 <__malloc_unlock+0x8>)
  402ada:	f003 bfb7 	b.w	406a4c <__retarget_lock_release_recursive>
  402ade:	bf00      	nop
  402ae0:	20408cb0 	.word	0x20408cb0

00402ae4 <printf>:
  402ae4:	b40f      	push	{r0, r1, r2, r3}
  402ae6:	b500      	push	{lr}
  402ae8:	4907      	ldr	r1, [pc, #28]	; (402b08 <printf+0x24>)
  402aea:	b083      	sub	sp, #12
  402aec:	ab04      	add	r3, sp, #16
  402aee:	6808      	ldr	r0, [r1, #0]
  402af0:	f853 2b04 	ldr.w	r2, [r3], #4
  402af4:	6881      	ldr	r1, [r0, #8]
  402af6:	9301      	str	r3, [sp, #4]
  402af8:	f000 ffb6 	bl	403a68 <_vfprintf_r>
  402afc:	b003      	add	sp, #12
  402afe:	f85d eb04 	ldr.w	lr, [sp], #4
  402b02:	b004      	add	sp, #16
  402b04:	4770      	bx	lr
  402b06:	bf00      	nop
  402b08:	20400068 	.word	0x20400068

00402b0c <_sbrk_r>:
  402b0c:	b538      	push	{r3, r4, r5, lr}
  402b0e:	4c07      	ldr	r4, [pc, #28]	; (402b2c <_sbrk_r+0x20>)
  402b10:	2300      	movs	r3, #0
  402b12:	4605      	mov	r5, r0
  402b14:	4608      	mov	r0, r1
  402b16:	6023      	str	r3, [r4, #0]
  402b18:	f7fd fbea 	bl	4002f0 <_sbrk>
  402b1c:	1c43      	adds	r3, r0, #1
  402b1e:	d000      	beq.n	402b22 <_sbrk_r+0x16>
  402b20:	bd38      	pop	{r3, r4, r5, pc}
  402b22:	6823      	ldr	r3, [r4, #0]
  402b24:	2b00      	cmp	r3, #0
  402b26:	d0fb      	beq.n	402b20 <_sbrk_r+0x14>
  402b28:	602b      	str	r3, [r5, #0]
  402b2a:	bd38      	pop	{r3, r4, r5, pc}
  402b2c:	20408cc4 	.word	0x20408cc4

00402b30 <setvbuf>:
  402b30:	e92d 43f0 	stmdb	sp!, {r4, r5, r6, r7, r8, r9, lr}
  402b34:	4c61      	ldr	r4, [pc, #388]	; (402cbc <setvbuf+0x18c>)
  402b36:	6825      	ldr	r5, [r4, #0]
  402b38:	b083      	sub	sp, #12
  402b3a:	4604      	mov	r4, r0
  402b3c:	460f      	mov	r7, r1
  402b3e:	4690      	mov	r8, r2
  402b40:	461e      	mov	r6, r3
  402b42:	b115      	cbz	r5, 402b4a <setvbuf+0x1a>
  402b44:	6bab      	ldr	r3, [r5, #56]	; 0x38
  402b46:	2b00      	cmp	r3, #0
  402b48:	d064      	beq.n	402c14 <setvbuf+0xe4>
  402b4a:	f1b8 0f02 	cmp.w	r8, #2
  402b4e:	d006      	beq.n	402b5e <setvbuf+0x2e>
  402b50:	f1b8 0f01 	cmp.w	r8, #1
  402b54:	f200 809f 	bhi.w	402c96 <setvbuf+0x166>
  402b58:	2e00      	cmp	r6, #0
  402b5a:	f2c0 809c 	blt.w	402c96 <setvbuf+0x166>
  402b5e:	6e63      	ldr	r3, [r4, #100]	; 0x64
  402b60:	07d8      	lsls	r0, r3, #31
  402b62:	d534      	bpl.n	402bce <setvbuf+0x9e>
  402b64:	4621      	mov	r1, r4
  402b66:	4628      	mov	r0, r5
  402b68:	f003 fb48 	bl	4061fc <_fflush_r>
  402b6c:	6b21      	ldr	r1, [r4, #48]	; 0x30
  402b6e:	b141      	cbz	r1, 402b82 <setvbuf+0x52>
  402b70:	f104 0340 	add.w	r3, r4, #64	; 0x40
  402b74:	4299      	cmp	r1, r3
  402b76:	d002      	beq.n	402b7e <setvbuf+0x4e>
  402b78:	4628      	mov	r0, r5
  402b7a:	f003 fcbd 	bl	4064f8 <_free_r>
  402b7e:	2300      	movs	r3, #0
  402b80:	6323      	str	r3, [r4, #48]	; 0x30
  402b82:	f9b4 300c 	ldrsh.w	r3, [r4, #12]
  402b86:	2200      	movs	r2, #0
  402b88:	61a2      	str	r2, [r4, #24]
  402b8a:	6062      	str	r2, [r4, #4]
  402b8c:	061a      	lsls	r2, r3, #24
  402b8e:	d43a      	bmi.n	402c06 <setvbuf+0xd6>
  402b90:	f423 634a 	bic.w	r3, r3, #3232	; 0xca0
  402b94:	f023 0303 	bic.w	r3, r3, #3
  402b98:	f1b8 0f02 	cmp.w	r8, #2
  402b9c:	81a3      	strh	r3, [r4, #12]
  402b9e:	d01d      	beq.n	402bdc <setvbuf+0xac>
  402ba0:	ab01      	add	r3, sp, #4
  402ba2:	466a      	mov	r2, sp
  402ba4:	4621      	mov	r1, r4
  402ba6:	4628      	mov	r0, r5
  402ba8:	f003 ff52 	bl	406a50 <__swhatbuf_r>
  402bac:	89a3      	ldrh	r3, [r4, #12]
  402bae:	4318      	orrs	r0, r3
  402bb0:	81a0      	strh	r0, [r4, #12]
  402bb2:	2e00      	cmp	r6, #0
  402bb4:	d132      	bne.n	402c1c <setvbuf+0xec>
  402bb6:	9e00      	ldr	r6, [sp, #0]
  402bb8:	4630      	mov	r0, r6
  402bba:	f7ff fbe7 	bl	40238c <malloc>
  402bbe:	4607      	mov	r7, r0
  402bc0:	2800      	cmp	r0, #0
  402bc2:	d06b      	beq.n	402c9c <setvbuf+0x16c>
  402bc4:	89a3      	ldrh	r3, [r4, #12]
  402bc6:	f043 0380 	orr.w	r3, r3, #128	; 0x80
  402bca:	81a3      	strh	r3, [r4, #12]
  402bcc:	e028      	b.n	402c20 <setvbuf+0xf0>
  402bce:	89a3      	ldrh	r3, [r4, #12]
  402bd0:	0599      	lsls	r1, r3, #22
  402bd2:	d4c7      	bmi.n	402b64 <setvbuf+0x34>
  402bd4:	6da0      	ldr	r0, [r4, #88]	; 0x58
  402bd6:	f003 ff37 	bl	406a48 <__retarget_lock_acquire_recursive>
  402bda:	e7c3      	b.n	402b64 <setvbuf+0x34>
  402bdc:	2500      	movs	r5, #0
  402bde:	6e61      	ldr	r1, [r4, #100]	; 0x64
  402be0:	2600      	movs	r6, #0
  402be2:	f104 0243 	add.w	r2, r4, #67	; 0x43
  402be6:	f043 0302 	orr.w	r3, r3, #2
  402bea:	2001      	movs	r0, #1
  402bec:	60a6      	str	r6, [r4, #8]
  402bee:	07ce      	lsls	r6, r1, #31
  402bf0:	81a3      	strh	r3, [r4, #12]
  402bf2:	6022      	str	r2, [r4, #0]
  402bf4:	6122      	str	r2, [r4, #16]
  402bf6:	6160      	str	r0, [r4, #20]
  402bf8:	d401      	bmi.n	402bfe <setvbuf+0xce>
  402bfa:	0598      	lsls	r0, r3, #22
  402bfc:	d53e      	bpl.n	402c7c <setvbuf+0x14c>
  402bfe:	4628      	mov	r0, r5
  402c00:	b003      	add	sp, #12
  402c02:	e8bd 83f0 	ldmia.w	sp!, {r4, r5, r6, r7, r8, r9, pc}
  402c06:	6921      	ldr	r1, [r4, #16]
  402c08:	4628      	mov	r0, r5
  402c0a:	f003 fc75 	bl	4064f8 <_free_r>
  402c0e:	f9b4 300c 	ldrsh.w	r3, [r4, #12]
  402c12:	e7bd      	b.n	402b90 <setvbuf+0x60>
  402c14:	4628      	mov	r0, r5
  402c16:	f003 fb49 	bl	4062ac <__sinit>
  402c1a:	e796      	b.n	402b4a <setvbuf+0x1a>
  402c1c:	2f00      	cmp	r7, #0
  402c1e:	d0cb      	beq.n	402bb8 <setvbuf+0x88>
  402c20:	6bab      	ldr	r3, [r5, #56]	; 0x38
  402c22:	2b00      	cmp	r3, #0
  402c24:	d033      	beq.n	402c8e <setvbuf+0x15e>
  402c26:	9b00      	ldr	r3, [sp, #0]
  402c28:	f9b4 200c 	ldrsh.w	r2, [r4, #12]
  402c2c:	6027      	str	r7, [r4, #0]
  402c2e:	429e      	cmp	r6, r3
  402c30:	bf1c      	itt	ne
  402c32:	f442 6200 	orrne.w	r2, r2, #2048	; 0x800
  402c36:	81a2      	strhne	r2, [r4, #12]
  402c38:	f1b8 0f01 	cmp.w	r8, #1
  402c3c:	bf04      	itt	eq
  402c3e:	f042 0201 	orreq.w	r2, r2, #1
  402c42:	81a2      	strheq	r2, [r4, #12]
  402c44:	b292      	uxth	r2, r2
  402c46:	f012 0308 	ands.w	r3, r2, #8
  402c4a:	6127      	str	r7, [r4, #16]
  402c4c:	6166      	str	r6, [r4, #20]
  402c4e:	d00e      	beq.n	402c6e <setvbuf+0x13e>
  402c50:	07d1      	lsls	r1, r2, #31
  402c52:	d51a      	bpl.n	402c8a <setvbuf+0x15a>
  402c54:	6e65      	ldr	r5, [r4, #100]	; 0x64
  402c56:	4276      	negs	r6, r6
  402c58:	2300      	movs	r3, #0
  402c5a:	f015 0501 	ands.w	r5, r5, #1
  402c5e:	61a6      	str	r6, [r4, #24]
  402c60:	60a3      	str	r3, [r4, #8]
  402c62:	d009      	beq.n	402c78 <setvbuf+0x148>
  402c64:	2500      	movs	r5, #0
  402c66:	4628      	mov	r0, r5
  402c68:	b003      	add	sp, #12
  402c6a:	e8bd 83f0 	ldmia.w	sp!, {r4, r5, r6, r7, r8, r9, pc}
  402c6e:	60a3      	str	r3, [r4, #8]
  402c70:	6e65      	ldr	r5, [r4, #100]	; 0x64
  402c72:	f015 0501 	ands.w	r5, r5, #1
  402c76:	d1f5      	bne.n	402c64 <setvbuf+0x134>
  402c78:	0593      	lsls	r3, r2, #22
  402c7a:	d4c0      	bmi.n	402bfe <setvbuf+0xce>
  402c7c:	6da0      	ldr	r0, [r4, #88]	; 0x58
  402c7e:	f003 fee5 	bl	406a4c <__retarget_lock_release_recursive>
  402c82:	4628      	mov	r0, r5
  402c84:	b003      	add	sp, #12
  402c86:	e8bd 83f0 	ldmia.w	sp!, {r4, r5, r6, r7, r8, r9, pc}
  402c8a:	60a6      	str	r6, [r4, #8]
  402c8c:	e7f0      	b.n	402c70 <setvbuf+0x140>
  402c8e:	4628      	mov	r0, r5
  402c90:	f003 fb0c 	bl	4062ac <__sinit>
  402c94:	e7c7      	b.n	402c26 <setvbuf+0xf6>
  402c96:	f04f 35ff 	mov.w	r5, #4294967295
  402c9a:	e7b0      	b.n	402bfe <setvbuf+0xce>
  402c9c:	f8dd 9000 	ldr.w	r9, [sp]
  402ca0:	45b1      	cmp	r9, r6
  402ca2:	d004      	beq.n	402cae <setvbuf+0x17e>
  402ca4:	4648      	mov	r0, r9
  402ca6:	f7ff fb71 	bl	40238c <malloc>
  402caa:	4607      	mov	r7, r0
  402cac:	b920      	cbnz	r0, 402cb8 <setvbuf+0x188>
  402cae:	f9b4 300c 	ldrsh.w	r3, [r4, #12]
  402cb2:	f04f 35ff 	mov.w	r5, #4294967295
  402cb6:	e792      	b.n	402bde <setvbuf+0xae>
  402cb8:	464e      	mov	r6, r9
  402cba:	e783      	b.n	402bc4 <setvbuf+0x94>
  402cbc:	20400068 	.word	0x20400068

00402cc0 <__sprint_r.part.0>:
  402cc0:	e92d 4ff8 	stmdb	sp!, {r3, r4, r5, r6, r7, r8, r9, sl, fp, lr}
  402cc4:	6e4b      	ldr	r3, [r1, #100]	; 0x64
  402cc6:	049c      	lsls	r4, r3, #18
  402cc8:	4693      	mov	fp, r2
  402cca:	d52f      	bpl.n	402d2c <__sprint_r.part.0+0x6c>
  402ccc:	6893      	ldr	r3, [r2, #8]
  402cce:	6812      	ldr	r2, [r2, #0]
  402cd0:	b353      	cbz	r3, 402d28 <__sprint_r.part.0+0x68>
  402cd2:	460e      	mov	r6, r1
  402cd4:	4607      	mov	r7, r0
  402cd6:	f102 0908 	add.w	r9, r2, #8
  402cda:	e919 0420 	ldmdb	r9, {r5, sl}
  402cde:	ea5f 089a 	movs.w	r8, sl, lsr #2
  402ce2:	d017      	beq.n	402d14 <__sprint_r.part.0+0x54>
  402ce4:	3d04      	subs	r5, #4
  402ce6:	2400      	movs	r4, #0
  402ce8:	e001      	b.n	402cee <__sprint_r.part.0+0x2e>
  402cea:	45a0      	cmp	r8, r4
  402cec:	d010      	beq.n	402d10 <__sprint_r.part.0+0x50>
  402cee:	4632      	mov	r2, r6
  402cf0:	f855 1f04 	ldr.w	r1, [r5, #4]!
  402cf4:	4638      	mov	r0, r7
  402cf6:	f003 fb7b 	bl	4063f0 <_fputwc_r>
  402cfa:	1c43      	adds	r3, r0, #1
  402cfc:	f104 0401 	add.w	r4, r4, #1
  402d00:	d1f3      	bne.n	402cea <__sprint_r.part.0+0x2a>
  402d02:	2300      	movs	r3, #0
  402d04:	f8cb 3008 	str.w	r3, [fp, #8]
  402d08:	f8cb 3004 	str.w	r3, [fp, #4]
  402d0c:	e8bd 8ff8 	ldmia.w	sp!, {r3, r4, r5, r6, r7, r8, r9, sl, fp, pc}
  402d10:	f8db 3008 	ldr.w	r3, [fp, #8]
  402d14:	f02a 0a03 	bic.w	sl, sl, #3
  402d18:	eba3 030a 	sub.w	r3, r3, sl
  402d1c:	f8cb 3008 	str.w	r3, [fp, #8]
  402d20:	f109 0908 	add.w	r9, r9, #8
  402d24:	2b00      	cmp	r3, #0
  402d26:	d1d8      	bne.n	402cda <__sprint_r.part.0+0x1a>
  402d28:	2000      	movs	r0, #0
  402d2a:	e7ea      	b.n	402d02 <__sprint_r.part.0+0x42>
  402d2c:	f003 fcca 	bl	4066c4 <__sfvwrite_r>
  402d30:	2300      	movs	r3, #0
  402d32:	f8cb 3008 	str.w	r3, [fp, #8]
  402d36:	f8cb 3004 	str.w	r3, [fp, #4]
  402d3a:	e8bd 8ff8 	ldmia.w	sp!, {r3, r4, r5, r6, r7, r8, r9, sl, fp, pc}
  402d3e:	bf00      	nop

00402d40 <__sprint_r>:
  402d40:	6893      	ldr	r3, [r2, #8]
  402d42:	b10b      	cbz	r3, 402d48 <__sprint_r+0x8>
  402d44:	f7ff bfbc 	b.w	402cc0 <__sprint_r.part.0>
  402d48:	b410      	push	{r4}
  402d4a:	4618      	mov	r0, r3
  402d4c:	6053      	str	r3, [r2, #4]
  402d4e:	bc10      	pop	{r4}
  402d50:	4770      	bx	lr
  402d52:	bf00      	nop

00402d54 <_vfiprintf_r>:
  402d54:	e92d 4ff0 	stmdb	sp!, {r4, r5, r6, r7, r8, r9, sl, fp, lr}
  402d58:	b0ad      	sub	sp, #180	; 0xb4
  402d5a:	461d      	mov	r5, r3
  402d5c:	468b      	mov	fp, r1
  402d5e:	4690      	mov	r8, r2
  402d60:	9307      	str	r3, [sp, #28]
  402d62:	9006      	str	r0, [sp, #24]
  402d64:	b118      	cbz	r0, 402d6e <_vfiprintf_r+0x1a>
  402d66:	6b83      	ldr	r3, [r0, #56]	; 0x38
  402d68:	2b00      	cmp	r3, #0
  402d6a:	f000 80f3 	beq.w	402f54 <_vfiprintf_r+0x200>
  402d6e:	f8db 3064 	ldr.w	r3, [fp, #100]	; 0x64
  402d72:	f9bb 000c 	ldrsh.w	r0, [fp, #12]
  402d76:	07df      	lsls	r7, r3, #31
  402d78:	b281      	uxth	r1, r0
  402d7a:	d402      	bmi.n	402d82 <_vfiprintf_r+0x2e>
  402d7c:	058e      	lsls	r6, r1, #22
  402d7e:	f140 80fc 	bpl.w	402f7a <_vfiprintf_r+0x226>
  402d82:	048c      	lsls	r4, r1, #18
  402d84:	d40a      	bmi.n	402d9c <_vfiprintf_r+0x48>
  402d86:	f8db 3064 	ldr.w	r3, [fp, #100]	; 0x64
  402d8a:	f440 5100 	orr.w	r1, r0, #8192	; 0x2000
  402d8e:	f423 5300 	bic.w	r3, r3, #8192	; 0x2000
  402d92:	f8ab 100c 	strh.w	r1, [fp, #12]
  402d96:	f8cb 3064 	str.w	r3, [fp, #100]	; 0x64
  402d9a:	b289      	uxth	r1, r1
  402d9c:	0708      	lsls	r0, r1, #28
  402d9e:	f140 80b3 	bpl.w	402f08 <_vfiprintf_r+0x1b4>
  402da2:	f8db 3010 	ldr.w	r3, [fp, #16]
  402da6:	2b00      	cmp	r3, #0
  402da8:	f000 80ae 	beq.w	402f08 <_vfiprintf_r+0x1b4>
  402dac:	f001 031a 	and.w	r3, r1, #26
  402db0:	2b0a      	cmp	r3, #10
  402db2:	f000 80b5 	beq.w	402f20 <_vfiprintf_r+0x1cc>
  402db6:	2300      	movs	r3, #0
  402db8:	f10d 0970 	add.w	r9, sp, #112	; 0x70
  402dbc:	930b      	str	r3, [sp, #44]	; 0x2c
  402dbe:	9311      	str	r3, [sp, #68]	; 0x44
  402dc0:	9310      	str	r3, [sp, #64]	; 0x40
  402dc2:	9303      	str	r3, [sp, #12]
  402dc4:	f8cd 903c 	str.w	r9, [sp, #60]	; 0x3c
  402dc8:	46ca      	mov	sl, r9
  402dca:	f8cd b010 	str.w	fp, [sp, #16]
  402dce:	f898 3000 	ldrb.w	r3, [r8]
  402dd2:	4644      	mov	r4, r8
  402dd4:	b1fb      	cbz	r3, 402e16 <_vfiprintf_r+0xc2>
  402dd6:	2b25      	cmp	r3, #37	; 0x25
  402dd8:	d102      	bne.n	402de0 <_vfiprintf_r+0x8c>
  402dda:	e01c      	b.n	402e16 <_vfiprintf_r+0xc2>
  402ddc:	2b25      	cmp	r3, #37	; 0x25
  402dde:	d003      	beq.n	402de8 <_vfiprintf_r+0x94>
  402de0:	f814 3f01 	ldrb.w	r3, [r4, #1]!
  402de4:	2b00      	cmp	r3, #0
  402de6:	d1f9      	bne.n	402ddc <_vfiprintf_r+0x88>
  402de8:	eba4 0508 	sub.w	r5, r4, r8
  402dec:	b19d      	cbz	r5, 402e16 <_vfiprintf_r+0xc2>
  402dee:	9b10      	ldr	r3, [sp, #64]	; 0x40
  402df0:	9a11      	ldr	r2, [sp, #68]	; 0x44
  402df2:	f8ca 8000 	str.w	r8, [sl]
  402df6:	3301      	adds	r3, #1
  402df8:	442a      	add	r2, r5
  402dfa:	2b07      	cmp	r3, #7
  402dfc:	f8ca 5004 	str.w	r5, [sl, #4]
  402e00:	9211      	str	r2, [sp, #68]	; 0x44
  402e02:	9310      	str	r3, [sp, #64]	; 0x40
  402e04:	dd7a      	ble.n	402efc <_vfiprintf_r+0x1a8>
  402e06:	2a00      	cmp	r2, #0
  402e08:	f040 84b0 	bne.w	40376c <_vfiprintf_r+0xa18>
  402e0c:	9b03      	ldr	r3, [sp, #12]
  402e0e:	9210      	str	r2, [sp, #64]	; 0x40
  402e10:	442b      	add	r3, r5
  402e12:	46ca      	mov	sl, r9
  402e14:	9303      	str	r3, [sp, #12]
  402e16:	7823      	ldrb	r3, [r4, #0]
  402e18:	2b00      	cmp	r3, #0
  402e1a:	f000 83e0 	beq.w	4035de <_vfiprintf_r+0x88a>
  402e1e:	2000      	movs	r0, #0
  402e20:	f04f 0300 	mov.w	r3, #0
  402e24:	f88d 3037 	strb.w	r3, [sp, #55]	; 0x37
  402e28:	f104 0801 	add.w	r8, r4, #1
  402e2c:	7862      	ldrb	r2, [r4, #1]
  402e2e:	4605      	mov	r5, r0
  402e30:	4606      	mov	r6, r0
  402e32:	4603      	mov	r3, r0
  402e34:	f04f 34ff 	mov.w	r4, #4294967295
  402e38:	f108 0801 	add.w	r8, r8, #1
  402e3c:	f1a2 0120 	sub.w	r1, r2, #32
  402e40:	2958      	cmp	r1, #88	; 0x58
  402e42:	f200 82de 	bhi.w	403402 <_vfiprintf_r+0x6ae>
  402e46:	e8df f011 	tbh	[pc, r1, lsl #1]
  402e4a:	0221      	.short	0x0221
  402e4c:	02dc02dc 	.word	0x02dc02dc
  402e50:	02dc0229 	.word	0x02dc0229
  402e54:	02dc02dc 	.word	0x02dc02dc
  402e58:	02dc02dc 	.word	0x02dc02dc
  402e5c:	028902dc 	.word	0x028902dc
  402e60:	02dc0295 	.word	0x02dc0295
  402e64:	02bd00a2 	.word	0x02bd00a2
  402e68:	019f02dc 	.word	0x019f02dc
  402e6c:	01a401a4 	.word	0x01a401a4
  402e70:	01a401a4 	.word	0x01a401a4
  402e74:	01a401a4 	.word	0x01a401a4
  402e78:	01a401a4 	.word	0x01a401a4
  402e7c:	02dc01a4 	.word	0x02dc01a4
  402e80:	02dc02dc 	.word	0x02dc02dc
  402e84:	02dc02dc 	.word	0x02dc02dc
  402e88:	02dc02dc 	.word	0x02dc02dc
  402e8c:	02dc02dc 	.word	0x02dc02dc
  402e90:	01b202dc 	.word	0x01b202dc
  402e94:	02dc02dc 	.word	0x02dc02dc
  402e98:	02dc02dc 	.word	0x02dc02dc
  402e9c:	02dc02dc 	.word	0x02dc02dc
  402ea0:	02dc02dc 	.word	0x02dc02dc
  402ea4:	02dc02dc 	.word	0x02dc02dc
  402ea8:	02dc0197 	.word	0x02dc0197
  402eac:	02dc02dc 	.word	0x02dc02dc
  402eb0:	02dc02dc 	.word	0x02dc02dc
  402eb4:	02dc019b 	.word	0x02dc019b
  402eb8:	025302dc 	.word	0x025302dc
  402ebc:	02dc02dc 	.word	0x02dc02dc
  402ec0:	02dc02dc 	.word	0x02dc02dc
  402ec4:	02dc02dc 	.word	0x02dc02dc
  402ec8:	02dc02dc 	.word	0x02dc02dc
  402ecc:	02dc02dc 	.word	0x02dc02dc
  402ed0:	021b025a 	.word	0x021b025a
  402ed4:	02dc02dc 	.word	0x02dc02dc
  402ed8:	026e02dc 	.word	0x026e02dc
  402edc:	02dc021b 	.word	0x02dc021b
  402ee0:	027302dc 	.word	0x027302dc
  402ee4:	01f502dc 	.word	0x01f502dc
  402ee8:	02090182 	.word	0x02090182
  402eec:	02dc02d7 	.word	0x02dc02d7
  402ef0:	02dc029a 	.word	0x02dc029a
  402ef4:	02dc00a7 	.word	0x02dc00a7
  402ef8:	022e02dc 	.word	0x022e02dc
  402efc:	f10a 0a08 	add.w	sl, sl, #8
  402f00:	9b03      	ldr	r3, [sp, #12]
  402f02:	442b      	add	r3, r5
  402f04:	9303      	str	r3, [sp, #12]
  402f06:	e786      	b.n	402e16 <_vfiprintf_r+0xc2>
  402f08:	4659      	mov	r1, fp
  402f0a:	9806      	ldr	r0, [sp, #24]
  402f0c:	f002 f89a 	bl	405044 <__swsetup_r>
  402f10:	bb18      	cbnz	r0, 402f5a <_vfiprintf_r+0x206>
  402f12:	f8bb 100c 	ldrh.w	r1, [fp, #12]
  402f16:	f001 031a 	and.w	r3, r1, #26
  402f1a:	2b0a      	cmp	r3, #10
  402f1c:	f47f af4b 	bne.w	402db6 <_vfiprintf_r+0x62>
  402f20:	f9bb 300e 	ldrsh.w	r3, [fp, #14]
  402f24:	2b00      	cmp	r3, #0
  402f26:	f6ff af46 	blt.w	402db6 <_vfiprintf_r+0x62>
  402f2a:	f8db 3064 	ldr.w	r3, [fp, #100]	; 0x64
  402f2e:	07db      	lsls	r3, r3, #31
  402f30:	d405      	bmi.n	402f3e <_vfiprintf_r+0x1ea>
  402f32:	058f      	lsls	r7, r1, #22
  402f34:	d403      	bmi.n	402f3e <_vfiprintf_r+0x1ea>
  402f36:	f8db 0058 	ldr.w	r0, [fp, #88]	; 0x58
  402f3a:	f003 fd87 	bl	406a4c <__retarget_lock_release_recursive>
  402f3e:	462b      	mov	r3, r5
  402f40:	4642      	mov	r2, r8
  402f42:	4659      	mov	r1, fp
  402f44:	9806      	ldr	r0, [sp, #24]
  402f46:	f000 fd4d 	bl	4039e4 <__sbprintf>
  402f4a:	9003      	str	r0, [sp, #12]
  402f4c:	9803      	ldr	r0, [sp, #12]
  402f4e:	b02d      	add	sp, #180	; 0xb4
  402f50:	e8bd 8ff0 	ldmia.w	sp!, {r4, r5, r6, r7, r8, r9, sl, fp, pc}
  402f54:	f003 f9aa 	bl	4062ac <__sinit>
  402f58:	e709      	b.n	402d6e <_vfiprintf_r+0x1a>
  402f5a:	f8db 3064 	ldr.w	r3, [fp, #100]	; 0x64
  402f5e:	07d9      	lsls	r1, r3, #31
  402f60:	d404      	bmi.n	402f6c <_vfiprintf_r+0x218>
  402f62:	f8bb 300c 	ldrh.w	r3, [fp, #12]
  402f66:	059a      	lsls	r2, r3, #22
  402f68:	f140 84aa 	bpl.w	4038c0 <_vfiprintf_r+0xb6c>
  402f6c:	f04f 33ff 	mov.w	r3, #4294967295
  402f70:	9303      	str	r3, [sp, #12]
  402f72:	9803      	ldr	r0, [sp, #12]
  402f74:	b02d      	add	sp, #180	; 0xb4
  402f76:	e8bd 8ff0 	ldmia.w	sp!, {r4, r5, r6, r7, r8, r9, sl, fp, pc}
  402f7a:	f8db 0058 	ldr.w	r0, [fp, #88]	; 0x58
  402f7e:	f003 fd63 	bl	406a48 <__retarget_lock_acquire_recursive>
  402f82:	f9bb 000c 	ldrsh.w	r0, [fp, #12]
  402f86:	b281      	uxth	r1, r0
  402f88:	e6fb      	b.n	402d82 <_vfiprintf_r+0x2e>
  402f8a:	4276      	negs	r6, r6
  402f8c:	9207      	str	r2, [sp, #28]
  402f8e:	f043 0304 	orr.w	r3, r3, #4
  402f92:	f898 2000 	ldrb.w	r2, [r8]
  402f96:	e74f      	b.n	402e38 <_vfiprintf_r+0xe4>
  402f98:	9608      	str	r6, [sp, #32]
  402f9a:	069e      	lsls	r6, r3, #26
  402f9c:	f100 8450 	bmi.w	403840 <_vfiprintf_r+0xaec>
  402fa0:	9907      	ldr	r1, [sp, #28]
  402fa2:	06dd      	lsls	r5, r3, #27
  402fa4:	460a      	mov	r2, r1
  402fa6:	f100 83ef 	bmi.w	403788 <_vfiprintf_r+0xa34>
  402faa:	0658      	lsls	r0, r3, #25
  402fac:	f140 83ec 	bpl.w	403788 <_vfiprintf_r+0xa34>
  402fb0:	880e      	ldrh	r6, [r1, #0]
  402fb2:	3104      	adds	r1, #4
  402fb4:	2700      	movs	r7, #0
  402fb6:	2201      	movs	r2, #1
  402fb8:	9107      	str	r1, [sp, #28]
  402fba:	f04f 0100 	mov.w	r1, #0
  402fbe:	f88d 1037 	strb.w	r1, [sp, #55]	; 0x37
  402fc2:	2500      	movs	r5, #0
  402fc4:	1c61      	adds	r1, r4, #1
  402fc6:	f000 8116 	beq.w	4031f6 <_vfiprintf_r+0x4a2>
  402fca:	f023 0180 	bic.w	r1, r3, #128	; 0x80
  402fce:	9102      	str	r1, [sp, #8]
  402fd0:	ea56 0107 	orrs.w	r1, r6, r7
  402fd4:	f040 8114 	bne.w	403200 <_vfiprintf_r+0x4ac>
  402fd8:	2c00      	cmp	r4, #0
  402fda:	f040 835c 	bne.w	403696 <_vfiprintf_r+0x942>
  402fde:	2a00      	cmp	r2, #0
  402fe0:	f040 83b7 	bne.w	403752 <_vfiprintf_r+0x9fe>
  402fe4:	f013 0301 	ands.w	r3, r3, #1
  402fe8:	9305      	str	r3, [sp, #20]
  402fea:	f000 8457 	beq.w	40389c <_vfiprintf_r+0xb48>
  402fee:	f10d 0bb0 	add.w	fp, sp, #176	; 0xb0
  402ff2:	2330      	movs	r3, #48	; 0x30
  402ff4:	f80b 3d41 	strb.w	r3, [fp, #-65]!
  402ff8:	9b05      	ldr	r3, [sp, #20]
  402ffa:	42a3      	cmp	r3, r4
  402ffc:	bfb8      	it	lt
  402ffe:	4623      	movlt	r3, r4
  403000:	9301      	str	r3, [sp, #4]
  403002:	b10d      	cbz	r5, 403008 <_vfiprintf_r+0x2b4>
  403004:	3301      	adds	r3, #1
  403006:	9301      	str	r3, [sp, #4]
  403008:	9b02      	ldr	r3, [sp, #8]
  40300a:	f013 0302 	ands.w	r3, r3, #2
  40300e:	9309      	str	r3, [sp, #36]	; 0x24
  403010:	d002      	beq.n	403018 <_vfiprintf_r+0x2c4>
  403012:	9b01      	ldr	r3, [sp, #4]
  403014:	3302      	adds	r3, #2
  403016:	9301      	str	r3, [sp, #4]
  403018:	9b02      	ldr	r3, [sp, #8]
  40301a:	f013 0384 	ands.w	r3, r3, #132	; 0x84
  40301e:	930a      	str	r3, [sp, #40]	; 0x28
  403020:	f040 8217 	bne.w	403452 <_vfiprintf_r+0x6fe>
  403024:	9b08      	ldr	r3, [sp, #32]
  403026:	9a01      	ldr	r2, [sp, #4]
  403028:	1a9d      	subs	r5, r3, r2
  40302a:	2d00      	cmp	r5, #0
  40302c:	f340 8211 	ble.w	403452 <_vfiprintf_r+0x6fe>
  403030:	2d10      	cmp	r5, #16
  403032:	f340 8490 	ble.w	403956 <_vfiprintf_r+0xc02>
  403036:	9b10      	ldr	r3, [sp, #64]	; 0x40
  403038:	9a11      	ldr	r2, [sp, #68]	; 0x44
  40303a:	4ec4      	ldr	r6, [pc, #784]	; (40334c <_vfiprintf_r+0x5f8>)
  40303c:	46d6      	mov	lr, sl
  40303e:	2710      	movs	r7, #16
  403040:	46a2      	mov	sl, r4
  403042:	4619      	mov	r1, r3
  403044:	9c06      	ldr	r4, [sp, #24]
  403046:	e007      	b.n	403058 <_vfiprintf_r+0x304>
  403048:	f101 0c02 	add.w	ip, r1, #2
  40304c:	f10e 0e08 	add.w	lr, lr, #8
  403050:	4601      	mov	r1, r0
  403052:	3d10      	subs	r5, #16
  403054:	2d10      	cmp	r5, #16
  403056:	dd11      	ble.n	40307c <_vfiprintf_r+0x328>
  403058:	1c48      	adds	r0, r1, #1
  40305a:	3210      	adds	r2, #16
  40305c:	2807      	cmp	r0, #7
  40305e:	9211      	str	r2, [sp, #68]	; 0x44
  403060:	e88e 00c0 	stmia.w	lr, {r6, r7}
  403064:	9010      	str	r0, [sp, #64]	; 0x40
  403066:	ddef      	ble.n	403048 <_vfiprintf_r+0x2f4>
  403068:	2a00      	cmp	r2, #0
  40306a:	f040 81e4 	bne.w	403436 <_vfiprintf_r+0x6e2>
  40306e:	3d10      	subs	r5, #16
  403070:	2d10      	cmp	r5, #16
  403072:	4611      	mov	r1, r2
  403074:	f04f 0c01 	mov.w	ip, #1
  403078:	46ce      	mov	lr, r9
  40307a:	dced      	bgt.n	403058 <_vfiprintf_r+0x304>
  40307c:	4654      	mov	r4, sl
  40307e:	4661      	mov	r1, ip
  403080:	46f2      	mov	sl, lr
  403082:	442a      	add	r2, r5
  403084:	2907      	cmp	r1, #7
  403086:	9211      	str	r2, [sp, #68]	; 0x44
  403088:	f8ca 6000 	str.w	r6, [sl]
  40308c:	f8ca 5004 	str.w	r5, [sl, #4]
  403090:	9110      	str	r1, [sp, #64]	; 0x40
  403092:	f300 82ec 	bgt.w	40366e <_vfiprintf_r+0x91a>
  403096:	f89d 5037 	ldrb.w	r5, [sp, #55]	; 0x37
  40309a:	f10a 0a08 	add.w	sl, sl, #8
  40309e:	1c48      	adds	r0, r1, #1
  4030a0:	2d00      	cmp	r5, #0
  4030a2:	f040 81de 	bne.w	403462 <_vfiprintf_r+0x70e>
  4030a6:	9b09      	ldr	r3, [sp, #36]	; 0x24
  4030a8:	2b00      	cmp	r3, #0
  4030aa:	f000 81f8 	beq.w	40349e <_vfiprintf_r+0x74a>
  4030ae:	3202      	adds	r2, #2
  4030b0:	a90e      	add	r1, sp, #56	; 0x38
  4030b2:	2302      	movs	r3, #2
  4030b4:	2807      	cmp	r0, #7
  4030b6:	9211      	str	r2, [sp, #68]	; 0x44
  4030b8:	9010      	str	r0, [sp, #64]	; 0x40
  4030ba:	e88a 000a 	stmia.w	sl, {r1, r3}
  4030be:	f340 81ea 	ble.w	403496 <_vfiprintf_r+0x742>
  4030c2:	2a00      	cmp	r2, #0
  4030c4:	f040 838c 	bne.w	4037e0 <_vfiprintf_r+0xa8c>
  4030c8:	9b0a      	ldr	r3, [sp, #40]	; 0x28
  4030ca:	2b80      	cmp	r3, #128	; 0x80
  4030cc:	f04f 0001 	mov.w	r0, #1
  4030d0:	4611      	mov	r1, r2
  4030d2:	46ca      	mov	sl, r9
  4030d4:	f040 81e7 	bne.w	4034a6 <_vfiprintf_r+0x752>
  4030d8:	9b08      	ldr	r3, [sp, #32]
  4030da:	9d01      	ldr	r5, [sp, #4]
  4030dc:	1b5e      	subs	r6, r3, r5
  4030de:	2e00      	cmp	r6, #0
  4030e0:	f340 81e1 	ble.w	4034a6 <_vfiprintf_r+0x752>
  4030e4:	2e10      	cmp	r6, #16
  4030e6:	4d9a      	ldr	r5, [pc, #616]	; (403350 <_vfiprintf_r+0x5fc>)
  4030e8:	f340 8450 	ble.w	40398c <_vfiprintf_r+0xc38>
  4030ec:	46d4      	mov	ip, sl
  4030ee:	2710      	movs	r7, #16
  4030f0:	46a2      	mov	sl, r4
  4030f2:	9c06      	ldr	r4, [sp, #24]
  4030f4:	e007      	b.n	403106 <_vfiprintf_r+0x3b2>
  4030f6:	f101 0e02 	add.w	lr, r1, #2
  4030fa:	f10c 0c08 	add.w	ip, ip, #8
  4030fe:	4601      	mov	r1, r0
  403100:	3e10      	subs	r6, #16
  403102:	2e10      	cmp	r6, #16
  403104:	dd11      	ble.n	40312a <_vfiprintf_r+0x3d6>
  403106:	1c48      	adds	r0, r1, #1
  403108:	3210      	adds	r2, #16
  40310a:	2807      	cmp	r0, #7
  40310c:	9211      	str	r2, [sp, #68]	; 0x44
  40310e:	e88c 00a0 	stmia.w	ip, {r5, r7}
  403112:	9010      	str	r0, [sp, #64]	; 0x40
  403114:	ddef      	ble.n	4030f6 <_vfiprintf_r+0x3a2>
  403116:	2a00      	cmp	r2, #0
  403118:	f040 829d 	bne.w	403656 <_vfiprintf_r+0x902>
  40311c:	3e10      	subs	r6, #16
  40311e:	2e10      	cmp	r6, #16
  403120:	f04f 0e01 	mov.w	lr, #1
  403124:	4611      	mov	r1, r2
  403126:	46cc      	mov	ip, r9
  403128:	dced      	bgt.n	403106 <_vfiprintf_r+0x3b2>
  40312a:	4654      	mov	r4, sl
  40312c:	46e2      	mov	sl, ip
  40312e:	4432      	add	r2, r6
  403130:	f1be 0f07 	cmp.w	lr, #7
  403134:	9211      	str	r2, [sp, #68]	; 0x44
  403136:	e88a 0060 	stmia.w	sl, {r5, r6}
  40313a:	f8cd e040 	str.w	lr, [sp, #64]	; 0x40
  40313e:	f300 8369 	bgt.w	403814 <_vfiprintf_r+0xac0>
  403142:	f10a 0a08 	add.w	sl, sl, #8
  403146:	f10e 0001 	add.w	r0, lr, #1
  40314a:	4671      	mov	r1, lr
  40314c:	e1ab      	b.n	4034a6 <_vfiprintf_r+0x752>
  40314e:	9608      	str	r6, [sp, #32]
  403150:	f013 0220 	ands.w	r2, r3, #32
  403154:	f040 838c 	bne.w	403870 <_vfiprintf_r+0xb1c>
  403158:	f013 0110 	ands.w	r1, r3, #16
  40315c:	f040 831a 	bne.w	403794 <_vfiprintf_r+0xa40>
  403160:	f013 0240 	ands.w	r2, r3, #64	; 0x40
  403164:	f000 8316 	beq.w	403794 <_vfiprintf_r+0xa40>
  403168:	9807      	ldr	r0, [sp, #28]
  40316a:	460a      	mov	r2, r1
  40316c:	4601      	mov	r1, r0
  40316e:	3104      	adds	r1, #4
  403170:	8806      	ldrh	r6, [r0, #0]
  403172:	9107      	str	r1, [sp, #28]
  403174:	2700      	movs	r7, #0
  403176:	e720      	b.n	402fba <_vfiprintf_r+0x266>
  403178:	9608      	str	r6, [sp, #32]
  40317a:	f043 0310 	orr.w	r3, r3, #16
  40317e:	e7e7      	b.n	403150 <_vfiprintf_r+0x3fc>
  403180:	9608      	str	r6, [sp, #32]
  403182:	f043 0310 	orr.w	r3, r3, #16
  403186:	e708      	b.n	402f9a <_vfiprintf_r+0x246>
  403188:	f043 0380 	orr.w	r3, r3, #128	; 0x80
  40318c:	f898 2000 	ldrb.w	r2, [r8]
  403190:	e652      	b.n	402e38 <_vfiprintf_r+0xe4>
  403192:	f1a2 0130 	sub.w	r1, r2, #48	; 0x30
  403196:	2600      	movs	r6, #0
  403198:	f818 2b01 	ldrb.w	r2, [r8], #1
  40319c:	eb06 0686 	add.w	r6, r6, r6, lsl #2
  4031a0:	eb01 0646 	add.w	r6, r1, r6, lsl #1
  4031a4:	f1a2 0130 	sub.w	r1, r2, #48	; 0x30
  4031a8:	2909      	cmp	r1, #9
  4031aa:	d9f5      	bls.n	403198 <_vfiprintf_r+0x444>
  4031ac:	e646      	b.n	402e3c <_vfiprintf_r+0xe8>
  4031ae:	9608      	str	r6, [sp, #32]
  4031b0:	2800      	cmp	r0, #0
  4031b2:	f040 8408 	bne.w	4039c6 <_vfiprintf_r+0xc72>
  4031b6:	f043 0310 	orr.w	r3, r3, #16
  4031ba:	069e      	lsls	r6, r3, #26
  4031bc:	f100 834c 	bmi.w	403858 <_vfiprintf_r+0xb04>
  4031c0:	06dd      	lsls	r5, r3, #27
  4031c2:	f100 82f3 	bmi.w	4037ac <_vfiprintf_r+0xa58>
  4031c6:	0658      	lsls	r0, r3, #25
  4031c8:	f140 82f0 	bpl.w	4037ac <_vfiprintf_r+0xa58>
  4031cc:	9d07      	ldr	r5, [sp, #28]
  4031ce:	f9b5 6000 	ldrsh.w	r6, [r5]
  4031d2:	462a      	mov	r2, r5
  4031d4:	17f7      	asrs	r7, r6, #31
  4031d6:	3204      	adds	r2, #4
  4031d8:	4630      	mov	r0, r6
  4031da:	4639      	mov	r1, r7
  4031dc:	9207      	str	r2, [sp, #28]
  4031de:	2800      	cmp	r0, #0
  4031e0:	f171 0200 	sbcs.w	r2, r1, #0
  4031e4:	f2c0 835d 	blt.w	4038a2 <_vfiprintf_r+0xb4e>
  4031e8:	1c61      	adds	r1, r4, #1
  4031ea:	f89d 5037 	ldrb.w	r5, [sp, #55]	; 0x37
  4031ee:	f04f 0201 	mov.w	r2, #1
  4031f2:	f47f aeea 	bne.w	402fca <_vfiprintf_r+0x276>
  4031f6:	ea56 0107 	orrs.w	r1, r6, r7
  4031fa:	f000 824d 	beq.w	403698 <_vfiprintf_r+0x944>
  4031fe:	9302      	str	r3, [sp, #8]
  403200:	2a01      	cmp	r2, #1
  403202:	f000 828c 	beq.w	40371e <_vfiprintf_r+0x9ca>
  403206:	2a02      	cmp	r2, #2
  403208:	f040 825c 	bne.w	4036c4 <_vfiprintf_r+0x970>
  40320c:	980b      	ldr	r0, [sp, #44]	; 0x2c
  40320e:	46cb      	mov	fp, r9
  403210:	0933      	lsrs	r3, r6, #4
  403212:	f006 010f 	and.w	r1, r6, #15
  403216:	ea43 7307 	orr.w	r3, r3, r7, lsl #28
  40321a:	093a      	lsrs	r2, r7, #4
  40321c:	461e      	mov	r6, r3
  40321e:	4617      	mov	r7, r2
  403220:	5c43      	ldrb	r3, [r0, r1]
  403222:	f80b 3d01 	strb.w	r3, [fp, #-1]!
  403226:	ea56 0307 	orrs.w	r3, r6, r7
  40322a:	d1f1      	bne.n	403210 <_vfiprintf_r+0x4bc>
  40322c:	eba9 030b 	sub.w	r3, r9, fp
  403230:	9305      	str	r3, [sp, #20]
  403232:	e6e1      	b.n	402ff8 <_vfiprintf_r+0x2a4>
  403234:	2800      	cmp	r0, #0
  403236:	f040 83c0 	bne.w	4039ba <_vfiprintf_r+0xc66>
  40323a:	0699      	lsls	r1, r3, #26
  40323c:	f100 8367 	bmi.w	40390e <_vfiprintf_r+0xbba>
  403240:	06da      	lsls	r2, r3, #27
  403242:	f100 80f1 	bmi.w	403428 <_vfiprintf_r+0x6d4>
  403246:	065b      	lsls	r3, r3, #25
  403248:	f140 80ee 	bpl.w	403428 <_vfiprintf_r+0x6d4>
  40324c:	9a07      	ldr	r2, [sp, #28]
  40324e:	6813      	ldr	r3, [r2, #0]
  403250:	3204      	adds	r2, #4
  403252:	9207      	str	r2, [sp, #28]
  403254:	f8bd 200c 	ldrh.w	r2, [sp, #12]
  403258:	801a      	strh	r2, [r3, #0]
  40325a:	e5b8      	b.n	402dce <_vfiprintf_r+0x7a>
  40325c:	9807      	ldr	r0, [sp, #28]
  40325e:	4a3d      	ldr	r2, [pc, #244]	; (403354 <_vfiprintf_r+0x600>)
  403260:	9608      	str	r6, [sp, #32]
  403262:	920b      	str	r2, [sp, #44]	; 0x2c
  403264:	6806      	ldr	r6, [r0, #0]
  403266:	2278      	movs	r2, #120	; 0x78
  403268:	2130      	movs	r1, #48	; 0x30
  40326a:	3004      	adds	r0, #4
  40326c:	f88d 2039 	strb.w	r2, [sp, #57]	; 0x39
  403270:	f043 0302 	orr.w	r3, r3, #2
  403274:	9007      	str	r0, [sp, #28]
  403276:	2700      	movs	r7, #0
  403278:	f88d 1038 	strb.w	r1, [sp, #56]	; 0x38
  40327c:	2202      	movs	r2, #2
  40327e:	e69c      	b.n	402fba <_vfiprintf_r+0x266>
  403280:	9608      	str	r6, [sp, #32]
  403282:	2800      	cmp	r0, #0
  403284:	d099      	beq.n	4031ba <_vfiprintf_r+0x466>
  403286:	f88d 5037 	strb.w	r5, [sp, #55]	; 0x37
  40328a:	e796      	b.n	4031ba <_vfiprintf_r+0x466>
  40328c:	f898 2000 	ldrb.w	r2, [r8]
  403290:	2d00      	cmp	r5, #0
  403292:	f47f add1 	bne.w	402e38 <_vfiprintf_r+0xe4>
  403296:	2001      	movs	r0, #1
  403298:	2520      	movs	r5, #32
  40329a:	e5cd      	b.n	402e38 <_vfiprintf_r+0xe4>
  40329c:	f043 0301 	orr.w	r3, r3, #1
  4032a0:	f898 2000 	ldrb.w	r2, [r8]
  4032a4:	e5c8      	b.n	402e38 <_vfiprintf_r+0xe4>
  4032a6:	9608      	str	r6, [sp, #32]
  4032a8:	2800      	cmp	r0, #0
  4032aa:	f040 8393 	bne.w	4039d4 <_vfiprintf_r+0xc80>
  4032ae:	4929      	ldr	r1, [pc, #164]	; (403354 <_vfiprintf_r+0x600>)
  4032b0:	910b      	str	r1, [sp, #44]	; 0x2c
  4032b2:	069f      	lsls	r7, r3, #26
  4032b4:	f100 82e8 	bmi.w	403888 <_vfiprintf_r+0xb34>
  4032b8:	9807      	ldr	r0, [sp, #28]
  4032ba:	06de      	lsls	r6, r3, #27
  4032bc:	4601      	mov	r1, r0
  4032be:	f100 8270 	bmi.w	4037a2 <_vfiprintf_r+0xa4e>
  4032c2:	065d      	lsls	r5, r3, #25
  4032c4:	f140 826d 	bpl.w	4037a2 <_vfiprintf_r+0xa4e>
  4032c8:	3104      	adds	r1, #4
  4032ca:	8806      	ldrh	r6, [r0, #0]
  4032cc:	9107      	str	r1, [sp, #28]
  4032ce:	2700      	movs	r7, #0
  4032d0:	07d8      	lsls	r0, r3, #31
  4032d2:	f140 8222 	bpl.w	40371a <_vfiprintf_r+0x9c6>
  4032d6:	ea56 0107 	orrs.w	r1, r6, r7
  4032da:	f000 821e 	beq.w	40371a <_vfiprintf_r+0x9c6>
  4032de:	2130      	movs	r1, #48	; 0x30
  4032e0:	f88d 2039 	strb.w	r2, [sp, #57]	; 0x39
  4032e4:	f043 0302 	orr.w	r3, r3, #2
  4032e8:	f88d 1038 	strb.w	r1, [sp, #56]	; 0x38
  4032ec:	2202      	movs	r2, #2
  4032ee:	e664      	b.n	402fba <_vfiprintf_r+0x266>
  4032f0:	9608      	str	r6, [sp, #32]
  4032f2:	2800      	cmp	r0, #0
  4032f4:	f040 836b 	bne.w	4039ce <_vfiprintf_r+0xc7a>
  4032f8:	4917      	ldr	r1, [pc, #92]	; (403358 <_vfiprintf_r+0x604>)
  4032fa:	910b      	str	r1, [sp, #44]	; 0x2c
  4032fc:	e7d9      	b.n	4032b2 <_vfiprintf_r+0x55e>
  4032fe:	9907      	ldr	r1, [sp, #28]
  403300:	9608      	str	r6, [sp, #32]
  403302:	680a      	ldr	r2, [r1, #0]
  403304:	f88d 2048 	strb.w	r2, [sp, #72]	; 0x48
  403308:	f04f 0000 	mov.w	r0, #0
  40330c:	460a      	mov	r2, r1
  40330e:	f88d 0037 	strb.w	r0, [sp, #55]	; 0x37
  403312:	3204      	adds	r2, #4
  403314:	2001      	movs	r0, #1
  403316:	9001      	str	r0, [sp, #4]
  403318:	9207      	str	r2, [sp, #28]
  40331a:	9005      	str	r0, [sp, #20]
  40331c:	f10d 0b48 	add.w	fp, sp, #72	; 0x48
  403320:	9302      	str	r3, [sp, #8]
  403322:	2400      	movs	r4, #0
  403324:	e670      	b.n	403008 <_vfiprintf_r+0x2b4>
  403326:	f043 0340 	orr.w	r3, r3, #64	; 0x40
  40332a:	f898 2000 	ldrb.w	r2, [r8]
  40332e:	e583      	b.n	402e38 <_vfiprintf_r+0xe4>
  403330:	f898 2000 	ldrb.w	r2, [r8]
  403334:	2a6c      	cmp	r2, #108	; 0x6c
  403336:	bf03      	ittte	eq
  403338:	f898 2001 	ldrbeq.w	r2, [r8, #1]
  40333c:	f043 0320 	orreq.w	r3, r3, #32
  403340:	f108 0801 	addeq.w	r8, r8, #1
  403344:	f043 0310 	orrne.w	r3, r3, #16
  403348:	e576      	b.n	402e38 <_vfiprintf_r+0xe4>
  40334a:	bf00      	nop
  40334c:	004099dc 	.word	0x004099dc
  403350:	004099ec 	.word	0x004099ec
  403354:	004099c0 	.word	0x004099c0
  403358:	004099ac 	.word	0x004099ac
  40335c:	9907      	ldr	r1, [sp, #28]
  40335e:	680e      	ldr	r6, [r1, #0]
  403360:	460a      	mov	r2, r1
  403362:	2e00      	cmp	r6, #0
  403364:	f102 0204 	add.w	r2, r2, #4
  403368:	f6ff ae0f 	blt.w	402f8a <_vfiprintf_r+0x236>
  40336c:	9207      	str	r2, [sp, #28]
  40336e:	f898 2000 	ldrb.w	r2, [r8]
  403372:	e561      	b.n	402e38 <_vfiprintf_r+0xe4>
  403374:	f898 2000 	ldrb.w	r2, [r8]
  403378:	2001      	movs	r0, #1
  40337a:	252b      	movs	r5, #43	; 0x2b
  40337c:	e55c      	b.n	402e38 <_vfiprintf_r+0xe4>
  40337e:	9907      	ldr	r1, [sp, #28]
  403380:	9608      	str	r6, [sp, #32]
  403382:	f8d1 b000 	ldr.w	fp, [r1]
  403386:	f04f 0200 	mov.w	r2, #0
  40338a:	f88d 2037 	strb.w	r2, [sp, #55]	; 0x37
  40338e:	1d0e      	adds	r6, r1, #4
  403390:	f1bb 0f00 	cmp.w	fp, #0
  403394:	f000 82e5 	beq.w	403962 <_vfiprintf_r+0xc0e>
  403398:	1c67      	adds	r7, r4, #1
  40339a:	f000 82c4 	beq.w	403926 <_vfiprintf_r+0xbd2>
  40339e:	4622      	mov	r2, r4
  4033a0:	2100      	movs	r1, #0
  4033a2:	4658      	mov	r0, fp
  4033a4:	9301      	str	r3, [sp, #4]
  4033a6:	f003 fbe3 	bl	406b70 <memchr>
  4033aa:	9b01      	ldr	r3, [sp, #4]
  4033ac:	2800      	cmp	r0, #0
  4033ae:	f000 82e5 	beq.w	40397c <_vfiprintf_r+0xc28>
  4033b2:	eba0 020b 	sub.w	r2, r0, fp
  4033b6:	9205      	str	r2, [sp, #20]
  4033b8:	9607      	str	r6, [sp, #28]
  4033ba:	9302      	str	r3, [sp, #8]
  4033bc:	f89d 5037 	ldrb.w	r5, [sp, #55]	; 0x37
  4033c0:	2400      	movs	r4, #0
  4033c2:	e619      	b.n	402ff8 <_vfiprintf_r+0x2a4>
  4033c4:	f898 2000 	ldrb.w	r2, [r8]
  4033c8:	2a2a      	cmp	r2, #42	; 0x2a
  4033ca:	f108 0701 	add.w	r7, r8, #1
  4033ce:	f000 82e9 	beq.w	4039a4 <_vfiprintf_r+0xc50>
  4033d2:	f1a2 0130 	sub.w	r1, r2, #48	; 0x30
  4033d6:	2909      	cmp	r1, #9
  4033d8:	46b8      	mov	r8, r7
  4033da:	f04f 0400 	mov.w	r4, #0
  4033de:	f63f ad2d 	bhi.w	402e3c <_vfiprintf_r+0xe8>
  4033e2:	f818 2b01 	ldrb.w	r2, [r8], #1
  4033e6:	eb04 0484 	add.w	r4, r4, r4, lsl #2
  4033ea:	eb01 0444 	add.w	r4, r1, r4, lsl #1
  4033ee:	f1a2 0130 	sub.w	r1, r2, #48	; 0x30
  4033f2:	2909      	cmp	r1, #9
  4033f4:	d9f5      	bls.n	4033e2 <_vfiprintf_r+0x68e>
  4033f6:	e521      	b.n	402e3c <_vfiprintf_r+0xe8>
  4033f8:	f043 0320 	orr.w	r3, r3, #32
  4033fc:	f898 2000 	ldrb.w	r2, [r8]
  403400:	e51a      	b.n	402e38 <_vfiprintf_r+0xe4>
  403402:	9608      	str	r6, [sp, #32]
  403404:	2800      	cmp	r0, #0
  403406:	f040 82db 	bne.w	4039c0 <_vfiprintf_r+0xc6c>
  40340a:	2a00      	cmp	r2, #0
  40340c:	f000 80e7 	beq.w	4035de <_vfiprintf_r+0x88a>
  403410:	2101      	movs	r1, #1
  403412:	f88d 2048 	strb.w	r2, [sp, #72]	; 0x48
  403416:	f04f 0200 	mov.w	r2, #0
  40341a:	9101      	str	r1, [sp, #4]
  40341c:	f88d 2037 	strb.w	r2, [sp, #55]	; 0x37
  403420:	9105      	str	r1, [sp, #20]
  403422:	f10d 0b48 	add.w	fp, sp, #72	; 0x48
  403426:	e77b      	b.n	403320 <_vfiprintf_r+0x5cc>
  403428:	9a07      	ldr	r2, [sp, #28]
  40342a:	6813      	ldr	r3, [r2, #0]
  40342c:	3204      	adds	r2, #4
  40342e:	9207      	str	r2, [sp, #28]
  403430:	9a03      	ldr	r2, [sp, #12]
  403432:	601a      	str	r2, [r3, #0]
  403434:	e4cb      	b.n	402dce <_vfiprintf_r+0x7a>
  403436:	aa0f      	add	r2, sp, #60	; 0x3c
  403438:	9904      	ldr	r1, [sp, #16]
  40343a:	4620      	mov	r0, r4
  40343c:	f7ff fc40 	bl	402cc0 <__sprint_r.part.0>
  403440:	2800      	cmp	r0, #0
  403442:	f040 8139 	bne.w	4036b8 <_vfiprintf_r+0x964>
  403446:	9910      	ldr	r1, [sp, #64]	; 0x40
  403448:	9a11      	ldr	r2, [sp, #68]	; 0x44
  40344a:	f101 0c01 	add.w	ip, r1, #1
  40344e:	46ce      	mov	lr, r9
  403450:	e5ff      	b.n	403052 <_vfiprintf_r+0x2fe>
  403452:	9910      	ldr	r1, [sp, #64]	; 0x40
  403454:	9a11      	ldr	r2, [sp, #68]	; 0x44
  403456:	1c48      	adds	r0, r1, #1
  403458:	f89d 5037 	ldrb.w	r5, [sp, #55]	; 0x37
  40345c:	2d00      	cmp	r5, #0
  40345e:	f43f ae22 	beq.w	4030a6 <_vfiprintf_r+0x352>
  403462:	3201      	adds	r2, #1
  403464:	f10d 0537 	add.w	r5, sp, #55	; 0x37
  403468:	2101      	movs	r1, #1
  40346a:	2807      	cmp	r0, #7
  40346c:	9211      	str	r2, [sp, #68]	; 0x44
  40346e:	9010      	str	r0, [sp, #64]	; 0x40
  403470:	f8ca 5000 	str.w	r5, [sl]
  403474:	f8ca 1004 	str.w	r1, [sl, #4]
  403478:	f340 8108 	ble.w	40368c <_vfiprintf_r+0x938>
  40347c:	2a00      	cmp	r2, #0
  40347e:	f040 81bc 	bne.w	4037fa <_vfiprintf_r+0xaa6>
  403482:	9b09      	ldr	r3, [sp, #36]	; 0x24
  403484:	2b00      	cmp	r3, #0
  403486:	f43f ae1f 	beq.w	4030c8 <_vfiprintf_r+0x374>
  40348a:	ab0e      	add	r3, sp, #56	; 0x38
  40348c:	2202      	movs	r2, #2
  40348e:	4608      	mov	r0, r1
  403490:	931c      	str	r3, [sp, #112]	; 0x70
  403492:	921d      	str	r2, [sp, #116]	; 0x74
  403494:	46ca      	mov	sl, r9
  403496:	4601      	mov	r1, r0
  403498:	f10a 0a08 	add.w	sl, sl, #8
  40349c:	3001      	adds	r0, #1
  40349e:	9b0a      	ldr	r3, [sp, #40]	; 0x28
  4034a0:	2b80      	cmp	r3, #128	; 0x80
  4034a2:	f43f ae19 	beq.w	4030d8 <_vfiprintf_r+0x384>
  4034a6:	9b05      	ldr	r3, [sp, #20]
  4034a8:	1ae4      	subs	r4, r4, r3
  4034aa:	2c00      	cmp	r4, #0
  4034ac:	dd2e      	ble.n	40350c <_vfiprintf_r+0x7b8>
  4034ae:	2c10      	cmp	r4, #16
  4034b0:	4db3      	ldr	r5, [pc, #716]	; (403780 <_vfiprintf_r+0xa2c>)
  4034b2:	dd1e      	ble.n	4034f2 <_vfiprintf_r+0x79e>
  4034b4:	46d6      	mov	lr, sl
  4034b6:	2610      	movs	r6, #16
  4034b8:	9f06      	ldr	r7, [sp, #24]
  4034ba:	f8dd a010 	ldr.w	sl, [sp, #16]
  4034be:	e006      	b.n	4034ce <_vfiprintf_r+0x77a>
  4034c0:	1c88      	adds	r0, r1, #2
  4034c2:	f10e 0e08 	add.w	lr, lr, #8
  4034c6:	4619      	mov	r1, r3
  4034c8:	3c10      	subs	r4, #16
  4034ca:	2c10      	cmp	r4, #16
  4034cc:	dd10      	ble.n	4034f0 <_vfiprintf_r+0x79c>
  4034ce:	1c4b      	adds	r3, r1, #1
  4034d0:	3210      	adds	r2, #16
  4034d2:	2b07      	cmp	r3, #7
  4034d4:	9211      	str	r2, [sp, #68]	; 0x44
  4034d6:	e88e 0060 	stmia.w	lr, {r5, r6}
  4034da:	9310      	str	r3, [sp, #64]	; 0x40
  4034dc:	ddf0      	ble.n	4034c0 <_vfiprintf_r+0x76c>
  4034de:	2a00      	cmp	r2, #0
  4034e0:	d165      	bne.n	4035ae <_vfiprintf_r+0x85a>
  4034e2:	3c10      	subs	r4, #16
  4034e4:	2c10      	cmp	r4, #16
  4034e6:	f04f 0001 	mov.w	r0, #1
  4034ea:	4611      	mov	r1, r2
  4034ec:	46ce      	mov	lr, r9
  4034ee:	dcee      	bgt.n	4034ce <_vfiprintf_r+0x77a>
  4034f0:	46f2      	mov	sl, lr
  4034f2:	4422      	add	r2, r4
  4034f4:	2807      	cmp	r0, #7
  4034f6:	9211      	str	r2, [sp, #68]	; 0x44
  4034f8:	f8ca 5000 	str.w	r5, [sl]
  4034fc:	f8ca 4004 	str.w	r4, [sl, #4]
  403500:	9010      	str	r0, [sp, #64]	; 0x40
  403502:	f300 8085 	bgt.w	403610 <_vfiprintf_r+0x8bc>
  403506:	f10a 0a08 	add.w	sl, sl, #8
  40350a:	3001      	adds	r0, #1
  40350c:	9905      	ldr	r1, [sp, #20]
  40350e:	f8ca b000 	str.w	fp, [sl]
  403512:	440a      	add	r2, r1
  403514:	2807      	cmp	r0, #7
  403516:	9211      	str	r2, [sp, #68]	; 0x44
  403518:	f8ca 1004 	str.w	r1, [sl, #4]
  40351c:	9010      	str	r0, [sp, #64]	; 0x40
  40351e:	f340 8082 	ble.w	403626 <_vfiprintf_r+0x8d2>
  403522:	2a00      	cmp	r2, #0
  403524:	f040 8118 	bne.w	403758 <_vfiprintf_r+0xa04>
  403528:	9b02      	ldr	r3, [sp, #8]
  40352a:	9210      	str	r2, [sp, #64]	; 0x40
  40352c:	0758      	lsls	r0, r3, #29
  40352e:	d535      	bpl.n	40359c <_vfiprintf_r+0x848>
  403530:	9b08      	ldr	r3, [sp, #32]
  403532:	9901      	ldr	r1, [sp, #4]
  403534:	1a5c      	subs	r4, r3, r1
  403536:	2c00      	cmp	r4, #0
  403538:	f340 80e7 	ble.w	40370a <_vfiprintf_r+0x9b6>
  40353c:	46ca      	mov	sl, r9
  40353e:	2c10      	cmp	r4, #16
  403540:	f340 8218 	ble.w	403974 <_vfiprintf_r+0xc20>
  403544:	9910      	ldr	r1, [sp, #64]	; 0x40
  403546:	4e8f      	ldr	r6, [pc, #572]	; (403784 <_vfiprintf_r+0xa30>)
  403548:	9f06      	ldr	r7, [sp, #24]
  40354a:	f8dd b010 	ldr.w	fp, [sp, #16]
  40354e:	2510      	movs	r5, #16
  403550:	e006      	b.n	403560 <_vfiprintf_r+0x80c>
  403552:	1c88      	adds	r0, r1, #2
  403554:	f10a 0a08 	add.w	sl, sl, #8
  403558:	4619      	mov	r1, r3
  40355a:	3c10      	subs	r4, #16
  40355c:	2c10      	cmp	r4, #16
  40355e:	dd11      	ble.n	403584 <_vfiprintf_r+0x830>
  403560:	1c4b      	adds	r3, r1, #1
  403562:	3210      	adds	r2, #16
  403564:	2b07      	cmp	r3, #7
  403566:	9211      	str	r2, [sp, #68]	; 0x44
  403568:	f8ca 6000 	str.w	r6, [sl]
  40356c:	f8ca 5004 	str.w	r5, [sl, #4]
  403570:	9310      	str	r3, [sp, #64]	; 0x40
  403572:	ddee      	ble.n	403552 <_vfiprintf_r+0x7fe>
  403574:	bb42      	cbnz	r2, 4035c8 <_vfiprintf_r+0x874>
  403576:	3c10      	subs	r4, #16
  403578:	2c10      	cmp	r4, #16
  40357a:	f04f 0001 	mov.w	r0, #1
  40357e:	4611      	mov	r1, r2
  403580:	46ca      	mov	sl, r9
  403582:	dced      	bgt.n	403560 <_vfiprintf_r+0x80c>
  403584:	4422      	add	r2, r4
  403586:	2807      	cmp	r0, #7
  403588:	9211      	str	r2, [sp, #68]	; 0x44
  40358a:	f8ca 6000 	str.w	r6, [sl]
  40358e:	f8ca 4004 	str.w	r4, [sl, #4]
  403592:	9010      	str	r0, [sp, #64]	; 0x40
  403594:	dd51      	ble.n	40363a <_vfiprintf_r+0x8e6>
  403596:	2a00      	cmp	r2, #0
  403598:	f040 819b 	bne.w	4038d2 <_vfiprintf_r+0xb7e>
  40359c:	9b03      	ldr	r3, [sp, #12]
  40359e:	9a08      	ldr	r2, [sp, #32]
  4035a0:	9901      	ldr	r1, [sp, #4]
  4035a2:	428a      	cmp	r2, r1
  4035a4:	bfac      	ite	ge
  4035a6:	189b      	addge	r3, r3, r2
  4035a8:	185b      	addlt	r3, r3, r1
  4035aa:	9303      	str	r3, [sp, #12]
  4035ac:	e04e      	b.n	40364c <_vfiprintf_r+0x8f8>
  4035ae:	aa0f      	add	r2, sp, #60	; 0x3c
  4035b0:	4651      	mov	r1, sl
  4035b2:	4638      	mov	r0, r7
  4035b4:	f7ff fb84 	bl	402cc0 <__sprint_r.part.0>
  4035b8:	2800      	cmp	r0, #0
  4035ba:	f040 813f 	bne.w	40383c <_vfiprintf_r+0xae8>
  4035be:	9910      	ldr	r1, [sp, #64]	; 0x40
  4035c0:	9a11      	ldr	r2, [sp, #68]	; 0x44
  4035c2:	1c48      	adds	r0, r1, #1
  4035c4:	46ce      	mov	lr, r9
  4035c6:	e77f      	b.n	4034c8 <_vfiprintf_r+0x774>
  4035c8:	aa0f      	add	r2, sp, #60	; 0x3c
  4035ca:	4659      	mov	r1, fp
  4035cc:	4638      	mov	r0, r7
  4035ce:	f7ff fb77 	bl	402cc0 <__sprint_r.part.0>
  4035d2:	b960      	cbnz	r0, 4035ee <_vfiprintf_r+0x89a>
  4035d4:	9910      	ldr	r1, [sp, #64]	; 0x40
  4035d6:	9a11      	ldr	r2, [sp, #68]	; 0x44
  4035d8:	1c48      	adds	r0, r1, #1
  4035da:	46ca      	mov	sl, r9
  4035dc:	e7bd      	b.n	40355a <_vfiprintf_r+0x806>
  4035de:	9b11      	ldr	r3, [sp, #68]	; 0x44
  4035e0:	f8dd b010 	ldr.w	fp, [sp, #16]
  4035e4:	2b00      	cmp	r3, #0
  4035e6:	f040 81d4 	bne.w	403992 <_vfiprintf_r+0xc3e>
  4035ea:	2300      	movs	r3, #0
  4035ec:	9310      	str	r3, [sp, #64]	; 0x40
  4035ee:	f8db 3064 	ldr.w	r3, [fp, #100]	; 0x64
  4035f2:	f013 0f01 	tst.w	r3, #1
  4035f6:	f8bb 300c 	ldrh.w	r3, [fp, #12]
  4035fa:	d102      	bne.n	403602 <_vfiprintf_r+0x8ae>
  4035fc:	059a      	lsls	r2, r3, #22
  4035fe:	f140 80de 	bpl.w	4037be <_vfiprintf_r+0xa6a>
  403602:	065b      	lsls	r3, r3, #25
  403604:	f53f acb2 	bmi.w	402f6c <_vfiprintf_r+0x218>
  403608:	9803      	ldr	r0, [sp, #12]
  40360a:	b02d      	add	sp, #180	; 0xb4
  40360c:	e8bd 8ff0 	ldmia.w	sp!, {r4, r5, r6, r7, r8, r9, sl, fp, pc}
  403610:	2a00      	cmp	r2, #0
  403612:	f040 8106 	bne.w	403822 <_vfiprintf_r+0xace>
  403616:	9a05      	ldr	r2, [sp, #20]
  403618:	921d      	str	r2, [sp, #116]	; 0x74
  40361a:	2301      	movs	r3, #1
  40361c:	9211      	str	r2, [sp, #68]	; 0x44
  40361e:	f8cd b070 	str.w	fp, [sp, #112]	; 0x70
  403622:	9310      	str	r3, [sp, #64]	; 0x40
  403624:	46ca      	mov	sl, r9
  403626:	f10a 0a08 	add.w	sl, sl, #8
  40362a:	9b02      	ldr	r3, [sp, #8]
  40362c:	0759      	lsls	r1, r3, #29
  40362e:	d504      	bpl.n	40363a <_vfiprintf_r+0x8e6>
  403630:	9b08      	ldr	r3, [sp, #32]
  403632:	9901      	ldr	r1, [sp, #4]
  403634:	1a5c      	subs	r4, r3, r1
  403636:	2c00      	cmp	r4, #0
  403638:	dc81      	bgt.n	40353e <_vfiprintf_r+0x7ea>
  40363a:	9b03      	ldr	r3, [sp, #12]
  40363c:	9908      	ldr	r1, [sp, #32]
  40363e:	9801      	ldr	r0, [sp, #4]
  403640:	4281      	cmp	r1, r0
  403642:	bfac      	ite	ge
  403644:	185b      	addge	r3, r3, r1
  403646:	181b      	addlt	r3, r3, r0
  403648:	9303      	str	r3, [sp, #12]
  40364a:	bb72      	cbnz	r2, 4036aa <_vfiprintf_r+0x956>
  40364c:	2300      	movs	r3, #0
  40364e:	9310      	str	r3, [sp, #64]	; 0x40
  403650:	46ca      	mov	sl, r9
  403652:	f7ff bbbc 	b.w	402dce <_vfiprintf_r+0x7a>
  403656:	aa0f      	add	r2, sp, #60	; 0x3c
  403658:	9904      	ldr	r1, [sp, #16]
  40365a:	4620      	mov	r0, r4
  40365c:	f7ff fb30 	bl	402cc0 <__sprint_r.part.0>
  403660:	bb50      	cbnz	r0, 4036b8 <_vfiprintf_r+0x964>
  403662:	9910      	ldr	r1, [sp, #64]	; 0x40
  403664:	9a11      	ldr	r2, [sp, #68]	; 0x44
  403666:	f101 0e01 	add.w	lr, r1, #1
  40366a:	46cc      	mov	ip, r9
  40366c:	e548      	b.n	403100 <_vfiprintf_r+0x3ac>
  40366e:	2a00      	cmp	r2, #0
  403670:	f040 8140 	bne.w	4038f4 <_vfiprintf_r+0xba0>
  403674:	f89d 1037 	ldrb.w	r1, [sp, #55]	; 0x37
  403678:	2900      	cmp	r1, #0
  40367a:	f000 811b 	beq.w	4038b4 <_vfiprintf_r+0xb60>
  40367e:	2201      	movs	r2, #1
  403680:	f10d 0137 	add.w	r1, sp, #55	; 0x37
  403684:	4610      	mov	r0, r2
  403686:	921d      	str	r2, [sp, #116]	; 0x74
  403688:	911c      	str	r1, [sp, #112]	; 0x70
  40368a:	46ca      	mov	sl, r9
  40368c:	4601      	mov	r1, r0
  40368e:	f10a 0a08 	add.w	sl, sl, #8
  403692:	3001      	adds	r0, #1
  403694:	e507      	b.n	4030a6 <_vfiprintf_r+0x352>
  403696:	9b02      	ldr	r3, [sp, #8]
  403698:	2a01      	cmp	r2, #1
  40369a:	f000 8098 	beq.w	4037ce <_vfiprintf_r+0xa7a>
  40369e:	2a02      	cmp	r2, #2
  4036a0:	d10d      	bne.n	4036be <_vfiprintf_r+0x96a>
  4036a2:	9302      	str	r3, [sp, #8]
  4036a4:	2600      	movs	r6, #0
  4036a6:	2700      	movs	r7, #0
  4036a8:	e5b0      	b.n	40320c <_vfiprintf_r+0x4b8>
  4036aa:	aa0f      	add	r2, sp, #60	; 0x3c
  4036ac:	9904      	ldr	r1, [sp, #16]
  4036ae:	9806      	ldr	r0, [sp, #24]
  4036b0:	f7ff fb06 	bl	402cc0 <__sprint_r.part.0>
  4036b4:	2800      	cmp	r0, #0
  4036b6:	d0c9      	beq.n	40364c <_vfiprintf_r+0x8f8>
  4036b8:	f8dd b010 	ldr.w	fp, [sp, #16]
  4036bc:	e797      	b.n	4035ee <_vfiprintf_r+0x89a>
  4036be:	9302      	str	r3, [sp, #8]
  4036c0:	2600      	movs	r6, #0
  4036c2:	2700      	movs	r7, #0
  4036c4:	4649      	mov	r1, r9
  4036c6:	e000      	b.n	4036ca <_vfiprintf_r+0x976>
  4036c8:	4659      	mov	r1, fp
  4036ca:	08f2      	lsrs	r2, r6, #3
  4036cc:	ea42 7247 	orr.w	r2, r2, r7, lsl #29
  4036d0:	08f8      	lsrs	r0, r7, #3
  4036d2:	f006 0307 	and.w	r3, r6, #7
  4036d6:	4607      	mov	r7, r0
  4036d8:	4616      	mov	r6, r2
  4036da:	3330      	adds	r3, #48	; 0x30
  4036dc:	ea56 0207 	orrs.w	r2, r6, r7
  4036e0:	f801 3c01 	strb.w	r3, [r1, #-1]
  4036e4:	f101 3bff 	add.w	fp, r1, #4294967295
  4036e8:	d1ee      	bne.n	4036c8 <_vfiprintf_r+0x974>
  4036ea:	9a02      	ldr	r2, [sp, #8]
  4036ec:	07d6      	lsls	r6, r2, #31
  4036ee:	f57f ad9d 	bpl.w	40322c <_vfiprintf_r+0x4d8>
  4036f2:	2b30      	cmp	r3, #48	; 0x30
  4036f4:	f43f ad9a 	beq.w	40322c <_vfiprintf_r+0x4d8>
  4036f8:	3902      	subs	r1, #2
  4036fa:	2330      	movs	r3, #48	; 0x30
  4036fc:	f80b 3c01 	strb.w	r3, [fp, #-1]
  403700:	eba9 0301 	sub.w	r3, r9, r1
  403704:	9305      	str	r3, [sp, #20]
  403706:	468b      	mov	fp, r1
  403708:	e476      	b.n	402ff8 <_vfiprintf_r+0x2a4>
  40370a:	9b03      	ldr	r3, [sp, #12]
  40370c:	9a08      	ldr	r2, [sp, #32]
  40370e:	428a      	cmp	r2, r1
  403710:	bfac      	ite	ge
  403712:	189b      	addge	r3, r3, r2
  403714:	185b      	addlt	r3, r3, r1
  403716:	9303      	str	r3, [sp, #12]
  403718:	e798      	b.n	40364c <_vfiprintf_r+0x8f8>
  40371a:	2202      	movs	r2, #2
  40371c:	e44d      	b.n	402fba <_vfiprintf_r+0x266>
  40371e:	2f00      	cmp	r7, #0
  403720:	bf08      	it	eq
  403722:	2e0a      	cmpeq	r6, #10
  403724:	d352      	bcc.n	4037cc <_vfiprintf_r+0xa78>
  403726:	46cb      	mov	fp, r9
  403728:	4630      	mov	r0, r6
  40372a:	4639      	mov	r1, r7
  40372c:	220a      	movs	r2, #10
  40372e:	2300      	movs	r3, #0
  403730:	f004 ff02 	bl	408538 <__aeabi_uldivmod>
  403734:	3230      	adds	r2, #48	; 0x30
  403736:	f80b 2d01 	strb.w	r2, [fp, #-1]!
  40373a:	4630      	mov	r0, r6
  40373c:	4639      	mov	r1, r7
  40373e:	2300      	movs	r3, #0
  403740:	220a      	movs	r2, #10
  403742:	f004 fef9 	bl	408538 <__aeabi_uldivmod>
  403746:	4606      	mov	r6, r0
  403748:	460f      	mov	r7, r1
  40374a:	ea56 0307 	orrs.w	r3, r6, r7
  40374e:	d1eb      	bne.n	403728 <_vfiprintf_r+0x9d4>
  403750:	e56c      	b.n	40322c <_vfiprintf_r+0x4d8>
  403752:	9405      	str	r4, [sp, #20]
  403754:	46cb      	mov	fp, r9
  403756:	e44f      	b.n	402ff8 <_vfiprintf_r+0x2a4>
  403758:	aa0f      	add	r2, sp, #60	; 0x3c
  40375a:	9904      	ldr	r1, [sp, #16]
  40375c:	9806      	ldr	r0, [sp, #24]
  40375e:	f7ff faaf 	bl	402cc0 <__sprint_r.part.0>
  403762:	2800      	cmp	r0, #0
  403764:	d1a8      	bne.n	4036b8 <_vfiprintf_r+0x964>
  403766:	9a11      	ldr	r2, [sp, #68]	; 0x44
  403768:	46ca      	mov	sl, r9
  40376a:	e75e      	b.n	40362a <_vfiprintf_r+0x8d6>
  40376c:	aa0f      	add	r2, sp, #60	; 0x3c
  40376e:	9904      	ldr	r1, [sp, #16]
  403770:	9806      	ldr	r0, [sp, #24]
  403772:	f7ff faa5 	bl	402cc0 <__sprint_r.part.0>
  403776:	2800      	cmp	r0, #0
  403778:	d19e      	bne.n	4036b8 <_vfiprintf_r+0x964>
  40377a:	46ca      	mov	sl, r9
  40377c:	f7ff bbc0 	b.w	402f00 <_vfiprintf_r+0x1ac>
  403780:	004099ec 	.word	0x004099ec
  403784:	004099dc 	.word	0x004099dc
  403788:	3104      	adds	r1, #4
  40378a:	6816      	ldr	r6, [r2, #0]
  40378c:	9107      	str	r1, [sp, #28]
  40378e:	2201      	movs	r2, #1
  403790:	2700      	movs	r7, #0
  403792:	e412      	b.n	402fba <_vfiprintf_r+0x266>
  403794:	9807      	ldr	r0, [sp, #28]
  403796:	4601      	mov	r1, r0
  403798:	3104      	adds	r1, #4
  40379a:	6806      	ldr	r6, [r0, #0]
  40379c:	9107      	str	r1, [sp, #28]
  40379e:	2700      	movs	r7, #0
  4037a0:	e40b      	b.n	402fba <_vfiprintf_r+0x266>
  4037a2:	680e      	ldr	r6, [r1, #0]
  4037a4:	3104      	adds	r1, #4
  4037a6:	9107      	str	r1, [sp, #28]
  4037a8:	2700      	movs	r7, #0
  4037aa:	e591      	b.n	4032d0 <_vfiprintf_r+0x57c>
  4037ac:	9907      	ldr	r1, [sp, #28]
  4037ae:	680e      	ldr	r6, [r1, #0]
  4037b0:	460a      	mov	r2, r1
  4037b2:	17f7      	asrs	r7, r6, #31
  4037b4:	3204      	adds	r2, #4
  4037b6:	9207      	str	r2, [sp, #28]
  4037b8:	4630      	mov	r0, r6
  4037ba:	4639      	mov	r1, r7
  4037bc:	e50f      	b.n	4031de <_vfiprintf_r+0x48a>
  4037be:	f8db 0058 	ldr.w	r0, [fp, #88]	; 0x58
  4037c2:	f003 f943 	bl	406a4c <__retarget_lock_release_recursive>
  4037c6:	f8bb 300c 	ldrh.w	r3, [fp, #12]
  4037ca:	e71a      	b.n	403602 <_vfiprintf_r+0x8ae>
  4037cc:	9b02      	ldr	r3, [sp, #8]
  4037ce:	9302      	str	r3, [sp, #8]
  4037d0:	f10d 0bb0 	add.w	fp, sp, #176	; 0xb0
  4037d4:	3630      	adds	r6, #48	; 0x30
  4037d6:	2301      	movs	r3, #1
  4037d8:	f80b 6d41 	strb.w	r6, [fp, #-65]!
  4037dc:	9305      	str	r3, [sp, #20]
  4037de:	e40b      	b.n	402ff8 <_vfiprintf_r+0x2a4>
  4037e0:	aa0f      	add	r2, sp, #60	; 0x3c
  4037e2:	9904      	ldr	r1, [sp, #16]
  4037e4:	9806      	ldr	r0, [sp, #24]
  4037e6:	f7ff fa6b 	bl	402cc0 <__sprint_r.part.0>
  4037ea:	2800      	cmp	r0, #0
  4037ec:	f47f af64 	bne.w	4036b8 <_vfiprintf_r+0x964>
  4037f0:	9910      	ldr	r1, [sp, #64]	; 0x40
  4037f2:	9a11      	ldr	r2, [sp, #68]	; 0x44
  4037f4:	1c48      	adds	r0, r1, #1
  4037f6:	46ca      	mov	sl, r9
  4037f8:	e651      	b.n	40349e <_vfiprintf_r+0x74a>
  4037fa:	aa0f      	add	r2, sp, #60	; 0x3c
  4037fc:	9904      	ldr	r1, [sp, #16]
  4037fe:	9806      	ldr	r0, [sp, #24]
  403800:	f7ff fa5e 	bl	402cc0 <__sprint_r.part.0>
  403804:	2800      	cmp	r0, #0
  403806:	f47f af57 	bne.w	4036b8 <_vfiprintf_r+0x964>
  40380a:	9910      	ldr	r1, [sp, #64]	; 0x40
  40380c:	9a11      	ldr	r2, [sp, #68]	; 0x44
  40380e:	1c48      	adds	r0, r1, #1
  403810:	46ca      	mov	sl, r9
  403812:	e448      	b.n	4030a6 <_vfiprintf_r+0x352>
  403814:	2a00      	cmp	r2, #0
  403816:	f040 8091 	bne.w	40393c <_vfiprintf_r+0xbe8>
  40381a:	2001      	movs	r0, #1
  40381c:	4611      	mov	r1, r2
  40381e:	46ca      	mov	sl, r9
  403820:	e641      	b.n	4034a6 <_vfiprintf_r+0x752>
  403822:	aa0f      	add	r2, sp, #60	; 0x3c
  403824:	9904      	ldr	r1, [sp, #16]
  403826:	9806      	ldr	r0, [sp, #24]
  403828:	f7ff fa4a 	bl	402cc0 <__sprint_r.part.0>
  40382c:	2800      	cmp	r0, #0
  40382e:	f47f af43 	bne.w	4036b8 <_vfiprintf_r+0x964>
  403832:	9810      	ldr	r0, [sp, #64]	; 0x40
  403834:	9a11      	ldr	r2, [sp, #68]	; 0x44
  403836:	3001      	adds	r0, #1
  403838:	46ca      	mov	sl, r9
  40383a:	e667      	b.n	40350c <_vfiprintf_r+0x7b8>
  40383c:	46d3      	mov	fp, sl
  40383e:	e6d6      	b.n	4035ee <_vfiprintf_r+0x89a>
  403840:	9e07      	ldr	r6, [sp, #28]
  403842:	3607      	adds	r6, #7
  403844:	f026 0207 	bic.w	r2, r6, #7
  403848:	f102 0108 	add.w	r1, r2, #8
  40384c:	e9d2 6700 	ldrd	r6, r7, [r2]
  403850:	9107      	str	r1, [sp, #28]
  403852:	2201      	movs	r2, #1
  403854:	f7ff bbb1 	b.w	402fba <_vfiprintf_r+0x266>
  403858:	9e07      	ldr	r6, [sp, #28]
  40385a:	3607      	adds	r6, #7
  40385c:	f026 0607 	bic.w	r6, r6, #7
  403860:	e9d6 0100 	ldrd	r0, r1, [r6]
  403864:	f106 0208 	add.w	r2, r6, #8
  403868:	9207      	str	r2, [sp, #28]
  40386a:	4606      	mov	r6, r0
  40386c:	460f      	mov	r7, r1
  40386e:	e4b6      	b.n	4031de <_vfiprintf_r+0x48a>
  403870:	9e07      	ldr	r6, [sp, #28]
  403872:	3607      	adds	r6, #7
  403874:	f026 0207 	bic.w	r2, r6, #7
  403878:	f102 0108 	add.w	r1, r2, #8
  40387c:	e9d2 6700 	ldrd	r6, r7, [r2]
  403880:	9107      	str	r1, [sp, #28]
  403882:	2200      	movs	r2, #0
  403884:	f7ff bb99 	b.w	402fba <_vfiprintf_r+0x266>
  403888:	9e07      	ldr	r6, [sp, #28]
  40388a:	3607      	adds	r6, #7
  40388c:	f026 0107 	bic.w	r1, r6, #7
  403890:	f101 0008 	add.w	r0, r1, #8
  403894:	9007      	str	r0, [sp, #28]
  403896:	e9d1 6700 	ldrd	r6, r7, [r1]
  40389a:	e519      	b.n	4032d0 <_vfiprintf_r+0x57c>
  40389c:	46cb      	mov	fp, r9
  40389e:	f7ff bbab 	b.w	402ff8 <_vfiprintf_r+0x2a4>
  4038a2:	252d      	movs	r5, #45	; 0x2d
  4038a4:	4276      	negs	r6, r6
  4038a6:	eb67 0747 	sbc.w	r7, r7, r7, lsl #1
  4038aa:	f88d 5037 	strb.w	r5, [sp, #55]	; 0x37
  4038ae:	2201      	movs	r2, #1
  4038b0:	f7ff bb88 	b.w	402fc4 <_vfiprintf_r+0x270>
  4038b4:	9b09      	ldr	r3, [sp, #36]	; 0x24
  4038b6:	b9b3      	cbnz	r3, 4038e6 <_vfiprintf_r+0xb92>
  4038b8:	4611      	mov	r1, r2
  4038ba:	2001      	movs	r0, #1
  4038bc:	46ca      	mov	sl, r9
  4038be:	e5f2      	b.n	4034a6 <_vfiprintf_r+0x752>
  4038c0:	f8db 0058 	ldr.w	r0, [fp, #88]	; 0x58
  4038c4:	f003 f8c2 	bl	406a4c <__retarget_lock_release_recursive>
  4038c8:	f04f 33ff 	mov.w	r3, #4294967295
  4038cc:	9303      	str	r3, [sp, #12]
  4038ce:	f7ff bb50 	b.w	402f72 <_vfiprintf_r+0x21e>
  4038d2:	aa0f      	add	r2, sp, #60	; 0x3c
  4038d4:	9904      	ldr	r1, [sp, #16]
  4038d6:	9806      	ldr	r0, [sp, #24]
  4038d8:	f7ff f9f2 	bl	402cc0 <__sprint_r.part.0>
  4038dc:	2800      	cmp	r0, #0
  4038de:	f47f aeeb 	bne.w	4036b8 <_vfiprintf_r+0x964>
  4038e2:	9a11      	ldr	r2, [sp, #68]	; 0x44
  4038e4:	e6a9      	b.n	40363a <_vfiprintf_r+0x8e6>
  4038e6:	ab0e      	add	r3, sp, #56	; 0x38
  4038e8:	2202      	movs	r2, #2
  4038ea:	931c      	str	r3, [sp, #112]	; 0x70
  4038ec:	921d      	str	r2, [sp, #116]	; 0x74
  4038ee:	2001      	movs	r0, #1
  4038f0:	46ca      	mov	sl, r9
  4038f2:	e5d0      	b.n	403496 <_vfiprintf_r+0x742>
  4038f4:	aa0f      	add	r2, sp, #60	; 0x3c
  4038f6:	9904      	ldr	r1, [sp, #16]
  4038f8:	9806      	ldr	r0, [sp, #24]
  4038fa:	f7ff f9e1 	bl	402cc0 <__sprint_r.part.0>
  4038fe:	2800      	cmp	r0, #0
  403900:	f47f aeda 	bne.w	4036b8 <_vfiprintf_r+0x964>
  403904:	9910      	ldr	r1, [sp, #64]	; 0x40
  403906:	9a11      	ldr	r2, [sp, #68]	; 0x44
  403908:	1c48      	adds	r0, r1, #1
  40390a:	46ca      	mov	sl, r9
  40390c:	e5a4      	b.n	403458 <_vfiprintf_r+0x704>
  40390e:	9a07      	ldr	r2, [sp, #28]
  403910:	9903      	ldr	r1, [sp, #12]
  403912:	6813      	ldr	r3, [r2, #0]
  403914:	17cd      	asrs	r5, r1, #31
  403916:	4608      	mov	r0, r1
  403918:	3204      	adds	r2, #4
  40391a:	4629      	mov	r1, r5
  40391c:	9207      	str	r2, [sp, #28]
  40391e:	e9c3 0100 	strd	r0, r1, [r3]
  403922:	f7ff ba54 	b.w	402dce <_vfiprintf_r+0x7a>
  403926:	4658      	mov	r0, fp
  403928:	9607      	str	r6, [sp, #28]
  40392a:	9302      	str	r3, [sp, #8]
  40392c:	f003 ff08 	bl	407740 <strlen>
  403930:	2400      	movs	r4, #0
  403932:	9005      	str	r0, [sp, #20]
  403934:	f89d 5037 	ldrb.w	r5, [sp, #55]	; 0x37
  403938:	f7ff bb5e 	b.w	402ff8 <_vfiprintf_r+0x2a4>
  40393c:	aa0f      	add	r2, sp, #60	; 0x3c
  40393e:	9904      	ldr	r1, [sp, #16]
  403940:	9806      	ldr	r0, [sp, #24]
  403942:	f7ff f9bd 	bl	402cc0 <__sprint_r.part.0>
  403946:	2800      	cmp	r0, #0
  403948:	f47f aeb6 	bne.w	4036b8 <_vfiprintf_r+0x964>
  40394c:	9910      	ldr	r1, [sp, #64]	; 0x40
  40394e:	9a11      	ldr	r2, [sp, #68]	; 0x44
  403950:	1c48      	adds	r0, r1, #1
  403952:	46ca      	mov	sl, r9
  403954:	e5a7      	b.n	4034a6 <_vfiprintf_r+0x752>
  403956:	9910      	ldr	r1, [sp, #64]	; 0x40
  403958:	9a11      	ldr	r2, [sp, #68]	; 0x44
  40395a:	4e20      	ldr	r6, [pc, #128]	; (4039dc <_vfiprintf_r+0xc88>)
  40395c:	3101      	adds	r1, #1
  40395e:	f7ff bb90 	b.w	403082 <_vfiprintf_r+0x32e>
  403962:	2c06      	cmp	r4, #6
  403964:	bf28      	it	cs
  403966:	2406      	movcs	r4, #6
  403968:	9405      	str	r4, [sp, #20]
  40396a:	9607      	str	r6, [sp, #28]
  40396c:	9401      	str	r4, [sp, #4]
  40396e:	f8df b070 	ldr.w	fp, [pc, #112]	; 4039e0 <_vfiprintf_r+0xc8c>
  403972:	e4d5      	b.n	403320 <_vfiprintf_r+0x5cc>
  403974:	9810      	ldr	r0, [sp, #64]	; 0x40
  403976:	4e19      	ldr	r6, [pc, #100]	; (4039dc <_vfiprintf_r+0xc88>)
  403978:	3001      	adds	r0, #1
  40397a:	e603      	b.n	403584 <_vfiprintf_r+0x830>
  40397c:	9405      	str	r4, [sp, #20]
  40397e:	f89d 5037 	ldrb.w	r5, [sp, #55]	; 0x37
  403982:	9607      	str	r6, [sp, #28]
  403984:	9302      	str	r3, [sp, #8]
  403986:	4604      	mov	r4, r0
  403988:	f7ff bb36 	b.w	402ff8 <_vfiprintf_r+0x2a4>
  40398c:	4686      	mov	lr, r0
  40398e:	f7ff bbce 	b.w	40312e <_vfiprintf_r+0x3da>
  403992:	9806      	ldr	r0, [sp, #24]
  403994:	aa0f      	add	r2, sp, #60	; 0x3c
  403996:	4659      	mov	r1, fp
  403998:	f7ff f992 	bl	402cc0 <__sprint_r.part.0>
  40399c:	2800      	cmp	r0, #0
  40399e:	f43f ae24 	beq.w	4035ea <_vfiprintf_r+0x896>
  4039a2:	e624      	b.n	4035ee <_vfiprintf_r+0x89a>
  4039a4:	9907      	ldr	r1, [sp, #28]
  4039a6:	f898 2001 	ldrb.w	r2, [r8, #1]
  4039aa:	680c      	ldr	r4, [r1, #0]
  4039ac:	3104      	adds	r1, #4
  4039ae:	ea44 74e4 	orr.w	r4, r4, r4, asr #31
  4039b2:	46b8      	mov	r8, r7
  4039b4:	9107      	str	r1, [sp, #28]
  4039b6:	f7ff ba3f 	b.w	402e38 <_vfiprintf_r+0xe4>
  4039ba:	f88d 5037 	strb.w	r5, [sp, #55]	; 0x37
  4039be:	e43c      	b.n	40323a <_vfiprintf_r+0x4e6>
  4039c0:	f88d 5037 	strb.w	r5, [sp, #55]	; 0x37
  4039c4:	e521      	b.n	40340a <_vfiprintf_r+0x6b6>
  4039c6:	f88d 5037 	strb.w	r5, [sp, #55]	; 0x37
  4039ca:	f7ff bbf4 	b.w	4031b6 <_vfiprintf_r+0x462>
  4039ce:	f88d 5037 	strb.w	r5, [sp, #55]	; 0x37
  4039d2:	e491      	b.n	4032f8 <_vfiprintf_r+0x5a4>
  4039d4:	f88d 5037 	strb.w	r5, [sp, #55]	; 0x37
  4039d8:	e469      	b.n	4032ae <_vfiprintf_r+0x55a>
  4039da:	bf00      	nop
  4039dc:	004099dc 	.word	0x004099dc
  4039e0:	004099d4 	.word	0x004099d4

004039e4 <__sbprintf>:
  4039e4:	e92d 41f0 	stmdb	sp!, {r4, r5, r6, r7, r8, lr}
  4039e8:	460c      	mov	r4, r1
  4039ea:	f5ad 6d8d 	sub.w	sp, sp, #1128	; 0x468
  4039ee:	8989      	ldrh	r1, [r1, #12]
  4039f0:	6e66      	ldr	r6, [r4, #100]	; 0x64
  4039f2:	89e5      	ldrh	r5, [r4, #14]
  4039f4:	9619      	str	r6, [sp, #100]	; 0x64
  4039f6:	f021 0102 	bic.w	r1, r1, #2
  4039fa:	4606      	mov	r6, r0
  4039fc:	69e0      	ldr	r0, [r4, #28]
  4039fe:	f8ad 100c 	strh.w	r1, [sp, #12]
  403a02:	4617      	mov	r7, r2
  403a04:	f44f 6180 	mov.w	r1, #1024	; 0x400
  403a08:	6a62      	ldr	r2, [r4, #36]	; 0x24
  403a0a:	f8ad 500e 	strh.w	r5, [sp, #14]
  403a0e:	4698      	mov	r8, r3
  403a10:	ad1a      	add	r5, sp, #104	; 0x68
  403a12:	2300      	movs	r3, #0
  403a14:	9007      	str	r0, [sp, #28]
  403a16:	a816      	add	r0, sp, #88	; 0x58
  403a18:	9209      	str	r2, [sp, #36]	; 0x24
  403a1a:	9306      	str	r3, [sp, #24]
  403a1c:	9500      	str	r5, [sp, #0]
  403a1e:	9504      	str	r5, [sp, #16]
  403a20:	9102      	str	r1, [sp, #8]
  403a22:	9105      	str	r1, [sp, #20]
  403a24:	f003 f80c 	bl	406a40 <__retarget_lock_init_recursive>
  403a28:	4643      	mov	r3, r8
  403a2a:	463a      	mov	r2, r7
  403a2c:	4669      	mov	r1, sp
  403a2e:	4630      	mov	r0, r6
  403a30:	f7ff f990 	bl	402d54 <_vfiprintf_r>
  403a34:	1e05      	subs	r5, r0, #0
  403a36:	db07      	blt.n	403a48 <__sbprintf+0x64>
  403a38:	4630      	mov	r0, r6
  403a3a:	4669      	mov	r1, sp
  403a3c:	f002 fbde 	bl	4061fc <_fflush_r>
  403a40:	2800      	cmp	r0, #0
  403a42:	bf18      	it	ne
  403a44:	f04f 35ff 	movne.w	r5, #4294967295
  403a48:	f8bd 300c 	ldrh.w	r3, [sp, #12]
  403a4c:	065b      	lsls	r3, r3, #25
  403a4e:	d503      	bpl.n	403a58 <__sbprintf+0x74>
  403a50:	89a3      	ldrh	r3, [r4, #12]
  403a52:	f043 0340 	orr.w	r3, r3, #64	; 0x40
  403a56:	81a3      	strh	r3, [r4, #12]
  403a58:	9816      	ldr	r0, [sp, #88]	; 0x58
  403a5a:	f002 fff3 	bl	406a44 <__retarget_lock_close_recursive>
  403a5e:	4628      	mov	r0, r5
  403a60:	f50d 6d8d 	add.w	sp, sp, #1128	; 0x468
  403a64:	e8bd 81f0 	ldmia.w	sp!, {r4, r5, r6, r7, r8, pc}

00403a68 <_vfprintf_r>:
  403a68:	e92d 4ff0 	stmdb	sp!, {r4, r5, r6, r7, r8, r9, sl, fp, lr}
  403a6c:	b0c1      	sub	sp, #260	; 0x104
  403a6e:	461d      	mov	r5, r3
  403a70:	468a      	mov	sl, r1
  403a72:	4691      	mov	r9, r2
  403a74:	4604      	mov	r4, r0
  403a76:	9008      	str	r0, [sp, #32]
  403a78:	f002 ffd4 	bl	406a24 <_localeconv_r>
  403a7c:	6803      	ldr	r3, [r0, #0]
  403a7e:	9315      	str	r3, [sp, #84]	; 0x54
  403a80:	4618      	mov	r0, r3
  403a82:	f003 fe5d 	bl	407740 <strlen>
  403a86:	950e      	str	r5, [sp, #56]	; 0x38
  403a88:	9014      	str	r0, [sp, #80]	; 0x50
  403a8a:	b11c      	cbz	r4, 403a94 <_vfprintf_r+0x2c>
  403a8c:	6ba3      	ldr	r3, [r4, #56]	; 0x38
  403a8e:	2b00      	cmp	r3, #0
  403a90:	f000 825f 	beq.w	403f52 <_vfprintf_r+0x4ea>
  403a94:	f8da 3064 	ldr.w	r3, [sl, #100]	; 0x64
  403a98:	f9ba 200c 	ldrsh.w	r2, [sl, #12]
  403a9c:	f013 0f01 	tst.w	r3, #1
  403aa0:	b293      	uxth	r3, r2
  403aa2:	d102      	bne.n	403aaa <_vfprintf_r+0x42>
  403aa4:	0599      	lsls	r1, r3, #22
  403aa6:	f140 8275 	bpl.w	403f94 <_vfprintf_r+0x52c>
  403aaa:	049f      	lsls	r7, r3, #18
  403aac:	d40a      	bmi.n	403ac4 <_vfprintf_r+0x5c>
  403aae:	f8da 1064 	ldr.w	r1, [sl, #100]	; 0x64
  403ab2:	f442 5300 	orr.w	r3, r2, #8192	; 0x2000
  403ab6:	f421 5100 	bic.w	r1, r1, #8192	; 0x2000
  403aba:	f8aa 300c 	strh.w	r3, [sl, #12]
  403abe:	f8ca 1064 	str.w	r1, [sl, #100]	; 0x64
  403ac2:	b29b      	uxth	r3, r3
  403ac4:	071e      	lsls	r6, r3, #28
  403ac6:	f140 8223 	bpl.w	403f10 <_vfprintf_r+0x4a8>
  403aca:	f8da 2010 	ldr.w	r2, [sl, #16]
  403ace:	2a00      	cmp	r2, #0
  403ad0:	f000 821e 	beq.w	403f10 <_vfprintf_r+0x4a8>
  403ad4:	f003 021a 	and.w	r2, r3, #26
  403ad8:	2a0a      	cmp	r2, #10
  403ada:	f000 823e 	beq.w	403f5a <_vfprintf_r+0x4f2>
  403ade:	2300      	movs	r3, #0
  403ae0:	4618      	mov	r0, r3
  403ae2:	9311      	str	r3, [sp, #68]	; 0x44
  403ae4:	9313      	str	r3, [sp, #76]	; 0x4c
  403ae6:	9312      	str	r3, [sp, #72]	; 0x48
  403ae8:	9325      	str	r3, [sp, #148]	; 0x94
  403aea:	9324      	str	r3, [sp, #144]	; 0x90
  403aec:	9318      	str	r3, [sp, #96]	; 0x60
  403aee:	9319      	str	r3, [sp, #100]	; 0x64
  403af0:	930b      	str	r3, [sp, #44]	; 0x2c
  403af2:	ab30      	add	r3, sp, #192	; 0xc0
  403af4:	9323      	str	r3, [sp, #140]	; 0x8c
  403af6:	4698      	mov	r8, r3
  403af8:	9016      	str	r0, [sp, #88]	; 0x58
  403afa:	9017      	str	r0, [sp, #92]	; 0x5c
  403afc:	f8cd a028 	str.w	sl, [sp, #40]	; 0x28
  403b00:	f899 3000 	ldrb.w	r3, [r9]
  403b04:	464c      	mov	r4, r9
  403b06:	b1eb      	cbz	r3, 403b44 <_vfprintf_r+0xdc>
  403b08:	2b25      	cmp	r3, #37	; 0x25
  403b0a:	d102      	bne.n	403b12 <_vfprintf_r+0xaa>
  403b0c:	e01a      	b.n	403b44 <_vfprintf_r+0xdc>
  403b0e:	2b25      	cmp	r3, #37	; 0x25
  403b10:	d003      	beq.n	403b1a <_vfprintf_r+0xb2>
  403b12:	f814 3f01 	ldrb.w	r3, [r4, #1]!
  403b16:	2b00      	cmp	r3, #0
  403b18:	d1f9      	bne.n	403b0e <_vfprintf_r+0xa6>
  403b1a:	eba4 0509 	sub.w	r5, r4, r9
  403b1e:	b18d      	cbz	r5, 403b44 <_vfprintf_r+0xdc>
  403b20:	9b24      	ldr	r3, [sp, #144]	; 0x90
  403b22:	9a25      	ldr	r2, [sp, #148]	; 0x94
  403b24:	f8c8 9000 	str.w	r9, [r8]
  403b28:	3301      	adds	r3, #1
  403b2a:	442a      	add	r2, r5
  403b2c:	2b07      	cmp	r3, #7
  403b2e:	f8c8 5004 	str.w	r5, [r8, #4]
  403b32:	9225      	str	r2, [sp, #148]	; 0x94
  403b34:	9324      	str	r3, [sp, #144]	; 0x90
  403b36:	f300 8201 	bgt.w	403f3c <_vfprintf_r+0x4d4>
  403b3a:	f108 0808 	add.w	r8, r8, #8
  403b3e:	9b0b      	ldr	r3, [sp, #44]	; 0x2c
  403b40:	442b      	add	r3, r5
  403b42:	930b      	str	r3, [sp, #44]	; 0x2c
  403b44:	7823      	ldrb	r3, [r4, #0]
  403b46:	2b00      	cmp	r3, #0
  403b48:	f000 83f0 	beq.w	40432c <_vfprintf_r+0x8c4>
  403b4c:	2300      	movs	r3, #0
  403b4e:	461a      	mov	r2, r3
  403b50:	f88d 306f 	strb.w	r3, [sp, #111]	; 0x6f
  403b54:	4619      	mov	r1, r3
  403b56:	930c      	str	r3, [sp, #48]	; 0x30
  403b58:	469b      	mov	fp, r3
  403b5a:	7866      	ldrb	r6, [r4, #1]
  403b5c:	f04f 33ff 	mov.w	r3, #4294967295
  403b60:	f104 0901 	add.w	r9, r4, #1
  403b64:	9309      	str	r3, [sp, #36]	; 0x24
  403b66:	f109 0901 	add.w	r9, r9, #1
  403b6a:	f1a6 0320 	sub.w	r3, r6, #32
  403b6e:	2b58      	cmp	r3, #88	; 0x58
  403b70:	f200 83bf 	bhi.w	4042f2 <_vfprintf_r+0x88a>
  403b74:	e8df f013 	tbh	[pc, r3, lsl #1]
  403b78:	03bd02e0 	.word	0x03bd02e0
  403b7c:	034f03bd 	.word	0x034f03bd
  403b80:	03bd03bd 	.word	0x03bd03bd
  403b84:	03bd03bd 	.word	0x03bd03bd
  403b88:	03bd03bd 	.word	0x03bd03bd
  403b8c:	03080354 	.word	0x03080354
  403b90:	021a03bd 	.word	0x021a03bd
  403b94:	03bd02e8 	.word	0x03bd02e8
  403b98:	033a0303 	.word	0x033a0303
  403b9c:	033a033a 	.word	0x033a033a
  403ba0:	033a033a 	.word	0x033a033a
  403ba4:	033a033a 	.word	0x033a033a
  403ba8:	033a033a 	.word	0x033a033a
  403bac:	03bd03bd 	.word	0x03bd03bd
  403bb0:	03bd03bd 	.word	0x03bd03bd
  403bb4:	03bd03bd 	.word	0x03bd03bd
  403bb8:	03bd03bd 	.word	0x03bd03bd
  403bbc:	03bd03bd 	.word	0x03bd03bd
  403bc0:	03620349 	.word	0x03620349
  403bc4:	036203bd 	.word	0x036203bd
  403bc8:	03bd03bd 	.word	0x03bd03bd
  403bcc:	03bd03bd 	.word	0x03bd03bd
  403bd0:	03bd03a2 	.word	0x03bd03a2
  403bd4:	006f03bd 	.word	0x006f03bd
  403bd8:	03bd03bd 	.word	0x03bd03bd
  403bdc:	03bd03bd 	.word	0x03bd03bd
  403be0:	005903bd 	.word	0x005903bd
  403be4:	03bd03bd 	.word	0x03bd03bd
  403be8:	03bd031e 	.word	0x03bd031e
  403bec:	03bd03bd 	.word	0x03bd03bd
  403bf0:	03bd03bd 	.word	0x03bd03bd
  403bf4:	03bd03bd 	.word	0x03bd03bd
  403bf8:	03bd03bd 	.word	0x03bd03bd
  403bfc:	032403bd 	.word	0x032403bd
  403c00:	03620273 	.word	0x03620273
  403c04:	03620362 	.word	0x03620362
  403c08:	027302b7 	.word	0x027302b7
  403c0c:	03bd03bd 	.word	0x03bd03bd
  403c10:	03bd02bc 	.word	0x03bd02bc
  403c14:	007102c9 	.word	0x007102c9
  403c18:	0247030d 	.word	0x0247030d
  403c1c:	025203bd 	.word	0x025203bd
  403c20:	005b03bd 	.word	0x005b03bd
  403c24:	03bd03bd 	.word	0x03bd03bd
  403c28:	021f      	.short	0x021f
  403c2a:	f04b 0b10 	orr.w	fp, fp, #16
  403c2e:	f01b 0f20 	tst.w	fp, #32
  403c32:	f040 8353 	bne.w	4042dc <_vfprintf_r+0x874>
  403c36:	9a0e      	ldr	r2, [sp, #56]	; 0x38
  403c38:	f01b 0f10 	tst.w	fp, #16
  403c3c:	4613      	mov	r3, r2
  403c3e:	f040 85b4 	bne.w	4047aa <_vfprintf_r+0xd42>
  403c42:	f01b 0f40 	tst.w	fp, #64	; 0x40
  403c46:	f000 85b0 	beq.w	4047aa <_vfprintf_r+0xd42>
  403c4a:	8814      	ldrh	r4, [r2, #0]
  403c4c:	3204      	adds	r2, #4
  403c4e:	2500      	movs	r5, #0
  403c50:	2301      	movs	r3, #1
  403c52:	920e      	str	r2, [sp, #56]	; 0x38
  403c54:	e014      	b.n	403c80 <_vfprintf_r+0x218>
  403c56:	f04b 0b10 	orr.w	fp, fp, #16
  403c5a:	f01b 0320 	ands.w	r3, fp, #32
  403c5e:	f040 8332 	bne.w	4042c6 <_vfprintf_r+0x85e>
  403c62:	f01b 0210 	ands.w	r2, fp, #16
  403c66:	f040 8589 	bne.w	40477c <_vfprintf_r+0xd14>
  403c6a:	f01b 0340 	ands.w	r3, fp, #64	; 0x40
  403c6e:	f000 8585 	beq.w	40477c <_vfprintf_r+0xd14>
  403c72:	990e      	ldr	r1, [sp, #56]	; 0x38
  403c74:	4613      	mov	r3, r2
  403c76:	460a      	mov	r2, r1
  403c78:	3204      	adds	r2, #4
  403c7a:	880c      	ldrh	r4, [r1, #0]
  403c7c:	920e      	str	r2, [sp, #56]	; 0x38
  403c7e:	2500      	movs	r5, #0
  403c80:	f04f 0a00 	mov.w	sl, #0
  403c84:	f88d a06f 	strb.w	sl, [sp, #111]	; 0x6f
  403c88:	9909      	ldr	r1, [sp, #36]	; 0x24
  403c8a:	1c4a      	adds	r2, r1, #1
  403c8c:	f000 820b 	beq.w	4040a6 <_vfprintf_r+0x63e>
  403c90:	f02b 0280 	bic.w	r2, fp, #128	; 0x80
  403c94:	9206      	str	r2, [sp, #24]
  403c96:	ea54 0205 	orrs.w	r2, r4, r5
  403c9a:	f040 820a 	bne.w	4040b2 <_vfprintf_r+0x64a>
  403c9e:	2900      	cmp	r1, #0
  403ca0:	f040 846f 	bne.w	404582 <_vfprintf_r+0xb1a>
  403ca4:	2b00      	cmp	r3, #0
  403ca6:	f040 852d 	bne.w	404704 <_vfprintf_r+0xc9c>
  403caa:	f01b 0301 	ands.w	r3, fp, #1
  403cae:	930d      	str	r3, [sp, #52]	; 0x34
  403cb0:	f000 8668 	beq.w	404984 <_vfprintf_r+0xf1c>
  403cb4:	af40      	add	r7, sp, #256	; 0x100
  403cb6:	2330      	movs	r3, #48	; 0x30
  403cb8:	f807 3d41 	strb.w	r3, [r7, #-65]!
  403cbc:	9b09      	ldr	r3, [sp, #36]	; 0x24
  403cbe:	9a0d      	ldr	r2, [sp, #52]	; 0x34
  403cc0:	4293      	cmp	r3, r2
  403cc2:	bfb8      	it	lt
  403cc4:	4613      	movlt	r3, r2
  403cc6:	9307      	str	r3, [sp, #28]
  403cc8:	2300      	movs	r3, #0
  403cca:	9310      	str	r3, [sp, #64]	; 0x40
  403ccc:	f1ba 0f00 	cmp.w	sl, #0
  403cd0:	d002      	beq.n	403cd8 <_vfprintf_r+0x270>
  403cd2:	9b07      	ldr	r3, [sp, #28]
  403cd4:	3301      	adds	r3, #1
  403cd6:	9307      	str	r3, [sp, #28]
  403cd8:	9b06      	ldr	r3, [sp, #24]
  403cda:	f013 0302 	ands.w	r3, r3, #2
  403cde:	930f      	str	r3, [sp, #60]	; 0x3c
  403ce0:	d002      	beq.n	403ce8 <_vfprintf_r+0x280>
  403ce2:	9b07      	ldr	r3, [sp, #28]
  403ce4:	3302      	adds	r3, #2
  403ce6:	9307      	str	r3, [sp, #28]
  403ce8:	9b06      	ldr	r3, [sp, #24]
  403cea:	f013 0584 	ands.w	r5, r3, #132	; 0x84
  403cee:	f040 831b 	bne.w	404328 <_vfprintf_r+0x8c0>
  403cf2:	9b0c      	ldr	r3, [sp, #48]	; 0x30
  403cf4:	9a07      	ldr	r2, [sp, #28]
  403cf6:	eba3 0b02 	sub.w	fp, r3, r2
  403cfa:	f1bb 0f00 	cmp.w	fp, #0
  403cfe:	f340 8313 	ble.w	404328 <_vfprintf_r+0x8c0>
  403d02:	f1bb 0f10 	cmp.w	fp, #16
  403d06:	9925      	ldr	r1, [sp, #148]	; 0x94
  403d08:	9a24      	ldr	r2, [sp, #144]	; 0x90
  403d0a:	dd28      	ble.n	403d5e <_vfprintf_r+0x2f6>
  403d0c:	4643      	mov	r3, r8
  403d0e:	2410      	movs	r4, #16
  403d10:	46a8      	mov	r8, r5
  403d12:	f8dd a020 	ldr.w	sl, [sp, #32]
  403d16:	9d0a      	ldr	r5, [sp, #40]	; 0x28
  403d18:	e006      	b.n	403d28 <_vfprintf_r+0x2c0>
  403d1a:	f1ab 0b10 	sub.w	fp, fp, #16
  403d1e:	f1bb 0f10 	cmp.w	fp, #16
  403d22:	f103 0308 	add.w	r3, r3, #8
  403d26:	dd18      	ble.n	403d5a <_vfprintf_r+0x2f2>
  403d28:	3201      	adds	r2, #1
  403d2a:	48b9      	ldr	r0, [pc, #740]	; (404010 <_vfprintf_r+0x5a8>)
  403d2c:	9224      	str	r2, [sp, #144]	; 0x90
  403d2e:	3110      	adds	r1, #16
  403d30:	2a07      	cmp	r2, #7
  403d32:	9125      	str	r1, [sp, #148]	; 0x94
  403d34:	e883 0011 	stmia.w	r3, {r0, r4}
  403d38:	ddef      	ble.n	403d1a <_vfprintf_r+0x2b2>
  403d3a:	aa23      	add	r2, sp, #140	; 0x8c
  403d3c:	4629      	mov	r1, r5
  403d3e:	4650      	mov	r0, sl
  403d40:	f7fe fffe 	bl	402d40 <__sprint_r>
  403d44:	2800      	cmp	r0, #0
  403d46:	f040 836a 	bne.w	40441e <_vfprintf_r+0x9b6>
  403d4a:	f1ab 0b10 	sub.w	fp, fp, #16
  403d4e:	f1bb 0f10 	cmp.w	fp, #16
  403d52:	9925      	ldr	r1, [sp, #148]	; 0x94
  403d54:	9a24      	ldr	r2, [sp, #144]	; 0x90
  403d56:	ab30      	add	r3, sp, #192	; 0xc0
  403d58:	dce6      	bgt.n	403d28 <_vfprintf_r+0x2c0>
  403d5a:	4645      	mov	r5, r8
  403d5c:	4698      	mov	r8, r3
  403d5e:	3201      	adds	r2, #1
  403d60:	4bab      	ldr	r3, [pc, #684]	; (404010 <_vfprintf_r+0x5a8>)
  403d62:	9224      	str	r2, [sp, #144]	; 0x90
  403d64:	eb0b 0401 	add.w	r4, fp, r1
  403d68:	2a07      	cmp	r2, #7
  403d6a:	9425      	str	r4, [sp, #148]	; 0x94
  403d6c:	e888 0808 	stmia.w	r8, {r3, fp}
  403d70:	f300 84cd 	bgt.w	40470e <_vfprintf_r+0xca6>
  403d74:	f89d a06f 	ldrb.w	sl, [sp, #111]	; 0x6f
  403d78:	f108 0808 	add.w	r8, r8, #8
  403d7c:	f1ba 0f00 	cmp.w	sl, #0
  403d80:	d00e      	beq.n	403da0 <_vfprintf_r+0x338>
  403d82:	9b24      	ldr	r3, [sp, #144]	; 0x90
  403d84:	3301      	adds	r3, #1
  403d86:	3401      	adds	r4, #1
  403d88:	f10d 016f 	add.w	r1, sp, #111	; 0x6f
  403d8c:	2201      	movs	r2, #1
  403d8e:	2b07      	cmp	r3, #7
  403d90:	9425      	str	r4, [sp, #148]	; 0x94
  403d92:	9324      	str	r3, [sp, #144]	; 0x90
  403d94:	e888 0006 	stmia.w	r8, {r1, r2}
  403d98:	f300 840a 	bgt.w	4045b0 <_vfprintf_r+0xb48>
  403d9c:	f108 0808 	add.w	r8, r8, #8
  403da0:	9b0f      	ldr	r3, [sp, #60]	; 0x3c
  403da2:	b16b      	cbz	r3, 403dc0 <_vfprintf_r+0x358>
  403da4:	9b24      	ldr	r3, [sp, #144]	; 0x90
  403da6:	3301      	adds	r3, #1
  403da8:	3402      	adds	r4, #2
  403daa:	a91c      	add	r1, sp, #112	; 0x70
  403dac:	2202      	movs	r2, #2
  403dae:	2b07      	cmp	r3, #7
  403db0:	9425      	str	r4, [sp, #148]	; 0x94
  403db2:	9324      	str	r3, [sp, #144]	; 0x90
  403db4:	e888 0006 	stmia.w	r8, {r1, r2}
  403db8:	f300 8406 	bgt.w	4045c8 <_vfprintf_r+0xb60>
  403dbc:	f108 0808 	add.w	r8, r8, #8
  403dc0:	2d80      	cmp	r5, #128	; 0x80
  403dc2:	f000 832e 	beq.w	404422 <_vfprintf_r+0x9ba>
  403dc6:	9b09      	ldr	r3, [sp, #36]	; 0x24
  403dc8:	9a0d      	ldr	r2, [sp, #52]	; 0x34
  403dca:	eba3 0a02 	sub.w	sl, r3, r2
  403dce:	f1ba 0f00 	cmp.w	sl, #0
  403dd2:	dd3b      	ble.n	403e4c <_vfprintf_r+0x3e4>
  403dd4:	f1ba 0f10 	cmp.w	sl, #16
  403dd8:	9b24      	ldr	r3, [sp, #144]	; 0x90
  403dda:	4d8e      	ldr	r5, [pc, #568]	; (404014 <_vfprintf_r+0x5ac>)
  403ddc:	dd2b      	ble.n	403e36 <_vfprintf_r+0x3ce>
  403dde:	4642      	mov	r2, r8
  403de0:	4621      	mov	r1, r4
  403de2:	46b0      	mov	r8, r6
  403de4:	f04f 0b10 	mov.w	fp, #16
  403de8:	462e      	mov	r6, r5
  403dea:	9c08      	ldr	r4, [sp, #32]
  403dec:	9d0a      	ldr	r5, [sp, #40]	; 0x28
  403dee:	e006      	b.n	403dfe <_vfprintf_r+0x396>
  403df0:	f1aa 0a10 	sub.w	sl, sl, #16
  403df4:	f1ba 0f10 	cmp.w	sl, #16
  403df8:	f102 0208 	add.w	r2, r2, #8
  403dfc:	dd17      	ble.n	403e2e <_vfprintf_r+0x3c6>
  403dfe:	3301      	adds	r3, #1
  403e00:	3110      	adds	r1, #16
  403e02:	2b07      	cmp	r3, #7
  403e04:	9125      	str	r1, [sp, #148]	; 0x94
  403e06:	9324      	str	r3, [sp, #144]	; 0x90
  403e08:	e882 0840 	stmia.w	r2, {r6, fp}
  403e0c:	ddf0      	ble.n	403df0 <_vfprintf_r+0x388>
  403e0e:	aa23      	add	r2, sp, #140	; 0x8c
  403e10:	4629      	mov	r1, r5
  403e12:	4620      	mov	r0, r4
  403e14:	f7fe ff94 	bl	402d40 <__sprint_r>
  403e18:	2800      	cmp	r0, #0
  403e1a:	f040 8300 	bne.w	40441e <_vfprintf_r+0x9b6>
  403e1e:	f1aa 0a10 	sub.w	sl, sl, #16
  403e22:	f1ba 0f10 	cmp.w	sl, #16
  403e26:	9925      	ldr	r1, [sp, #148]	; 0x94
  403e28:	9b24      	ldr	r3, [sp, #144]	; 0x90
  403e2a:	aa30      	add	r2, sp, #192	; 0xc0
  403e2c:	dce7      	bgt.n	403dfe <_vfprintf_r+0x396>
  403e2e:	4635      	mov	r5, r6
  403e30:	460c      	mov	r4, r1
  403e32:	4646      	mov	r6, r8
  403e34:	4690      	mov	r8, r2
  403e36:	3301      	adds	r3, #1
  403e38:	4454      	add	r4, sl
  403e3a:	2b07      	cmp	r3, #7
  403e3c:	9425      	str	r4, [sp, #148]	; 0x94
  403e3e:	9324      	str	r3, [sp, #144]	; 0x90
  403e40:	e888 0420 	stmia.w	r8, {r5, sl}
  403e44:	f300 83a9 	bgt.w	40459a <_vfprintf_r+0xb32>
  403e48:	f108 0808 	add.w	r8, r8, #8
  403e4c:	9b06      	ldr	r3, [sp, #24]
  403e4e:	05db      	lsls	r3, r3, #23
  403e50:	f100 8285 	bmi.w	40435e <_vfprintf_r+0x8f6>
  403e54:	9b24      	ldr	r3, [sp, #144]	; 0x90
  403e56:	990d      	ldr	r1, [sp, #52]	; 0x34
  403e58:	f8c8 7000 	str.w	r7, [r8]
  403e5c:	3301      	adds	r3, #1
  403e5e:	440c      	add	r4, r1
  403e60:	2b07      	cmp	r3, #7
  403e62:	9425      	str	r4, [sp, #148]	; 0x94
  403e64:	f8c8 1004 	str.w	r1, [r8, #4]
  403e68:	9324      	str	r3, [sp, #144]	; 0x90
  403e6a:	f300 8375 	bgt.w	404558 <_vfprintf_r+0xaf0>
  403e6e:	f108 0808 	add.w	r8, r8, #8
  403e72:	9b06      	ldr	r3, [sp, #24]
  403e74:	0759      	lsls	r1, r3, #29
  403e76:	d53b      	bpl.n	403ef0 <_vfprintf_r+0x488>
  403e78:	9b0c      	ldr	r3, [sp, #48]	; 0x30
  403e7a:	9a07      	ldr	r2, [sp, #28]
  403e7c:	1a9d      	subs	r5, r3, r2
  403e7e:	2d00      	cmp	r5, #0
  403e80:	dd36      	ble.n	403ef0 <_vfprintf_r+0x488>
  403e82:	2d10      	cmp	r5, #16
  403e84:	9b24      	ldr	r3, [sp, #144]	; 0x90
  403e86:	dd21      	ble.n	403ecc <_vfprintf_r+0x464>
  403e88:	2610      	movs	r6, #16
  403e8a:	9f08      	ldr	r7, [sp, #32]
  403e8c:	f8dd a028 	ldr.w	sl, [sp, #40]	; 0x28
  403e90:	e004      	b.n	403e9c <_vfprintf_r+0x434>
  403e92:	3d10      	subs	r5, #16
  403e94:	2d10      	cmp	r5, #16
  403e96:	f108 0808 	add.w	r8, r8, #8
  403e9a:	dd17      	ble.n	403ecc <_vfprintf_r+0x464>
  403e9c:	3301      	adds	r3, #1
  403e9e:	4a5c      	ldr	r2, [pc, #368]	; (404010 <_vfprintf_r+0x5a8>)
  403ea0:	9324      	str	r3, [sp, #144]	; 0x90
  403ea2:	3410      	adds	r4, #16
  403ea4:	2b07      	cmp	r3, #7
  403ea6:	9425      	str	r4, [sp, #148]	; 0x94
  403ea8:	e888 0044 	stmia.w	r8, {r2, r6}
  403eac:	ddf1      	ble.n	403e92 <_vfprintf_r+0x42a>
  403eae:	aa23      	add	r2, sp, #140	; 0x8c
  403eb0:	4651      	mov	r1, sl
  403eb2:	4638      	mov	r0, r7
  403eb4:	f7fe ff44 	bl	402d40 <__sprint_r>
  403eb8:	2800      	cmp	r0, #0
  403eba:	f040 823f 	bne.w	40433c <_vfprintf_r+0x8d4>
  403ebe:	3d10      	subs	r5, #16
  403ec0:	2d10      	cmp	r5, #16
  403ec2:	9c25      	ldr	r4, [sp, #148]	; 0x94
  403ec4:	9b24      	ldr	r3, [sp, #144]	; 0x90
  403ec6:	f10d 08c0 	add.w	r8, sp, #192	; 0xc0
  403eca:	dce7      	bgt.n	403e9c <_vfprintf_r+0x434>
  403ecc:	3301      	adds	r3, #1
  403ece:	4a50      	ldr	r2, [pc, #320]	; (404010 <_vfprintf_r+0x5a8>)
  403ed0:	9324      	str	r3, [sp, #144]	; 0x90
  403ed2:	442c      	add	r4, r5
  403ed4:	2b07      	cmp	r3, #7
  403ed6:	9425      	str	r4, [sp, #148]	; 0x94
  403ed8:	e888 0024 	stmia.w	r8, {r2, r5}
  403edc:	dd08      	ble.n	403ef0 <_vfprintf_r+0x488>
  403ede:	aa23      	add	r2, sp, #140	; 0x8c
  403ee0:	990a      	ldr	r1, [sp, #40]	; 0x28
  403ee2:	9808      	ldr	r0, [sp, #32]
  403ee4:	f7fe ff2c 	bl	402d40 <__sprint_r>
  403ee8:	2800      	cmp	r0, #0
  403eea:	f040 8347 	bne.w	40457c <_vfprintf_r+0xb14>
  403eee:	9c25      	ldr	r4, [sp, #148]	; 0x94
  403ef0:	9b0b      	ldr	r3, [sp, #44]	; 0x2c
  403ef2:	9a0c      	ldr	r2, [sp, #48]	; 0x30
  403ef4:	9907      	ldr	r1, [sp, #28]
  403ef6:	428a      	cmp	r2, r1
  403ef8:	bfac      	ite	ge
  403efa:	189b      	addge	r3, r3, r2
  403efc:	185b      	addlt	r3, r3, r1
  403efe:	930b      	str	r3, [sp, #44]	; 0x2c
  403f00:	2c00      	cmp	r4, #0
  403f02:	f040 8333 	bne.w	40456c <_vfprintf_r+0xb04>
  403f06:	2300      	movs	r3, #0
  403f08:	9324      	str	r3, [sp, #144]	; 0x90
  403f0a:	f10d 08c0 	add.w	r8, sp, #192	; 0xc0
  403f0e:	e5f7      	b.n	403b00 <_vfprintf_r+0x98>
  403f10:	4651      	mov	r1, sl
  403f12:	9808      	ldr	r0, [sp, #32]
  403f14:	f001 f896 	bl	405044 <__swsetup_r>
  403f18:	2800      	cmp	r0, #0
  403f1a:	d038      	beq.n	403f8e <_vfprintf_r+0x526>
  403f1c:	f8da 3064 	ldr.w	r3, [sl, #100]	; 0x64
  403f20:	07dd      	lsls	r5, r3, #31
  403f22:	d404      	bmi.n	403f2e <_vfprintf_r+0x4c6>
  403f24:	f8ba 300c 	ldrh.w	r3, [sl, #12]
  403f28:	059c      	lsls	r4, r3, #22
  403f2a:	f140 85ca 	bpl.w	404ac2 <_vfprintf_r+0x105a>
  403f2e:	f04f 33ff 	mov.w	r3, #4294967295
  403f32:	930b      	str	r3, [sp, #44]	; 0x2c
  403f34:	980b      	ldr	r0, [sp, #44]	; 0x2c
  403f36:	b041      	add	sp, #260	; 0x104
  403f38:	e8bd 8ff0 	ldmia.w	sp!, {r4, r5, r6, r7, r8, r9, sl, fp, pc}
  403f3c:	aa23      	add	r2, sp, #140	; 0x8c
  403f3e:	990a      	ldr	r1, [sp, #40]	; 0x28
  403f40:	9808      	ldr	r0, [sp, #32]
  403f42:	f7fe fefd 	bl	402d40 <__sprint_r>
  403f46:	2800      	cmp	r0, #0
  403f48:	f040 8318 	bne.w	40457c <_vfprintf_r+0xb14>
  403f4c:	f10d 08c0 	add.w	r8, sp, #192	; 0xc0
  403f50:	e5f5      	b.n	403b3e <_vfprintf_r+0xd6>
  403f52:	9808      	ldr	r0, [sp, #32]
  403f54:	f002 f9aa 	bl	4062ac <__sinit>
  403f58:	e59c      	b.n	403a94 <_vfprintf_r+0x2c>
  403f5a:	f9ba 200e 	ldrsh.w	r2, [sl, #14]
  403f5e:	2a00      	cmp	r2, #0
  403f60:	f6ff adbd 	blt.w	403ade <_vfprintf_r+0x76>
  403f64:	f8da 2064 	ldr.w	r2, [sl, #100]	; 0x64
  403f68:	07d0      	lsls	r0, r2, #31
  403f6a:	d405      	bmi.n	403f78 <_vfprintf_r+0x510>
  403f6c:	0599      	lsls	r1, r3, #22
  403f6e:	d403      	bmi.n	403f78 <_vfprintf_r+0x510>
  403f70:	f8da 0058 	ldr.w	r0, [sl, #88]	; 0x58
  403f74:	f002 fd6a 	bl	406a4c <__retarget_lock_release_recursive>
  403f78:	462b      	mov	r3, r5
  403f7a:	464a      	mov	r2, r9
  403f7c:	4651      	mov	r1, sl
  403f7e:	9808      	ldr	r0, [sp, #32]
  403f80:	f001 f81e 	bl	404fc0 <__sbprintf>
  403f84:	900b      	str	r0, [sp, #44]	; 0x2c
  403f86:	980b      	ldr	r0, [sp, #44]	; 0x2c
  403f88:	b041      	add	sp, #260	; 0x104
  403f8a:	e8bd 8ff0 	ldmia.w	sp!, {r4, r5, r6, r7, r8, r9, sl, fp, pc}
  403f8e:	f8ba 300c 	ldrh.w	r3, [sl, #12]
  403f92:	e59f      	b.n	403ad4 <_vfprintf_r+0x6c>
  403f94:	f8da 0058 	ldr.w	r0, [sl, #88]	; 0x58
  403f98:	f002 fd56 	bl	406a48 <__retarget_lock_acquire_recursive>
  403f9c:	f9ba 200c 	ldrsh.w	r2, [sl, #12]
  403fa0:	b293      	uxth	r3, r2
  403fa2:	e582      	b.n	403aaa <_vfprintf_r+0x42>
  403fa4:	980c      	ldr	r0, [sp, #48]	; 0x30
  403fa6:	930e      	str	r3, [sp, #56]	; 0x38
  403fa8:	4240      	negs	r0, r0
  403faa:	900c      	str	r0, [sp, #48]	; 0x30
  403fac:	f04b 0b04 	orr.w	fp, fp, #4
  403fb0:	f899 6000 	ldrb.w	r6, [r9]
  403fb4:	e5d7      	b.n	403b66 <_vfprintf_r+0xfe>
  403fb6:	2a00      	cmp	r2, #0
  403fb8:	f040 87df 	bne.w	404f7a <_vfprintf_r+0x1512>
  403fbc:	4b16      	ldr	r3, [pc, #88]	; (404018 <_vfprintf_r+0x5b0>)
  403fbe:	9318      	str	r3, [sp, #96]	; 0x60
  403fc0:	f01b 0f20 	tst.w	fp, #32
  403fc4:	f040 84b9 	bne.w	40493a <_vfprintf_r+0xed2>
  403fc8:	9a0e      	ldr	r2, [sp, #56]	; 0x38
  403fca:	f01b 0f10 	tst.w	fp, #16
  403fce:	4613      	mov	r3, r2
  403fd0:	f040 83dc 	bne.w	40478c <_vfprintf_r+0xd24>
  403fd4:	f01b 0f40 	tst.w	fp, #64	; 0x40
  403fd8:	f000 83d8 	beq.w	40478c <_vfprintf_r+0xd24>
  403fdc:	3304      	adds	r3, #4
  403fde:	8814      	ldrh	r4, [r2, #0]
  403fe0:	930e      	str	r3, [sp, #56]	; 0x38
  403fe2:	2500      	movs	r5, #0
  403fe4:	f01b 0f01 	tst.w	fp, #1
  403fe8:	f000 8322 	beq.w	404630 <_vfprintf_r+0xbc8>
  403fec:	ea54 0305 	orrs.w	r3, r4, r5
  403ff0:	f000 831e 	beq.w	404630 <_vfprintf_r+0xbc8>
  403ff4:	2330      	movs	r3, #48	; 0x30
  403ff6:	f88d 3070 	strb.w	r3, [sp, #112]	; 0x70
  403ffa:	f88d 6071 	strb.w	r6, [sp, #113]	; 0x71
  403ffe:	f04b 0b02 	orr.w	fp, fp, #2
  404002:	2302      	movs	r3, #2
  404004:	e63c      	b.n	403c80 <_vfprintf_r+0x218>
  404006:	f04b 0b20 	orr.w	fp, fp, #32
  40400a:	f899 6000 	ldrb.w	r6, [r9]
  40400e:	e5aa      	b.n	403b66 <_vfprintf_r+0xfe>
  404010:	00409a0c 	.word	0x00409a0c
  404014:	00409a1c 	.word	0x00409a1c
  404018:	004099c0 	.word	0x004099c0
  40401c:	9a0e      	ldr	r2, [sp, #56]	; 0x38
  40401e:	6817      	ldr	r7, [r2, #0]
  404020:	2400      	movs	r4, #0
  404022:	f88d 406f 	strb.w	r4, [sp, #111]	; 0x6f
  404026:	1d15      	adds	r5, r2, #4
  404028:	2f00      	cmp	r7, #0
  40402a:	f000 864e 	beq.w	404cca <_vfprintf_r+0x1262>
  40402e:	9a09      	ldr	r2, [sp, #36]	; 0x24
  404030:	1c53      	adds	r3, r2, #1
  404032:	f000 85cc 	beq.w	404bce <_vfprintf_r+0x1166>
  404036:	4621      	mov	r1, r4
  404038:	4638      	mov	r0, r7
  40403a:	f002 fd99 	bl	406b70 <memchr>
  40403e:	2800      	cmp	r0, #0
  404040:	f000 8697 	beq.w	404d72 <_vfprintf_r+0x130a>
  404044:	1bc3      	subs	r3, r0, r7
  404046:	930d      	str	r3, [sp, #52]	; 0x34
  404048:	9409      	str	r4, [sp, #36]	; 0x24
  40404a:	950e      	str	r5, [sp, #56]	; 0x38
  40404c:	f8cd b018 	str.w	fp, [sp, #24]
  404050:	ea23 73e3 	bic.w	r3, r3, r3, asr #31
  404054:	9307      	str	r3, [sp, #28]
  404056:	9410      	str	r4, [sp, #64]	; 0x40
  404058:	f89d a06f 	ldrb.w	sl, [sp, #111]	; 0x6f
  40405c:	e636      	b.n	403ccc <_vfprintf_r+0x264>
  40405e:	2a00      	cmp	r2, #0
  404060:	f040 8796 	bne.w	404f90 <_vfprintf_r+0x1528>
  404064:	f01b 0f20 	tst.w	fp, #32
  404068:	f040 845a 	bne.w	404920 <_vfprintf_r+0xeb8>
  40406c:	f01b 0f10 	tst.w	fp, #16
  404070:	f040 83a2 	bne.w	4047b8 <_vfprintf_r+0xd50>
  404074:	f01b 0f40 	tst.w	fp, #64	; 0x40
  404078:	f000 839e 	beq.w	4047b8 <_vfprintf_r+0xd50>
  40407c:	990e      	ldr	r1, [sp, #56]	; 0x38
  40407e:	f9b1 4000 	ldrsh.w	r4, [r1]
  404082:	3104      	adds	r1, #4
  404084:	17e5      	asrs	r5, r4, #31
  404086:	4622      	mov	r2, r4
  404088:	462b      	mov	r3, r5
  40408a:	910e      	str	r1, [sp, #56]	; 0x38
  40408c:	2a00      	cmp	r2, #0
  40408e:	f173 0300 	sbcs.w	r3, r3, #0
  404092:	f2c0 8487 	blt.w	4049a4 <_vfprintf_r+0xf3c>
  404096:	9909      	ldr	r1, [sp, #36]	; 0x24
  404098:	f89d a06f 	ldrb.w	sl, [sp, #111]	; 0x6f
  40409c:	1c4a      	adds	r2, r1, #1
  40409e:	f04f 0301 	mov.w	r3, #1
  4040a2:	f47f adf5 	bne.w	403c90 <_vfprintf_r+0x228>
  4040a6:	ea54 0205 	orrs.w	r2, r4, r5
  4040aa:	f000 826c 	beq.w	404586 <_vfprintf_r+0xb1e>
  4040ae:	f8cd b018 	str.w	fp, [sp, #24]
  4040b2:	2b01      	cmp	r3, #1
  4040b4:	f000 8308 	beq.w	4046c8 <_vfprintf_r+0xc60>
  4040b8:	2b02      	cmp	r3, #2
  4040ba:	f040 8295 	bne.w	4045e8 <_vfprintf_r+0xb80>
  4040be:	9818      	ldr	r0, [sp, #96]	; 0x60
  4040c0:	af30      	add	r7, sp, #192	; 0xc0
  4040c2:	0923      	lsrs	r3, r4, #4
  4040c4:	f004 010f 	and.w	r1, r4, #15
  4040c8:	ea43 7305 	orr.w	r3, r3, r5, lsl #28
  4040cc:	092a      	lsrs	r2, r5, #4
  4040ce:	461c      	mov	r4, r3
  4040d0:	4615      	mov	r5, r2
  4040d2:	5c43      	ldrb	r3, [r0, r1]
  4040d4:	f807 3d01 	strb.w	r3, [r7, #-1]!
  4040d8:	ea54 0305 	orrs.w	r3, r4, r5
  4040dc:	d1f1      	bne.n	4040c2 <_vfprintf_r+0x65a>
  4040de:	ab30      	add	r3, sp, #192	; 0xc0
  4040e0:	1bdb      	subs	r3, r3, r7
  4040e2:	930d      	str	r3, [sp, #52]	; 0x34
  4040e4:	e5ea      	b.n	403cbc <_vfprintf_r+0x254>
  4040e6:	f04b 0b40 	orr.w	fp, fp, #64	; 0x40
  4040ea:	f899 6000 	ldrb.w	r6, [r9]
  4040ee:	e53a      	b.n	403b66 <_vfprintf_r+0xfe>
  4040f0:	f899 6000 	ldrb.w	r6, [r9]
  4040f4:	2e6c      	cmp	r6, #108	; 0x6c
  4040f6:	bf03      	ittte	eq
  4040f8:	f899 6001 	ldrbeq.w	r6, [r9, #1]
  4040fc:	f04b 0b20 	orreq.w	fp, fp, #32
  404100:	f109 0901 	addeq.w	r9, r9, #1
  404104:	f04b 0b10 	orrne.w	fp, fp, #16
  404108:	e52d      	b.n	403b66 <_vfprintf_r+0xfe>
  40410a:	2a00      	cmp	r2, #0
  40410c:	f040 874c 	bne.w	404fa8 <_vfprintf_r+0x1540>
  404110:	f01b 0f20 	tst.w	fp, #32
  404114:	f040 853f 	bne.w	404b96 <_vfprintf_r+0x112e>
  404118:	f01b 0f10 	tst.w	fp, #16
  40411c:	f040 80fc 	bne.w	404318 <_vfprintf_r+0x8b0>
  404120:	f01b 0f40 	tst.w	fp, #64	; 0x40
  404124:	f000 80f8 	beq.w	404318 <_vfprintf_r+0x8b0>
  404128:	9a0e      	ldr	r2, [sp, #56]	; 0x38
  40412a:	6813      	ldr	r3, [r2, #0]
  40412c:	3204      	adds	r2, #4
  40412e:	920e      	str	r2, [sp, #56]	; 0x38
  404130:	f8bd 202c 	ldrh.w	r2, [sp, #44]	; 0x2c
  404134:	801a      	strh	r2, [r3, #0]
  404136:	e4e3      	b.n	403b00 <_vfprintf_r+0x98>
  404138:	f899 6000 	ldrb.w	r6, [r9]
  40413c:	2900      	cmp	r1, #0
  40413e:	f47f ad12 	bne.w	403b66 <_vfprintf_r+0xfe>
  404142:	2201      	movs	r2, #1
  404144:	2120      	movs	r1, #32
  404146:	e50e      	b.n	403b66 <_vfprintf_r+0xfe>
  404148:	f899 6000 	ldrb.w	r6, [r9]
  40414c:	2e2a      	cmp	r6, #42	; 0x2a
  40414e:	f109 0001 	add.w	r0, r9, #1
  404152:	f000 86f1 	beq.w	404f38 <_vfprintf_r+0x14d0>
  404156:	f1a6 0330 	sub.w	r3, r6, #48	; 0x30
  40415a:	2b09      	cmp	r3, #9
  40415c:	4681      	mov	r9, r0
  40415e:	bf98      	it	ls
  404160:	2000      	movls	r0, #0
  404162:	f200 863d 	bhi.w	404de0 <_vfprintf_r+0x1378>
  404166:	f819 6b01 	ldrb.w	r6, [r9], #1
  40416a:	eb00 0080 	add.w	r0, r0, r0, lsl #2
  40416e:	eb03 0040 	add.w	r0, r3, r0, lsl #1
  404172:	f1a6 0330 	sub.w	r3, r6, #48	; 0x30
  404176:	2b09      	cmp	r3, #9
  404178:	d9f5      	bls.n	404166 <_vfprintf_r+0x6fe>
  40417a:	9009      	str	r0, [sp, #36]	; 0x24
  40417c:	e4f5      	b.n	403b6a <_vfprintf_r+0x102>
  40417e:	f04b 0b80 	orr.w	fp, fp, #128	; 0x80
  404182:	f899 6000 	ldrb.w	r6, [r9]
  404186:	e4ee      	b.n	403b66 <_vfprintf_r+0xfe>
  404188:	f899 6000 	ldrb.w	r6, [r9]
  40418c:	2201      	movs	r2, #1
  40418e:	212b      	movs	r1, #43	; 0x2b
  404190:	e4e9      	b.n	403b66 <_vfprintf_r+0xfe>
  404192:	9a0e      	ldr	r2, [sp, #56]	; 0x38
  404194:	4bae      	ldr	r3, [pc, #696]	; (404450 <_vfprintf_r+0x9e8>)
  404196:	6814      	ldr	r4, [r2, #0]
  404198:	9318      	str	r3, [sp, #96]	; 0x60
  40419a:	2678      	movs	r6, #120	; 0x78
  40419c:	2330      	movs	r3, #48	; 0x30
  40419e:	3204      	adds	r2, #4
  4041a0:	f88d 3070 	strb.w	r3, [sp, #112]	; 0x70
  4041a4:	f04b 0b02 	orr.w	fp, fp, #2
  4041a8:	920e      	str	r2, [sp, #56]	; 0x38
  4041aa:	2500      	movs	r5, #0
  4041ac:	f88d 6071 	strb.w	r6, [sp, #113]	; 0x71
  4041b0:	2302      	movs	r3, #2
  4041b2:	e565      	b.n	403c80 <_vfprintf_r+0x218>
  4041b4:	2a00      	cmp	r2, #0
  4041b6:	f040 86e4 	bne.w	404f82 <_vfprintf_r+0x151a>
  4041ba:	4ba6      	ldr	r3, [pc, #664]	; (404454 <_vfprintf_r+0x9ec>)
  4041bc:	9318      	str	r3, [sp, #96]	; 0x60
  4041be:	e6ff      	b.n	403fc0 <_vfprintf_r+0x558>
  4041c0:	990e      	ldr	r1, [sp, #56]	; 0x38
  4041c2:	f8cd b018 	str.w	fp, [sp, #24]
  4041c6:	680a      	ldr	r2, [r1, #0]
  4041c8:	f88d 2098 	strb.w	r2, [sp, #152]	; 0x98
  4041cc:	2300      	movs	r3, #0
  4041ce:	460a      	mov	r2, r1
  4041d0:	469a      	mov	sl, r3
  4041d2:	f88d 306f 	strb.w	r3, [sp, #111]	; 0x6f
  4041d6:	3204      	adds	r2, #4
  4041d8:	2301      	movs	r3, #1
  4041da:	9307      	str	r3, [sp, #28]
  4041dc:	f8cd a024 	str.w	sl, [sp, #36]	; 0x24
  4041e0:	f8cd a040 	str.w	sl, [sp, #64]	; 0x40
  4041e4:	920e      	str	r2, [sp, #56]	; 0x38
  4041e6:	930d      	str	r3, [sp, #52]	; 0x34
  4041e8:	af26      	add	r7, sp, #152	; 0x98
  4041ea:	e575      	b.n	403cd8 <_vfprintf_r+0x270>
  4041ec:	f1a6 0330 	sub.w	r3, r6, #48	; 0x30
  4041f0:	2000      	movs	r0, #0
  4041f2:	f819 6b01 	ldrb.w	r6, [r9], #1
  4041f6:	eb00 0080 	add.w	r0, r0, r0, lsl #2
  4041fa:	eb03 0040 	add.w	r0, r3, r0, lsl #1
  4041fe:	f1a6 0330 	sub.w	r3, r6, #48	; 0x30
  404202:	2b09      	cmp	r3, #9
  404204:	d9f5      	bls.n	4041f2 <_vfprintf_r+0x78a>
  404206:	900c      	str	r0, [sp, #48]	; 0x30
  404208:	e4af      	b.n	403b6a <_vfprintf_r+0x102>
  40420a:	2a00      	cmp	r2, #0
  40420c:	f040 86c8 	bne.w	404fa0 <_vfprintf_r+0x1538>
  404210:	f04b 0b10 	orr.w	fp, fp, #16
  404214:	e726      	b.n	404064 <_vfprintf_r+0x5fc>
  404216:	f04b 0b01 	orr.w	fp, fp, #1
  40421a:	f899 6000 	ldrb.w	r6, [r9]
  40421e:	e4a2      	b.n	403b66 <_vfprintf_r+0xfe>
  404220:	9c0e      	ldr	r4, [sp, #56]	; 0x38
  404222:	6823      	ldr	r3, [r4, #0]
  404224:	930c      	str	r3, [sp, #48]	; 0x30
  404226:	4618      	mov	r0, r3
  404228:	2800      	cmp	r0, #0
  40422a:	4623      	mov	r3, r4
  40422c:	f103 0304 	add.w	r3, r3, #4
  404230:	f6ff aeb8 	blt.w	403fa4 <_vfprintf_r+0x53c>
  404234:	930e      	str	r3, [sp, #56]	; 0x38
  404236:	f899 6000 	ldrb.w	r6, [r9]
  40423a:	e494      	b.n	403b66 <_vfprintf_r+0xfe>
  40423c:	2a00      	cmp	r2, #0
  40423e:	f040 86b7 	bne.w	404fb0 <_vfprintf_r+0x1548>
  404242:	9d0e      	ldr	r5, [sp, #56]	; 0x38
  404244:	3507      	adds	r5, #7
  404246:	f025 0307 	bic.w	r3, r5, #7
  40424a:	f103 0208 	add.w	r2, r3, #8
  40424e:	920e      	str	r2, [sp, #56]	; 0x38
  404250:	681a      	ldr	r2, [r3, #0]
  404252:	9213      	str	r2, [sp, #76]	; 0x4c
  404254:	685b      	ldr	r3, [r3, #4]
  404256:	9312      	str	r3, [sp, #72]	; 0x48
  404258:	9b12      	ldr	r3, [sp, #72]	; 0x48
  40425a:	9d13      	ldr	r5, [sp, #76]	; 0x4c
  40425c:	f023 4400 	bic.w	r4, r3, #2147483648	; 0x80000000
  404260:	4628      	mov	r0, r5
  404262:	4621      	mov	r1, r4
  404264:	f04f 32ff 	mov.w	r2, #4294967295
  404268:	4b7b      	ldr	r3, [pc, #492]	; (404458 <_vfprintf_r+0x9f0>)
  40426a:	f004 f927 	bl	4084bc <__aeabi_dcmpun>
  40426e:	2800      	cmp	r0, #0
  404270:	f040 83a2 	bne.w	4049b8 <_vfprintf_r+0xf50>
  404274:	4628      	mov	r0, r5
  404276:	4621      	mov	r1, r4
  404278:	f04f 32ff 	mov.w	r2, #4294967295
  40427c:	4b76      	ldr	r3, [pc, #472]	; (404458 <_vfprintf_r+0x9f0>)
  40427e:	f004 f8ff 	bl	408480 <__aeabi_dcmple>
  404282:	2800      	cmp	r0, #0
  404284:	f040 8398 	bne.w	4049b8 <_vfprintf_r+0xf50>
  404288:	9a16      	ldr	r2, [sp, #88]	; 0x58
  40428a:	9813      	ldr	r0, [sp, #76]	; 0x4c
  40428c:	9b17      	ldr	r3, [sp, #92]	; 0x5c
  40428e:	9912      	ldr	r1, [sp, #72]	; 0x48
  404290:	f004 f8ec 	bl	40846c <__aeabi_dcmplt>
  404294:	2800      	cmp	r0, #0
  404296:	f040 8435 	bne.w	404b04 <_vfprintf_r+0x109c>
  40429a:	f89d a06f 	ldrb.w	sl, [sp, #111]	; 0x6f
  40429e:	4f6f      	ldr	r7, [pc, #444]	; (40445c <_vfprintf_r+0x9f4>)
  4042a0:	4b6f      	ldr	r3, [pc, #444]	; (404460 <_vfprintf_r+0x9f8>)
  4042a2:	2203      	movs	r2, #3
  4042a4:	2100      	movs	r1, #0
  4042a6:	f02b 0080 	bic.w	r0, fp, #128	; 0x80
  4042aa:	9207      	str	r2, [sp, #28]
  4042ac:	9109      	str	r1, [sp, #36]	; 0x24
  4042ae:	9006      	str	r0, [sp, #24]
  4042b0:	2e47      	cmp	r6, #71	; 0x47
  4042b2:	bfd8      	it	le
  4042b4:	461f      	movle	r7, r3
  4042b6:	920d      	str	r2, [sp, #52]	; 0x34
  4042b8:	9110      	str	r1, [sp, #64]	; 0x40
  4042ba:	e507      	b.n	403ccc <_vfprintf_r+0x264>
  4042bc:	f04b 0b08 	orr.w	fp, fp, #8
  4042c0:	f899 6000 	ldrb.w	r6, [r9]
  4042c4:	e44f      	b.n	403b66 <_vfprintf_r+0xfe>
  4042c6:	9d0e      	ldr	r5, [sp, #56]	; 0x38
  4042c8:	3507      	adds	r5, #7
  4042ca:	f025 0307 	bic.w	r3, r5, #7
  4042ce:	f103 0208 	add.w	r2, r3, #8
  4042d2:	e9d3 4500 	ldrd	r4, r5, [r3]
  4042d6:	920e      	str	r2, [sp, #56]	; 0x38
  4042d8:	2300      	movs	r3, #0
  4042da:	e4d1      	b.n	403c80 <_vfprintf_r+0x218>
  4042dc:	9d0e      	ldr	r5, [sp, #56]	; 0x38
  4042de:	3507      	adds	r5, #7
  4042e0:	f025 0307 	bic.w	r3, r5, #7
  4042e4:	f103 0208 	add.w	r2, r3, #8
  4042e8:	e9d3 4500 	ldrd	r4, r5, [r3]
  4042ec:	920e      	str	r2, [sp, #56]	; 0x38
  4042ee:	2301      	movs	r3, #1
  4042f0:	e4c6      	b.n	403c80 <_vfprintf_r+0x218>
  4042f2:	2a00      	cmp	r2, #0
  4042f4:	f040 8650 	bne.w	404f98 <_vfprintf_r+0x1530>
  4042f8:	b1c6      	cbz	r6, 40432c <_vfprintf_r+0x8c4>
  4042fa:	2300      	movs	r3, #0
  4042fc:	2201      	movs	r2, #1
  4042fe:	469a      	mov	sl, r3
  404300:	9207      	str	r2, [sp, #28]
  404302:	f88d 6098 	strb.w	r6, [sp, #152]	; 0x98
  404306:	f8cd b018 	str.w	fp, [sp, #24]
  40430a:	f88d 306f 	strb.w	r3, [sp, #111]	; 0x6f
  40430e:	9309      	str	r3, [sp, #36]	; 0x24
  404310:	9310      	str	r3, [sp, #64]	; 0x40
  404312:	920d      	str	r2, [sp, #52]	; 0x34
  404314:	af26      	add	r7, sp, #152	; 0x98
  404316:	e4df      	b.n	403cd8 <_vfprintf_r+0x270>
  404318:	9a0e      	ldr	r2, [sp, #56]	; 0x38
  40431a:	6813      	ldr	r3, [r2, #0]
  40431c:	3204      	adds	r2, #4
  40431e:	920e      	str	r2, [sp, #56]	; 0x38
  404320:	9a0b      	ldr	r2, [sp, #44]	; 0x2c
  404322:	601a      	str	r2, [r3, #0]
  404324:	f7ff bbec 	b.w	403b00 <_vfprintf_r+0x98>
  404328:	9c25      	ldr	r4, [sp, #148]	; 0x94
  40432a:	e527      	b.n	403d7c <_vfprintf_r+0x314>
  40432c:	9b25      	ldr	r3, [sp, #148]	; 0x94
  40432e:	f8dd a028 	ldr.w	sl, [sp, #40]	; 0x28
  404332:	2b00      	cmp	r3, #0
  404334:	f040 8594 	bne.w	404e60 <_vfprintf_r+0x13f8>
  404338:	2300      	movs	r3, #0
  40433a:	9324      	str	r3, [sp, #144]	; 0x90
  40433c:	f8da 3064 	ldr.w	r3, [sl, #100]	; 0x64
  404340:	f013 0f01 	tst.w	r3, #1
  404344:	f8ba 300c 	ldrh.w	r3, [sl, #12]
  404348:	d102      	bne.n	404350 <_vfprintf_r+0x8e8>
  40434a:	059a      	lsls	r2, r3, #22
  40434c:	f140 8249 	bpl.w	4047e2 <_vfprintf_r+0xd7a>
  404350:	065b      	lsls	r3, r3, #25
  404352:	f53f adec 	bmi.w	403f2e <_vfprintf_r+0x4c6>
  404356:	980b      	ldr	r0, [sp, #44]	; 0x2c
  404358:	b041      	add	sp, #260	; 0x104
  40435a:	e8bd 8ff0 	ldmia.w	sp!, {r4, r5, r6, r7, r8, r9, sl, fp, pc}
  40435e:	2e65      	cmp	r6, #101	; 0x65
  404360:	f340 80b2 	ble.w	4044c8 <_vfprintf_r+0xa60>
  404364:	9a16      	ldr	r2, [sp, #88]	; 0x58
  404366:	9813      	ldr	r0, [sp, #76]	; 0x4c
  404368:	9b17      	ldr	r3, [sp, #92]	; 0x5c
  40436a:	9912      	ldr	r1, [sp, #72]	; 0x48
  40436c:	f004 f874 	bl	408458 <__aeabi_dcmpeq>
  404370:	2800      	cmp	r0, #0
  404372:	f000 8160 	beq.w	404636 <_vfprintf_r+0xbce>
  404376:	9b24      	ldr	r3, [sp, #144]	; 0x90
  404378:	4a3a      	ldr	r2, [pc, #232]	; (404464 <_vfprintf_r+0x9fc>)
  40437a:	f8c8 2000 	str.w	r2, [r8]
  40437e:	3301      	adds	r3, #1
  404380:	3401      	adds	r4, #1
  404382:	2201      	movs	r2, #1
  404384:	2b07      	cmp	r3, #7
  404386:	9425      	str	r4, [sp, #148]	; 0x94
  404388:	9324      	str	r3, [sp, #144]	; 0x90
  40438a:	f8c8 2004 	str.w	r2, [r8, #4]
  40438e:	f300 83bf 	bgt.w	404b10 <_vfprintf_r+0x10a8>
  404392:	f108 0808 	add.w	r8, r8, #8
  404396:	9b1d      	ldr	r3, [sp, #116]	; 0x74
  404398:	9a11      	ldr	r2, [sp, #68]	; 0x44
  40439a:	9c25      	ldr	r4, [sp, #148]	; 0x94
  40439c:	4293      	cmp	r3, r2
  40439e:	db03      	blt.n	4043a8 <_vfprintf_r+0x940>
  4043a0:	9b06      	ldr	r3, [sp, #24]
  4043a2:	07df      	lsls	r7, r3, #31
  4043a4:	f57f ad65 	bpl.w	403e72 <_vfprintf_r+0x40a>
  4043a8:	9b24      	ldr	r3, [sp, #144]	; 0x90
  4043aa:	9914      	ldr	r1, [sp, #80]	; 0x50
  4043ac:	9a15      	ldr	r2, [sp, #84]	; 0x54
  4043ae:	f8c8 2000 	str.w	r2, [r8]
  4043b2:	3301      	adds	r3, #1
  4043b4:	440c      	add	r4, r1
  4043b6:	2b07      	cmp	r3, #7
  4043b8:	f8c8 1004 	str.w	r1, [r8, #4]
  4043bc:	9425      	str	r4, [sp, #148]	; 0x94
  4043be:	9324      	str	r3, [sp, #144]	; 0x90
  4043c0:	f300 83f8 	bgt.w	404bb4 <_vfprintf_r+0x114c>
  4043c4:	f108 0808 	add.w	r8, r8, #8
  4043c8:	9b11      	ldr	r3, [sp, #68]	; 0x44
  4043ca:	1e5e      	subs	r6, r3, #1
  4043cc:	2e00      	cmp	r6, #0
  4043ce:	f77f ad50 	ble.w	403e72 <_vfprintf_r+0x40a>
  4043d2:	2e10      	cmp	r6, #16
  4043d4:	9b24      	ldr	r3, [sp, #144]	; 0x90
  4043d6:	4d24      	ldr	r5, [pc, #144]	; (404468 <_vfprintf_r+0xa00>)
  4043d8:	f340 81dd 	ble.w	404796 <_vfprintf_r+0xd2e>
  4043dc:	2710      	movs	r7, #16
  4043de:	f8dd a020 	ldr.w	sl, [sp, #32]
  4043e2:	f8dd b028 	ldr.w	fp, [sp, #40]	; 0x28
  4043e6:	e005      	b.n	4043f4 <_vfprintf_r+0x98c>
  4043e8:	f108 0808 	add.w	r8, r8, #8
  4043ec:	3e10      	subs	r6, #16
  4043ee:	2e10      	cmp	r6, #16
  4043f0:	f340 81d1 	ble.w	404796 <_vfprintf_r+0xd2e>
  4043f4:	3301      	adds	r3, #1
  4043f6:	3410      	adds	r4, #16
  4043f8:	2b07      	cmp	r3, #7
  4043fa:	9425      	str	r4, [sp, #148]	; 0x94
  4043fc:	9324      	str	r3, [sp, #144]	; 0x90
  4043fe:	e888 00a0 	stmia.w	r8, {r5, r7}
  404402:	ddf1      	ble.n	4043e8 <_vfprintf_r+0x980>
  404404:	aa23      	add	r2, sp, #140	; 0x8c
  404406:	4659      	mov	r1, fp
  404408:	4650      	mov	r0, sl
  40440a:	f7fe fc99 	bl	402d40 <__sprint_r>
  40440e:	2800      	cmp	r0, #0
  404410:	f040 83cd 	bne.w	404bae <_vfprintf_r+0x1146>
  404414:	9c25      	ldr	r4, [sp, #148]	; 0x94
  404416:	9b24      	ldr	r3, [sp, #144]	; 0x90
  404418:	f10d 08c0 	add.w	r8, sp, #192	; 0xc0
  40441c:	e7e6      	b.n	4043ec <_vfprintf_r+0x984>
  40441e:	46aa      	mov	sl, r5
  404420:	e78c      	b.n	40433c <_vfprintf_r+0x8d4>
  404422:	9b0c      	ldr	r3, [sp, #48]	; 0x30
  404424:	9a07      	ldr	r2, [sp, #28]
  404426:	eba3 0a02 	sub.w	sl, r3, r2
  40442a:	f1ba 0f00 	cmp.w	sl, #0
  40442e:	f77f acca 	ble.w	403dc6 <_vfprintf_r+0x35e>
  404432:	f1ba 0f10 	cmp.w	sl, #16
  404436:	9b24      	ldr	r3, [sp, #144]	; 0x90
  404438:	4d0b      	ldr	r5, [pc, #44]	; (404468 <_vfprintf_r+0xa00>)
  40443a:	dd39      	ble.n	4044b0 <_vfprintf_r+0xa48>
  40443c:	4642      	mov	r2, r8
  40443e:	4621      	mov	r1, r4
  404440:	46b0      	mov	r8, r6
  404442:	f04f 0b10 	mov.w	fp, #16
  404446:	462e      	mov	r6, r5
  404448:	9c08      	ldr	r4, [sp, #32]
  40444a:	9d0a      	ldr	r5, [sp, #40]	; 0x28
  40444c:	e015      	b.n	40447a <_vfprintf_r+0xa12>
  40444e:	bf00      	nop
  404450:	004099c0 	.word	0x004099c0
  404454:	004099ac 	.word	0x004099ac
  404458:	7fefffff 	.word	0x7fefffff
  40445c:	00409a00 	.word	0x00409a00
  404460:	004099fc 	.word	0x004099fc
  404464:	00408d88 	.word	0x00408d88
  404468:	00409a1c 	.word	0x00409a1c
  40446c:	f1aa 0a10 	sub.w	sl, sl, #16
  404470:	f1ba 0f10 	cmp.w	sl, #16
  404474:	f102 0208 	add.w	r2, r2, #8
  404478:	dd16      	ble.n	4044a8 <_vfprintf_r+0xa40>
  40447a:	3301      	adds	r3, #1
  40447c:	3110      	adds	r1, #16
  40447e:	2b07      	cmp	r3, #7
  404480:	9125      	str	r1, [sp, #148]	; 0x94
  404482:	9324      	str	r3, [sp, #144]	; 0x90
  404484:	e882 0840 	stmia.w	r2, {r6, fp}
  404488:	ddf0      	ble.n	40446c <_vfprintf_r+0xa04>
  40448a:	aa23      	add	r2, sp, #140	; 0x8c
  40448c:	4629      	mov	r1, r5
  40448e:	4620      	mov	r0, r4
  404490:	f7fe fc56 	bl	402d40 <__sprint_r>
  404494:	2800      	cmp	r0, #0
  404496:	d1c2      	bne.n	40441e <_vfprintf_r+0x9b6>
  404498:	f1aa 0a10 	sub.w	sl, sl, #16
  40449c:	f1ba 0f10 	cmp.w	sl, #16
  4044a0:	9925      	ldr	r1, [sp, #148]	; 0x94
  4044a2:	9b24      	ldr	r3, [sp, #144]	; 0x90
  4044a4:	aa30      	add	r2, sp, #192	; 0xc0
  4044a6:	dce8      	bgt.n	40447a <_vfprintf_r+0xa12>
  4044a8:	4635      	mov	r5, r6
  4044aa:	460c      	mov	r4, r1
  4044ac:	4646      	mov	r6, r8
  4044ae:	4690      	mov	r8, r2
  4044b0:	3301      	adds	r3, #1
  4044b2:	4454      	add	r4, sl
  4044b4:	2b07      	cmp	r3, #7
  4044b6:	9425      	str	r4, [sp, #148]	; 0x94
  4044b8:	9324      	str	r3, [sp, #144]	; 0x90
  4044ba:	e888 0420 	stmia.w	r8, {r5, sl}
  4044be:	f300 8264 	bgt.w	40498a <_vfprintf_r+0xf22>
  4044c2:	f108 0808 	add.w	r8, r8, #8
  4044c6:	e47e      	b.n	403dc6 <_vfprintf_r+0x35e>
  4044c8:	9b11      	ldr	r3, [sp, #68]	; 0x44
  4044ca:	9e24      	ldr	r6, [sp, #144]	; 0x90
  4044cc:	2b01      	cmp	r3, #1
  4044ce:	f340 81fd 	ble.w	4048cc <_vfprintf_r+0xe64>
  4044d2:	3601      	adds	r6, #1
  4044d4:	3401      	adds	r4, #1
  4044d6:	2301      	movs	r3, #1
  4044d8:	2e07      	cmp	r6, #7
  4044da:	9425      	str	r4, [sp, #148]	; 0x94
  4044dc:	9624      	str	r6, [sp, #144]	; 0x90
  4044de:	f8c8 7000 	str.w	r7, [r8]
  4044e2:	f8c8 3004 	str.w	r3, [r8, #4]
  4044e6:	f300 820e 	bgt.w	404906 <_vfprintf_r+0xe9e>
  4044ea:	f108 0808 	add.w	r8, r8, #8
  4044ee:	9a14      	ldr	r2, [sp, #80]	; 0x50
  4044f0:	9b15      	ldr	r3, [sp, #84]	; 0x54
  4044f2:	f8c8 3000 	str.w	r3, [r8]
  4044f6:	3601      	adds	r6, #1
  4044f8:	4414      	add	r4, r2
  4044fa:	2e07      	cmp	r6, #7
  4044fc:	9425      	str	r4, [sp, #148]	; 0x94
  4044fe:	9624      	str	r6, [sp, #144]	; 0x90
  404500:	f8c8 2004 	str.w	r2, [r8, #4]
  404504:	f300 822e 	bgt.w	404964 <_vfprintf_r+0xefc>
  404508:	f108 0808 	add.w	r8, r8, #8
  40450c:	9b17      	ldr	r3, [sp, #92]	; 0x5c
  40450e:	9a16      	ldr	r2, [sp, #88]	; 0x58
  404510:	9813      	ldr	r0, [sp, #76]	; 0x4c
  404512:	9912      	ldr	r1, [sp, #72]	; 0x48
  404514:	f003 ffa0 	bl	408458 <__aeabi_dcmpeq>
  404518:	9b11      	ldr	r3, [sp, #68]	; 0x44
  40451a:	2800      	cmp	r0, #0
  40451c:	f040 8106 	bne.w	40472c <_vfprintf_r+0xcc4>
  404520:	3b01      	subs	r3, #1
  404522:	3601      	adds	r6, #1
  404524:	3701      	adds	r7, #1
  404526:	441c      	add	r4, r3
  404528:	2e07      	cmp	r6, #7
  40452a:	9624      	str	r6, [sp, #144]	; 0x90
  40452c:	9425      	str	r4, [sp, #148]	; 0x94
  40452e:	f8c8 7000 	str.w	r7, [r8]
  404532:	f8c8 3004 	str.w	r3, [r8, #4]
  404536:	f300 81d9 	bgt.w	4048ec <_vfprintf_r+0xe84>
  40453a:	f108 0808 	add.w	r8, r8, #8
  40453e:	9a19      	ldr	r2, [sp, #100]	; 0x64
  404540:	f8c8 2004 	str.w	r2, [r8, #4]
  404544:	3601      	adds	r6, #1
  404546:	4414      	add	r4, r2
  404548:	ab1f      	add	r3, sp, #124	; 0x7c
  40454a:	2e07      	cmp	r6, #7
  40454c:	9425      	str	r4, [sp, #148]	; 0x94
  40454e:	9624      	str	r6, [sp, #144]	; 0x90
  404550:	f8c8 3000 	str.w	r3, [r8]
  404554:	f77f ac8b 	ble.w	403e6e <_vfprintf_r+0x406>
  404558:	aa23      	add	r2, sp, #140	; 0x8c
  40455a:	990a      	ldr	r1, [sp, #40]	; 0x28
  40455c:	9808      	ldr	r0, [sp, #32]
  40455e:	f7fe fbef 	bl	402d40 <__sprint_r>
  404562:	b958      	cbnz	r0, 40457c <_vfprintf_r+0xb14>
  404564:	9c25      	ldr	r4, [sp, #148]	; 0x94
  404566:	f10d 08c0 	add.w	r8, sp, #192	; 0xc0
  40456a:	e482      	b.n	403e72 <_vfprintf_r+0x40a>
  40456c:	aa23      	add	r2, sp, #140	; 0x8c
  40456e:	990a      	ldr	r1, [sp, #40]	; 0x28
  404570:	9808      	ldr	r0, [sp, #32]
  404572:	f7fe fbe5 	bl	402d40 <__sprint_r>
  404576:	2800      	cmp	r0, #0
  404578:	f43f acc5 	beq.w	403f06 <_vfprintf_r+0x49e>
  40457c:	f8dd a028 	ldr.w	sl, [sp, #40]	; 0x28
  404580:	e6dc      	b.n	40433c <_vfprintf_r+0x8d4>
  404582:	f8dd b018 	ldr.w	fp, [sp, #24]
  404586:	2b01      	cmp	r3, #1
  404588:	f000 8121 	beq.w	4047ce <_vfprintf_r+0xd66>
  40458c:	2b02      	cmp	r3, #2
  40458e:	d127      	bne.n	4045e0 <_vfprintf_r+0xb78>
  404590:	f8cd b018 	str.w	fp, [sp, #24]
  404594:	2400      	movs	r4, #0
  404596:	2500      	movs	r5, #0
  404598:	e591      	b.n	4040be <_vfprintf_r+0x656>
  40459a:	aa23      	add	r2, sp, #140	; 0x8c
  40459c:	990a      	ldr	r1, [sp, #40]	; 0x28
  40459e:	9808      	ldr	r0, [sp, #32]
  4045a0:	f7fe fbce 	bl	402d40 <__sprint_r>
  4045a4:	2800      	cmp	r0, #0
  4045a6:	d1e9      	bne.n	40457c <_vfprintf_r+0xb14>
  4045a8:	9c25      	ldr	r4, [sp, #148]	; 0x94
  4045aa:	f10d 08c0 	add.w	r8, sp, #192	; 0xc0
  4045ae:	e44d      	b.n	403e4c <_vfprintf_r+0x3e4>
  4045b0:	aa23      	add	r2, sp, #140	; 0x8c
  4045b2:	990a      	ldr	r1, [sp, #40]	; 0x28
  4045b4:	9808      	ldr	r0, [sp, #32]
  4045b6:	f7fe fbc3 	bl	402d40 <__sprint_r>
  4045ba:	2800      	cmp	r0, #0
  4045bc:	d1de      	bne.n	40457c <_vfprintf_r+0xb14>
  4045be:	9c25      	ldr	r4, [sp, #148]	; 0x94
  4045c0:	f10d 08c0 	add.w	r8, sp, #192	; 0xc0
  4045c4:	f7ff bbec 	b.w	403da0 <_vfprintf_r+0x338>
  4045c8:	aa23      	add	r2, sp, #140	; 0x8c
  4045ca:	990a      	ldr	r1, [sp, #40]	; 0x28
  4045cc:	9808      	ldr	r0, [sp, #32]
  4045ce:	f7fe fbb7 	bl	402d40 <__sprint_r>
  4045d2:	2800      	cmp	r0, #0
  4045d4:	d1d2      	bne.n	40457c <_vfprintf_r+0xb14>
  4045d6:	9c25      	ldr	r4, [sp, #148]	; 0x94
  4045d8:	f10d 08c0 	add.w	r8, sp, #192	; 0xc0
  4045dc:	f7ff bbf0 	b.w	403dc0 <_vfprintf_r+0x358>
  4045e0:	f8cd b018 	str.w	fp, [sp, #24]
  4045e4:	2400      	movs	r4, #0
  4045e6:	2500      	movs	r5, #0
  4045e8:	a930      	add	r1, sp, #192	; 0xc0
  4045ea:	e000      	b.n	4045ee <_vfprintf_r+0xb86>
  4045ec:	4639      	mov	r1, r7
  4045ee:	08e2      	lsrs	r2, r4, #3
  4045f0:	ea42 7245 	orr.w	r2, r2, r5, lsl #29
  4045f4:	08e8      	lsrs	r0, r5, #3
  4045f6:	f004 0307 	and.w	r3, r4, #7
  4045fa:	4605      	mov	r5, r0
  4045fc:	4614      	mov	r4, r2
  4045fe:	3330      	adds	r3, #48	; 0x30
  404600:	ea54 0205 	orrs.w	r2, r4, r5
  404604:	f801 3c01 	strb.w	r3, [r1, #-1]
  404608:	f101 37ff 	add.w	r7, r1, #4294967295
  40460c:	d1ee      	bne.n	4045ec <_vfprintf_r+0xb84>
  40460e:	9a06      	ldr	r2, [sp, #24]
  404610:	07d2      	lsls	r2, r2, #31
  404612:	f57f ad64 	bpl.w	4040de <_vfprintf_r+0x676>
  404616:	2b30      	cmp	r3, #48	; 0x30
  404618:	f43f ad61 	beq.w	4040de <_vfprintf_r+0x676>
  40461c:	2330      	movs	r3, #48	; 0x30
  40461e:	3902      	subs	r1, #2
  404620:	f807 3c01 	strb.w	r3, [r7, #-1]
  404624:	ab30      	add	r3, sp, #192	; 0xc0
  404626:	1a5b      	subs	r3, r3, r1
  404628:	930d      	str	r3, [sp, #52]	; 0x34
  40462a:	460f      	mov	r7, r1
  40462c:	f7ff bb46 	b.w	403cbc <_vfprintf_r+0x254>
  404630:	2302      	movs	r3, #2
  404632:	f7ff bb25 	b.w	403c80 <_vfprintf_r+0x218>
  404636:	991d      	ldr	r1, [sp, #116]	; 0x74
  404638:	2900      	cmp	r1, #0
  40463a:	f340 8274 	ble.w	404b26 <_vfprintf_r+0x10be>
  40463e:	9b10      	ldr	r3, [sp, #64]	; 0x40
  404640:	9a11      	ldr	r2, [sp, #68]	; 0x44
  404642:	4293      	cmp	r3, r2
  404644:	bfa8      	it	ge
  404646:	4613      	movge	r3, r2
  404648:	2b00      	cmp	r3, #0
  40464a:	461e      	mov	r6, r3
  40464c:	dd0d      	ble.n	40466a <_vfprintf_r+0xc02>
  40464e:	9b24      	ldr	r3, [sp, #144]	; 0x90
  404650:	f8c8 7000 	str.w	r7, [r8]
  404654:	3301      	adds	r3, #1
  404656:	4434      	add	r4, r6
  404658:	2b07      	cmp	r3, #7
  40465a:	9425      	str	r4, [sp, #148]	; 0x94
  40465c:	f8c8 6004 	str.w	r6, [r8, #4]
  404660:	9324      	str	r3, [sp, #144]	; 0x90
  404662:	f300 8324 	bgt.w	404cae <_vfprintf_r+0x1246>
  404666:	f108 0808 	add.w	r8, r8, #8
  40466a:	9b10      	ldr	r3, [sp, #64]	; 0x40
  40466c:	2e00      	cmp	r6, #0
  40466e:	bfa8      	it	ge
  404670:	1b9b      	subge	r3, r3, r6
  404672:	2b00      	cmp	r3, #0
  404674:	461e      	mov	r6, r3
  404676:	f340 80d0 	ble.w	40481a <_vfprintf_r+0xdb2>
  40467a:	2e10      	cmp	r6, #16
  40467c:	9b24      	ldr	r3, [sp, #144]	; 0x90
  40467e:	4dc0      	ldr	r5, [pc, #768]	; (404980 <_vfprintf_r+0xf18>)
  404680:	f340 80b7 	ble.w	4047f2 <_vfprintf_r+0xd8a>
  404684:	4622      	mov	r2, r4
  404686:	f04f 0a10 	mov.w	sl, #16
  40468a:	f8dd b020 	ldr.w	fp, [sp, #32]
  40468e:	9c0a      	ldr	r4, [sp, #40]	; 0x28
  404690:	e005      	b.n	40469e <_vfprintf_r+0xc36>
  404692:	f108 0808 	add.w	r8, r8, #8
  404696:	3e10      	subs	r6, #16
  404698:	2e10      	cmp	r6, #16
  40469a:	f340 80a9 	ble.w	4047f0 <_vfprintf_r+0xd88>
  40469e:	3301      	adds	r3, #1
  4046a0:	3210      	adds	r2, #16
  4046a2:	2b07      	cmp	r3, #7
  4046a4:	9225      	str	r2, [sp, #148]	; 0x94
  4046a6:	9324      	str	r3, [sp, #144]	; 0x90
  4046a8:	e888 0420 	stmia.w	r8, {r5, sl}
  4046ac:	ddf1      	ble.n	404692 <_vfprintf_r+0xc2a>
  4046ae:	aa23      	add	r2, sp, #140	; 0x8c
  4046b0:	4621      	mov	r1, r4
  4046b2:	4658      	mov	r0, fp
  4046b4:	f7fe fb44 	bl	402d40 <__sprint_r>
  4046b8:	2800      	cmp	r0, #0
  4046ba:	f040 8324 	bne.w	404d06 <_vfprintf_r+0x129e>
  4046be:	9a25      	ldr	r2, [sp, #148]	; 0x94
  4046c0:	9b24      	ldr	r3, [sp, #144]	; 0x90
  4046c2:	f10d 08c0 	add.w	r8, sp, #192	; 0xc0
  4046c6:	e7e6      	b.n	404696 <_vfprintf_r+0xc2e>
  4046c8:	2d00      	cmp	r5, #0
  4046ca:	bf08      	it	eq
  4046cc:	2c0a      	cmpeq	r4, #10
  4046ce:	d37c      	bcc.n	4047ca <_vfprintf_r+0xd62>
  4046d0:	af30      	add	r7, sp, #192	; 0xc0
  4046d2:	4620      	mov	r0, r4
  4046d4:	4629      	mov	r1, r5
  4046d6:	220a      	movs	r2, #10
  4046d8:	2300      	movs	r3, #0
  4046da:	f003 ff2d 	bl	408538 <__aeabi_uldivmod>
  4046de:	3230      	adds	r2, #48	; 0x30
  4046e0:	f807 2d01 	strb.w	r2, [r7, #-1]!
  4046e4:	4620      	mov	r0, r4
  4046e6:	4629      	mov	r1, r5
  4046e8:	2300      	movs	r3, #0
  4046ea:	220a      	movs	r2, #10
  4046ec:	f003 ff24 	bl	408538 <__aeabi_uldivmod>
  4046f0:	4604      	mov	r4, r0
  4046f2:	460d      	mov	r5, r1
  4046f4:	ea54 0305 	orrs.w	r3, r4, r5
  4046f8:	d1eb      	bne.n	4046d2 <_vfprintf_r+0xc6a>
  4046fa:	ab30      	add	r3, sp, #192	; 0xc0
  4046fc:	1bdb      	subs	r3, r3, r7
  4046fe:	930d      	str	r3, [sp, #52]	; 0x34
  404700:	f7ff badc 	b.w	403cbc <_vfprintf_r+0x254>
  404704:	9b09      	ldr	r3, [sp, #36]	; 0x24
  404706:	930d      	str	r3, [sp, #52]	; 0x34
  404708:	af30      	add	r7, sp, #192	; 0xc0
  40470a:	f7ff bad7 	b.w	403cbc <_vfprintf_r+0x254>
  40470e:	aa23      	add	r2, sp, #140	; 0x8c
  404710:	990a      	ldr	r1, [sp, #40]	; 0x28
  404712:	9808      	ldr	r0, [sp, #32]
  404714:	f7fe fb14 	bl	402d40 <__sprint_r>
  404718:	2800      	cmp	r0, #0
  40471a:	f47f af2f 	bne.w	40457c <_vfprintf_r+0xb14>
  40471e:	f89d a06f 	ldrb.w	sl, [sp, #111]	; 0x6f
  404722:	9c25      	ldr	r4, [sp, #148]	; 0x94
  404724:	f10d 08c0 	add.w	r8, sp, #192	; 0xc0
  404728:	f7ff bb28 	b.w	403d7c <_vfprintf_r+0x314>
  40472c:	1e5f      	subs	r7, r3, #1
  40472e:	2f00      	cmp	r7, #0
  404730:	f77f af05 	ble.w	40453e <_vfprintf_r+0xad6>
  404734:	2f10      	cmp	r7, #16
  404736:	4d92      	ldr	r5, [pc, #584]	; (404980 <_vfprintf_r+0xf18>)
  404738:	f340 810a 	ble.w	404950 <_vfprintf_r+0xee8>
  40473c:	f04f 0a10 	mov.w	sl, #16
  404740:	f8dd b020 	ldr.w	fp, [sp, #32]
  404744:	e005      	b.n	404752 <_vfprintf_r+0xcea>
  404746:	f108 0808 	add.w	r8, r8, #8
  40474a:	3f10      	subs	r7, #16
  40474c:	2f10      	cmp	r7, #16
  40474e:	f340 80ff 	ble.w	404950 <_vfprintf_r+0xee8>
  404752:	3601      	adds	r6, #1
  404754:	3410      	adds	r4, #16
  404756:	2e07      	cmp	r6, #7
  404758:	9425      	str	r4, [sp, #148]	; 0x94
  40475a:	9624      	str	r6, [sp, #144]	; 0x90
  40475c:	e888 0420 	stmia.w	r8, {r5, sl}
  404760:	ddf1      	ble.n	404746 <_vfprintf_r+0xcde>
  404762:	aa23      	add	r2, sp, #140	; 0x8c
  404764:	990a      	ldr	r1, [sp, #40]	; 0x28
  404766:	4658      	mov	r0, fp
  404768:	f7fe faea 	bl	402d40 <__sprint_r>
  40476c:	2800      	cmp	r0, #0
  40476e:	f47f af05 	bne.w	40457c <_vfprintf_r+0xb14>
  404772:	9c25      	ldr	r4, [sp, #148]	; 0x94
  404774:	9e24      	ldr	r6, [sp, #144]	; 0x90
  404776:	f10d 08c0 	add.w	r8, sp, #192	; 0xc0
  40477a:	e7e6      	b.n	40474a <_vfprintf_r+0xce2>
  40477c:	990e      	ldr	r1, [sp, #56]	; 0x38
  40477e:	460a      	mov	r2, r1
  404780:	3204      	adds	r2, #4
  404782:	680c      	ldr	r4, [r1, #0]
  404784:	920e      	str	r2, [sp, #56]	; 0x38
  404786:	2500      	movs	r5, #0
  404788:	f7ff ba7a 	b.w	403c80 <_vfprintf_r+0x218>
  40478c:	681c      	ldr	r4, [r3, #0]
  40478e:	3304      	adds	r3, #4
  404790:	930e      	str	r3, [sp, #56]	; 0x38
  404792:	2500      	movs	r5, #0
  404794:	e426      	b.n	403fe4 <_vfprintf_r+0x57c>
  404796:	3301      	adds	r3, #1
  404798:	4434      	add	r4, r6
  40479a:	2b07      	cmp	r3, #7
  40479c:	9425      	str	r4, [sp, #148]	; 0x94
  40479e:	9324      	str	r3, [sp, #144]	; 0x90
  4047a0:	e888 0060 	stmia.w	r8, {r5, r6}
  4047a4:	f77f ab63 	ble.w	403e6e <_vfprintf_r+0x406>
  4047a8:	e6d6      	b.n	404558 <_vfprintf_r+0xaf0>
  4047aa:	3204      	adds	r2, #4
  4047ac:	681c      	ldr	r4, [r3, #0]
  4047ae:	920e      	str	r2, [sp, #56]	; 0x38
  4047b0:	2301      	movs	r3, #1
  4047b2:	2500      	movs	r5, #0
  4047b4:	f7ff ba64 	b.w	403c80 <_vfprintf_r+0x218>
  4047b8:	9a0e      	ldr	r2, [sp, #56]	; 0x38
  4047ba:	6814      	ldr	r4, [r2, #0]
  4047bc:	4613      	mov	r3, r2
  4047be:	3304      	adds	r3, #4
  4047c0:	17e5      	asrs	r5, r4, #31
  4047c2:	930e      	str	r3, [sp, #56]	; 0x38
  4047c4:	4622      	mov	r2, r4
  4047c6:	462b      	mov	r3, r5
  4047c8:	e460      	b.n	40408c <_vfprintf_r+0x624>
  4047ca:	f8dd b018 	ldr.w	fp, [sp, #24]
  4047ce:	f8cd b018 	str.w	fp, [sp, #24]
  4047d2:	af40      	add	r7, sp, #256	; 0x100
  4047d4:	3430      	adds	r4, #48	; 0x30
  4047d6:	2301      	movs	r3, #1
  4047d8:	f807 4d41 	strb.w	r4, [r7, #-65]!
  4047dc:	930d      	str	r3, [sp, #52]	; 0x34
  4047de:	f7ff ba6d 	b.w	403cbc <_vfprintf_r+0x254>
  4047e2:	f8da 0058 	ldr.w	r0, [sl, #88]	; 0x58
  4047e6:	f002 f931 	bl	406a4c <__retarget_lock_release_recursive>
  4047ea:	f8ba 300c 	ldrh.w	r3, [sl, #12]
  4047ee:	e5af      	b.n	404350 <_vfprintf_r+0x8e8>
  4047f0:	4614      	mov	r4, r2
  4047f2:	3301      	adds	r3, #1
  4047f4:	4434      	add	r4, r6
  4047f6:	2b07      	cmp	r3, #7
  4047f8:	9425      	str	r4, [sp, #148]	; 0x94
  4047fa:	9324      	str	r3, [sp, #144]	; 0x90
  4047fc:	e888 0060 	stmia.w	r8, {r5, r6}
  404800:	f340 816d 	ble.w	404ade <_vfprintf_r+0x1076>
  404804:	aa23      	add	r2, sp, #140	; 0x8c
  404806:	990a      	ldr	r1, [sp, #40]	; 0x28
  404808:	9808      	ldr	r0, [sp, #32]
  40480a:	f7fe fa99 	bl	402d40 <__sprint_r>
  40480e:	2800      	cmp	r0, #0
  404810:	f47f aeb4 	bne.w	40457c <_vfprintf_r+0xb14>
  404814:	9c25      	ldr	r4, [sp, #148]	; 0x94
  404816:	f10d 08c0 	add.w	r8, sp, #192	; 0xc0
  40481a:	9b1d      	ldr	r3, [sp, #116]	; 0x74
  40481c:	9a11      	ldr	r2, [sp, #68]	; 0x44
  40481e:	4293      	cmp	r3, r2
  404820:	f280 8158 	bge.w	404ad4 <_vfprintf_r+0x106c>
  404824:	9a24      	ldr	r2, [sp, #144]	; 0x90
  404826:	9814      	ldr	r0, [sp, #80]	; 0x50
  404828:	9915      	ldr	r1, [sp, #84]	; 0x54
  40482a:	f8c8 1000 	str.w	r1, [r8]
  40482e:	3201      	adds	r2, #1
  404830:	4404      	add	r4, r0
  404832:	2a07      	cmp	r2, #7
  404834:	9425      	str	r4, [sp, #148]	; 0x94
  404836:	f8c8 0004 	str.w	r0, [r8, #4]
  40483a:	9224      	str	r2, [sp, #144]	; 0x90
  40483c:	f300 8152 	bgt.w	404ae4 <_vfprintf_r+0x107c>
  404840:	f108 0808 	add.w	r8, r8, #8
  404844:	9a11      	ldr	r2, [sp, #68]	; 0x44
  404846:	9910      	ldr	r1, [sp, #64]	; 0x40
  404848:	1ad3      	subs	r3, r2, r3
  40484a:	1a56      	subs	r6, r2, r1
  40484c:	429e      	cmp	r6, r3
  40484e:	bfa8      	it	ge
  404850:	461e      	movge	r6, r3
  404852:	2e00      	cmp	r6, #0
  404854:	dd0e      	ble.n	404874 <_vfprintf_r+0xe0c>
  404856:	9a24      	ldr	r2, [sp, #144]	; 0x90
  404858:	f8c8 6004 	str.w	r6, [r8, #4]
  40485c:	3201      	adds	r2, #1
  40485e:	440f      	add	r7, r1
  404860:	4434      	add	r4, r6
  404862:	2a07      	cmp	r2, #7
  404864:	f8c8 7000 	str.w	r7, [r8]
  404868:	9425      	str	r4, [sp, #148]	; 0x94
  40486a:	9224      	str	r2, [sp, #144]	; 0x90
  40486c:	f300 823c 	bgt.w	404ce8 <_vfprintf_r+0x1280>
  404870:	f108 0808 	add.w	r8, r8, #8
  404874:	2e00      	cmp	r6, #0
  404876:	bfac      	ite	ge
  404878:	1b9e      	subge	r6, r3, r6
  40487a:	461e      	movlt	r6, r3
  40487c:	2e00      	cmp	r6, #0
  40487e:	f77f aaf8 	ble.w	403e72 <_vfprintf_r+0x40a>
  404882:	2e10      	cmp	r6, #16
  404884:	9b24      	ldr	r3, [sp, #144]	; 0x90
  404886:	4d3e      	ldr	r5, [pc, #248]	; (404980 <_vfprintf_r+0xf18>)
  404888:	dd85      	ble.n	404796 <_vfprintf_r+0xd2e>
  40488a:	2710      	movs	r7, #16
  40488c:	f8dd a020 	ldr.w	sl, [sp, #32]
  404890:	f8dd b028 	ldr.w	fp, [sp, #40]	; 0x28
  404894:	e005      	b.n	4048a2 <_vfprintf_r+0xe3a>
  404896:	f108 0808 	add.w	r8, r8, #8
  40489a:	3e10      	subs	r6, #16
  40489c:	2e10      	cmp	r6, #16
  40489e:	f77f af7a 	ble.w	404796 <_vfprintf_r+0xd2e>
  4048a2:	3301      	adds	r3, #1
  4048a4:	3410      	adds	r4, #16
  4048a6:	2b07      	cmp	r3, #7
  4048a8:	9425      	str	r4, [sp, #148]	; 0x94
  4048aa:	9324      	str	r3, [sp, #144]	; 0x90
  4048ac:	e888 00a0 	stmia.w	r8, {r5, r7}
  4048b0:	ddf1      	ble.n	404896 <_vfprintf_r+0xe2e>
  4048b2:	aa23      	add	r2, sp, #140	; 0x8c
  4048b4:	4659      	mov	r1, fp
  4048b6:	4650      	mov	r0, sl
  4048b8:	f7fe fa42 	bl	402d40 <__sprint_r>
  4048bc:	2800      	cmp	r0, #0
  4048be:	f040 8176 	bne.w	404bae <_vfprintf_r+0x1146>
  4048c2:	9c25      	ldr	r4, [sp, #148]	; 0x94
  4048c4:	9b24      	ldr	r3, [sp, #144]	; 0x90
  4048c6:	f10d 08c0 	add.w	r8, sp, #192	; 0xc0
  4048ca:	e7e6      	b.n	40489a <_vfprintf_r+0xe32>
  4048cc:	9b06      	ldr	r3, [sp, #24]
  4048ce:	07d8      	lsls	r0, r3, #31
  4048d0:	f53f adff 	bmi.w	4044d2 <_vfprintf_r+0xa6a>
  4048d4:	3601      	adds	r6, #1
  4048d6:	3401      	adds	r4, #1
  4048d8:	2301      	movs	r3, #1
  4048da:	2e07      	cmp	r6, #7
  4048dc:	9425      	str	r4, [sp, #148]	; 0x94
  4048de:	9624      	str	r6, [sp, #144]	; 0x90
  4048e0:	f8c8 7000 	str.w	r7, [r8]
  4048e4:	f8c8 3004 	str.w	r3, [r8, #4]
  4048e8:	f77f ae27 	ble.w	40453a <_vfprintf_r+0xad2>
  4048ec:	aa23      	add	r2, sp, #140	; 0x8c
  4048ee:	990a      	ldr	r1, [sp, #40]	; 0x28
  4048f0:	9808      	ldr	r0, [sp, #32]
  4048f2:	f7fe fa25 	bl	402d40 <__sprint_r>
  4048f6:	2800      	cmp	r0, #0
  4048f8:	f47f ae40 	bne.w	40457c <_vfprintf_r+0xb14>
  4048fc:	9c25      	ldr	r4, [sp, #148]	; 0x94
  4048fe:	9e24      	ldr	r6, [sp, #144]	; 0x90
  404900:	f10d 08c0 	add.w	r8, sp, #192	; 0xc0
  404904:	e61b      	b.n	40453e <_vfprintf_r+0xad6>
  404906:	aa23      	add	r2, sp, #140	; 0x8c
  404908:	990a      	ldr	r1, [sp, #40]	; 0x28
  40490a:	9808      	ldr	r0, [sp, #32]
  40490c:	f7fe fa18 	bl	402d40 <__sprint_r>
  404910:	2800      	cmp	r0, #0
  404912:	f47f ae33 	bne.w	40457c <_vfprintf_r+0xb14>
  404916:	9c25      	ldr	r4, [sp, #148]	; 0x94
  404918:	9e24      	ldr	r6, [sp, #144]	; 0x90
  40491a:	f10d 08c0 	add.w	r8, sp, #192	; 0xc0
  40491e:	e5e6      	b.n	4044ee <_vfprintf_r+0xa86>
  404920:	9d0e      	ldr	r5, [sp, #56]	; 0x38
  404922:	3507      	adds	r5, #7
  404924:	f025 0507 	bic.w	r5, r5, #7
  404928:	e9d5 2300 	ldrd	r2, r3, [r5]
  40492c:	f105 0108 	add.w	r1, r5, #8
  404930:	910e      	str	r1, [sp, #56]	; 0x38
  404932:	4614      	mov	r4, r2
  404934:	461d      	mov	r5, r3
  404936:	f7ff bba9 	b.w	40408c <_vfprintf_r+0x624>
  40493a:	9d0e      	ldr	r5, [sp, #56]	; 0x38
  40493c:	3507      	adds	r5, #7
  40493e:	f025 0307 	bic.w	r3, r5, #7
  404942:	f103 0208 	add.w	r2, r3, #8
  404946:	920e      	str	r2, [sp, #56]	; 0x38
  404948:	e9d3 4500 	ldrd	r4, r5, [r3]
  40494c:	f7ff bb4a 	b.w	403fe4 <_vfprintf_r+0x57c>
  404950:	3601      	adds	r6, #1
  404952:	443c      	add	r4, r7
  404954:	2e07      	cmp	r6, #7
  404956:	9425      	str	r4, [sp, #148]	; 0x94
  404958:	9624      	str	r6, [sp, #144]	; 0x90
  40495a:	e888 00a0 	stmia.w	r8, {r5, r7}
  40495e:	f77f adec 	ble.w	40453a <_vfprintf_r+0xad2>
  404962:	e7c3      	b.n	4048ec <_vfprintf_r+0xe84>
  404964:	aa23      	add	r2, sp, #140	; 0x8c
  404966:	990a      	ldr	r1, [sp, #40]	; 0x28
  404968:	9808      	ldr	r0, [sp, #32]
  40496a:	f7fe f9e9 	bl	402d40 <__sprint_r>
  40496e:	2800      	cmp	r0, #0
  404970:	f47f ae04 	bne.w	40457c <_vfprintf_r+0xb14>
  404974:	9c25      	ldr	r4, [sp, #148]	; 0x94
  404976:	9e24      	ldr	r6, [sp, #144]	; 0x90
  404978:	f10d 08c0 	add.w	r8, sp, #192	; 0xc0
  40497c:	e5c6      	b.n	40450c <_vfprintf_r+0xaa4>
  40497e:	bf00      	nop
  404980:	00409a1c 	.word	0x00409a1c
  404984:	af30      	add	r7, sp, #192	; 0xc0
  404986:	f7ff b999 	b.w	403cbc <_vfprintf_r+0x254>
  40498a:	aa23      	add	r2, sp, #140	; 0x8c
  40498c:	990a      	ldr	r1, [sp, #40]	; 0x28
  40498e:	9808      	ldr	r0, [sp, #32]
  404990:	f7fe f9d6 	bl	402d40 <__sprint_r>
  404994:	2800      	cmp	r0, #0
  404996:	f47f adf1 	bne.w	40457c <_vfprintf_r+0xb14>
  40499a:	9c25      	ldr	r4, [sp, #148]	; 0x94
  40499c:	f10d 08c0 	add.w	r8, sp, #192	; 0xc0
  4049a0:	f7ff ba11 	b.w	403dc6 <_vfprintf_r+0x35e>
  4049a4:	f04f 0a2d 	mov.w	sl, #45	; 0x2d
  4049a8:	4264      	negs	r4, r4
  4049aa:	eb65 0545 	sbc.w	r5, r5, r5, lsl #1
  4049ae:	f88d a06f 	strb.w	sl, [sp, #111]	; 0x6f
  4049b2:	2301      	movs	r3, #1
  4049b4:	f7ff b968 	b.w	403c88 <_vfprintf_r+0x220>
  4049b8:	9c13      	ldr	r4, [sp, #76]	; 0x4c
  4049ba:	4622      	mov	r2, r4
  4049bc:	4620      	mov	r0, r4
  4049be:	9c12      	ldr	r4, [sp, #72]	; 0x48
  4049c0:	4623      	mov	r3, r4
  4049c2:	4621      	mov	r1, r4
  4049c4:	f003 fd7a 	bl	4084bc <__aeabi_dcmpun>
  4049c8:	2800      	cmp	r0, #0
  4049ca:	f040 828c 	bne.w	404ee6 <_vfprintf_r+0x147e>
  4049ce:	9b09      	ldr	r3, [sp, #36]	; 0x24
  4049d0:	3301      	adds	r3, #1
  4049d2:	f026 0320 	bic.w	r3, r6, #32
  4049d6:	930d      	str	r3, [sp, #52]	; 0x34
  4049d8:	f000 8091 	beq.w	404afe <_vfprintf_r+0x1096>
  4049dc:	2b47      	cmp	r3, #71	; 0x47
  4049de:	d104      	bne.n	4049ea <_vfprintf_r+0xf82>
  4049e0:	9b09      	ldr	r3, [sp, #36]	; 0x24
  4049e2:	2b00      	cmp	r3, #0
  4049e4:	bf08      	it	eq
  4049e6:	2301      	moveq	r3, #1
  4049e8:	9309      	str	r3, [sp, #36]	; 0x24
  4049ea:	f44b 7380 	orr.w	r3, fp, #256	; 0x100
  4049ee:	9306      	str	r3, [sp, #24]
  4049f0:	9b12      	ldr	r3, [sp, #72]	; 0x48
  4049f2:	f1b3 0a00 	subs.w	sl, r3, #0
  4049f6:	9b13      	ldr	r3, [sp, #76]	; 0x4c
  4049f8:	9307      	str	r3, [sp, #28]
  4049fa:	bfbb      	ittet	lt
  4049fc:	4653      	movlt	r3, sl
  4049fe:	f103 4a00 	addlt.w	sl, r3, #2147483648	; 0x80000000
  404a02:	2300      	movge	r3, #0
  404a04:	232d      	movlt	r3, #45	; 0x2d
  404a06:	2e66      	cmp	r6, #102	; 0x66
  404a08:	930f      	str	r3, [sp, #60]	; 0x3c
  404a0a:	f000 817f 	beq.w	404d0c <_vfprintf_r+0x12a4>
  404a0e:	2e46      	cmp	r6, #70	; 0x46
  404a10:	f000 81d4 	beq.w	404dbc <_vfprintf_r+0x1354>
  404a14:	9b0d      	ldr	r3, [sp, #52]	; 0x34
  404a16:	9a07      	ldr	r2, [sp, #28]
  404a18:	2b45      	cmp	r3, #69	; 0x45
  404a1a:	bf0c      	ite	eq
  404a1c:	9b09      	ldreq	r3, [sp, #36]	; 0x24
  404a1e:	9d09      	ldrne	r5, [sp, #36]	; 0x24
  404a20:	a821      	add	r0, sp, #132	; 0x84
  404a22:	a91e      	add	r1, sp, #120	; 0x78
  404a24:	bf08      	it	eq
  404a26:	1c5d      	addeq	r5, r3, #1
  404a28:	9004      	str	r0, [sp, #16]
  404a2a:	9103      	str	r1, [sp, #12]
  404a2c:	a81d      	add	r0, sp, #116	; 0x74
  404a2e:	2102      	movs	r1, #2
  404a30:	9002      	str	r0, [sp, #8]
  404a32:	4653      	mov	r3, sl
  404a34:	9501      	str	r5, [sp, #4]
  404a36:	9100      	str	r1, [sp, #0]
  404a38:	9808      	ldr	r0, [sp, #32]
  404a3a:	f000 fc15 	bl	405268 <_dtoa_r>
  404a3e:	2e67      	cmp	r6, #103	; 0x67
  404a40:	4607      	mov	r7, r0
  404a42:	f040 81af 	bne.w	404da4 <_vfprintf_r+0x133c>
  404a46:	f01b 0f01 	tst.w	fp, #1
  404a4a:	f000 8213 	beq.w	404e74 <_vfprintf_r+0x140c>
  404a4e:	197c      	adds	r4, r7, r5
  404a50:	9a16      	ldr	r2, [sp, #88]	; 0x58
  404a52:	9807      	ldr	r0, [sp, #28]
  404a54:	9b17      	ldr	r3, [sp, #92]	; 0x5c
  404a56:	4651      	mov	r1, sl
  404a58:	f003 fcfe 	bl	408458 <__aeabi_dcmpeq>
  404a5c:	2800      	cmp	r0, #0
  404a5e:	f040 8132 	bne.w	404cc6 <_vfprintf_r+0x125e>
  404a62:	9b21      	ldr	r3, [sp, #132]	; 0x84
  404a64:	42a3      	cmp	r3, r4
  404a66:	d206      	bcs.n	404a76 <_vfprintf_r+0x100e>
  404a68:	2130      	movs	r1, #48	; 0x30
  404a6a:	1c5a      	adds	r2, r3, #1
  404a6c:	9221      	str	r2, [sp, #132]	; 0x84
  404a6e:	7019      	strb	r1, [r3, #0]
  404a70:	9b21      	ldr	r3, [sp, #132]	; 0x84
  404a72:	429c      	cmp	r4, r3
  404a74:	d8f9      	bhi.n	404a6a <_vfprintf_r+0x1002>
  404a76:	1bdb      	subs	r3, r3, r7
  404a78:	9311      	str	r3, [sp, #68]	; 0x44
  404a7a:	9b0d      	ldr	r3, [sp, #52]	; 0x34
  404a7c:	2b47      	cmp	r3, #71	; 0x47
  404a7e:	f000 80b9 	beq.w	404bf4 <_vfprintf_r+0x118c>
  404a82:	2e65      	cmp	r6, #101	; 0x65
  404a84:	f340 8276 	ble.w	404f74 <_vfprintf_r+0x150c>
  404a88:	9b1d      	ldr	r3, [sp, #116]	; 0x74
  404a8a:	9310      	str	r3, [sp, #64]	; 0x40
  404a8c:	2e66      	cmp	r6, #102	; 0x66
  404a8e:	f000 8162 	beq.w	404d56 <_vfprintf_r+0x12ee>
  404a92:	9b11      	ldr	r3, [sp, #68]	; 0x44
  404a94:	9a10      	ldr	r2, [sp, #64]	; 0x40
  404a96:	4619      	mov	r1, r3
  404a98:	4291      	cmp	r1, r2
  404a9a:	f300 814f 	bgt.w	404d3c <_vfprintf_r+0x12d4>
  404a9e:	f01b 0f01 	tst.w	fp, #1
  404aa2:	f040 8209 	bne.w	404eb8 <_vfprintf_r+0x1450>
  404aa6:	ea22 73e2 	bic.w	r3, r2, r2, asr #31
  404aaa:	9307      	str	r3, [sp, #28]
  404aac:	920d      	str	r2, [sp, #52]	; 0x34
  404aae:	2667      	movs	r6, #103	; 0x67
  404ab0:	9b0f      	ldr	r3, [sp, #60]	; 0x3c
  404ab2:	2b00      	cmp	r3, #0
  404ab4:	f040 8096 	bne.w	404be4 <_vfprintf_r+0x117c>
  404ab8:	9309      	str	r3, [sp, #36]	; 0x24
  404aba:	f89d a06f 	ldrb.w	sl, [sp, #111]	; 0x6f
  404abe:	f7ff b905 	b.w	403ccc <_vfprintf_r+0x264>
  404ac2:	f8da 0058 	ldr.w	r0, [sl, #88]	; 0x58
  404ac6:	f001 ffc1 	bl	406a4c <__retarget_lock_release_recursive>
  404aca:	f04f 33ff 	mov.w	r3, #4294967295
  404ace:	930b      	str	r3, [sp, #44]	; 0x2c
  404ad0:	f7ff ba30 	b.w	403f34 <_vfprintf_r+0x4cc>
  404ad4:	9a06      	ldr	r2, [sp, #24]
  404ad6:	07d5      	lsls	r5, r2, #31
  404ad8:	f57f aeb4 	bpl.w	404844 <_vfprintf_r+0xddc>
  404adc:	e6a2      	b.n	404824 <_vfprintf_r+0xdbc>
  404ade:	f108 0808 	add.w	r8, r8, #8
  404ae2:	e69a      	b.n	40481a <_vfprintf_r+0xdb2>
  404ae4:	aa23      	add	r2, sp, #140	; 0x8c
  404ae6:	990a      	ldr	r1, [sp, #40]	; 0x28
  404ae8:	9808      	ldr	r0, [sp, #32]
  404aea:	f7fe f929 	bl	402d40 <__sprint_r>
  404aee:	2800      	cmp	r0, #0
  404af0:	f47f ad44 	bne.w	40457c <_vfprintf_r+0xb14>
  404af4:	9b1d      	ldr	r3, [sp, #116]	; 0x74
  404af6:	9c25      	ldr	r4, [sp, #148]	; 0x94
  404af8:	f10d 08c0 	add.w	r8, sp, #192	; 0xc0
  404afc:	e6a2      	b.n	404844 <_vfprintf_r+0xddc>
  404afe:	2306      	movs	r3, #6
  404b00:	9309      	str	r3, [sp, #36]	; 0x24
  404b02:	e772      	b.n	4049ea <_vfprintf_r+0xf82>
  404b04:	f04f 0a2d 	mov.w	sl, #45	; 0x2d
  404b08:	f88d a06f 	strb.w	sl, [sp, #111]	; 0x6f
  404b0c:	f7ff bbc7 	b.w	40429e <_vfprintf_r+0x836>
  404b10:	aa23      	add	r2, sp, #140	; 0x8c
  404b12:	990a      	ldr	r1, [sp, #40]	; 0x28
  404b14:	9808      	ldr	r0, [sp, #32]
  404b16:	f7fe f913 	bl	402d40 <__sprint_r>
  404b1a:	2800      	cmp	r0, #0
  404b1c:	f47f ad2e 	bne.w	40457c <_vfprintf_r+0xb14>
  404b20:	f10d 08c0 	add.w	r8, sp, #192	; 0xc0
  404b24:	e437      	b.n	404396 <_vfprintf_r+0x92e>
  404b26:	9b24      	ldr	r3, [sp, #144]	; 0x90
  404b28:	4ab4      	ldr	r2, [pc, #720]	; (404dfc <_vfprintf_r+0x1394>)
  404b2a:	f8c8 2000 	str.w	r2, [r8]
  404b2e:	3301      	adds	r3, #1
  404b30:	3401      	adds	r4, #1
  404b32:	2201      	movs	r2, #1
  404b34:	2b07      	cmp	r3, #7
  404b36:	9425      	str	r4, [sp, #148]	; 0x94
  404b38:	9324      	str	r3, [sp, #144]	; 0x90
  404b3a:	f8c8 2004 	str.w	r2, [r8, #4]
  404b3e:	f300 8124 	bgt.w	404d8a <_vfprintf_r+0x1322>
  404b42:	f108 0808 	add.w	r8, r8, #8
  404b46:	b929      	cbnz	r1, 404b54 <_vfprintf_r+0x10ec>
  404b48:	9b11      	ldr	r3, [sp, #68]	; 0x44
  404b4a:	b91b      	cbnz	r3, 404b54 <_vfprintf_r+0x10ec>
  404b4c:	9b06      	ldr	r3, [sp, #24]
  404b4e:	07de      	lsls	r6, r3, #31
  404b50:	f57f a98f 	bpl.w	403e72 <_vfprintf_r+0x40a>
  404b54:	9b24      	ldr	r3, [sp, #144]	; 0x90
  404b56:	9814      	ldr	r0, [sp, #80]	; 0x50
  404b58:	9a15      	ldr	r2, [sp, #84]	; 0x54
  404b5a:	f8c8 2000 	str.w	r2, [r8]
  404b5e:	3301      	adds	r3, #1
  404b60:	4602      	mov	r2, r0
  404b62:	4422      	add	r2, r4
  404b64:	2b07      	cmp	r3, #7
  404b66:	9225      	str	r2, [sp, #148]	; 0x94
  404b68:	f8c8 0004 	str.w	r0, [r8, #4]
  404b6c:	9324      	str	r3, [sp, #144]	; 0x90
  404b6e:	f300 8169 	bgt.w	404e44 <_vfprintf_r+0x13dc>
  404b72:	f108 0808 	add.w	r8, r8, #8
  404b76:	2900      	cmp	r1, #0
  404b78:	f2c0 8136 	blt.w	404de8 <_vfprintf_r+0x1380>
  404b7c:	9911      	ldr	r1, [sp, #68]	; 0x44
  404b7e:	f8c8 7000 	str.w	r7, [r8]
  404b82:	3301      	adds	r3, #1
  404b84:	188c      	adds	r4, r1, r2
  404b86:	2b07      	cmp	r3, #7
  404b88:	9425      	str	r4, [sp, #148]	; 0x94
  404b8a:	9324      	str	r3, [sp, #144]	; 0x90
  404b8c:	f8c8 1004 	str.w	r1, [r8, #4]
  404b90:	f77f a96d 	ble.w	403e6e <_vfprintf_r+0x406>
  404b94:	e4e0      	b.n	404558 <_vfprintf_r+0xaf0>
  404b96:	9a0e      	ldr	r2, [sp, #56]	; 0x38
  404b98:	990b      	ldr	r1, [sp, #44]	; 0x2c
  404b9a:	6813      	ldr	r3, [r2, #0]
  404b9c:	17cd      	asrs	r5, r1, #31
  404b9e:	4608      	mov	r0, r1
  404ba0:	3204      	adds	r2, #4
  404ba2:	4629      	mov	r1, r5
  404ba4:	920e      	str	r2, [sp, #56]	; 0x38
  404ba6:	e9c3 0100 	strd	r0, r1, [r3]
  404baa:	f7fe bfa9 	b.w	403b00 <_vfprintf_r+0x98>
  404bae:	46da      	mov	sl, fp
  404bb0:	f7ff bbc4 	b.w	40433c <_vfprintf_r+0x8d4>
  404bb4:	aa23      	add	r2, sp, #140	; 0x8c
  404bb6:	990a      	ldr	r1, [sp, #40]	; 0x28
  404bb8:	9808      	ldr	r0, [sp, #32]
  404bba:	f7fe f8c1 	bl	402d40 <__sprint_r>
  404bbe:	2800      	cmp	r0, #0
  404bc0:	f47f acdc 	bne.w	40457c <_vfprintf_r+0xb14>
  404bc4:	9c25      	ldr	r4, [sp, #148]	; 0x94
  404bc6:	f10d 08c0 	add.w	r8, sp, #192	; 0xc0
  404bca:	f7ff bbfd 	b.w	4043c8 <_vfprintf_r+0x960>
  404bce:	4638      	mov	r0, r7
  404bd0:	9409      	str	r4, [sp, #36]	; 0x24
  404bd2:	f002 fdb5 	bl	407740 <strlen>
  404bd6:	950e      	str	r5, [sp, #56]	; 0x38
  404bd8:	900d      	str	r0, [sp, #52]	; 0x34
  404bda:	f8cd b018 	str.w	fp, [sp, #24]
  404bde:	4603      	mov	r3, r0
  404be0:	f7ff ba36 	b.w	404050 <_vfprintf_r+0x5e8>
  404be4:	f04f 0a2d 	mov.w	sl, #45	; 0x2d
  404be8:	2300      	movs	r3, #0
  404bea:	f88d a06f 	strb.w	sl, [sp, #111]	; 0x6f
  404bee:	9309      	str	r3, [sp, #36]	; 0x24
  404bf0:	f7ff b86f 	b.w	403cd2 <_vfprintf_r+0x26a>
  404bf4:	9b1d      	ldr	r3, [sp, #116]	; 0x74
  404bf6:	9310      	str	r3, [sp, #64]	; 0x40
  404bf8:	461a      	mov	r2, r3
  404bfa:	3303      	adds	r3, #3
  404bfc:	db04      	blt.n	404c08 <_vfprintf_r+0x11a0>
  404bfe:	9b09      	ldr	r3, [sp, #36]	; 0x24
  404c00:	4619      	mov	r1, r3
  404c02:	4291      	cmp	r1, r2
  404c04:	f6bf af45 	bge.w	404a92 <_vfprintf_r+0x102a>
  404c08:	3e02      	subs	r6, #2
  404c0a:	9b10      	ldr	r3, [sp, #64]	; 0x40
  404c0c:	f88d 607c 	strb.w	r6, [sp, #124]	; 0x7c
  404c10:	3b01      	subs	r3, #1
  404c12:	2b00      	cmp	r3, #0
  404c14:	931d      	str	r3, [sp, #116]	; 0x74
  404c16:	bfbd      	ittte	lt
  404c18:	9b10      	ldrlt	r3, [sp, #64]	; 0x40
  404c1a:	f1c3 0301 	rsblt	r3, r3, #1
  404c1e:	222d      	movlt	r2, #45	; 0x2d
  404c20:	222b      	movge	r2, #43	; 0x2b
  404c22:	2b09      	cmp	r3, #9
  404c24:	f88d 207d 	strb.w	r2, [sp, #125]	; 0x7d
  404c28:	f340 813e 	ble.w	404ea8 <_vfprintf_r+0x1440>
  404c2c:	f10d 048b 	add.w	r4, sp, #139	; 0x8b
  404c30:	4620      	mov	r0, r4
  404c32:	4d73      	ldr	r5, [pc, #460]	; (404e00 <_vfprintf_r+0x1398>)
  404c34:	e000      	b.n	404c38 <_vfprintf_r+0x11d0>
  404c36:	4610      	mov	r0, r2
  404c38:	fb85 1203 	smull	r1, r2, r5, r3
  404c3c:	17d9      	asrs	r1, r3, #31
  404c3e:	ebc1 01a2 	rsb	r1, r1, r2, asr #2
  404c42:	eb01 0281 	add.w	r2, r1, r1, lsl #2
  404c46:	eba3 0242 	sub.w	r2, r3, r2, lsl #1
  404c4a:	3230      	adds	r2, #48	; 0x30
  404c4c:	2909      	cmp	r1, #9
  404c4e:	f800 2c01 	strb.w	r2, [r0, #-1]
  404c52:	460b      	mov	r3, r1
  404c54:	f100 32ff 	add.w	r2, r0, #4294967295
  404c58:	dced      	bgt.n	404c36 <_vfprintf_r+0x11ce>
  404c5a:	3330      	adds	r3, #48	; 0x30
  404c5c:	3802      	subs	r0, #2
  404c5e:	b2d9      	uxtb	r1, r3
  404c60:	4284      	cmp	r4, r0
  404c62:	f802 1c01 	strb.w	r1, [r2, #-1]
  404c66:	f240 8190 	bls.w	404f8a <_vfprintf_r+0x1522>
  404c6a:	f10d 007e 	add.w	r0, sp, #126	; 0x7e
  404c6e:	4613      	mov	r3, r2
  404c70:	e001      	b.n	404c76 <_vfprintf_r+0x120e>
  404c72:	f813 1b01 	ldrb.w	r1, [r3], #1
  404c76:	f800 1b01 	strb.w	r1, [r0], #1
  404c7a:	42a3      	cmp	r3, r4
  404c7c:	d1f9      	bne.n	404c72 <_vfprintf_r+0x120a>
  404c7e:	3301      	adds	r3, #1
  404c80:	1a9b      	subs	r3, r3, r2
  404c82:	f10d 027e 	add.w	r2, sp, #126	; 0x7e
  404c86:	4413      	add	r3, r2
  404c88:	aa1f      	add	r2, sp, #124	; 0x7c
  404c8a:	1a9b      	subs	r3, r3, r2
  404c8c:	9a11      	ldr	r2, [sp, #68]	; 0x44
  404c8e:	9319      	str	r3, [sp, #100]	; 0x64
  404c90:	2a01      	cmp	r2, #1
  404c92:	4413      	add	r3, r2
  404c94:	930d      	str	r3, [sp, #52]	; 0x34
  404c96:	f340 8145 	ble.w	404f24 <_vfprintf_r+0x14bc>
  404c9a:	9b0d      	ldr	r3, [sp, #52]	; 0x34
  404c9c:	9a14      	ldr	r2, [sp, #80]	; 0x50
  404c9e:	4413      	add	r3, r2
  404ca0:	930d      	str	r3, [sp, #52]	; 0x34
  404ca2:	ea23 73e3 	bic.w	r3, r3, r3, asr #31
  404ca6:	9307      	str	r3, [sp, #28]
  404ca8:	2300      	movs	r3, #0
  404caa:	9310      	str	r3, [sp, #64]	; 0x40
  404cac:	e700      	b.n	404ab0 <_vfprintf_r+0x1048>
  404cae:	aa23      	add	r2, sp, #140	; 0x8c
  404cb0:	990a      	ldr	r1, [sp, #40]	; 0x28
  404cb2:	9808      	ldr	r0, [sp, #32]
  404cb4:	f7fe f844 	bl	402d40 <__sprint_r>
  404cb8:	2800      	cmp	r0, #0
  404cba:	f47f ac5f 	bne.w	40457c <_vfprintf_r+0xb14>
  404cbe:	9c25      	ldr	r4, [sp, #148]	; 0x94
  404cc0:	f10d 08c0 	add.w	r8, sp, #192	; 0xc0
  404cc4:	e4d1      	b.n	40466a <_vfprintf_r+0xc02>
  404cc6:	4623      	mov	r3, r4
  404cc8:	e6d5      	b.n	404a76 <_vfprintf_r+0x100e>
  404cca:	9b09      	ldr	r3, [sp, #36]	; 0x24
  404ccc:	9710      	str	r7, [sp, #64]	; 0x40
  404cce:	2b06      	cmp	r3, #6
  404cd0:	bf28      	it	cs
  404cd2:	2306      	movcs	r3, #6
  404cd4:	9709      	str	r7, [sp, #36]	; 0x24
  404cd6:	46ba      	mov	sl, r7
  404cd8:	9307      	str	r3, [sp, #28]
  404cda:	950e      	str	r5, [sp, #56]	; 0x38
  404cdc:	f8cd b018 	str.w	fp, [sp, #24]
  404ce0:	930d      	str	r3, [sp, #52]	; 0x34
  404ce2:	4f48      	ldr	r7, [pc, #288]	; (404e04 <_vfprintf_r+0x139c>)
  404ce4:	f7fe bff2 	b.w	403ccc <_vfprintf_r+0x264>
  404ce8:	aa23      	add	r2, sp, #140	; 0x8c
  404cea:	990a      	ldr	r1, [sp, #40]	; 0x28
  404cec:	9808      	ldr	r0, [sp, #32]
  404cee:	f7fe f827 	bl	402d40 <__sprint_r>
  404cf2:	2800      	cmp	r0, #0
  404cf4:	f47f ac42 	bne.w	40457c <_vfprintf_r+0xb14>
  404cf8:	9b1d      	ldr	r3, [sp, #116]	; 0x74
  404cfa:	9a11      	ldr	r2, [sp, #68]	; 0x44
  404cfc:	9c25      	ldr	r4, [sp, #148]	; 0x94
  404cfe:	1ad3      	subs	r3, r2, r3
  404d00:	f10d 08c0 	add.w	r8, sp, #192	; 0xc0
  404d04:	e5b6      	b.n	404874 <_vfprintf_r+0xe0c>
  404d06:	46a2      	mov	sl, r4
  404d08:	f7ff bb18 	b.w	40433c <_vfprintf_r+0x8d4>
  404d0c:	a821      	add	r0, sp, #132	; 0x84
  404d0e:	a91e      	add	r1, sp, #120	; 0x78
  404d10:	9d09      	ldr	r5, [sp, #36]	; 0x24
  404d12:	9004      	str	r0, [sp, #16]
  404d14:	9103      	str	r1, [sp, #12]
  404d16:	a81d      	add	r0, sp, #116	; 0x74
  404d18:	2103      	movs	r1, #3
  404d1a:	9002      	str	r0, [sp, #8]
  404d1c:	9a07      	ldr	r2, [sp, #28]
  404d1e:	9501      	str	r5, [sp, #4]
  404d20:	4653      	mov	r3, sl
  404d22:	9100      	str	r1, [sp, #0]
  404d24:	9808      	ldr	r0, [sp, #32]
  404d26:	f000 fa9f 	bl	405268 <_dtoa_r>
  404d2a:	4607      	mov	r7, r0
  404d2c:	1944      	adds	r4, r0, r5
  404d2e:	783b      	ldrb	r3, [r7, #0]
  404d30:	2b30      	cmp	r3, #48	; 0x30
  404d32:	f000 80ca 	beq.w	404eca <_vfprintf_r+0x1462>
  404d36:	9d1d      	ldr	r5, [sp, #116]	; 0x74
  404d38:	442c      	add	r4, r5
  404d3a:	e689      	b.n	404a50 <_vfprintf_r+0xfe8>
  404d3c:	9a14      	ldr	r2, [sp, #80]	; 0x50
  404d3e:	9b11      	ldr	r3, [sp, #68]	; 0x44
  404d40:	4413      	add	r3, r2
  404d42:	9a10      	ldr	r2, [sp, #64]	; 0x40
  404d44:	930d      	str	r3, [sp, #52]	; 0x34
  404d46:	2a00      	cmp	r2, #0
  404d48:	f340 80e4 	ble.w	404f14 <_vfprintf_r+0x14ac>
  404d4c:	ea23 73e3 	bic.w	r3, r3, r3, asr #31
  404d50:	9307      	str	r3, [sp, #28]
  404d52:	2667      	movs	r6, #103	; 0x67
  404d54:	e6ac      	b.n	404ab0 <_vfprintf_r+0x1048>
  404d56:	2b00      	cmp	r3, #0
  404d58:	f340 80fb 	ble.w	404f52 <_vfprintf_r+0x14ea>
  404d5c:	9a09      	ldr	r2, [sp, #36]	; 0x24
  404d5e:	2a00      	cmp	r2, #0
  404d60:	f040 80ce 	bne.w	404f00 <_vfprintf_r+0x1498>
  404d64:	f01b 0f01 	tst.w	fp, #1
  404d68:	f040 80ca 	bne.w	404f00 <_vfprintf_r+0x1498>
  404d6c:	9307      	str	r3, [sp, #28]
  404d6e:	930d      	str	r3, [sp, #52]	; 0x34
  404d70:	e69e      	b.n	404ab0 <_vfprintf_r+0x1048>
  404d72:	9b09      	ldr	r3, [sp, #36]	; 0x24
  404d74:	9307      	str	r3, [sp, #28]
  404d76:	930d      	str	r3, [sp, #52]	; 0x34
  404d78:	9009      	str	r0, [sp, #36]	; 0x24
  404d7a:	950e      	str	r5, [sp, #56]	; 0x38
  404d7c:	f8cd b018 	str.w	fp, [sp, #24]
  404d80:	9010      	str	r0, [sp, #64]	; 0x40
  404d82:	f89d a06f 	ldrb.w	sl, [sp, #111]	; 0x6f
  404d86:	f7fe bfa1 	b.w	403ccc <_vfprintf_r+0x264>
  404d8a:	aa23      	add	r2, sp, #140	; 0x8c
  404d8c:	990a      	ldr	r1, [sp, #40]	; 0x28
  404d8e:	9808      	ldr	r0, [sp, #32]
  404d90:	f7fd ffd6 	bl	402d40 <__sprint_r>
  404d94:	2800      	cmp	r0, #0
  404d96:	f47f abf1 	bne.w	40457c <_vfprintf_r+0xb14>
  404d9a:	991d      	ldr	r1, [sp, #116]	; 0x74
  404d9c:	9c25      	ldr	r4, [sp, #148]	; 0x94
  404d9e:	f10d 08c0 	add.w	r8, sp, #192	; 0xc0
  404da2:	e6d0      	b.n	404b46 <_vfprintf_r+0x10de>
  404da4:	2e47      	cmp	r6, #71	; 0x47
  404da6:	f47f ae52 	bne.w	404a4e <_vfprintf_r+0xfe6>
  404daa:	f01b 0f01 	tst.w	fp, #1
  404dae:	f000 80da 	beq.w	404f66 <_vfprintf_r+0x14fe>
  404db2:	2e46      	cmp	r6, #70	; 0x46
  404db4:	eb07 0405 	add.w	r4, r7, r5
  404db8:	d0b9      	beq.n	404d2e <_vfprintf_r+0x12c6>
  404dba:	e649      	b.n	404a50 <_vfprintf_r+0xfe8>
  404dbc:	a821      	add	r0, sp, #132	; 0x84
  404dbe:	a91e      	add	r1, sp, #120	; 0x78
  404dc0:	9c09      	ldr	r4, [sp, #36]	; 0x24
  404dc2:	9004      	str	r0, [sp, #16]
  404dc4:	9103      	str	r1, [sp, #12]
  404dc6:	a81d      	add	r0, sp, #116	; 0x74
  404dc8:	2103      	movs	r1, #3
  404dca:	9002      	str	r0, [sp, #8]
  404dcc:	9a07      	ldr	r2, [sp, #28]
  404dce:	9401      	str	r4, [sp, #4]
  404dd0:	4653      	mov	r3, sl
  404dd2:	9100      	str	r1, [sp, #0]
  404dd4:	9808      	ldr	r0, [sp, #32]
  404dd6:	f000 fa47 	bl	405268 <_dtoa_r>
  404dda:	4625      	mov	r5, r4
  404ddc:	4607      	mov	r7, r0
  404dde:	e7e8      	b.n	404db2 <_vfprintf_r+0x134a>
  404de0:	2300      	movs	r3, #0
  404de2:	9309      	str	r3, [sp, #36]	; 0x24
  404de4:	f7fe bec1 	b.w	403b6a <_vfprintf_r+0x102>
  404de8:	424e      	negs	r6, r1
  404dea:	3110      	adds	r1, #16
  404dec:	4d06      	ldr	r5, [pc, #24]	; (404e08 <_vfprintf_r+0x13a0>)
  404dee:	da43      	bge.n	404e78 <_vfprintf_r+0x1410>
  404df0:	2410      	movs	r4, #16
  404df2:	f8dd a020 	ldr.w	sl, [sp, #32]
  404df6:	f8dd b028 	ldr.w	fp, [sp, #40]	; 0x28
  404dfa:	e00c      	b.n	404e16 <_vfprintf_r+0x13ae>
  404dfc:	00408d88 	.word	0x00408d88
  404e00:	66666667 	.word	0x66666667
  404e04:	004099d4 	.word	0x004099d4
  404e08:	00409a1c 	.word	0x00409a1c
  404e0c:	f108 0808 	add.w	r8, r8, #8
  404e10:	3e10      	subs	r6, #16
  404e12:	2e10      	cmp	r6, #16
  404e14:	dd30      	ble.n	404e78 <_vfprintf_r+0x1410>
  404e16:	3301      	adds	r3, #1
  404e18:	3210      	adds	r2, #16
  404e1a:	2b07      	cmp	r3, #7
  404e1c:	9225      	str	r2, [sp, #148]	; 0x94
  404e1e:	9324      	str	r3, [sp, #144]	; 0x90
  404e20:	f8c8 5000 	str.w	r5, [r8]
  404e24:	f8c8 4004 	str.w	r4, [r8, #4]
  404e28:	ddf0      	ble.n	404e0c <_vfprintf_r+0x13a4>
  404e2a:	aa23      	add	r2, sp, #140	; 0x8c
  404e2c:	4659      	mov	r1, fp
  404e2e:	4650      	mov	r0, sl
  404e30:	f7fd ff86 	bl	402d40 <__sprint_r>
  404e34:	2800      	cmp	r0, #0
  404e36:	f47f aeba 	bne.w	404bae <_vfprintf_r+0x1146>
  404e3a:	9a25      	ldr	r2, [sp, #148]	; 0x94
  404e3c:	9b24      	ldr	r3, [sp, #144]	; 0x90
  404e3e:	f10d 08c0 	add.w	r8, sp, #192	; 0xc0
  404e42:	e7e5      	b.n	404e10 <_vfprintf_r+0x13a8>
  404e44:	aa23      	add	r2, sp, #140	; 0x8c
  404e46:	990a      	ldr	r1, [sp, #40]	; 0x28
  404e48:	9808      	ldr	r0, [sp, #32]
  404e4a:	f7fd ff79 	bl	402d40 <__sprint_r>
  404e4e:	2800      	cmp	r0, #0
  404e50:	f47f ab94 	bne.w	40457c <_vfprintf_r+0xb14>
  404e54:	991d      	ldr	r1, [sp, #116]	; 0x74
  404e56:	9a25      	ldr	r2, [sp, #148]	; 0x94
  404e58:	9b24      	ldr	r3, [sp, #144]	; 0x90
  404e5a:	f10d 08c0 	add.w	r8, sp, #192	; 0xc0
  404e5e:	e68a      	b.n	404b76 <_vfprintf_r+0x110e>
  404e60:	9808      	ldr	r0, [sp, #32]
  404e62:	aa23      	add	r2, sp, #140	; 0x8c
  404e64:	4651      	mov	r1, sl
  404e66:	f7fd ff6b 	bl	402d40 <__sprint_r>
  404e6a:	2800      	cmp	r0, #0
  404e6c:	f43f aa64 	beq.w	404338 <_vfprintf_r+0x8d0>
  404e70:	f7ff ba64 	b.w	40433c <_vfprintf_r+0x8d4>
  404e74:	9b21      	ldr	r3, [sp, #132]	; 0x84
  404e76:	e5fe      	b.n	404a76 <_vfprintf_r+0x100e>
  404e78:	3301      	adds	r3, #1
  404e7a:	4432      	add	r2, r6
  404e7c:	2b07      	cmp	r3, #7
  404e7e:	e888 0060 	stmia.w	r8, {r5, r6}
  404e82:	9225      	str	r2, [sp, #148]	; 0x94
  404e84:	9324      	str	r3, [sp, #144]	; 0x90
  404e86:	f108 0808 	add.w	r8, r8, #8
  404e8a:	f77f ae77 	ble.w	404b7c <_vfprintf_r+0x1114>
  404e8e:	aa23      	add	r2, sp, #140	; 0x8c
  404e90:	990a      	ldr	r1, [sp, #40]	; 0x28
  404e92:	9808      	ldr	r0, [sp, #32]
  404e94:	f7fd ff54 	bl	402d40 <__sprint_r>
  404e98:	2800      	cmp	r0, #0
  404e9a:	f47f ab6f 	bne.w	40457c <_vfprintf_r+0xb14>
  404e9e:	9a25      	ldr	r2, [sp, #148]	; 0x94
  404ea0:	9b24      	ldr	r3, [sp, #144]	; 0x90
  404ea2:	f10d 08c0 	add.w	r8, sp, #192	; 0xc0
  404ea6:	e669      	b.n	404b7c <_vfprintf_r+0x1114>
  404ea8:	3330      	adds	r3, #48	; 0x30
  404eaa:	2230      	movs	r2, #48	; 0x30
  404eac:	f88d 307f 	strb.w	r3, [sp, #127]	; 0x7f
  404eb0:	f88d 207e 	strb.w	r2, [sp, #126]	; 0x7e
  404eb4:	ab20      	add	r3, sp, #128	; 0x80
  404eb6:	e6e7      	b.n	404c88 <_vfprintf_r+0x1220>
  404eb8:	9b10      	ldr	r3, [sp, #64]	; 0x40
  404eba:	9a14      	ldr	r2, [sp, #80]	; 0x50
  404ebc:	4413      	add	r3, r2
  404ebe:	930d      	str	r3, [sp, #52]	; 0x34
  404ec0:	ea23 73e3 	bic.w	r3, r3, r3, asr #31
  404ec4:	9307      	str	r3, [sp, #28]
  404ec6:	2667      	movs	r6, #103	; 0x67
  404ec8:	e5f2      	b.n	404ab0 <_vfprintf_r+0x1048>
  404eca:	9a16      	ldr	r2, [sp, #88]	; 0x58
  404ecc:	9807      	ldr	r0, [sp, #28]
  404ece:	9b17      	ldr	r3, [sp, #92]	; 0x5c
  404ed0:	4651      	mov	r1, sl
  404ed2:	f003 fac1 	bl	408458 <__aeabi_dcmpeq>
  404ed6:	2800      	cmp	r0, #0
  404ed8:	f47f af2d 	bne.w	404d36 <_vfprintf_r+0x12ce>
  404edc:	f1c5 0501 	rsb	r5, r5, #1
  404ee0:	951d      	str	r5, [sp, #116]	; 0x74
  404ee2:	442c      	add	r4, r5
  404ee4:	e5b4      	b.n	404a50 <_vfprintf_r+0xfe8>
  404ee6:	9b12      	ldr	r3, [sp, #72]	; 0x48
  404ee8:	4f33      	ldr	r7, [pc, #204]	; (404fb8 <_vfprintf_r+0x1550>)
  404eea:	2b00      	cmp	r3, #0
  404eec:	bfb6      	itet	lt
  404eee:	f04f 0a2d 	movlt.w	sl, #45	; 0x2d
  404ef2:	f89d a06f 	ldrbge.w	sl, [sp, #111]	; 0x6f
  404ef6:	f88d a06f 	strblt.w	sl, [sp, #111]	; 0x6f
  404efa:	4b30      	ldr	r3, [pc, #192]	; (404fbc <_vfprintf_r+0x1554>)
  404efc:	f7ff b9d1 	b.w	4042a2 <_vfprintf_r+0x83a>
  404f00:	9b10      	ldr	r3, [sp, #64]	; 0x40
  404f02:	9a14      	ldr	r2, [sp, #80]	; 0x50
  404f04:	4413      	add	r3, r2
  404f06:	9a09      	ldr	r2, [sp, #36]	; 0x24
  404f08:	441a      	add	r2, r3
  404f0a:	ea22 73e2 	bic.w	r3, r2, r2, asr #31
  404f0e:	920d      	str	r2, [sp, #52]	; 0x34
  404f10:	9307      	str	r3, [sp, #28]
  404f12:	e5cd      	b.n	404ab0 <_vfprintf_r+0x1048>
  404f14:	9b10      	ldr	r3, [sp, #64]	; 0x40
  404f16:	9a0d      	ldr	r2, [sp, #52]	; 0x34
  404f18:	f1c3 0301 	rsb	r3, r3, #1
  404f1c:	441a      	add	r2, r3
  404f1e:	4613      	mov	r3, r2
  404f20:	920d      	str	r2, [sp, #52]	; 0x34
  404f22:	e713      	b.n	404d4c <_vfprintf_r+0x12e4>
  404f24:	f01b 0301 	ands.w	r3, fp, #1
  404f28:	9310      	str	r3, [sp, #64]	; 0x40
  404f2a:	f47f aeb6 	bne.w	404c9a <_vfprintf_r+0x1232>
  404f2e:	9b0d      	ldr	r3, [sp, #52]	; 0x34
  404f30:	ea23 73e3 	bic.w	r3, r3, r3, asr #31
  404f34:	9307      	str	r3, [sp, #28]
  404f36:	e5bb      	b.n	404ab0 <_vfprintf_r+0x1048>
  404f38:	9c0e      	ldr	r4, [sp, #56]	; 0x38
  404f3a:	f899 6001 	ldrb.w	r6, [r9, #1]
  404f3e:	6823      	ldr	r3, [r4, #0]
  404f40:	ea43 73e3 	orr.w	r3, r3, r3, asr #31
  404f44:	9309      	str	r3, [sp, #36]	; 0x24
  404f46:	4623      	mov	r3, r4
  404f48:	3304      	adds	r3, #4
  404f4a:	4681      	mov	r9, r0
  404f4c:	930e      	str	r3, [sp, #56]	; 0x38
  404f4e:	f7fe be0a 	b.w	403b66 <_vfprintf_r+0xfe>
  404f52:	9b09      	ldr	r3, [sp, #36]	; 0x24
  404f54:	b913      	cbnz	r3, 404f5c <_vfprintf_r+0x14f4>
  404f56:	f01b 0f01 	tst.w	fp, #1
  404f5a:	d002      	beq.n	404f62 <_vfprintf_r+0x14fa>
  404f5c:	9b14      	ldr	r3, [sp, #80]	; 0x50
  404f5e:	3301      	adds	r3, #1
  404f60:	e7d1      	b.n	404f06 <_vfprintf_r+0x149e>
  404f62:	2301      	movs	r3, #1
  404f64:	e702      	b.n	404d6c <_vfprintf_r+0x1304>
  404f66:	9b21      	ldr	r3, [sp, #132]	; 0x84
  404f68:	1bdb      	subs	r3, r3, r7
  404f6a:	9311      	str	r3, [sp, #68]	; 0x44
  404f6c:	9b0d      	ldr	r3, [sp, #52]	; 0x34
  404f6e:	2b47      	cmp	r3, #71	; 0x47
  404f70:	f43f ae40 	beq.w	404bf4 <_vfprintf_r+0x118c>
  404f74:	9b1d      	ldr	r3, [sp, #116]	; 0x74
  404f76:	9310      	str	r3, [sp, #64]	; 0x40
  404f78:	e647      	b.n	404c0a <_vfprintf_r+0x11a2>
  404f7a:	f88d 106f 	strb.w	r1, [sp, #111]	; 0x6f
  404f7e:	f7ff b81d 	b.w	403fbc <_vfprintf_r+0x554>
  404f82:	f88d 106f 	strb.w	r1, [sp, #111]	; 0x6f
  404f86:	f7ff b918 	b.w	4041ba <_vfprintf_r+0x752>
  404f8a:	f10d 037e 	add.w	r3, sp, #126	; 0x7e
  404f8e:	e67b      	b.n	404c88 <_vfprintf_r+0x1220>
  404f90:	f88d 106f 	strb.w	r1, [sp, #111]	; 0x6f
  404f94:	f7ff b866 	b.w	404064 <_vfprintf_r+0x5fc>
  404f98:	f88d 106f 	strb.w	r1, [sp, #111]	; 0x6f
  404f9c:	f7ff b9ac 	b.w	4042f8 <_vfprintf_r+0x890>
  404fa0:	f88d 106f 	strb.w	r1, [sp, #111]	; 0x6f
  404fa4:	f7ff b934 	b.w	404210 <_vfprintf_r+0x7a8>
  404fa8:	f88d 106f 	strb.w	r1, [sp, #111]	; 0x6f
  404fac:	f7ff b8b0 	b.w	404110 <_vfprintf_r+0x6a8>
  404fb0:	f88d 106f 	strb.w	r1, [sp, #111]	; 0x6f
  404fb4:	f7ff b945 	b.w	404242 <_vfprintf_r+0x7da>
  404fb8:	00409a08 	.word	0x00409a08
  404fbc:	00409a04 	.word	0x00409a04

00404fc0 <__sbprintf>:
  404fc0:	e92d 41f0 	stmdb	sp!, {r4, r5, r6, r7, r8, lr}
  404fc4:	460c      	mov	r4, r1
  404fc6:	f5ad 6d8d 	sub.w	sp, sp, #1128	; 0x468
  404fca:	8989      	ldrh	r1, [r1, #12]
  404fcc:	6e66      	ldr	r6, [r4, #100]	; 0x64
  404fce:	89e5      	ldrh	r5, [r4, #14]
  404fd0:	9619      	str	r6, [sp, #100]	; 0x64
  404fd2:	f021 0102 	bic.w	r1, r1, #2
  404fd6:	4606      	mov	r6, r0
  404fd8:	69e0      	ldr	r0, [r4, #28]
  404fda:	f8ad 100c 	strh.w	r1, [sp, #12]
  404fde:	4617      	mov	r7, r2
  404fe0:	f44f 6180 	mov.w	r1, #1024	; 0x400
  404fe4:	6a62      	ldr	r2, [r4, #36]	; 0x24
  404fe6:	f8ad 500e 	strh.w	r5, [sp, #14]
  404fea:	4698      	mov	r8, r3
  404fec:	ad1a      	add	r5, sp, #104	; 0x68
  404fee:	2300      	movs	r3, #0
  404ff0:	9007      	str	r0, [sp, #28]
  404ff2:	a816      	add	r0, sp, #88	; 0x58
  404ff4:	9209      	str	r2, [sp, #36]	; 0x24
  404ff6:	9306      	str	r3, [sp, #24]
  404ff8:	9500      	str	r5, [sp, #0]
  404ffa:	9504      	str	r5, [sp, #16]
  404ffc:	9102      	str	r1, [sp, #8]
  404ffe:	9105      	str	r1, [sp, #20]
  405000:	f001 fd1e 	bl	406a40 <__retarget_lock_init_recursive>
  405004:	4643      	mov	r3, r8
  405006:	463a      	mov	r2, r7
  405008:	4669      	mov	r1, sp
  40500a:	4630      	mov	r0, r6
  40500c:	f7fe fd2c 	bl	403a68 <_vfprintf_r>
  405010:	1e05      	subs	r5, r0, #0
  405012:	db07      	blt.n	405024 <__sbprintf+0x64>
  405014:	4630      	mov	r0, r6
  405016:	4669      	mov	r1, sp
  405018:	f001 f8f0 	bl	4061fc <_fflush_r>
  40501c:	2800      	cmp	r0, #0
  40501e:	bf18      	it	ne
  405020:	f04f 35ff 	movne.w	r5, #4294967295
  405024:	f8bd 300c 	ldrh.w	r3, [sp, #12]
  405028:	065b      	lsls	r3, r3, #25
  40502a:	d503      	bpl.n	405034 <__sbprintf+0x74>
  40502c:	89a3      	ldrh	r3, [r4, #12]
  40502e:	f043 0340 	orr.w	r3, r3, #64	; 0x40
  405032:	81a3      	strh	r3, [r4, #12]
  405034:	9816      	ldr	r0, [sp, #88]	; 0x58
  405036:	f001 fd05 	bl	406a44 <__retarget_lock_close_recursive>
  40503a:	4628      	mov	r0, r5
  40503c:	f50d 6d8d 	add.w	sp, sp, #1128	; 0x468
  405040:	e8bd 81f0 	ldmia.w	sp!, {r4, r5, r6, r7, r8, pc}

00405044 <__swsetup_r>:
  405044:	b538      	push	{r3, r4, r5, lr}
  405046:	4b30      	ldr	r3, [pc, #192]	; (405108 <__swsetup_r+0xc4>)
  405048:	681b      	ldr	r3, [r3, #0]
  40504a:	4605      	mov	r5, r0
  40504c:	460c      	mov	r4, r1
  40504e:	b113      	cbz	r3, 405056 <__swsetup_r+0x12>
  405050:	6b9a      	ldr	r2, [r3, #56]	; 0x38
  405052:	2a00      	cmp	r2, #0
  405054:	d038      	beq.n	4050c8 <__swsetup_r+0x84>
  405056:	f9b4 200c 	ldrsh.w	r2, [r4, #12]
  40505a:	b293      	uxth	r3, r2
  40505c:	0718      	lsls	r0, r3, #28
  40505e:	d50c      	bpl.n	40507a <__swsetup_r+0x36>
  405060:	6920      	ldr	r0, [r4, #16]
  405062:	b1a8      	cbz	r0, 405090 <__swsetup_r+0x4c>
  405064:	f013 0201 	ands.w	r2, r3, #1
  405068:	d01e      	beq.n	4050a8 <__swsetup_r+0x64>
  40506a:	6963      	ldr	r3, [r4, #20]
  40506c:	2200      	movs	r2, #0
  40506e:	425b      	negs	r3, r3
  405070:	61a3      	str	r3, [r4, #24]
  405072:	60a2      	str	r2, [r4, #8]
  405074:	b1f0      	cbz	r0, 4050b4 <__swsetup_r+0x70>
  405076:	2000      	movs	r0, #0
  405078:	bd38      	pop	{r3, r4, r5, pc}
  40507a:	06d9      	lsls	r1, r3, #27
  40507c:	d53c      	bpl.n	4050f8 <__swsetup_r+0xb4>
  40507e:	0758      	lsls	r0, r3, #29
  405080:	d426      	bmi.n	4050d0 <__swsetup_r+0x8c>
  405082:	6920      	ldr	r0, [r4, #16]
  405084:	f042 0308 	orr.w	r3, r2, #8
  405088:	81a3      	strh	r3, [r4, #12]
  40508a:	b29b      	uxth	r3, r3
  40508c:	2800      	cmp	r0, #0
  40508e:	d1e9      	bne.n	405064 <__swsetup_r+0x20>
  405090:	f403 7220 	and.w	r2, r3, #640	; 0x280
  405094:	f5b2 7f00 	cmp.w	r2, #512	; 0x200
  405098:	d0e4      	beq.n	405064 <__swsetup_r+0x20>
  40509a:	4628      	mov	r0, r5
  40509c:	4621      	mov	r1, r4
  40509e:	f001 fd05 	bl	406aac <__smakebuf_r>
  4050a2:	89a3      	ldrh	r3, [r4, #12]
  4050a4:	6920      	ldr	r0, [r4, #16]
  4050a6:	e7dd      	b.n	405064 <__swsetup_r+0x20>
  4050a8:	0799      	lsls	r1, r3, #30
  4050aa:	bf58      	it	pl
  4050ac:	6962      	ldrpl	r2, [r4, #20]
  4050ae:	60a2      	str	r2, [r4, #8]
  4050b0:	2800      	cmp	r0, #0
  4050b2:	d1e0      	bne.n	405076 <__swsetup_r+0x32>
  4050b4:	f9b4 300c 	ldrsh.w	r3, [r4, #12]
  4050b8:	061a      	lsls	r2, r3, #24
  4050ba:	d5dd      	bpl.n	405078 <__swsetup_r+0x34>
  4050bc:	f043 0340 	orr.w	r3, r3, #64	; 0x40
  4050c0:	81a3      	strh	r3, [r4, #12]
  4050c2:	f04f 30ff 	mov.w	r0, #4294967295
  4050c6:	bd38      	pop	{r3, r4, r5, pc}
  4050c8:	4618      	mov	r0, r3
  4050ca:	f001 f8ef 	bl	4062ac <__sinit>
  4050ce:	e7c2      	b.n	405056 <__swsetup_r+0x12>
  4050d0:	6b21      	ldr	r1, [r4, #48]	; 0x30
  4050d2:	b151      	cbz	r1, 4050ea <__swsetup_r+0xa6>
  4050d4:	f104 0340 	add.w	r3, r4, #64	; 0x40
  4050d8:	4299      	cmp	r1, r3
  4050da:	d004      	beq.n	4050e6 <__swsetup_r+0xa2>
  4050dc:	4628      	mov	r0, r5
  4050de:	f001 fa0b 	bl	4064f8 <_free_r>
  4050e2:	f9b4 200c 	ldrsh.w	r2, [r4, #12]
  4050e6:	2300      	movs	r3, #0
  4050e8:	6323      	str	r3, [r4, #48]	; 0x30
  4050ea:	2300      	movs	r3, #0
  4050ec:	6920      	ldr	r0, [r4, #16]
  4050ee:	6063      	str	r3, [r4, #4]
  4050f0:	f022 0224 	bic.w	r2, r2, #36	; 0x24
  4050f4:	6020      	str	r0, [r4, #0]
  4050f6:	e7c5      	b.n	405084 <__swsetup_r+0x40>
  4050f8:	f042 0240 	orr.w	r2, r2, #64	; 0x40
  4050fc:	2309      	movs	r3, #9
  4050fe:	602b      	str	r3, [r5, #0]
  405100:	f04f 30ff 	mov.w	r0, #4294967295
  405104:	81a2      	strh	r2, [r4, #12]
  405106:	bd38      	pop	{r3, r4, r5, pc}
  405108:	20400068 	.word	0x20400068

0040510c <register_fini>:
  40510c:	4b02      	ldr	r3, [pc, #8]	; (405118 <register_fini+0xc>)
  40510e:	b113      	cbz	r3, 405116 <register_fini+0xa>
  405110:	4802      	ldr	r0, [pc, #8]	; (40511c <register_fini+0x10>)
  405112:	f000 b80d 	b.w	405130 <atexit>
  405116:	4770      	bx	lr
  405118:	00000000 	.word	0x00000000
  40511c:	0040631d 	.word	0x0040631d

00405120 <abort>:
  405120:	b508      	push	{r3, lr}
  405122:	2006      	movs	r0, #6
  405124:	f002 faa8 	bl	407678 <raise>
  405128:	2001      	movs	r0, #1
  40512a:	f7fb f911 	bl	400350 <_exit>
  40512e:	bf00      	nop

00405130 <atexit>:
  405130:	2300      	movs	r3, #0
  405132:	4601      	mov	r1, r0
  405134:	461a      	mov	r2, r3
  405136:	4618      	mov	r0, r3
  405138:	f002 bc16 	b.w	407968 <__register_exitproc>

0040513c <quorem>:
  40513c:	6902      	ldr	r2, [r0, #16]
  40513e:	690b      	ldr	r3, [r1, #16]
  405140:	4293      	cmp	r3, r2
  405142:	f300 808d 	bgt.w	405260 <quorem+0x124>
  405146:	e92d 4ff0 	stmdb	sp!, {r4, r5, r6, r7, r8, r9, sl, fp, lr}
  40514a:	f103 38ff 	add.w	r8, r3, #4294967295
  40514e:	f101 0714 	add.w	r7, r1, #20
  405152:	f100 0b14 	add.w	fp, r0, #20
  405156:	f857 2028 	ldr.w	r2, [r7, r8, lsl #2]
  40515a:	f85b 3028 	ldr.w	r3, [fp, r8, lsl #2]
  40515e:	ea4f 0488 	mov.w	r4, r8, lsl #2
  405162:	b083      	sub	sp, #12
  405164:	3201      	adds	r2, #1
  405166:	fbb3 f9f2 	udiv	r9, r3, r2
  40516a:	eb0b 0304 	add.w	r3, fp, r4
  40516e:	9400      	str	r4, [sp, #0]
  405170:	eb07 0a04 	add.w	sl, r7, r4
  405174:	9301      	str	r3, [sp, #4]
  405176:	f1b9 0f00 	cmp.w	r9, #0
  40517a:	d039      	beq.n	4051f0 <quorem+0xb4>
  40517c:	2500      	movs	r5, #0
  40517e:	462e      	mov	r6, r5
  405180:	46bc      	mov	ip, r7
  405182:	46de      	mov	lr, fp
  405184:	f85c 4b04 	ldr.w	r4, [ip], #4
  405188:	f8de 3000 	ldr.w	r3, [lr]
  40518c:	b2a2      	uxth	r2, r4
  40518e:	fb09 5502 	mla	r5, r9, r2, r5
  405192:	0c22      	lsrs	r2, r4, #16
  405194:	0c2c      	lsrs	r4, r5, #16
  405196:	fb09 4202 	mla	r2, r9, r2, r4
  40519a:	b2ad      	uxth	r5, r5
  40519c:	1b75      	subs	r5, r6, r5
  40519e:	b296      	uxth	r6, r2
  4051a0:	ebc6 4613 	rsb	r6, r6, r3, lsr #16
  4051a4:	fa15 f383 	uxtah	r3, r5, r3
  4051a8:	eb06 4623 	add.w	r6, r6, r3, asr #16
  4051ac:	b29b      	uxth	r3, r3
  4051ae:	ea43 4306 	orr.w	r3, r3, r6, lsl #16
  4051b2:	45e2      	cmp	sl, ip
  4051b4:	ea4f 4512 	mov.w	r5, r2, lsr #16
  4051b8:	f84e 3b04 	str.w	r3, [lr], #4
  4051bc:	ea4f 4626 	mov.w	r6, r6, asr #16
  4051c0:	d2e0      	bcs.n	405184 <quorem+0x48>
  4051c2:	9b00      	ldr	r3, [sp, #0]
  4051c4:	f85b 3003 	ldr.w	r3, [fp, r3]
  4051c8:	b993      	cbnz	r3, 4051f0 <quorem+0xb4>
  4051ca:	9c01      	ldr	r4, [sp, #4]
  4051cc:	1f23      	subs	r3, r4, #4
  4051ce:	459b      	cmp	fp, r3
  4051d0:	d20c      	bcs.n	4051ec <quorem+0xb0>
  4051d2:	f854 3c04 	ldr.w	r3, [r4, #-4]
  4051d6:	b94b      	cbnz	r3, 4051ec <quorem+0xb0>
  4051d8:	f1a4 0308 	sub.w	r3, r4, #8
  4051dc:	e002      	b.n	4051e4 <quorem+0xa8>
  4051de:	681a      	ldr	r2, [r3, #0]
  4051e0:	3b04      	subs	r3, #4
  4051e2:	b91a      	cbnz	r2, 4051ec <quorem+0xb0>
  4051e4:	459b      	cmp	fp, r3
  4051e6:	f108 38ff 	add.w	r8, r8, #4294967295
  4051ea:	d3f8      	bcc.n	4051de <quorem+0xa2>
  4051ec:	f8c0 8010 	str.w	r8, [r0, #16]
  4051f0:	4604      	mov	r4, r0
  4051f2:	f001 ff6f 	bl	4070d4 <__mcmp>
  4051f6:	2800      	cmp	r0, #0
  4051f8:	db2e      	blt.n	405258 <quorem+0x11c>
  4051fa:	f109 0901 	add.w	r9, r9, #1
  4051fe:	465d      	mov	r5, fp
  405200:	2300      	movs	r3, #0
  405202:	f857 1b04 	ldr.w	r1, [r7], #4
  405206:	6828      	ldr	r0, [r5, #0]
  405208:	b28a      	uxth	r2, r1
  40520a:	1a9a      	subs	r2, r3, r2
  40520c:	0c0b      	lsrs	r3, r1, #16
  40520e:	fa12 f280 	uxtah	r2, r2, r0
  405212:	ebc3 4310 	rsb	r3, r3, r0, lsr #16
  405216:	eb03 4322 	add.w	r3, r3, r2, asr #16
  40521a:	b292      	uxth	r2, r2
  40521c:	ea42 4203 	orr.w	r2, r2, r3, lsl #16
  405220:	45ba      	cmp	sl, r7
  405222:	f845 2b04 	str.w	r2, [r5], #4
  405226:	ea4f 4323 	mov.w	r3, r3, asr #16
  40522a:	d2ea      	bcs.n	405202 <quorem+0xc6>
  40522c:	f85b 2028 	ldr.w	r2, [fp, r8, lsl #2]
  405230:	eb0b 0388 	add.w	r3, fp, r8, lsl #2
  405234:	b982      	cbnz	r2, 405258 <quorem+0x11c>
  405236:	1f1a      	subs	r2, r3, #4
  405238:	4593      	cmp	fp, r2
  40523a:	d20b      	bcs.n	405254 <quorem+0x118>
  40523c:	f853 2c04 	ldr.w	r2, [r3, #-4]
  405240:	b942      	cbnz	r2, 405254 <quorem+0x118>
  405242:	3b08      	subs	r3, #8
  405244:	e002      	b.n	40524c <quorem+0x110>
  405246:	681a      	ldr	r2, [r3, #0]
  405248:	3b04      	subs	r3, #4
  40524a:	b91a      	cbnz	r2, 405254 <quorem+0x118>
  40524c:	459b      	cmp	fp, r3
  40524e:	f108 38ff 	add.w	r8, r8, #4294967295
  405252:	d3f8      	bcc.n	405246 <quorem+0x10a>
  405254:	f8c4 8010 	str.w	r8, [r4, #16]
  405258:	4648      	mov	r0, r9
  40525a:	b003      	add	sp, #12
  40525c:	e8bd 8ff0 	ldmia.w	sp!, {r4, r5, r6, r7, r8, r9, sl, fp, pc}
  405260:	2000      	movs	r0, #0
  405262:	4770      	bx	lr
  405264:	0000      	movs	r0, r0
	...

00405268 <_dtoa_r>:
  405268:	e92d 4ff0 	stmdb	sp!, {r4, r5, r6, r7, r8, r9, sl, fp, lr}
  40526c:	6c01      	ldr	r1, [r0, #64]	; 0x40
  40526e:	b09b      	sub	sp, #108	; 0x6c
  405270:	4604      	mov	r4, r0
  405272:	9e27      	ldr	r6, [sp, #156]	; 0x9c
  405274:	4692      	mov	sl, r2
  405276:	469b      	mov	fp, r3
  405278:	b141      	cbz	r1, 40528c <_dtoa_r+0x24>
  40527a:	6c42      	ldr	r2, [r0, #68]	; 0x44
  40527c:	604a      	str	r2, [r1, #4]
  40527e:	2301      	movs	r3, #1
  405280:	4093      	lsls	r3, r2
  405282:	608b      	str	r3, [r1, #8]
  405284:	f001 fd4e 	bl	406d24 <_Bfree>
  405288:	2300      	movs	r3, #0
  40528a:	6423      	str	r3, [r4, #64]	; 0x40
  40528c:	f1bb 0f00 	cmp.w	fp, #0
  405290:	465d      	mov	r5, fp
  405292:	db35      	blt.n	405300 <_dtoa_r+0x98>
  405294:	2300      	movs	r3, #0
  405296:	6033      	str	r3, [r6, #0]
  405298:	4b9d      	ldr	r3, [pc, #628]	; (405510 <_dtoa_r+0x2a8>)
  40529a:	43ab      	bics	r3, r5
  40529c:	d015      	beq.n	4052ca <_dtoa_r+0x62>
  40529e:	4650      	mov	r0, sl
  4052a0:	4659      	mov	r1, fp
  4052a2:	2200      	movs	r2, #0
  4052a4:	2300      	movs	r3, #0
  4052a6:	f003 f8d7 	bl	408458 <__aeabi_dcmpeq>
  4052aa:	4680      	mov	r8, r0
  4052ac:	2800      	cmp	r0, #0
  4052ae:	d02d      	beq.n	40530c <_dtoa_r+0xa4>
  4052b0:	9a26      	ldr	r2, [sp, #152]	; 0x98
  4052b2:	2301      	movs	r3, #1
  4052b4:	6013      	str	r3, [r2, #0]
  4052b6:	9b28      	ldr	r3, [sp, #160]	; 0xa0
  4052b8:	2b00      	cmp	r3, #0
  4052ba:	f000 80bd 	beq.w	405438 <_dtoa_r+0x1d0>
  4052be:	4895      	ldr	r0, [pc, #596]	; (405514 <_dtoa_r+0x2ac>)
  4052c0:	6018      	str	r0, [r3, #0]
  4052c2:	3801      	subs	r0, #1
  4052c4:	b01b      	add	sp, #108	; 0x6c
  4052c6:	e8bd 8ff0 	ldmia.w	sp!, {r4, r5, r6, r7, r8, r9, sl, fp, pc}
  4052ca:	9a26      	ldr	r2, [sp, #152]	; 0x98
  4052cc:	f242 730f 	movw	r3, #9999	; 0x270f
  4052d0:	6013      	str	r3, [r2, #0]
  4052d2:	f1ba 0f00 	cmp.w	sl, #0
  4052d6:	d10d      	bne.n	4052f4 <_dtoa_r+0x8c>
  4052d8:	f3c5 0513 	ubfx	r5, r5, #0, #20
  4052dc:	b955      	cbnz	r5, 4052f4 <_dtoa_r+0x8c>
  4052de:	9b28      	ldr	r3, [sp, #160]	; 0xa0
  4052e0:	488d      	ldr	r0, [pc, #564]	; (405518 <_dtoa_r+0x2b0>)
  4052e2:	2b00      	cmp	r3, #0
  4052e4:	d0ee      	beq.n	4052c4 <_dtoa_r+0x5c>
  4052e6:	f100 0308 	add.w	r3, r0, #8
  4052ea:	9a28      	ldr	r2, [sp, #160]	; 0xa0
  4052ec:	6013      	str	r3, [r2, #0]
  4052ee:	b01b      	add	sp, #108	; 0x6c
  4052f0:	e8bd 8ff0 	ldmia.w	sp!, {r4, r5, r6, r7, r8, r9, sl, fp, pc}
  4052f4:	9b28      	ldr	r3, [sp, #160]	; 0xa0
  4052f6:	4889      	ldr	r0, [pc, #548]	; (40551c <_dtoa_r+0x2b4>)
  4052f8:	2b00      	cmp	r3, #0
  4052fa:	d0e3      	beq.n	4052c4 <_dtoa_r+0x5c>
  4052fc:	1cc3      	adds	r3, r0, #3
  4052fe:	e7f4      	b.n	4052ea <_dtoa_r+0x82>
  405300:	2301      	movs	r3, #1
  405302:	f02b 4500 	bic.w	r5, fp, #2147483648	; 0x80000000
  405306:	6033      	str	r3, [r6, #0]
  405308:	46ab      	mov	fp, r5
  40530a:	e7c5      	b.n	405298 <_dtoa_r+0x30>
  40530c:	aa18      	add	r2, sp, #96	; 0x60
  40530e:	ab19      	add	r3, sp, #100	; 0x64
  405310:	9201      	str	r2, [sp, #4]
  405312:	9300      	str	r3, [sp, #0]
  405314:	4652      	mov	r2, sl
  405316:	465b      	mov	r3, fp
  405318:	4620      	mov	r0, r4
  40531a:	f001 ff7b 	bl	407214 <__d2b>
  40531e:	0d2b      	lsrs	r3, r5, #20
  405320:	4681      	mov	r9, r0
  405322:	d071      	beq.n	405408 <_dtoa_r+0x1a0>
  405324:	f3cb 0213 	ubfx	r2, fp, #0, #20
  405328:	f042 517f 	orr.w	r1, r2, #1069547520	; 0x3fc00000
  40532c:	9f18      	ldr	r7, [sp, #96]	; 0x60
  40532e:	f8cd 8050 	str.w	r8, [sp, #80]	; 0x50
  405332:	4650      	mov	r0, sl
  405334:	f2a3 36ff 	subw	r6, r3, #1023	; 0x3ff
  405338:	f441 1140 	orr.w	r1, r1, #3145728	; 0x300000
  40533c:	2200      	movs	r2, #0
  40533e:	4b78      	ldr	r3, [pc, #480]	; (405520 <_dtoa_r+0x2b8>)
  405340:	f002 fc6e 	bl	407c20 <__aeabi_dsub>
  405344:	a36c      	add	r3, pc, #432	; (adr r3, 4054f8 <_dtoa_r+0x290>)
  405346:	e9d3 2300 	ldrd	r2, r3, [r3]
  40534a:	f002 fe1d 	bl	407f88 <__aeabi_dmul>
  40534e:	a36c      	add	r3, pc, #432	; (adr r3, 405500 <_dtoa_r+0x298>)
  405350:	e9d3 2300 	ldrd	r2, r3, [r3]
  405354:	f002 fc66 	bl	407c24 <__adddf3>
  405358:	e9cd 0102 	strd	r0, r1, [sp, #8]
  40535c:	4630      	mov	r0, r6
  40535e:	f002 fdad 	bl	407ebc <__aeabi_i2d>
  405362:	a369      	add	r3, pc, #420	; (adr r3, 405508 <_dtoa_r+0x2a0>)
  405364:	e9d3 2300 	ldrd	r2, r3, [r3]
  405368:	f002 fe0e 	bl	407f88 <__aeabi_dmul>
  40536c:	4602      	mov	r2, r0
  40536e:	460b      	mov	r3, r1
  405370:	e9dd 0102 	ldrd	r0, r1, [sp, #8]
  405374:	f002 fc56 	bl	407c24 <__adddf3>
  405378:	e9cd 0104 	strd	r0, r1, [sp, #16]
  40537c:	f003 f8b4 	bl	4084e8 <__aeabi_d2iz>
  405380:	2200      	movs	r2, #0
  405382:	9002      	str	r0, [sp, #8]
  405384:	2300      	movs	r3, #0
  405386:	e9dd 0104 	ldrd	r0, r1, [sp, #16]
  40538a:	f003 f86f 	bl	40846c <__aeabi_dcmplt>
  40538e:	2800      	cmp	r0, #0
  405390:	f040 8173 	bne.w	40567a <_dtoa_r+0x412>
  405394:	9d02      	ldr	r5, [sp, #8]
  405396:	2d16      	cmp	r5, #22
  405398:	f200 815d 	bhi.w	405656 <_dtoa_r+0x3ee>
  40539c:	4b61      	ldr	r3, [pc, #388]	; (405524 <_dtoa_r+0x2bc>)
  40539e:	eb03 03c5 	add.w	r3, r3, r5, lsl #3
  4053a2:	e9d3 0100 	ldrd	r0, r1, [r3]
  4053a6:	4652      	mov	r2, sl
  4053a8:	465b      	mov	r3, fp
  4053aa:	f003 f87d 	bl	4084a8 <__aeabi_dcmpgt>
  4053ae:	2800      	cmp	r0, #0
  4053b0:	f000 81c5 	beq.w	40573e <_dtoa_r+0x4d6>
  4053b4:	1e6b      	subs	r3, r5, #1
  4053b6:	9302      	str	r3, [sp, #8]
  4053b8:	2300      	movs	r3, #0
  4053ba:	930e      	str	r3, [sp, #56]	; 0x38
  4053bc:	1bbf      	subs	r7, r7, r6
  4053be:	1e7b      	subs	r3, r7, #1
  4053c0:	9306      	str	r3, [sp, #24]
  4053c2:	f100 8154 	bmi.w	40566e <_dtoa_r+0x406>
  4053c6:	2300      	movs	r3, #0
  4053c8:	9308      	str	r3, [sp, #32]
  4053ca:	9b02      	ldr	r3, [sp, #8]
  4053cc:	2b00      	cmp	r3, #0
  4053ce:	f2c0 8145 	blt.w	40565c <_dtoa_r+0x3f4>
  4053d2:	9a06      	ldr	r2, [sp, #24]
  4053d4:	930d      	str	r3, [sp, #52]	; 0x34
  4053d6:	4611      	mov	r1, r2
  4053d8:	4419      	add	r1, r3
  4053da:	2300      	movs	r3, #0
  4053dc:	9106      	str	r1, [sp, #24]
  4053de:	930c      	str	r3, [sp, #48]	; 0x30
  4053e0:	9b24      	ldr	r3, [sp, #144]	; 0x90
  4053e2:	2b09      	cmp	r3, #9
  4053e4:	d82a      	bhi.n	40543c <_dtoa_r+0x1d4>
  4053e6:	2b05      	cmp	r3, #5
  4053e8:	f340 865b 	ble.w	4060a2 <_dtoa_r+0xe3a>
  4053ec:	3b04      	subs	r3, #4
  4053ee:	9324      	str	r3, [sp, #144]	; 0x90
  4053f0:	2500      	movs	r5, #0
  4053f2:	9b24      	ldr	r3, [sp, #144]	; 0x90
  4053f4:	3b02      	subs	r3, #2
  4053f6:	2b03      	cmp	r3, #3
  4053f8:	f200 8642 	bhi.w	406080 <_dtoa_r+0xe18>
  4053fc:	e8df f013 	tbh	[pc, r3, lsl #1]
  405400:	02c903d4 	.word	0x02c903d4
  405404:	046103df 	.word	0x046103df
  405408:	9f18      	ldr	r7, [sp, #96]	; 0x60
  40540a:	9e19      	ldr	r6, [sp, #100]	; 0x64
  40540c:	443e      	add	r6, r7
  40540e:	f206 4332 	addw	r3, r6, #1074	; 0x432
  405412:	2b20      	cmp	r3, #32
  405414:	f340 818e 	ble.w	405734 <_dtoa_r+0x4cc>
  405418:	f1c3 0340 	rsb	r3, r3, #64	; 0x40
  40541c:	f206 4012 	addw	r0, r6, #1042	; 0x412
  405420:	409d      	lsls	r5, r3
  405422:	fa2a f000 	lsr.w	r0, sl, r0
  405426:	4328      	orrs	r0, r5
  405428:	f002 fd38 	bl	407e9c <__aeabi_ui2d>
  40542c:	2301      	movs	r3, #1
  40542e:	3e01      	subs	r6, #1
  405430:	f1a1 71f8 	sub.w	r1, r1, #32505856	; 0x1f00000
  405434:	9314      	str	r3, [sp, #80]	; 0x50
  405436:	e781      	b.n	40533c <_dtoa_r+0xd4>
  405438:	483b      	ldr	r0, [pc, #236]	; (405528 <_dtoa_r+0x2c0>)
  40543a:	e743      	b.n	4052c4 <_dtoa_r+0x5c>
  40543c:	2100      	movs	r1, #0
  40543e:	6461      	str	r1, [r4, #68]	; 0x44
  405440:	4620      	mov	r0, r4
  405442:	9125      	str	r1, [sp, #148]	; 0x94
  405444:	f001 fc48 	bl	406cd8 <_Balloc>
  405448:	f04f 33ff 	mov.w	r3, #4294967295
  40544c:	930a      	str	r3, [sp, #40]	; 0x28
  40544e:	9a25      	ldr	r2, [sp, #148]	; 0x94
  405450:	930f      	str	r3, [sp, #60]	; 0x3c
  405452:	2301      	movs	r3, #1
  405454:	9004      	str	r0, [sp, #16]
  405456:	6420      	str	r0, [r4, #64]	; 0x40
  405458:	9224      	str	r2, [sp, #144]	; 0x90
  40545a:	930b      	str	r3, [sp, #44]	; 0x2c
  40545c:	9b19      	ldr	r3, [sp, #100]	; 0x64
  40545e:	2b00      	cmp	r3, #0
  405460:	f2c0 80d9 	blt.w	405616 <_dtoa_r+0x3ae>
  405464:	9a02      	ldr	r2, [sp, #8]
  405466:	2a0e      	cmp	r2, #14
  405468:	f300 80d5 	bgt.w	405616 <_dtoa_r+0x3ae>
  40546c:	4b2d      	ldr	r3, [pc, #180]	; (405524 <_dtoa_r+0x2bc>)
  40546e:	eb03 03c2 	add.w	r3, r3, r2, lsl #3
  405472:	e9d3 2300 	ldrd	r2, r3, [r3]
  405476:	e9cd 2308 	strd	r2, r3, [sp, #32]
  40547a:	9b25      	ldr	r3, [sp, #148]	; 0x94
  40547c:	2b00      	cmp	r3, #0
  40547e:	f2c0 83ba 	blt.w	405bf6 <_dtoa_r+0x98e>
  405482:	e9dd 5608 	ldrd	r5, r6, [sp, #32]
  405486:	4650      	mov	r0, sl
  405488:	462a      	mov	r2, r5
  40548a:	4633      	mov	r3, r6
  40548c:	4659      	mov	r1, fp
  40548e:	f002 fea5 	bl	4081dc <__aeabi_ddiv>
  405492:	f003 f829 	bl	4084e8 <__aeabi_d2iz>
  405496:	4680      	mov	r8, r0
  405498:	f002 fd10 	bl	407ebc <__aeabi_i2d>
  40549c:	462a      	mov	r2, r5
  40549e:	4633      	mov	r3, r6
  4054a0:	f002 fd72 	bl	407f88 <__aeabi_dmul>
  4054a4:	460b      	mov	r3, r1
  4054a6:	4602      	mov	r2, r0
  4054a8:	4659      	mov	r1, fp
  4054aa:	4650      	mov	r0, sl
  4054ac:	f002 fbb8 	bl	407c20 <__aeabi_dsub>
  4054b0:	9d04      	ldr	r5, [sp, #16]
  4054b2:	f108 0330 	add.w	r3, r8, #48	; 0x30
  4054b6:	702b      	strb	r3, [r5, #0]
  4054b8:	9b0a      	ldr	r3, [sp, #40]	; 0x28
  4054ba:	2b01      	cmp	r3, #1
  4054bc:	4606      	mov	r6, r0
  4054be:	460f      	mov	r7, r1
  4054c0:	f105 0501 	add.w	r5, r5, #1
  4054c4:	d068      	beq.n	405598 <_dtoa_r+0x330>
  4054c6:	2200      	movs	r2, #0
  4054c8:	4b18      	ldr	r3, [pc, #96]	; (40552c <_dtoa_r+0x2c4>)
  4054ca:	f002 fd5d 	bl	407f88 <__aeabi_dmul>
  4054ce:	2200      	movs	r2, #0
  4054d0:	2300      	movs	r3, #0
  4054d2:	4606      	mov	r6, r0
  4054d4:	460f      	mov	r7, r1
  4054d6:	f002 ffbf 	bl	408458 <__aeabi_dcmpeq>
  4054da:	2800      	cmp	r0, #0
  4054dc:	f040 8088 	bne.w	4055f0 <_dtoa_r+0x388>
  4054e0:	f8cd 902c 	str.w	r9, [sp, #44]	; 0x2c
  4054e4:	f04f 0a00 	mov.w	sl, #0
  4054e8:	f8df b040 	ldr.w	fp, [pc, #64]	; 40552c <_dtoa_r+0x2c4>
  4054ec:	940c      	str	r4, [sp, #48]	; 0x30
  4054ee:	e9dd 8908 	ldrd	r8, r9, [sp, #32]
  4054f2:	e028      	b.n	405546 <_dtoa_r+0x2de>
  4054f4:	f3af 8000 	nop.w
  4054f8:	636f4361 	.word	0x636f4361
  4054fc:	3fd287a7 	.word	0x3fd287a7
  405500:	8b60c8b3 	.word	0x8b60c8b3
  405504:	3fc68a28 	.word	0x3fc68a28
  405508:	509f79fb 	.word	0x509f79fb
  40550c:	3fd34413 	.word	0x3fd34413
  405510:	7ff00000 	.word	0x7ff00000
  405514:	00408d89 	.word	0x00408d89
  405518:	00409a2c 	.word	0x00409a2c
  40551c:	00409a38 	.word	0x00409a38
  405520:	3ff80000 	.word	0x3ff80000
  405524:	00409a78 	.word	0x00409a78
  405528:	00408d88 	.word	0x00408d88
  40552c:	40240000 	.word	0x40240000
  405530:	f002 fd2a 	bl	407f88 <__aeabi_dmul>
  405534:	2200      	movs	r2, #0
  405536:	2300      	movs	r3, #0
  405538:	4606      	mov	r6, r0
  40553a:	460f      	mov	r7, r1
  40553c:	f002 ff8c 	bl	408458 <__aeabi_dcmpeq>
  405540:	2800      	cmp	r0, #0
  405542:	f040 83c1 	bne.w	405cc8 <_dtoa_r+0xa60>
  405546:	4642      	mov	r2, r8
  405548:	464b      	mov	r3, r9
  40554a:	4630      	mov	r0, r6
  40554c:	4639      	mov	r1, r7
  40554e:	f002 fe45 	bl	4081dc <__aeabi_ddiv>
  405552:	f002 ffc9 	bl	4084e8 <__aeabi_d2iz>
  405556:	4604      	mov	r4, r0
  405558:	f002 fcb0 	bl	407ebc <__aeabi_i2d>
  40555c:	4642      	mov	r2, r8
  40555e:	464b      	mov	r3, r9
  405560:	f002 fd12 	bl	407f88 <__aeabi_dmul>
  405564:	4602      	mov	r2, r0
  405566:	460b      	mov	r3, r1
  405568:	4630      	mov	r0, r6
  40556a:	4639      	mov	r1, r7
  40556c:	f002 fb58 	bl	407c20 <__aeabi_dsub>
  405570:	f104 0e30 	add.w	lr, r4, #48	; 0x30
  405574:	9e04      	ldr	r6, [sp, #16]
  405576:	f805 eb01 	strb.w	lr, [r5], #1
  40557a:	eba5 0e06 	sub.w	lr, r5, r6
  40557e:	9e0a      	ldr	r6, [sp, #40]	; 0x28
  405580:	45b6      	cmp	lr, r6
  405582:	e9cd 0106 	strd	r0, r1, [sp, #24]
  405586:	4652      	mov	r2, sl
  405588:	465b      	mov	r3, fp
  40558a:	d1d1      	bne.n	405530 <_dtoa_r+0x2c8>
  40558c:	46a0      	mov	r8, r4
  40558e:	f8dd 902c 	ldr.w	r9, [sp, #44]	; 0x2c
  405592:	9c0c      	ldr	r4, [sp, #48]	; 0x30
  405594:	4606      	mov	r6, r0
  405596:	460f      	mov	r7, r1
  405598:	4632      	mov	r2, r6
  40559a:	463b      	mov	r3, r7
  40559c:	4630      	mov	r0, r6
  40559e:	4639      	mov	r1, r7
  4055a0:	f002 fb40 	bl	407c24 <__adddf3>
  4055a4:	4606      	mov	r6, r0
  4055a6:	460f      	mov	r7, r1
  4055a8:	4602      	mov	r2, r0
  4055aa:	460b      	mov	r3, r1
  4055ac:	e9dd 0108 	ldrd	r0, r1, [sp, #32]
  4055b0:	f002 ff5c 	bl	40846c <__aeabi_dcmplt>
  4055b4:	b948      	cbnz	r0, 4055ca <_dtoa_r+0x362>
  4055b6:	4632      	mov	r2, r6
  4055b8:	463b      	mov	r3, r7
  4055ba:	e9dd 0108 	ldrd	r0, r1, [sp, #32]
  4055be:	f002 ff4b 	bl	408458 <__aeabi_dcmpeq>
  4055c2:	b1a8      	cbz	r0, 4055f0 <_dtoa_r+0x388>
  4055c4:	f018 0f01 	tst.w	r8, #1
  4055c8:	d012      	beq.n	4055f0 <_dtoa_r+0x388>
  4055ca:	f815 8c01 	ldrb.w	r8, [r5, #-1]
  4055ce:	9a04      	ldr	r2, [sp, #16]
  4055d0:	1e6b      	subs	r3, r5, #1
  4055d2:	e004      	b.n	4055de <_dtoa_r+0x376>
  4055d4:	429a      	cmp	r2, r3
  4055d6:	f000 8401 	beq.w	405ddc <_dtoa_r+0xb74>
  4055da:	f813 8d01 	ldrb.w	r8, [r3, #-1]!
  4055de:	f1b8 0f39 	cmp.w	r8, #57	; 0x39
  4055e2:	f103 0501 	add.w	r5, r3, #1
  4055e6:	d0f5      	beq.n	4055d4 <_dtoa_r+0x36c>
  4055e8:	f108 0801 	add.w	r8, r8, #1
  4055ec:	f883 8000 	strb.w	r8, [r3]
  4055f0:	4649      	mov	r1, r9
  4055f2:	4620      	mov	r0, r4
  4055f4:	f001 fb96 	bl	406d24 <_Bfree>
  4055f8:	2200      	movs	r2, #0
  4055fa:	9b02      	ldr	r3, [sp, #8]
  4055fc:	702a      	strb	r2, [r5, #0]
  4055fe:	9a26      	ldr	r2, [sp, #152]	; 0x98
  405600:	3301      	adds	r3, #1
  405602:	6013      	str	r3, [r2, #0]
  405604:	9b28      	ldr	r3, [sp, #160]	; 0xa0
  405606:	2b00      	cmp	r3, #0
  405608:	f000 839e 	beq.w	405d48 <_dtoa_r+0xae0>
  40560c:	9804      	ldr	r0, [sp, #16]
  40560e:	601d      	str	r5, [r3, #0]
  405610:	b01b      	add	sp, #108	; 0x6c
  405612:	e8bd 8ff0 	ldmia.w	sp!, {r4, r5, r6, r7, r8, r9, sl, fp, pc}
  405616:	9a0b      	ldr	r2, [sp, #44]	; 0x2c
  405618:	2a00      	cmp	r2, #0
  40561a:	d03e      	beq.n	40569a <_dtoa_r+0x432>
  40561c:	9a24      	ldr	r2, [sp, #144]	; 0x90
  40561e:	2a01      	cmp	r2, #1
  405620:	f340 8311 	ble.w	405c46 <_dtoa_r+0x9de>
  405624:	9b0a      	ldr	r3, [sp, #40]	; 0x28
  405626:	9a0c      	ldr	r2, [sp, #48]	; 0x30
  405628:	1e5f      	subs	r7, r3, #1
  40562a:	42ba      	cmp	r2, r7
  40562c:	f2c0 838f 	blt.w	405d4e <_dtoa_r+0xae6>
  405630:	1bd7      	subs	r7, r2, r7
  405632:	9b0a      	ldr	r3, [sp, #40]	; 0x28
  405634:	2b00      	cmp	r3, #0
  405636:	f2c0 848b 	blt.w	405f50 <_dtoa_r+0xce8>
  40563a:	9d08      	ldr	r5, [sp, #32]
  40563c:	9b0a      	ldr	r3, [sp, #40]	; 0x28
  40563e:	9a08      	ldr	r2, [sp, #32]
  405640:	441a      	add	r2, r3
  405642:	9208      	str	r2, [sp, #32]
  405644:	9a06      	ldr	r2, [sp, #24]
  405646:	2101      	movs	r1, #1
  405648:	441a      	add	r2, r3
  40564a:	4620      	mov	r0, r4
  40564c:	9206      	str	r2, [sp, #24]
  40564e:	f001 fc03 	bl	406e58 <__i2b>
  405652:	4606      	mov	r6, r0
  405654:	e024      	b.n	4056a0 <_dtoa_r+0x438>
  405656:	2301      	movs	r3, #1
  405658:	930e      	str	r3, [sp, #56]	; 0x38
  40565a:	e6af      	b.n	4053bc <_dtoa_r+0x154>
  40565c:	9a08      	ldr	r2, [sp, #32]
  40565e:	9b02      	ldr	r3, [sp, #8]
  405660:	1ad2      	subs	r2, r2, r3
  405662:	425b      	negs	r3, r3
  405664:	930c      	str	r3, [sp, #48]	; 0x30
  405666:	2300      	movs	r3, #0
  405668:	9208      	str	r2, [sp, #32]
  40566a:	930d      	str	r3, [sp, #52]	; 0x34
  40566c:	e6b8      	b.n	4053e0 <_dtoa_r+0x178>
  40566e:	f1c7 0301 	rsb	r3, r7, #1
  405672:	9308      	str	r3, [sp, #32]
  405674:	2300      	movs	r3, #0
  405676:	9306      	str	r3, [sp, #24]
  405678:	e6a7      	b.n	4053ca <_dtoa_r+0x162>
  40567a:	9d02      	ldr	r5, [sp, #8]
  40567c:	4628      	mov	r0, r5
  40567e:	f002 fc1d 	bl	407ebc <__aeabi_i2d>
  405682:	4602      	mov	r2, r0
  405684:	460b      	mov	r3, r1
  405686:	e9dd 0104 	ldrd	r0, r1, [sp, #16]
  40568a:	f002 fee5 	bl	408458 <__aeabi_dcmpeq>
  40568e:	2800      	cmp	r0, #0
  405690:	f47f ae80 	bne.w	405394 <_dtoa_r+0x12c>
  405694:	1e6b      	subs	r3, r5, #1
  405696:	9302      	str	r3, [sp, #8]
  405698:	e67c      	b.n	405394 <_dtoa_r+0x12c>
  40569a:	9f0c      	ldr	r7, [sp, #48]	; 0x30
  40569c:	9d08      	ldr	r5, [sp, #32]
  40569e:	9e0b      	ldr	r6, [sp, #44]	; 0x2c
  4056a0:	2d00      	cmp	r5, #0
  4056a2:	dd0c      	ble.n	4056be <_dtoa_r+0x456>
  4056a4:	9906      	ldr	r1, [sp, #24]
  4056a6:	2900      	cmp	r1, #0
  4056a8:	460b      	mov	r3, r1
  4056aa:	dd08      	ble.n	4056be <_dtoa_r+0x456>
  4056ac:	42a9      	cmp	r1, r5
  4056ae:	9a08      	ldr	r2, [sp, #32]
  4056b0:	bfa8      	it	ge
  4056b2:	462b      	movge	r3, r5
  4056b4:	1ad2      	subs	r2, r2, r3
  4056b6:	1aed      	subs	r5, r5, r3
  4056b8:	1acb      	subs	r3, r1, r3
  4056ba:	9208      	str	r2, [sp, #32]
  4056bc:	9306      	str	r3, [sp, #24]
  4056be:	9b0c      	ldr	r3, [sp, #48]	; 0x30
  4056c0:	b1d3      	cbz	r3, 4056f8 <_dtoa_r+0x490>
  4056c2:	9b0b      	ldr	r3, [sp, #44]	; 0x2c
  4056c4:	2b00      	cmp	r3, #0
  4056c6:	f000 82b7 	beq.w	405c38 <_dtoa_r+0x9d0>
  4056ca:	2f00      	cmp	r7, #0
  4056cc:	dd10      	ble.n	4056f0 <_dtoa_r+0x488>
  4056ce:	4631      	mov	r1, r6
  4056d0:	463a      	mov	r2, r7
  4056d2:	4620      	mov	r0, r4
  4056d4:	f001 fc5c 	bl	406f90 <__pow5mult>
  4056d8:	464a      	mov	r2, r9
  4056da:	4601      	mov	r1, r0
  4056dc:	4606      	mov	r6, r0
  4056de:	4620      	mov	r0, r4
  4056e0:	f001 fbc4 	bl	406e6c <__multiply>
  4056e4:	4649      	mov	r1, r9
  4056e6:	4680      	mov	r8, r0
  4056e8:	4620      	mov	r0, r4
  4056ea:	f001 fb1b 	bl	406d24 <_Bfree>
  4056ee:	46c1      	mov	r9, r8
  4056f0:	9b0c      	ldr	r3, [sp, #48]	; 0x30
  4056f2:	1bda      	subs	r2, r3, r7
  4056f4:	f040 82a1 	bne.w	405c3a <_dtoa_r+0x9d2>
  4056f8:	2101      	movs	r1, #1
  4056fa:	4620      	mov	r0, r4
  4056fc:	f001 fbac 	bl	406e58 <__i2b>
  405700:	9b0d      	ldr	r3, [sp, #52]	; 0x34
  405702:	2b00      	cmp	r3, #0
  405704:	4680      	mov	r8, r0
  405706:	dd1c      	ble.n	405742 <_dtoa_r+0x4da>
  405708:	4601      	mov	r1, r0
  40570a:	461a      	mov	r2, r3
  40570c:	4620      	mov	r0, r4
  40570e:	f001 fc3f 	bl	406f90 <__pow5mult>
  405712:	9b24      	ldr	r3, [sp, #144]	; 0x90
  405714:	2b01      	cmp	r3, #1
  405716:	4680      	mov	r8, r0
  405718:	f340 8254 	ble.w	405bc4 <_dtoa_r+0x95c>
  40571c:	2300      	movs	r3, #0
  40571e:	930c      	str	r3, [sp, #48]	; 0x30
  405720:	f8d8 3010 	ldr.w	r3, [r8, #16]
  405724:	eb08 0383 	add.w	r3, r8, r3, lsl #2
  405728:	6918      	ldr	r0, [r3, #16]
  40572a:	f001 fb45 	bl	406db8 <__hi0bits>
  40572e:	f1c0 0020 	rsb	r0, r0, #32
  405732:	e010      	b.n	405756 <_dtoa_r+0x4ee>
  405734:	f1c3 0520 	rsb	r5, r3, #32
  405738:	fa0a f005 	lsl.w	r0, sl, r5
  40573c:	e674      	b.n	405428 <_dtoa_r+0x1c0>
  40573e:	900e      	str	r0, [sp, #56]	; 0x38
  405740:	e63c      	b.n	4053bc <_dtoa_r+0x154>
  405742:	9b24      	ldr	r3, [sp, #144]	; 0x90
  405744:	2b01      	cmp	r3, #1
  405746:	f340 8287 	ble.w	405c58 <_dtoa_r+0x9f0>
  40574a:	2300      	movs	r3, #0
  40574c:	930c      	str	r3, [sp, #48]	; 0x30
  40574e:	9b0d      	ldr	r3, [sp, #52]	; 0x34
  405750:	2001      	movs	r0, #1
  405752:	2b00      	cmp	r3, #0
  405754:	d1e4      	bne.n	405720 <_dtoa_r+0x4b8>
  405756:	9a06      	ldr	r2, [sp, #24]
  405758:	4410      	add	r0, r2
  40575a:	f010 001f 	ands.w	r0, r0, #31
  40575e:	f000 80a1 	beq.w	4058a4 <_dtoa_r+0x63c>
  405762:	f1c0 0320 	rsb	r3, r0, #32
  405766:	2b04      	cmp	r3, #4
  405768:	f340 849e 	ble.w	4060a8 <_dtoa_r+0xe40>
  40576c:	9b08      	ldr	r3, [sp, #32]
  40576e:	f1c0 001c 	rsb	r0, r0, #28
  405772:	4403      	add	r3, r0
  405774:	9308      	str	r3, [sp, #32]
  405776:	4613      	mov	r3, r2
  405778:	4403      	add	r3, r0
  40577a:	4405      	add	r5, r0
  40577c:	9306      	str	r3, [sp, #24]
  40577e:	9b08      	ldr	r3, [sp, #32]
  405780:	2b00      	cmp	r3, #0
  405782:	dd05      	ble.n	405790 <_dtoa_r+0x528>
  405784:	4649      	mov	r1, r9
  405786:	461a      	mov	r2, r3
  405788:	4620      	mov	r0, r4
  40578a:	f001 fc51 	bl	407030 <__lshift>
  40578e:	4681      	mov	r9, r0
  405790:	9b06      	ldr	r3, [sp, #24]
  405792:	2b00      	cmp	r3, #0
  405794:	dd05      	ble.n	4057a2 <_dtoa_r+0x53a>
  405796:	4641      	mov	r1, r8
  405798:	461a      	mov	r2, r3
  40579a:	4620      	mov	r0, r4
  40579c:	f001 fc48 	bl	407030 <__lshift>
  4057a0:	4680      	mov	r8, r0
  4057a2:	9b0e      	ldr	r3, [sp, #56]	; 0x38
  4057a4:	2b00      	cmp	r3, #0
  4057a6:	f040 8086 	bne.w	4058b6 <_dtoa_r+0x64e>
  4057aa:	9b0a      	ldr	r3, [sp, #40]	; 0x28
  4057ac:	2b00      	cmp	r3, #0
  4057ae:	f340 8266 	ble.w	405c7e <_dtoa_r+0xa16>
  4057b2:	9b0b      	ldr	r3, [sp, #44]	; 0x2c
  4057b4:	2b00      	cmp	r3, #0
  4057b6:	f000 8098 	beq.w	4058ea <_dtoa_r+0x682>
  4057ba:	2d00      	cmp	r5, #0
  4057bc:	dd05      	ble.n	4057ca <_dtoa_r+0x562>
  4057be:	4631      	mov	r1, r6
  4057c0:	462a      	mov	r2, r5
  4057c2:	4620      	mov	r0, r4
  4057c4:	f001 fc34 	bl	407030 <__lshift>
  4057c8:	4606      	mov	r6, r0
  4057ca:	9b0c      	ldr	r3, [sp, #48]	; 0x30
  4057cc:	2b00      	cmp	r3, #0
  4057ce:	f040 8337 	bne.w	405e40 <_dtoa_r+0xbd8>
  4057d2:	9606      	str	r6, [sp, #24]
  4057d4:	9b0a      	ldr	r3, [sp, #40]	; 0x28
  4057d6:	9a04      	ldr	r2, [sp, #16]
  4057d8:	f8dd b018 	ldr.w	fp, [sp, #24]
  4057dc:	3b01      	subs	r3, #1
  4057de:	18d3      	adds	r3, r2, r3
  4057e0:	930b      	str	r3, [sp, #44]	; 0x2c
  4057e2:	f00a 0301 	and.w	r3, sl, #1
  4057e6:	930c      	str	r3, [sp, #48]	; 0x30
  4057e8:	4617      	mov	r7, r2
  4057ea:	46c2      	mov	sl, r8
  4057ec:	4651      	mov	r1, sl
  4057ee:	4648      	mov	r0, r9
  4057f0:	f7ff fca4 	bl	40513c <quorem>
  4057f4:	4631      	mov	r1, r6
  4057f6:	4605      	mov	r5, r0
  4057f8:	4648      	mov	r0, r9
  4057fa:	f001 fc6b 	bl	4070d4 <__mcmp>
  4057fe:	465a      	mov	r2, fp
  405800:	900a      	str	r0, [sp, #40]	; 0x28
  405802:	4651      	mov	r1, sl
  405804:	4620      	mov	r0, r4
  405806:	f001 fc81 	bl	40710c <__mdiff>
  40580a:	68c2      	ldr	r2, [r0, #12]
  40580c:	4680      	mov	r8, r0
  40580e:	f105 0330 	add.w	r3, r5, #48	; 0x30
  405812:	2a00      	cmp	r2, #0
  405814:	f040 822b 	bne.w	405c6e <_dtoa_r+0xa06>
  405818:	4601      	mov	r1, r0
  40581a:	4648      	mov	r0, r9
  40581c:	9308      	str	r3, [sp, #32]
  40581e:	f001 fc59 	bl	4070d4 <__mcmp>
  405822:	4641      	mov	r1, r8
  405824:	9006      	str	r0, [sp, #24]
  405826:	4620      	mov	r0, r4
  405828:	f001 fa7c 	bl	406d24 <_Bfree>
  40582c:	9a06      	ldr	r2, [sp, #24]
  40582e:	9b08      	ldr	r3, [sp, #32]
  405830:	b932      	cbnz	r2, 405840 <_dtoa_r+0x5d8>
  405832:	9924      	ldr	r1, [sp, #144]	; 0x90
  405834:	b921      	cbnz	r1, 405840 <_dtoa_r+0x5d8>
  405836:	9a0c      	ldr	r2, [sp, #48]	; 0x30
  405838:	2a00      	cmp	r2, #0
  40583a:	f000 83ef 	beq.w	40601c <_dtoa_r+0xdb4>
  40583e:	9a24      	ldr	r2, [sp, #144]	; 0x90
  405840:	990a      	ldr	r1, [sp, #40]	; 0x28
  405842:	2900      	cmp	r1, #0
  405844:	f2c0 829f 	blt.w	405d86 <_dtoa_r+0xb1e>
  405848:	d105      	bne.n	405856 <_dtoa_r+0x5ee>
  40584a:	9924      	ldr	r1, [sp, #144]	; 0x90
  40584c:	b919      	cbnz	r1, 405856 <_dtoa_r+0x5ee>
  40584e:	990c      	ldr	r1, [sp, #48]	; 0x30
  405850:	2900      	cmp	r1, #0
  405852:	f000 8298 	beq.w	405d86 <_dtoa_r+0xb1e>
  405856:	2a00      	cmp	r2, #0
  405858:	f300 8306 	bgt.w	405e68 <_dtoa_r+0xc00>
  40585c:	9a0b      	ldr	r2, [sp, #44]	; 0x2c
  40585e:	703b      	strb	r3, [r7, #0]
  405860:	f107 0801 	add.w	r8, r7, #1
  405864:	4297      	cmp	r7, r2
  405866:	4645      	mov	r5, r8
  405868:	f000 830c 	beq.w	405e84 <_dtoa_r+0xc1c>
  40586c:	4649      	mov	r1, r9
  40586e:	2300      	movs	r3, #0
  405870:	220a      	movs	r2, #10
  405872:	4620      	mov	r0, r4
  405874:	f001 fa60 	bl	406d38 <__multadd>
  405878:	455e      	cmp	r6, fp
  40587a:	4681      	mov	r9, r0
  40587c:	4631      	mov	r1, r6
  40587e:	f04f 0300 	mov.w	r3, #0
  405882:	f04f 020a 	mov.w	r2, #10
  405886:	4620      	mov	r0, r4
  405888:	f000 81eb 	beq.w	405c62 <_dtoa_r+0x9fa>
  40588c:	f001 fa54 	bl	406d38 <__multadd>
  405890:	4659      	mov	r1, fp
  405892:	4606      	mov	r6, r0
  405894:	2300      	movs	r3, #0
  405896:	220a      	movs	r2, #10
  405898:	4620      	mov	r0, r4
  40589a:	f001 fa4d 	bl	406d38 <__multadd>
  40589e:	4647      	mov	r7, r8
  4058a0:	4683      	mov	fp, r0
  4058a2:	e7a3      	b.n	4057ec <_dtoa_r+0x584>
  4058a4:	201c      	movs	r0, #28
  4058a6:	9b08      	ldr	r3, [sp, #32]
  4058a8:	4403      	add	r3, r0
  4058aa:	9308      	str	r3, [sp, #32]
  4058ac:	9b06      	ldr	r3, [sp, #24]
  4058ae:	4403      	add	r3, r0
  4058b0:	4405      	add	r5, r0
  4058b2:	9306      	str	r3, [sp, #24]
  4058b4:	e763      	b.n	40577e <_dtoa_r+0x516>
  4058b6:	4641      	mov	r1, r8
  4058b8:	4648      	mov	r0, r9
  4058ba:	f001 fc0b 	bl	4070d4 <__mcmp>
  4058be:	2800      	cmp	r0, #0
  4058c0:	f6bf af73 	bge.w	4057aa <_dtoa_r+0x542>
  4058c4:	9f02      	ldr	r7, [sp, #8]
  4058c6:	4649      	mov	r1, r9
  4058c8:	2300      	movs	r3, #0
  4058ca:	220a      	movs	r2, #10
  4058cc:	4620      	mov	r0, r4
  4058ce:	3f01      	subs	r7, #1
  4058d0:	9702      	str	r7, [sp, #8]
  4058d2:	f001 fa31 	bl	406d38 <__multadd>
  4058d6:	9b0b      	ldr	r3, [sp, #44]	; 0x2c
  4058d8:	4681      	mov	r9, r0
  4058da:	2b00      	cmp	r3, #0
  4058dc:	f040 83b6 	bne.w	40604c <_dtoa_r+0xde4>
  4058e0:	9b0f      	ldr	r3, [sp, #60]	; 0x3c
  4058e2:	2b00      	cmp	r3, #0
  4058e4:	f340 83bf 	ble.w	406066 <_dtoa_r+0xdfe>
  4058e8:	930a      	str	r3, [sp, #40]	; 0x28
  4058ea:	f8dd b010 	ldr.w	fp, [sp, #16]
  4058ee:	9f0a      	ldr	r7, [sp, #40]	; 0x28
  4058f0:	465d      	mov	r5, fp
  4058f2:	e002      	b.n	4058fa <_dtoa_r+0x692>
  4058f4:	f001 fa20 	bl	406d38 <__multadd>
  4058f8:	4681      	mov	r9, r0
  4058fa:	4641      	mov	r1, r8
  4058fc:	4648      	mov	r0, r9
  4058fe:	f7ff fc1d 	bl	40513c <quorem>
  405902:	f100 0a30 	add.w	sl, r0, #48	; 0x30
  405906:	f805 ab01 	strb.w	sl, [r5], #1
  40590a:	eba5 030b 	sub.w	r3, r5, fp
  40590e:	42bb      	cmp	r3, r7
  405910:	f04f 020a 	mov.w	r2, #10
  405914:	f04f 0300 	mov.w	r3, #0
  405918:	4649      	mov	r1, r9
  40591a:	4620      	mov	r0, r4
  40591c:	dbea      	blt.n	4058f4 <_dtoa_r+0x68c>
  40591e:	9b04      	ldr	r3, [sp, #16]
  405920:	9a0a      	ldr	r2, [sp, #40]	; 0x28
  405922:	2a01      	cmp	r2, #1
  405924:	bfac      	ite	ge
  405926:	189b      	addge	r3, r3, r2
  405928:	3301      	addlt	r3, #1
  40592a:	461d      	mov	r5, r3
  40592c:	f04f 0b00 	mov.w	fp, #0
  405930:	4649      	mov	r1, r9
  405932:	2201      	movs	r2, #1
  405934:	4620      	mov	r0, r4
  405936:	f001 fb7b 	bl	407030 <__lshift>
  40593a:	4641      	mov	r1, r8
  40593c:	4681      	mov	r9, r0
  40593e:	f001 fbc9 	bl	4070d4 <__mcmp>
  405942:	2800      	cmp	r0, #0
  405944:	f340 823d 	ble.w	405dc2 <_dtoa_r+0xb5a>
  405948:	f815 2c01 	ldrb.w	r2, [r5, #-1]
  40594c:	9904      	ldr	r1, [sp, #16]
  40594e:	1e6b      	subs	r3, r5, #1
  405950:	e004      	b.n	40595c <_dtoa_r+0x6f4>
  405952:	428b      	cmp	r3, r1
  405954:	f000 81ae 	beq.w	405cb4 <_dtoa_r+0xa4c>
  405958:	f813 2d01 	ldrb.w	r2, [r3, #-1]!
  40595c:	2a39      	cmp	r2, #57	; 0x39
  40595e:	f103 0501 	add.w	r5, r3, #1
  405962:	d0f6      	beq.n	405952 <_dtoa_r+0x6ea>
  405964:	3201      	adds	r2, #1
  405966:	701a      	strb	r2, [r3, #0]
  405968:	4641      	mov	r1, r8
  40596a:	4620      	mov	r0, r4
  40596c:	f001 f9da 	bl	406d24 <_Bfree>
  405970:	2e00      	cmp	r6, #0
  405972:	f43f ae3d 	beq.w	4055f0 <_dtoa_r+0x388>
  405976:	f1bb 0f00 	cmp.w	fp, #0
  40597a:	d005      	beq.n	405988 <_dtoa_r+0x720>
  40597c:	45b3      	cmp	fp, r6
  40597e:	d003      	beq.n	405988 <_dtoa_r+0x720>
  405980:	4659      	mov	r1, fp
  405982:	4620      	mov	r0, r4
  405984:	f001 f9ce 	bl	406d24 <_Bfree>
  405988:	4631      	mov	r1, r6
  40598a:	4620      	mov	r0, r4
  40598c:	f001 f9ca 	bl	406d24 <_Bfree>
  405990:	e62e      	b.n	4055f0 <_dtoa_r+0x388>
  405992:	2300      	movs	r3, #0
  405994:	930b      	str	r3, [sp, #44]	; 0x2c
  405996:	9b02      	ldr	r3, [sp, #8]
  405998:	9a25      	ldr	r2, [sp, #148]	; 0x94
  40599a:	4413      	add	r3, r2
  40599c:	930f      	str	r3, [sp, #60]	; 0x3c
  40599e:	3301      	adds	r3, #1
  4059a0:	2b01      	cmp	r3, #1
  4059a2:	461f      	mov	r7, r3
  4059a4:	461e      	mov	r6, r3
  4059a6:	930a      	str	r3, [sp, #40]	; 0x28
  4059a8:	bfb8      	it	lt
  4059aa:	2701      	movlt	r7, #1
  4059ac:	2100      	movs	r1, #0
  4059ae:	2f17      	cmp	r7, #23
  4059b0:	6461      	str	r1, [r4, #68]	; 0x44
  4059b2:	d90a      	bls.n	4059ca <_dtoa_r+0x762>
  4059b4:	2201      	movs	r2, #1
  4059b6:	2304      	movs	r3, #4
  4059b8:	005b      	lsls	r3, r3, #1
  4059ba:	f103 0014 	add.w	r0, r3, #20
  4059be:	4287      	cmp	r7, r0
  4059c0:	4611      	mov	r1, r2
  4059c2:	f102 0201 	add.w	r2, r2, #1
  4059c6:	d2f7      	bcs.n	4059b8 <_dtoa_r+0x750>
  4059c8:	6461      	str	r1, [r4, #68]	; 0x44
  4059ca:	4620      	mov	r0, r4
  4059cc:	f001 f984 	bl	406cd8 <_Balloc>
  4059d0:	2e0e      	cmp	r6, #14
  4059d2:	9004      	str	r0, [sp, #16]
  4059d4:	6420      	str	r0, [r4, #64]	; 0x40
  4059d6:	f63f ad41 	bhi.w	40545c <_dtoa_r+0x1f4>
  4059da:	2d00      	cmp	r5, #0
  4059dc:	f43f ad3e 	beq.w	40545c <_dtoa_r+0x1f4>
  4059e0:	9902      	ldr	r1, [sp, #8]
  4059e2:	2900      	cmp	r1, #0
  4059e4:	e9cd ab10 	strd	sl, fp, [sp, #64]	; 0x40
  4059e8:	f340 8202 	ble.w	405df0 <_dtoa_r+0xb88>
  4059ec:	4bb8      	ldr	r3, [pc, #736]	; (405cd0 <_dtoa_r+0xa68>)
  4059ee:	f001 020f 	and.w	r2, r1, #15
  4059f2:	110d      	asrs	r5, r1, #4
  4059f4:	eb03 03c2 	add.w	r3, r3, r2, lsl #3
  4059f8:	06e9      	lsls	r1, r5, #27
  4059fa:	e9d3 6700 	ldrd	r6, r7, [r3]
  4059fe:	f140 81ae 	bpl.w	405d5e <_dtoa_r+0xaf6>
  405a02:	4bb4      	ldr	r3, [pc, #720]	; (405cd4 <_dtoa_r+0xa6c>)
  405a04:	4650      	mov	r0, sl
  405a06:	4659      	mov	r1, fp
  405a08:	e9d3 2308 	ldrd	r2, r3, [r3, #32]
  405a0c:	f002 fbe6 	bl	4081dc <__aeabi_ddiv>
  405a10:	e9cd 0112 	strd	r0, r1, [sp, #72]	; 0x48
  405a14:	f005 050f 	and.w	r5, r5, #15
  405a18:	f04f 0a03 	mov.w	sl, #3
  405a1c:	b18d      	cbz	r5, 405a42 <_dtoa_r+0x7da>
  405a1e:	f8df 82b4 	ldr.w	r8, [pc, #692]	; 405cd4 <_dtoa_r+0xa6c>
  405a22:	07ea      	lsls	r2, r5, #31
  405a24:	d509      	bpl.n	405a3a <_dtoa_r+0x7d2>
  405a26:	4630      	mov	r0, r6
  405a28:	4639      	mov	r1, r7
  405a2a:	e9d8 2300 	ldrd	r2, r3, [r8]
  405a2e:	f002 faab 	bl	407f88 <__aeabi_dmul>
  405a32:	f10a 0a01 	add.w	sl, sl, #1
  405a36:	4606      	mov	r6, r0
  405a38:	460f      	mov	r7, r1
  405a3a:	106d      	asrs	r5, r5, #1
  405a3c:	f108 0808 	add.w	r8, r8, #8
  405a40:	d1ef      	bne.n	405a22 <_dtoa_r+0x7ba>
  405a42:	463b      	mov	r3, r7
  405a44:	4632      	mov	r2, r6
  405a46:	e9dd 0112 	ldrd	r0, r1, [sp, #72]	; 0x48
  405a4a:	f002 fbc7 	bl	4081dc <__aeabi_ddiv>
  405a4e:	4607      	mov	r7, r0
  405a50:	4688      	mov	r8, r1
  405a52:	9b0e      	ldr	r3, [sp, #56]	; 0x38
  405a54:	b143      	cbz	r3, 405a68 <_dtoa_r+0x800>
  405a56:	2200      	movs	r2, #0
  405a58:	4b9f      	ldr	r3, [pc, #636]	; (405cd8 <_dtoa_r+0xa70>)
  405a5a:	4638      	mov	r0, r7
  405a5c:	4641      	mov	r1, r8
  405a5e:	f002 fd05 	bl	40846c <__aeabi_dcmplt>
  405a62:	2800      	cmp	r0, #0
  405a64:	f040 8286 	bne.w	405f74 <_dtoa_r+0xd0c>
  405a68:	4650      	mov	r0, sl
  405a6a:	f002 fa27 	bl	407ebc <__aeabi_i2d>
  405a6e:	463a      	mov	r2, r7
  405a70:	4643      	mov	r3, r8
  405a72:	f002 fa89 	bl	407f88 <__aeabi_dmul>
  405a76:	4b99      	ldr	r3, [pc, #612]	; (405cdc <_dtoa_r+0xa74>)
  405a78:	2200      	movs	r2, #0
  405a7a:	f002 f8d3 	bl	407c24 <__adddf3>
  405a7e:	9b0a      	ldr	r3, [sp, #40]	; 0x28
  405a80:	4605      	mov	r5, r0
  405a82:	f1a1 7650 	sub.w	r6, r1, #54525952	; 0x3400000
  405a86:	2b00      	cmp	r3, #0
  405a88:	f000 813e 	beq.w	405d08 <_dtoa_r+0xaa0>
  405a8c:	9b02      	ldr	r3, [sp, #8]
  405a8e:	9315      	str	r3, [sp, #84]	; 0x54
  405a90:	9b0a      	ldr	r3, [sp, #40]	; 0x28
  405a92:	9312      	str	r3, [sp, #72]	; 0x48
  405a94:	9b0b      	ldr	r3, [sp, #44]	; 0x2c
  405a96:	2b00      	cmp	r3, #0
  405a98:	f000 81fa 	beq.w	405e90 <_dtoa_r+0xc28>
  405a9c:	9a12      	ldr	r2, [sp, #72]	; 0x48
  405a9e:	4b8c      	ldr	r3, [pc, #560]	; (405cd0 <_dtoa_r+0xa68>)
  405aa0:	498f      	ldr	r1, [pc, #572]	; (405ce0 <_dtoa_r+0xa78>)
  405aa2:	eb03 03c2 	add.w	r3, r3, r2, lsl #3
  405aa6:	e953 2302 	ldrd	r2, r3, [r3, #-8]
  405aaa:	2000      	movs	r0, #0
  405aac:	f002 fb96 	bl	4081dc <__aeabi_ddiv>
  405ab0:	462a      	mov	r2, r5
  405ab2:	4633      	mov	r3, r6
  405ab4:	f002 f8b4 	bl	407c20 <__aeabi_dsub>
  405ab8:	4682      	mov	sl, r0
  405aba:	468b      	mov	fp, r1
  405abc:	4638      	mov	r0, r7
  405abe:	4641      	mov	r1, r8
  405ac0:	f002 fd12 	bl	4084e8 <__aeabi_d2iz>
  405ac4:	4605      	mov	r5, r0
  405ac6:	f002 f9f9 	bl	407ebc <__aeabi_i2d>
  405aca:	4602      	mov	r2, r0
  405acc:	460b      	mov	r3, r1
  405ace:	4638      	mov	r0, r7
  405ad0:	4641      	mov	r1, r8
  405ad2:	f002 f8a5 	bl	407c20 <__aeabi_dsub>
  405ad6:	3530      	adds	r5, #48	; 0x30
  405ad8:	fa5f f885 	uxtb.w	r8, r5
  405adc:	9d04      	ldr	r5, [sp, #16]
  405ade:	4606      	mov	r6, r0
  405ae0:	460f      	mov	r7, r1
  405ae2:	f885 8000 	strb.w	r8, [r5]
  405ae6:	4602      	mov	r2, r0
  405ae8:	460b      	mov	r3, r1
  405aea:	4650      	mov	r0, sl
  405aec:	4659      	mov	r1, fp
  405aee:	3501      	adds	r5, #1
  405af0:	f002 fcda 	bl	4084a8 <__aeabi_dcmpgt>
  405af4:	2800      	cmp	r0, #0
  405af6:	d154      	bne.n	405ba2 <_dtoa_r+0x93a>
  405af8:	4632      	mov	r2, r6
  405afa:	463b      	mov	r3, r7
  405afc:	2000      	movs	r0, #0
  405afe:	4976      	ldr	r1, [pc, #472]	; (405cd8 <_dtoa_r+0xa70>)
  405b00:	f002 f88e 	bl	407c20 <__aeabi_dsub>
  405b04:	4602      	mov	r2, r0
  405b06:	460b      	mov	r3, r1
  405b08:	4650      	mov	r0, sl
  405b0a:	4659      	mov	r1, fp
  405b0c:	f002 fccc 	bl	4084a8 <__aeabi_dcmpgt>
  405b10:	2800      	cmp	r0, #0
  405b12:	f040 8270 	bne.w	405ff6 <_dtoa_r+0xd8e>
  405b16:	9a12      	ldr	r2, [sp, #72]	; 0x48
  405b18:	2a01      	cmp	r2, #1
  405b1a:	f000 8111 	beq.w	405d40 <_dtoa_r+0xad8>
  405b1e:	9b12      	ldr	r3, [sp, #72]	; 0x48
  405b20:	9a04      	ldr	r2, [sp, #16]
  405b22:	f8cd 9048 	str.w	r9, [sp, #72]	; 0x48
  405b26:	4413      	add	r3, r2
  405b28:	4699      	mov	r9, r3
  405b2a:	e00d      	b.n	405b48 <_dtoa_r+0x8e0>
  405b2c:	2000      	movs	r0, #0
  405b2e:	496a      	ldr	r1, [pc, #424]	; (405cd8 <_dtoa_r+0xa70>)
  405b30:	f002 f876 	bl	407c20 <__aeabi_dsub>
  405b34:	4652      	mov	r2, sl
  405b36:	465b      	mov	r3, fp
  405b38:	f002 fc98 	bl	40846c <__aeabi_dcmplt>
  405b3c:	2800      	cmp	r0, #0
  405b3e:	f040 8258 	bne.w	405ff2 <_dtoa_r+0xd8a>
  405b42:	454d      	cmp	r5, r9
  405b44:	f000 80fa 	beq.w	405d3c <_dtoa_r+0xad4>
  405b48:	4650      	mov	r0, sl
  405b4a:	4659      	mov	r1, fp
  405b4c:	2200      	movs	r2, #0
  405b4e:	4b65      	ldr	r3, [pc, #404]	; (405ce4 <_dtoa_r+0xa7c>)
  405b50:	f002 fa1a 	bl	407f88 <__aeabi_dmul>
  405b54:	2200      	movs	r2, #0
  405b56:	4b63      	ldr	r3, [pc, #396]	; (405ce4 <_dtoa_r+0xa7c>)
  405b58:	4682      	mov	sl, r0
  405b5a:	468b      	mov	fp, r1
  405b5c:	4630      	mov	r0, r6
  405b5e:	4639      	mov	r1, r7
  405b60:	f002 fa12 	bl	407f88 <__aeabi_dmul>
  405b64:	460f      	mov	r7, r1
  405b66:	4606      	mov	r6, r0
  405b68:	f002 fcbe 	bl	4084e8 <__aeabi_d2iz>
  405b6c:	4680      	mov	r8, r0
  405b6e:	f002 f9a5 	bl	407ebc <__aeabi_i2d>
  405b72:	4602      	mov	r2, r0
  405b74:	460b      	mov	r3, r1
  405b76:	4630      	mov	r0, r6
  405b78:	4639      	mov	r1, r7
  405b7a:	f002 f851 	bl	407c20 <__aeabi_dsub>
  405b7e:	f108 0830 	add.w	r8, r8, #48	; 0x30
  405b82:	fa5f f888 	uxtb.w	r8, r8
  405b86:	4652      	mov	r2, sl
  405b88:	465b      	mov	r3, fp
  405b8a:	f805 8b01 	strb.w	r8, [r5], #1
  405b8e:	4606      	mov	r6, r0
  405b90:	460f      	mov	r7, r1
  405b92:	f002 fc6b 	bl	40846c <__aeabi_dcmplt>
  405b96:	4632      	mov	r2, r6
  405b98:	463b      	mov	r3, r7
  405b9a:	2800      	cmp	r0, #0
  405b9c:	d0c6      	beq.n	405b2c <_dtoa_r+0x8c4>
  405b9e:	f8dd 9048 	ldr.w	r9, [sp, #72]	; 0x48
  405ba2:	9b15      	ldr	r3, [sp, #84]	; 0x54
  405ba4:	9302      	str	r3, [sp, #8]
  405ba6:	e523      	b.n	4055f0 <_dtoa_r+0x388>
  405ba8:	2300      	movs	r3, #0
  405baa:	930b      	str	r3, [sp, #44]	; 0x2c
  405bac:	9b25      	ldr	r3, [sp, #148]	; 0x94
  405bae:	2b00      	cmp	r3, #0
  405bb0:	f340 80dc 	ble.w	405d6c <_dtoa_r+0xb04>
  405bb4:	461f      	mov	r7, r3
  405bb6:	461e      	mov	r6, r3
  405bb8:	930f      	str	r3, [sp, #60]	; 0x3c
  405bba:	930a      	str	r3, [sp, #40]	; 0x28
  405bbc:	e6f6      	b.n	4059ac <_dtoa_r+0x744>
  405bbe:	2301      	movs	r3, #1
  405bc0:	930b      	str	r3, [sp, #44]	; 0x2c
  405bc2:	e7f3      	b.n	405bac <_dtoa_r+0x944>
  405bc4:	f1ba 0f00 	cmp.w	sl, #0
  405bc8:	f47f ada8 	bne.w	40571c <_dtoa_r+0x4b4>
  405bcc:	f3cb 0313 	ubfx	r3, fp, #0, #20
  405bd0:	2b00      	cmp	r3, #0
  405bd2:	f47f adba 	bne.w	40574a <_dtoa_r+0x4e2>
  405bd6:	f02b 4700 	bic.w	r7, fp, #2147483648	; 0x80000000
  405bda:	0d3f      	lsrs	r7, r7, #20
  405bdc:	053f      	lsls	r7, r7, #20
  405bde:	2f00      	cmp	r7, #0
  405be0:	f000 820d 	beq.w	405ffe <_dtoa_r+0xd96>
  405be4:	9b08      	ldr	r3, [sp, #32]
  405be6:	3301      	adds	r3, #1
  405be8:	9308      	str	r3, [sp, #32]
  405bea:	9b06      	ldr	r3, [sp, #24]
  405bec:	3301      	adds	r3, #1
  405bee:	9306      	str	r3, [sp, #24]
  405bf0:	2301      	movs	r3, #1
  405bf2:	930c      	str	r3, [sp, #48]	; 0x30
  405bf4:	e5ab      	b.n	40574e <_dtoa_r+0x4e6>
  405bf6:	9b0a      	ldr	r3, [sp, #40]	; 0x28
  405bf8:	2b00      	cmp	r3, #0
  405bfa:	f73f ac42 	bgt.w	405482 <_dtoa_r+0x21a>
  405bfe:	f040 8221 	bne.w	406044 <_dtoa_r+0xddc>
  405c02:	2200      	movs	r2, #0
  405c04:	4b38      	ldr	r3, [pc, #224]	; (405ce8 <_dtoa_r+0xa80>)
  405c06:	e9dd 0108 	ldrd	r0, r1, [sp, #32]
  405c0a:	f002 f9bd 	bl	407f88 <__aeabi_dmul>
  405c0e:	4652      	mov	r2, sl
  405c10:	465b      	mov	r3, fp
  405c12:	f002 fc3f 	bl	408494 <__aeabi_dcmpge>
  405c16:	f8dd 8028 	ldr.w	r8, [sp, #40]	; 0x28
  405c1a:	4646      	mov	r6, r8
  405c1c:	2800      	cmp	r0, #0
  405c1e:	d041      	beq.n	405ca4 <_dtoa_r+0xa3c>
  405c20:	9b25      	ldr	r3, [sp, #148]	; 0x94
  405c22:	9d04      	ldr	r5, [sp, #16]
  405c24:	43db      	mvns	r3, r3
  405c26:	9302      	str	r3, [sp, #8]
  405c28:	4641      	mov	r1, r8
  405c2a:	4620      	mov	r0, r4
  405c2c:	f001 f87a 	bl	406d24 <_Bfree>
  405c30:	2e00      	cmp	r6, #0
  405c32:	f43f acdd 	beq.w	4055f0 <_dtoa_r+0x388>
  405c36:	e6a7      	b.n	405988 <_dtoa_r+0x720>
  405c38:	9a0c      	ldr	r2, [sp, #48]	; 0x30
  405c3a:	4649      	mov	r1, r9
  405c3c:	4620      	mov	r0, r4
  405c3e:	f001 f9a7 	bl	406f90 <__pow5mult>
  405c42:	4681      	mov	r9, r0
  405c44:	e558      	b.n	4056f8 <_dtoa_r+0x490>
  405c46:	9a14      	ldr	r2, [sp, #80]	; 0x50
  405c48:	2a00      	cmp	r2, #0
  405c4a:	f000 8187 	beq.w	405f5c <_dtoa_r+0xcf4>
  405c4e:	f203 4333 	addw	r3, r3, #1075	; 0x433
  405c52:	9f0c      	ldr	r7, [sp, #48]	; 0x30
  405c54:	9d08      	ldr	r5, [sp, #32]
  405c56:	e4f2      	b.n	40563e <_dtoa_r+0x3d6>
  405c58:	f1ba 0f00 	cmp.w	sl, #0
  405c5c:	f47f ad75 	bne.w	40574a <_dtoa_r+0x4e2>
  405c60:	e7b4      	b.n	405bcc <_dtoa_r+0x964>
  405c62:	f001 f869 	bl	406d38 <__multadd>
  405c66:	4647      	mov	r7, r8
  405c68:	4606      	mov	r6, r0
  405c6a:	4683      	mov	fp, r0
  405c6c:	e5be      	b.n	4057ec <_dtoa_r+0x584>
  405c6e:	4601      	mov	r1, r0
  405c70:	4620      	mov	r0, r4
  405c72:	9306      	str	r3, [sp, #24]
  405c74:	f001 f856 	bl	406d24 <_Bfree>
  405c78:	2201      	movs	r2, #1
  405c7a:	9b06      	ldr	r3, [sp, #24]
  405c7c:	e5e0      	b.n	405840 <_dtoa_r+0x5d8>
  405c7e:	9b24      	ldr	r3, [sp, #144]	; 0x90
  405c80:	2b02      	cmp	r3, #2
  405c82:	f77f ad96 	ble.w	4057b2 <_dtoa_r+0x54a>
  405c86:	9b0a      	ldr	r3, [sp, #40]	; 0x28
  405c88:	2b00      	cmp	r3, #0
  405c8a:	d1c9      	bne.n	405c20 <_dtoa_r+0x9b8>
  405c8c:	4641      	mov	r1, r8
  405c8e:	2205      	movs	r2, #5
  405c90:	4620      	mov	r0, r4
  405c92:	f001 f851 	bl	406d38 <__multadd>
  405c96:	4601      	mov	r1, r0
  405c98:	4680      	mov	r8, r0
  405c9a:	4648      	mov	r0, r9
  405c9c:	f001 fa1a 	bl	4070d4 <__mcmp>
  405ca0:	2800      	cmp	r0, #0
  405ca2:	ddbd      	ble.n	405c20 <_dtoa_r+0x9b8>
  405ca4:	9a02      	ldr	r2, [sp, #8]
  405ca6:	9904      	ldr	r1, [sp, #16]
  405ca8:	2331      	movs	r3, #49	; 0x31
  405caa:	3201      	adds	r2, #1
  405cac:	9202      	str	r2, [sp, #8]
  405cae:	700b      	strb	r3, [r1, #0]
  405cb0:	1c4d      	adds	r5, r1, #1
  405cb2:	e7b9      	b.n	405c28 <_dtoa_r+0x9c0>
  405cb4:	9a02      	ldr	r2, [sp, #8]
  405cb6:	3201      	adds	r2, #1
  405cb8:	9202      	str	r2, [sp, #8]
  405cba:	9a04      	ldr	r2, [sp, #16]
  405cbc:	2331      	movs	r3, #49	; 0x31
  405cbe:	7013      	strb	r3, [r2, #0]
  405cc0:	e652      	b.n	405968 <_dtoa_r+0x700>
  405cc2:	2301      	movs	r3, #1
  405cc4:	930b      	str	r3, [sp, #44]	; 0x2c
  405cc6:	e666      	b.n	405996 <_dtoa_r+0x72e>
  405cc8:	f8dd 902c 	ldr.w	r9, [sp, #44]	; 0x2c
  405ccc:	9c0c      	ldr	r4, [sp, #48]	; 0x30
  405cce:	e48f      	b.n	4055f0 <_dtoa_r+0x388>
  405cd0:	00409a78 	.word	0x00409a78
  405cd4:	00409a50 	.word	0x00409a50
  405cd8:	3ff00000 	.word	0x3ff00000
  405cdc:	401c0000 	.word	0x401c0000
  405ce0:	3fe00000 	.word	0x3fe00000
  405ce4:	40240000 	.word	0x40240000
  405ce8:	40140000 	.word	0x40140000
  405cec:	4650      	mov	r0, sl
  405cee:	f002 f8e5 	bl	407ebc <__aeabi_i2d>
  405cf2:	463a      	mov	r2, r7
  405cf4:	4643      	mov	r3, r8
  405cf6:	f002 f947 	bl	407f88 <__aeabi_dmul>
  405cfa:	2200      	movs	r2, #0
  405cfc:	4bc1      	ldr	r3, [pc, #772]	; (406004 <_dtoa_r+0xd9c>)
  405cfe:	f001 ff91 	bl	407c24 <__adddf3>
  405d02:	4605      	mov	r5, r0
  405d04:	f1a1 7650 	sub.w	r6, r1, #54525952	; 0x3400000
  405d08:	4641      	mov	r1, r8
  405d0a:	2200      	movs	r2, #0
  405d0c:	4bbe      	ldr	r3, [pc, #760]	; (406008 <_dtoa_r+0xda0>)
  405d0e:	4638      	mov	r0, r7
  405d10:	f001 ff86 	bl	407c20 <__aeabi_dsub>
  405d14:	462a      	mov	r2, r5
  405d16:	4633      	mov	r3, r6
  405d18:	4682      	mov	sl, r0
  405d1a:	468b      	mov	fp, r1
  405d1c:	f002 fbc4 	bl	4084a8 <__aeabi_dcmpgt>
  405d20:	4680      	mov	r8, r0
  405d22:	2800      	cmp	r0, #0
  405d24:	f040 8110 	bne.w	405f48 <_dtoa_r+0xce0>
  405d28:	462a      	mov	r2, r5
  405d2a:	f106 4300 	add.w	r3, r6, #2147483648	; 0x80000000
  405d2e:	4650      	mov	r0, sl
  405d30:	4659      	mov	r1, fp
  405d32:	f002 fb9b 	bl	40846c <__aeabi_dcmplt>
  405d36:	b118      	cbz	r0, 405d40 <_dtoa_r+0xad8>
  405d38:	4646      	mov	r6, r8
  405d3a:	e771      	b.n	405c20 <_dtoa_r+0x9b8>
  405d3c:	f8dd 9048 	ldr.w	r9, [sp, #72]	; 0x48
  405d40:	e9dd ab10 	ldrd	sl, fp, [sp, #64]	; 0x40
  405d44:	f7ff bb8a 	b.w	40545c <_dtoa_r+0x1f4>
  405d48:	9804      	ldr	r0, [sp, #16]
  405d4a:	f7ff babb 	b.w	4052c4 <_dtoa_r+0x5c>
  405d4e:	9b0c      	ldr	r3, [sp, #48]	; 0x30
  405d50:	9a0d      	ldr	r2, [sp, #52]	; 0x34
  405d52:	970c      	str	r7, [sp, #48]	; 0x30
  405d54:	1afb      	subs	r3, r7, r3
  405d56:	441a      	add	r2, r3
  405d58:	920d      	str	r2, [sp, #52]	; 0x34
  405d5a:	2700      	movs	r7, #0
  405d5c:	e469      	b.n	405632 <_dtoa_r+0x3ca>
  405d5e:	e9dd 2310 	ldrd	r2, r3, [sp, #64]	; 0x40
  405d62:	f04f 0a02 	mov.w	sl, #2
  405d66:	e9cd 2312 	strd	r2, r3, [sp, #72]	; 0x48
  405d6a:	e657      	b.n	405a1c <_dtoa_r+0x7b4>
  405d6c:	2100      	movs	r1, #0
  405d6e:	2301      	movs	r3, #1
  405d70:	6461      	str	r1, [r4, #68]	; 0x44
  405d72:	4620      	mov	r0, r4
  405d74:	9325      	str	r3, [sp, #148]	; 0x94
  405d76:	f000 ffaf 	bl	406cd8 <_Balloc>
  405d7a:	9b25      	ldr	r3, [sp, #148]	; 0x94
  405d7c:	9004      	str	r0, [sp, #16]
  405d7e:	6420      	str	r0, [r4, #64]	; 0x40
  405d80:	930a      	str	r3, [sp, #40]	; 0x28
  405d82:	930f      	str	r3, [sp, #60]	; 0x3c
  405d84:	e629      	b.n	4059da <_dtoa_r+0x772>
  405d86:	2a00      	cmp	r2, #0
  405d88:	46d0      	mov	r8, sl
  405d8a:	f8cd b018 	str.w	fp, [sp, #24]
  405d8e:	469a      	mov	sl, r3
  405d90:	dd11      	ble.n	405db6 <_dtoa_r+0xb4e>
  405d92:	4649      	mov	r1, r9
  405d94:	2201      	movs	r2, #1
  405d96:	4620      	mov	r0, r4
  405d98:	f001 f94a 	bl	407030 <__lshift>
  405d9c:	4641      	mov	r1, r8
  405d9e:	4681      	mov	r9, r0
  405da0:	f001 f998 	bl	4070d4 <__mcmp>
  405da4:	2800      	cmp	r0, #0
  405da6:	f340 8146 	ble.w	406036 <_dtoa_r+0xdce>
  405daa:	f1ba 0f39 	cmp.w	sl, #57	; 0x39
  405dae:	f000 8106 	beq.w	405fbe <_dtoa_r+0xd56>
  405db2:	f105 0a31 	add.w	sl, r5, #49	; 0x31
  405db6:	46b3      	mov	fp, r6
  405db8:	f887 a000 	strb.w	sl, [r7]
  405dbc:	1c7d      	adds	r5, r7, #1
  405dbe:	9e06      	ldr	r6, [sp, #24]
  405dc0:	e5d2      	b.n	405968 <_dtoa_r+0x700>
  405dc2:	d104      	bne.n	405dce <_dtoa_r+0xb66>
  405dc4:	f01a 0f01 	tst.w	sl, #1
  405dc8:	d001      	beq.n	405dce <_dtoa_r+0xb66>
  405dca:	e5bd      	b.n	405948 <_dtoa_r+0x6e0>
  405dcc:	4615      	mov	r5, r2
  405dce:	f815 3c01 	ldrb.w	r3, [r5, #-1]
  405dd2:	2b30      	cmp	r3, #48	; 0x30
  405dd4:	f105 32ff 	add.w	r2, r5, #4294967295
  405dd8:	d0f8      	beq.n	405dcc <_dtoa_r+0xb64>
  405dda:	e5c5      	b.n	405968 <_dtoa_r+0x700>
  405ddc:	9904      	ldr	r1, [sp, #16]
  405dde:	2230      	movs	r2, #48	; 0x30
  405de0:	700a      	strb	r2, [r1, #0]
  405de2:	9a02      	ldr	r2, [sp, #8]
  405de4:	f815 8c01 	ldrb.w	r8, [r5, #-1]
  405de8:	3201      	adds	r2, #1
  405dea:	9202      	str	r2, [sp, #8]
  405dec:	f7ff bbfc 	b.w	4055e8 <_dtoa_r+0x380>
  405df0:	f000 80bb 	beq.w	405f6a <_dtoa_r+0xd02>
  405df4:	9b02      	ldr	r3, [sp, #8]
  405df6:	425d      	negs	r5, r3
  405df8:	4b84      	ldr	r3, [pc, #528]	; (40600c <_dtoa_r+0xda4>)
  405dfa:	f005 020f 	and.w	r2, r5, #15
  405dfe:	eb03 03c2 	add.w	r3, r3, r2, lsl #3
  405e02:	e9d3 2300 	ldrd	r2, r3, [r3]
  405e06:	e9dd 0110 	ldrd	r0, r1, [sp, #64]	; 0x40
  405e0a:	f002 f8bd 	bl	407f88 <__aeabi_dmul>
  405e0e:	112d      	asrs	r5, r5, #4
  405e10:	4607      	mov	r7, r0
  405e12:	4688      	mov	r8, r1
  405e14:	f000 812c 	beq.w	406070 <_dtoa_r+0xe08>
  405e18:	4e7d      	ldr	r6, [pc, #500]	; (406010 <_dtoa_r+0xda8>)
  405e1a:	f04f 0a02 	mov.w	sl, #2
  405e1e:	07eb      	lsls	r3, r5, #31
  405e20:	d509      	bpl.n	405e36 <_dtoa_r+0xbce>
  405e22:	4638      	mov	r0, r7
  405e24:	4641      	mov	r1, r8
  405e26:	e9d6 2300 	ldrd	r2, r3, [r6]
  405e2a:	f002 f8ad 	bl	407f88 <__aeabi_dmul>
  405e2e:	f10a 0a01 	add.w	sl, sl, #1
  405e32:	4607      	mov	r7, r0
  405e34:	4688      	mov	r8, r1
  405e36:	106d      	asrs	r5, r5, #1
  405e38:	f106 0608 	add.w	r6, r6, #8
  405e3c:	d1ef      	bne.n	405e1e <_dtoa_r+0xbb6>
  405e3e:	e608      	b.n	405a52 <_dtoa_r+0x7ea>
  405e40:	6871      	ldr	r1, [r6, #4]
  405e42:	4620      	mov	r0, r4
  405e44:	f000 ff48 	bl	406cd8 <_Balloc>
  405e48:	6933      	ldr	r3, [r6, #16]
  405e4a:	3302      	adds	r3, #2
  405e4c:	009a      	lsls	r2, r3, #2
  405e4e:	4605      	mov	r5, r0
  405e50:	f106 010c 	add.w	r1, r6, #12
  405e54:	300c      	adds	r0, #12
  405e56:	f7fc fd51 	bl	4028fc <memcpy>
  405e5a:	4629      	mov	r1, r5
  405e5c:	2201      	movs	r2, #1
  405e5e:	4620      	mov	r0, r4
  405e60:	f001 f8e6 	bl	407030 <__lshift>
  405e64:	9006      	str	r0, [sp, #24]
  405e66:	e4b5      	b.n	4057d4 <_dtoa_r+0x56c>
  405e68:	2b39      	cmp	r3, #57	; 0x39
  405e6a:	f8cd b018 	str.w	fp, [sp, #24]
  405e6e:	46d0      	mov	r8, sl
  405e70:	f000 80a5 	beq.w	405fbe <_dtoa_r+0xd56>
  405e74:	f103 0a01 	add.w	sl, r3, #1
  405e78:	46b3      	mov	fp, r6
  405e7a:	f887 a000 	strb.w	sl, [r7]
  405e7e:	1c7d      	adds	r5, r7, #1
  405e80:	9e06      	ldr	r6, [sp, #24]
  405e82:	e571      	b.n	405968 <_dtoa_r+0x700>
  405e84:	465a      	mov	r2, fp
  405e86:	46d0      	mov	r8, sl
  405e88:	46b3      	mov	fp, r6
  405e8a:	469a      	mov	sl, r3
  405e8c:	4616      	mov	r6, r2
  405e8e:	e54f      	b.n	405930 <_dtoa_r+0x6c8>
  405e90:	9b12      	ldr	r3, [sp, #72]	; 0x48
  405e92:	495e      	ldr	r1, [pc, #376]	; (40600c <_dtoa_r+0xda4>)
  405e94:	eb01 01c3 	add.w	r1, r1, r3, lsl #3
  405e98:	462a      	mov	r2, r5
  405e9a:	4633      	mov	r3, r6
  405e9c:	e951 0102 	ldrd	r0, r1, [r1, #-8]
  405ea0:	f002 f872 	bl	407f88 <__aeabi_dmul>
  405ea4:	e9cd 0116 	strd	r0, r1, [sp, #88]	; 0x58
  405ea8:	4638      	mov	r0, r7
  405eaa:	4641      	mov	r1, r8
  405eac:	f002 fb1c 	bl	4084e8 <__aeabi_d2iz>
  405eb0:	4605      	mov	r5, r0
  405eb2:	f002 f803 	bl	407ebc <__aeabi_i2d>
  405eb6:	460b      	mov	r3, r1
  405eb8:	4602      	mov	r2, r0
  405eba:	4641      	mov	r1, r8
  405ebc:	4638      	mov	r0, r7
  405ebe:	f001 feaf 	bl	407c20 <__aeabi_dsub>
  405ec2:	9b12      	ldr	r3, [sp, #72]	; 0x48
  405ec4:	460f      	mov	r7, r1
  405ec6:	9904      	ldr	r1, [sp, #16]
  405ec8:	3530      	adds	r5, #48	; 0x30
  405eca:	2b01      	cmp	r3, #1
  405ecc:	700d      	strb	r5, [r1, #0]
  405ece:	4606      	mov	r6, r0
  405ed0:	f101 0501 	add.w	r5, r1, #1
  405ed4:	d026      	beq.n	405f24 <_dtoa_r+0xcbc>
  405ed6:	9b12      	ldr	r3, [sp, #72]	; 0x48
  405ed8:	9a04      	ldr	r2, [sp, #16]
  405eda:	f8df b13c 	ldr.w	fp, [pc, #316]	; 406018 <_dtoa_r+0xdb0>
  405ede:	f8cd 9048 	str.w	r9, [sp, #72]	; 0x48
  405ee2:	4413      	add	r3, r2
  405ee4:	f04f 0a00 	mov.w	sl, #0
  405ee8:	4699      	mov	r9, r3
  405eea:	4652      	mov	r2, sl
  405eec:	465b      	mov	r3, fp
  405eee:	4630      	mov	r0, r6
  405ef0:	4639      	mov	r1, r7
  405ef2:	f002 f849 	bl	407f88 <__aeabi_dmul>
  405ef6:	460f      	mov	r7, r1
  405ef8:	4606      	mov	r6, r0
  405efa:	f002 faf5 	bl	4084e8 <__aeabi_d2iz>
  405efe:	4680      	mov	r8, r0
  405f00:	f001 ffdc 	bl	407ebc <__aeabi_i2d>
  405f04:	f108 0830 	add.w	r8, r8, #48	; 0x30
  405f08:	4602      	mov	r2, r0
  405f0a:	460b      	mov	r3, r1
  405f0c:	4630      	mov	r0, r6
  405f0e:	4639      	mov	r1, r7
  405f10:	f001 fe86 	bl	407c20 <__aeabi_dsub>
  405f14:	f805 8b01 	strb.w	r8, [r5], #1
  405f18:	454d      	cmp	r5, r9
  405f1a:	4606      	mov	r6, r0
  405f1c:	460f      	mov	r7, r1
  405f1e:	d1e4      	bne.n	405eea <_dtoa_r+0xc82>
  405f20:	f8dd 9048 	ldr.w	r9, [sp, #72]	; 0x48
  405f24:	4b3b      	ldr	r3, [pc, #236]	; (406014 <_dtoa_r+0xdac>)
  405f26:	2200      	movs	r2, #0
  405f28:	e9dd 0116 	ldrd	r0, r1, [sp, #88]	; 0x58
  405f2c:	f001 fe7a 	bl	407c24 <__adddf3>
  405f30:	4632      	mov	r2, r6
  405f32:	463b      	mov	r3, r7
  405f34:	f002 fa9a 	bl	40846c <__aeabi_dcmplt>
  405f38:	2800      	cmp	r0, #0
  405f3a:	d046      	beq.n	405fca <_dtoa_r+0xd62>
  405f3c:	9b15      	ldr	r3, [sp, #84]	; 0x54
  405f3e:	9302      	str	r3, [sp, #8]
  405f40:	f815 8c01 	ldrb.w	r8, [r5, #-1]
  405f44:	f7ff bb43 	b.w	4055ce <_dtoa_r+0x366>
  405f48:	f04f 0800 	mov.w	r8, #0
  405f4c:	4646      	mov	r6, r8
  405f4e:	e6a9      	b.n	405ca4 <_dtoa_r+0xa3c>
  405f50:	9b08      	ldr	r3, [sp, #32]
  405f52:	9a0a      	ldr	r2, [sp, #40]	; 0x28
  405f54:	1a9d      	subs	r5, r3, r2
  405f56:	2300      	movs	r3, #0
  405f58:	f7ff bb71 	b.w	40563e <_dtoa_r+0x3d6>
  405f5c:	9b18      	ldr	r3, [sp, #96]	; 0x60
  405f5e:	9f0c      	ldr	r7, [sp, #48]	; 0x30
  405f60:	9d08      	ldr	r5, [sp, #32]
  405f62:	f1c3 0336 	rsb	r3, r3, #54	; 0x36
  405f66:	f7ff bb6a 	b.w	40563e <_dtoa_r+0x3d6>
  405f6a:	e9dd 7810 	ldrd	r7, r8, [sp, #64]	; 0x40
  405f6e:	f04f 0a02 	mov.w	sl, #2
  405f72:	e56e      	b.n	405a52 <_dtoa_r+0x7ea>
  405f74:	9b0a      	ldr	r3, [sp, #40]	; 0x28
  405f76:	2b00      	cmp	r3, #0
  405f78:	f43f aeb8 	beq.w	405cec <_dtoa_r+0xa84>
  405f7c:	9b0f      	ldr	r3, [sp, #60]	; 0x3c
  405f7e:	2b00      	cmp	r3, #0
  405f80:	f77f aede 	ble.w	405d40 <_dtoa_r+0xad8>
  405f84:	2200      	movs	r2, #0
  405f86:	4b24      	ldr	r3, [pc, #144]	; (406018 <_dtoa_r+0xdb0>)
  405f88:	4638      	mov	r0, r7
  405f8a:	4641      	mov	r1, r8
  405f8c:	f001 fffc 	bl	407f88 <__aeabi_dmul>
  405f90:	4607      	mov	r7, r0
  405f92:	4688      	mov	r8, r1
  405f94:	f10a 0001 	add.w	r0, sl, #1
  405f98:	f001 ff90 	bl	407ebc <__aeabi_i2d>
  405f9c:	463a      	mov	r2, r7
  405f9e:	4643      	mov	r3, r8
  405fa0:	f001 fff2 	bl	407f88 <__aeabi_dmul>
  405fa4:	2200      	movs	r2, #0
  405fa6:	4b17      	ldr	r3, [pc, #92]	; (406004 <_dtoa_r+0xd9c>)
  405fa8:	f001 fe3c 	bl	407c24 <__adddf3>
  405fac:	9a02      	ldr	r2, [sp, #8]
  405fae:	9b0f      	ldr	r3, [sp, #60]	; 0x3c
  405fb0:	9312      	str	r3, [sp, #72]	; 0x48
  405fb2:	3a01      	subs	r2, #1
  405fb4:	4605      	mov	r5, r0
  405fb6:	f1a1 7650 	sub.w	r6, r1, #54525952	; 0x3400000
  405fba:	9215      	str	r2, [sp, #84]	; 0x54
  405fbc:	e56a      	b.n	405a94 <_dtoa_r+0x82c>
  405fbe:	2239      	movs	r2, #57	; 0x39
  405fc0:	46b3      	mov	fp, r6
  405fc2:	703a      	strb	r2, [r7, #0]
  405fc4:	9e06      	ldr	r6, [sp, #24]
  405fc6:	1c7d      	adds	r5, r7, #1
  405fc8:	e4c0      	b.n	40594c <_dtoa_r+0x6e4>
  405fca:	e9dd 2316 	ldrd	r2, r3, [sp, #88]	; 0x58
  405fce:	2000      	movs	r0, #0
  405fd0:	4910      	ldr	r1, [pc, #64]	; (406014 <_dtoa_r+0xdac>)
  405fd2:	f001 fe25 	bl	407c20 <__aeabi_dsub>
  405fd6:	4632      	mov	r2, r6
  405fd8:	463b      	mov	r3, r7
  405fda:	f002 fa65 	bl	4084a8 <__aeabi_dcmpgt>
  405fde:	b908      	cbnz	r0, 405fe4 <_dtoa_r+0xd7c>
  405fe0:	e6ae      	b.n	405d40 <_dtoa_r+0xad8>
  405fe2:	4615      	mov	r5, r2
  405fe4:	f815 3c01 	ldrb.w	r3, [r5, #-1]
  405fe8:	2b30      	cmp	r3, #48	; 0x30
  405fea:	f105 32ff 	add.w	r2, r5, #4294967295
  405fee:	d0f8      	beq.n	405fe2 <_dtoa_r+0xd7a>
  405ff0:	e5d7      	b.n	405ba2 <_dtoa_r+0x93a>
  405ff2:	f8dd 9048 	ldr.w	r9, [sp, #72]	; 0x48
  405ff6:	9b15      	ldr	r3, [sp, #84]	; 0x54
  405ff8:	9302      	str	r3, [sp, #8]
  405ffa:	f7ff bae8 	b.w	4055ce <_dtoa_r+0x366>
  405ffe:	970c      	str	r7, [sp, #48]	; 0x30
  406000:	f7ff bba5 	b.w	40574e <_dtoa_r+0x4e6>
  406004:	401c0000 	.word	0x401c0000
  406008:	40140000 	.word	0x40140000
  40600c:	00409a78 	.word	0x00409a78
  406010:	00409a50 	.word	0x00409a50
  406014:	3fe00000 	.word	0x3fe00000
  406018:	40240000 	.word	0x40240000
  40601c:	2b39      	cmp	r3, #57	; 0x39
  40601e:	f8cd b018 	str.w	fp, [sp, #24]
  406022:	46d0      	mov	r8, sl
  406024:	f8dd b028 	ldr.w	fp, [sp, #40]	; 0x28
  406028:	469a      	mov	sl, r3
  40602a:	d0c8      	beq.n	405fbe <_dtoa_r+0xd56>
  40602c:	f1bb 0f00 	cmp.w	fp, #0
  406030:	f73f aebf 	bgt.w	405db2 <_dtoa_r+0xb4a>
  406034:	e6bf      	b.n	405db6 <_dtoa_r+0xb4e>
  406036:	f47f aebe 	bne.w	405db6 <_dtoa_r+0xb4e>
  40603a:	f01a 0f01 	tst.w	sl, #1
  40603e:	f43f aeba 	beq.w	405db6 <_dtoa_r+0xb4e>
  406042:	e6b2      	b.n	405daa <_dtoa_r+0xb42>
  406044:	f04f 0800 	mov.w	r8, #0
  406048:	4646      	mov	r6, r8
  40604a:	e5e9      	b.n	405c20 <_dtoa_r+0x9b8>
  40604c:	4631      	mov	r1, r6
  40604e:	2300      	movs	r3, #0
  406050:	220a      	movs	r2, #10
  406052:	4620      	mov	r0, r4
  406054:	f000 fe70 	bl	406d38 <__multadd>
  406058:	9b0f      	ldr	r3, [sp, #60]	; 0x3c
  40605a:	2b00      	cmp	r3, #0
  40605c:	4606      	mov	r6, r0
  40605e:	dd0a      	ble.n	406076 <_dtoa_r+0xe0e>
  406060:	930a      	str	r3, [sp, #40]	; 0x28
  406062:	f7ff bbaa 	b.w	4057ba <_dtoa_r+0x552>
  406066:	9b24      	ldr	r3, [sp, #144]	; 0x90
  406068:	2b02      	cmp	r3, #2
  40606a:	dc23      	bgt.n	4060b4 <_dtoa_r+0xe4c>
  40606c:	9b0f      	ldr	r3, [sp, #60]	; 0x3c
  40606e:	e43b      	b.n	4058e8 <_dtoa_r+0x680>
  406070:	f04f 0a02 	mov.w	sl, #2
  406074:	e4ed      	b.n	405a52 <_dtoa_r+0x7ea>
  406076:	9b24      	ldr	r3, [sp, #144]	; 0x90
  406078:	2b02      	cmp	r3, #2
  40607a:	dc1b      	bgt.n	4060b4 <_dtoa_r+0xe4c>
  40607c:	9b0f      	ldr	r3, [sp, #60]	; 0x3c
  40607e:	e7ef      	b.n	406060 <_dtoa_r+0xdf8>
  406080:	2500      	movs	r5, #0
  406082:	6465      	str	r5, [r4, #68]	; 0x44
  406084:	4629      	mov	r1, r5
  406086:	4620      	mov	r0, r4
  406088:	f000 fe26 	bl	406cd8 <_Balloc>
  40608c:	f04f 33ff 	mov.w	r3, #4294967295
  406090:	930a      	str	r3, [sp, #40]	; 0x28
  406092:	930f      	str	r3, [sp, #60]	; 0x3c
  406094:	2301      	movs	r3, #1
  406096:	9004      	str	r0, [sp, #16]
  406098:	9525      	str	r5, [sp, #148]	; 0x94
  40609a:	6420      	str	r0, [r4, #64]	; 0x40
  40609c:	930b      	str	r3, [sp, #44]	; 0x2c
  40609e:	f7ff b9dd 	b.w	40545c <_dtoa_r+0x1f4>
  4060a2:	2501      	movs	r5, #1
  4060a4:	f7ff b9a5 	b.w	4053f2 <_dtoa_r+0x18a>
  4060a8:	f43f ab69 	beq.w	40577e <_dtoa_r+0x516>
  4060ac:	f1c0 003c 	rsb	r0, r0, #60	; 0x3c
  4060b0:	f7ff bbf9 	b.w	4058a6 <_dtoa_r+0x63e>
  4060b4:	9b0f      	ldr	r3, [sp, #60]	; 0x3c
  4060b6:	930a      	str	r3, [sp, #40]	; 0x28
  4060b8:	e5e5      	b.n	405c86 <_dtoa_r+0xa1e>
  4060ba:	bf00      	nop

004060bc <__sflush_r>:
  4060bc:	f9b1 300c 	ldrsh.w	r3, [r1, #12]
  4060c0:	b29a      	uxth	r2, r3
  4060c2:	e92d 41f0 	stmdb	sp!, {r4, r5, r6, r7, r8, lr}
  4060c6:	460d      	mov	r5, r1
  4060c8:	0711      	lsls	r1, r2, #28
  4060ca:	4680      	mov	r8, r0
  4060cc:	d43a      	bmi.n	406144 <__sflush_r+0x88>
  4060ce:	686a      	ldr	r2, [r5, #4]
  4060d0:	f443 6300 	orr.w	r3, r3, #2048	; 0x800
  4060d4:	2a00      	cmp	r2, #0
  4060d6:	81ab      	strh	r3, [r5, #12]
  4060d8:	dd6f      	ble.n	4061ba <__sflush_r+0xfe>
  4060da:	6aac      	ldr	r4, [r5, #40]	; 0x28
  4060dc:	2c00      	cmp	r4, #0
  4060de:	d049      	beq.n	406174 <__sflush_r+0xb8>
  4060e0:	2200      	movs	r2, #0
  4060e2:	b29b      	uxth	r3, r3
  4060e4:	f8d8 6000 	ldr.w	r6, [r8]
  4060e8:	f8c8 2000 	str.w	r2, [r8]
  4060ec:	f413 5280 	ands.w	r2, r3, #4096	; 0x1000
  4060f0:	d067      	beq.n	4061c2 <__sflush_r+0x106>
  4060f2:	6d2a      	ldr	r2, [r5, #80]	; 0x50
  4060f4:	075f      	lsls	r7, r3, #29
  4060f6:	d505      	bpl.n	406104 <__sflush_r+0x48>
  4060f8:	6869      	ldr	r1, [r5, #4]
  4060fa:	6b2b      	ldr	r3, [r5, #48]	; 0x30
  4060fc:	1a52      	subs	r2, r2, r1
  4060fe:	b10b      	cbz	r3, 406104 <__sflush_r+0x48>
  406100:	6beb      	ldr	r3, [r5, #60]	; 0x3c
  406102:	1ad2      	subs	r2, r2, r3
  406104:	2300      	movs	r3, #0
  406106:	69e9      	ldr	r1, [r5, #28]
  406108:	4640      	mov	r0, r8
  40610a:	47a0      	blx	r4
  40610c:	1c44      	adds	r4, r0, #1
  40610e:	d03c      	beq.n	40618a <__sflush_r+0xce>
  406110:	f9b5 300c 	ldrsh.w	r3, [r5, #12]
  406114:	692a      	ldr	r2, [r5, #16]
  406116:	602a      	str	r2, [r5, #0]
  406118:	f423 6300 	bic.w	r3, r3, #2048	; 0x800
  40611c:	2200      	movs	r2, #0
  40611e:	81ab      	strh	r3, [r5, #12]
  406120:	04db      	lsls	r3, r3, #19
  406122:	606a      	str	r2, [r5, #4]
  406124:	d447      	bmi.n	4061b6 <__sflush_r+0xfa>
  406126:	6b29      	ldr	r1, [r5, #48]	; 0x30
  406128:	f8c8 6000 	str.w	r6, [r8]
  40612c:	b311      	cbz	r1, 406174 <__sflush_r+0xb8>
  40612e:	f105 0340 	add.w	r3, r5, #64	; 0x40
  406132:	4299      	cmp	r1, r3
  406134:	d002      	beq.n	40613c <__sflush_r+0x80>
  406136:	4640      	mov	r0, r8
  406138:	f000 f9de 	bl	4064f8 <_free_r>
  40613c:	2000      	movs	r0, #0
  40613e:	6328      	str	r0, [r5, #48]	; 0x30
  406140:	e8bd 81f0 	ldmia.w	sp!, {r4, r5, r6, r7, r8, pc}
  406144:	692e      	ldr	r6, [r5, #16]
  406146:	b1ae      	cbz	r6, 406174 <__sflush_r+0xb8>
  406148:	682c      	ldr	r4, [r5, #0]
  40614a:	602e      	str	r6, [r5, #0]
  40614c:	0791      	lsls	r1, r2, #30
  40614e:	bf0c      	ite	eq
  406150:	696b      	ldreq	r3, [r5, #20]
  406152:	2300      	movne	r3, #0
  406154:	1ba4      	subs	r4, r4, r6
  406156:	60ab      	str	r3, [r5, #8]
  406158:	e00a      	b.n	406170 <__sflush_r+0xb4>
  40615a:	4623      	mov	r3, r4
  40615c:	4632      	mov	r2, r6
  40615e:	6a6f      	ldr	r7, [r5, #36]	; 0x24
  406160:	69e9      	ldr	r1, [r5, #28]
  406162:	4640      	mov	r0, r8
  406164:	47b8      	blx	r7
  406166:	2800      	cmp	r0, #0
  406168:	eba4 0400 	sub.w	r4, r4, r0
  40616c:	4406      	add	r6, r0
  40616e:	dd04      	ble.n	40617a <__sflush_r+0xbe>
  406170:	2c00      	cmp	r4, #0
  406172:	dcf2      	bgt.n	40615a <__sflush_r+0x9e>
  406174:	2000      	movs	r0, #0
  406176:	e8bd 81f0 	ldmia.w	sp!, {r4, r5, r6, r7, r8, pc}
  40617a:	89ab      	ldrh	r3, [r5, #12]
  40617c:	f043 0340 	orr.w	r3, r3, #64	; 0x40
  406180:	81ab      	strh	r3, [r5, #12]
  406182:	f04f 30ff 	mov.w	r0, #4294967295
  406186:	e8bd 81f0 	ldmia.w	sp!, {r4, r5, r6, r7, r8, pc}
  40618a:	f8d8 4000 	ldr.w	r4, [r8]
  40618e:	2c1d      	cmp	r4, #29
  406190:	d8f3      	bhi.n	40617a <__sflush_r+0xbe>
  406192:	4b19      	ldr	r3, [pc, #100]	; (4061f8 <__sflush_r+0x13c>)
  406194:	40e3      	lsrs	r3, r4
  406196:	43db      	mvns	r3, r3
  406198:	f013 0301 	ands.w	r3, r3, #1
  40619c:	d1ed      	bne.n	40617a <__sflush_r+0xbe>
  40619e:	f9b5 200c 	ldrsh.w	r2, [r5, #12]
  4061a2:	606b      	str	r3, [r5, #4]
  4061a4:	f422 6300 	bic.w	r3, r2, #2048	; 0x800
  4061a8:	6929      	ldr	r1, [r5, #16]
  4061aa:	81ab      	strh	r3, [r5, #12]
  4061ac:	04da      	lsls	r2, r3, #19
  4061ae:	6029      	str	r1, [r5, #0]
  4061b0:	d5b9      	bpl.n	406126 <__sflush_r+0x6a>
  4061b2:	2c00      	cmp	r4, #0
  4061b4:	d1b7      	bne.n	406126 <__sflush_r+0x6a>
  4061b6:	6528      	str	r0, [r5, #80]	; 0x50
  4061b8:	e7b5      	b.n	406126 <__sflush_r+0x6a>
  4061ba:	6bea      	ldr	r2, [r5, #60]	; 0x3c
  4061bc:	2a00      	cmp	r2, #0
  4061be:	dc8c      	bgt.n	4060da <__sflush_r+0x1e>
  4061c0:	e7d8      	b.n	406174 <__sflush_r+0xb8>
  4061c2:	2301      	movs	r3, #1
  4061c4:	69e9      	ldr	r1, [r5, #28]
  4061c6:	4640      	mov	r0, r8
  4061c8:	47a0      	blx	r4
  4061ca:	1c43      	adds	r3, r0, #1
  4061cc:	4602      	mov	r2, r0
  4061ce:	d002      	beq.n	4061d6 <__sflush_r+0x11a>
  4061d0:	89ab      	ldrh	r3, [r5, #12]
  4061d2:	6aac      	ldr	r4, [r5, #40]	; 0x28
  4061d4:	e78e      	b.n	4060f4 <__sflush_r+0x38>
  4061d6:	f8d8 3000 	ldr.w	r3, [r8]
  4061da:	2b00      	cmp	r3, #0
  4061dc:	d0f8      	beq.n	4061d0 <__sflush_r+0x114>
  4061de:	2b1d      	cmp	r3, #29
  4061e0:	d001      	beq.n	4061e6 <__sflush_r+0x12a>
  4061e2:	2b16      	cmp	r3, #22
  4061e4:	d102      	bne.n	4061ec <__sflush_r+0x130>
  4061e6:	f8c8 6000 	str.w	r6, [r8]
  4061ea:	e7c3      	b.n	406174 <__sflush_r+0xb8>
  4061ec:	89ab      	ldrh	r3, [r5, #12]
  4061ee:	f043 0340 	orr.w	r3, r3, #64	; 0x40
  4061f2:	81ab      	strh	r3, [r5, #12]
  4061f4:	e8bd 81f0 	ldmia.w	sp!, {r4, r5, r6, r7, r8, pc}
  4061f8:	20400001 	.word	0x20400001

004061fc <_fflush_r>:
  4061fc:	b538      	push	{r3, r4, r5, lr}
  4061fe:	460d      	mov	r5, r1
  406200:	4604      	mov	r4, r0
  406202:	b108      	cbz	r0, 406208 <_fflush_r+0xc>
  406204:	6b83      	ldr	r3, [r0, #56]	; 0x38
  406206:	b1bb      	cbz	r3, 406238 <_fflush_r+0x3c>
  406208:	f9b5 000c 	ldrsh.w	r0, [r5, #12]
  40620c:	b188      	cbz	r0, 406232 <_fflush_r+0x36>
  40620e:	6e6b      	ldr	r3, [r5, #100]	; 0x64
  406210:	07db      	lsls	r3, r3, #31
  406212:	d401      	bmi.n	406218 <_fflush_r+0x1c>
  406214:	0581      	lsls	r1, r0, #22
  406216:	d517      	bpl.n	406248 <_fflush_r+0x4c>
  406218:	4620      	mov	r0, r4
  40621a:	4629      	mov	r1, r5
  40621c:	f7ff ff4e 	bl	4060bc <__sflush_r>
  406220:	6e6b      	ldr	r3, [r5, #100]	; 0x64
  406222:	07da      	lsls	r2, r3, #31
  406224:	4604      	mov	r4, r0
  406226:	d402      	bmi.n	40622e <_fflush_r+0x32>
  406228:	89ab      	ldrh	r3, [r5, #12]
  40622a:	059b      	lsls	r3, r3, #22
  40622c:	d507      	bpl.n	40623e <_fflush_r+0x42>
  40622e:	4620      	mov	r0, r4
  406230:	bd38      	pop	{r3, r4, r5, pc}
  406232:	4604      	mov	r4, r0
  406234:	4620      	mov	r0, r4
  406236:	bd38      	pop	{r3, r4, r5, pc}
  406238:	f000 f838 	bl	4062ac <__sinit>
  40623c:	e7e4      	b.n	406208 <_fflush_r+0xc>
  40623e:	6da8      	ldr	r0, [r5, #88]	; 0x58
  406240:	f000 fc04 	bl	406a4c <__retarget_lock_release_recursive>
  406244:	4620      	mov	r0, r4
  406246:	bd38      	pop	{r3, r4, r5, pc}
  406248:	6da8      	ldr	r0, [r5, #88]	; 0x58
  40624a:	f000 fbfd 	bl	406a48 <__retarget_lock_acquire_recursive>
  40624e:	e7e3      	b.n	406218 <_fflush_r+0x1c>

00406250 <_cleanup_r>:
  406250:	4901      	ldr	r1, [pc, #4]	; (406258 <_cleanup_r+0x8>)
  406252:	f000 bbaf 	b.w	4069b4 <_fwalk_reent>
  406256:	bf00      	nop
  406258:	00407ab1 	.word	0x00407ab1

0040625c <std.isra.0>:
  40625c:	b510      	push	{r4, lr}
  40625e:	2300      	movs	r3, #0
  406260:	4604      	mov	r4, r0
  406262:	8181      	strh	r1, [r0, #12]
  406264:	81c2      	strh	r2, [r0, #14]
  406266:	6003      	str	r3, [r0, #0]
  406268:	6043      	str	r3, [r0, #4]
  40626a:	6083      	str	r3, [r0, #8]
  40626c:	6643      	str	r3, [r0, #100]	; 0x64
  40626e:	6103      	str	r3, [r0, #16]
  406270:	6143      	str	r3, [r0, #20]
  406272:	6183      	str	r3, [r0, #24]
  406274:	4619      	mov	r1, r3
  406276:	2208      	movs	r2, #8
  406278:	305c      	adds	r0, #92	; 0x5c
  40627a:	f7fc fbd9 	bl	402a30 <memset>
  40627e:	4807      	ldr	r0, [pc, #28]	; (40629c <std.isra.0+0x40>)
  406280:	4907      	ldr	r1, [pc, #28]	; (4062a0 <std.isra.0+0x44>)
  406282:	4a08      	ldr	r2, [pc, #32]	; (4062a4 <std.isra.0+0x48>)
  406284:	4b08      	ldr	r3, [pc, #32]	; (4062a8 <std.isra.0+0x4c>)
  406286:	6220      	str	r0, [r4, #32]
  406288:	61e4      	str	r4, [r4, #28]
  40628a:	6261      	str	r1, [r4, #36]	; 0x24
  40628c:	62a2      	str	r2, [r4, #40]	; 0x28
  40628e:	62e3      	str	r3, [r4, #44]	; 0x2c
  406290:	f104 0058 	add.w	r0, r4, #88	; 0x58
  406294:	e8bd 4010 	ldmia.w	sp!, {r4, lr}
  406298:	f000 bbd2 	b.w	406a40 <__retarget_lock_init_recursive>
  40629c:	004076b5 	.word	0x004076b5
  4062a0:	004076d9 	.word	0x004076d9
  4062a4:	00407715 	.word	0x00407715
  4062a8:	00407735 	.word	0x00407735

004062ac <__sinit>:
  4062ac:	b510      	push	{r4, lr}
  4062ae:	4604      	mov	r4, r0
  4062b0:	4812      	ldr	r0, [pc, #72]	; (4062fc <__sinit+0x50>)
  4062b2:	f000 fbc9 	bl	406a48 <__retarget_lock_acquire_recursive>
  4062b6:	6ba2      	ldr	r2, [r4, #56]	; 0x38
  4062b8:	b9d2      	cbnz	r2, 4062f0 <__sinit+0x44>
  4062ba:	f504 733b 	add.w	r3, r4, #748	; 0x2ec
  4062be:	4810      	ldr	r0, [pc, #64]	; (406300 <__sinit+0x54>)
  4062c0:	f8c4 32e8 	str.w	r3, [r4, #744]	; 0x2e8
  4062c4:	2103      	movs	r1, #3
  4062c6:	f8c4 22e0 	str.w	r2, [r4, #736]	; 0x2e0
  4062ca:	63e0      	str	r0, [r4, #60]	; 0x3c
  4062cc:	f8c4 12e4 	str.w	r1, [r4, #740]	; 0x2e4
  4062d0:	6860      	ldr	r0, [r4, #4]
  4062d2:	2104      	movs	r1, #4
  4062d4:	f7ff ffc2 	bl	40625c <std.isra.0>
  4062d8:	2201      	movs	r2, #1
  4062da:	2109      	movs	r1, #9
  4062dc:	68a0      	ldr	r0, [r4, #8]
  4062de:	f7ff ffbd 	bl	40625c <std.isra.0>
  4062e2:	2202      	movs	r2, #2
  4062e4:	2112      	movs	r1, #18
  4062e6:	68e0      	ldr	r0, [r4, #12]
  4062e8:	f7ff ffb8 	bl	40625c <std.isra.0>
  4062ec:	2301      	movs	r3, #1
  4062ee:	63a3      	str	r3, [r4, #56]	; 0x38
  4062f0:	4802      	ldr	r0, [pc, #8]	; (4062fc <__sinit+0x50>)
  4062f2:	e8bd 4010 	ldmia.w	sp!, {r4, lr}
  4062f6:	f000 bba9 	b.w	406a4c <__retarget_lock_release_recursive>
  4062fa:	bf00      	nop
  4062fc:	20408cac 	.word	0x20408cac
  406300:	00406251 	.word	0x00406251

00406304 <__sfp_lock_acquire>:
  406304:	4801      	ldr	r0, [pc, #4]	; (40630c <__sfp_lock_acquire+0x8>)
  406306:	f000 bb9f 	b.w	406a48 <__retarget_lock_acquire_recursive>
  40630a:	bf00      	nop
  40630c:	20408cc0 	.word	0x20408cc0

00406310 <__sfp_lock_release>:
  406310:	4801      	ldr	r0, [pc, #4]	; (406318 <__sfp_lock_release+0x8>)
  406312:	f000 bb9b 	b.w	406a4c <__retarget_lock_release_recursive>
  406316:	bf00      	nop
  406318:	20408cc0 	.word	0x20408cc0

0040631c <__libc_fini_array>:
  40631c:	b538      	push	{r3, r4, r5, lr}
  40631e:	4c0a      	ldr	r4, [pc, #40]	; (406348 <__libc_fini_array+0x2c>)
  406320:	4d0a      	ldr	r5, [pc, #40]	; (40634c <__libc_fini_array+0x30>)
  406322:	1b64      	subs	r4, r4, r5
  406324:	10a4      	asrs	r4, r4, #2
  406326:	d00a      	beq.n	40633e <__libc_fini_array+0x22>
  406328:	f104 4380 	add.w	r3, r4, #1073741824	; 0x40000000
  40632c:	3b01      	subs	r3, #1
  40632e:	eb05 0583 	add.w	r5, r5, r3, lsl #2
  406332:	3c01      	subs	r4, #1
  406334:	f855 3904 	ldr.w	r3, [r5], #-4
  406338:	4798      	blx	r3
  40633a:	2c00      	cmp	r4, #0
  40633c:	d1f9      	bne.n	406332 <__libc_fini_array+0x16>
  40633e:	e8bd 4038 	ldmia.w	sp!, {r3, r4, r5, lr}
  406342:	f003 bc8f 	b.w	409c64 <_fini>
  406346:	bf00      	nop
  406348:	00409c74 	.word	0x00409c74
  40634c:	00409c70 	.word	0x00409c70

00406350 <__fputwc>:
  406350:	e92d 47f0 	stmdb	sp!, {r4, r5, r6, r7, r8, r9, sl, lr}
  406354:	b082      	sub	sp, #8
  406356:	4680      	mov	r8, r0
  406358:	4689      	mov	r9, r1
  40635a:	4614      	mov	r4, r2
  40635c:	f000 fb54 	bl	406a08 <__locale_mb_cur_max>
  406360:	2801      	cmp	r0, #1
  406362:	d036      	beq.n	4063d2 <__fputwc+0x82>
  406364:	464a      	mov	r2, r9
  406366:	f104 035c 	add.w	r3, r4, #92	; 0x5c
  40636a:	a901      	add	r1, sp, #4
  40636c:	4640      	mov	r0, r8
  40636e:	f001 faad 	bl	4078cc <_wcrtomb_r>
  406372:	1c42      	adds	r2, r0, #1
  406374:	4606      	mov	r6, r0
  406376:	d025      	beq.n	4063c4 <__fputwc+0x74>
  406378:	b3a8      	cbz	r0, 4063e6 <__fputwc+0x96>
  40637a:	f89d e004 	ldrb.w	lr, [sp, #4]
  40637e:	2500      	movs	r5, #0
  406380:	f10d 0a04 	add.w	sl, sp, #4
  406384:	e009      	b.n	40639a <__fputwc+0x4a>
  406386:	6823      	ldr	r3, [r4, #0]
  406388:	1c5a      	adds	r2, r3, #1
  40638a:	6022      	str	r2, [r4, #0]
  40638c:	f883 e000 	strb.w	lr, [r3]
  406390:	3501      	adds	r5, #1
  406392:	42b5      	cmp	r5, r6
  406394:	d227      	bcs.n	4063e6 <__fputwc+0x96>
  406396:	f815 e00a 	ldrb.w	lr, [r5, sl]
  40639a:	68a3      	ldr	r3, [r4, #8]
  40639c:	3b01      	subs	r3, #1
  40639e:	2b00      	cmp	r3, #0
  4063a0:	60a3      	str	r3, [r4, #8]
  4063a2:	daf0      	bge.n	406386 <__fputwc+0x36>
  4063a4:	69a7      	ldr	r7, [r4, #24]
  4063a6:	42bb      	cmp	r3, r7
  4063a8:	4671      	mov	r1, lr
  4063aa:	4622      	mov	r2, r4
  4063ac:	4640      	mov	r0, r8
  4063ae:	db02      	blt.n	4063b6 <__fputwc+0x66>
  4063b0:	f1be 0f0a 	cmp.w	lr, #10
  4063b4:	d1e7      	bne.n	406386 <__fputwc+0x36>
  4063b6:	f001 fa31 	bl	40781c <__swbuf_r>
  4063ba:	1c43      	adds	r3, r0, #1
  4063bc:	d1e8      	bne.n	406390 <__fputwc+0x40>
  4063be:	b002      	add	sp, #8
  4063c0:	e8bd 87f0 	ldmia.w	sp!, {r4, r5, r6, r7, r8, r9, sl, pc}
  4063c4:	89a3      	ldrh	r3, [r4, #12]
  4063c6:	f043 0340 	orr.w	r3, r3, #64	; 0x40
  4063ca:	81a3      	strh	r3, [r4, #12]
  4063cc:	b002      	add	sp, #8
  4063ce:	e8bd 87f0 	ldmia.w	sp!, {r4, r5, r6, r7, r8, r9, sl, pc}
  4063d2:	f109 33ff 	add.w	r3, r9, #4294967295
  4063d6:	2bfe      	cmp	r3, #254	; 0xfe
  4063d8:	d8c4      	bhi.n	406364 <__fputwc+0x14>
  4063da:	fa5f fe89 	uxtb.w	lr, r9
  4063de:	4606      	mov	r6, r0
  4063e0:	f88d e004 	strb.w	lr, [sp, #4]
  4063e4:	e7cb      	b.n	40637e <__fputwc+0x2e>
  4063e6:	4648      	mov	r0, r9
  4063e8:	b002      	add	sp, #8
  4063ea:	e8bd 87f0 	ldmia.w	sp!, {r4, r5, r6, r7, r8, r9, sl, pc}
  4063ee:	bf00      	nop

004063f0 <_fputwc_r>:
  4063f0:	b530      	push	{r4, r5, lr}
  4063f2:	6e53      	ldr	r3, [r2, #100]	; 0x64
  4063f4:	f013 0f01 	tst.w	r3, #1
  4063f8:	f9b2 300c 	ldrsh.w	r3, [r2, #12]
  4063fc:	4614      	mov	r4, r2
  4063fe:	b083      	sub	sp, #12
  406400:	4605      	mov	r5, r0
  406402:	b29a      	uxth	r2, r3
  406404:	d101      	bne.n	40640a <_fputwc_r+0x1a>
  406406:	0590      	lsls	r0, r2, #22
  406408:	d51c      	bpl.n	406444 <_fputwc_r+0x54>
  40640a:	0490      	lsls	r0, r2, #18
  40640c:	d406      	bmi.n	40641c <_fputwc_r+0x2c>
  40640e:	6e62      	ldr	r2, [r4, #100]	; 0x64
  406410:	f443 5300 	orr.w	r3, r3, #8192	; 0x2000
  406414:	f442 5200 	orr.w	r2, r2, #8192	; 0x2000
  406418:	81a3      	strh	r3, [r4, #12]
  40641a:	6662      	str	r2, [r4, #100]	; 0x64
  40641c:	4628      	mov	r0, r5
  40641e:	4622      	mov	r2, r4
  406420:	f7ff ff96 	bl	406350 <__fputwc>
  406424:	6e63      	ldr	r3, [r4, #100]	; 0x64
  406426:	07da      	lsls	r2, r3, #31
  406428:	4605      	mov	r5, r0
  40642a:	d402      	bmi.n	406432 <_fputwc_r+0x42>
  40642c:	89a3      	ldrh	r3, [r4, #12]
  40642e:	059b      	lsls	r3, r3, #22
  406430:	d502      	bpl.n	406438 <_fputwc_r+0x48>
  406432:	4628      	mov	r0, r5
  406434:	b003      	add	sp, #12
  406436:	bd30      	pop	{r4, r5, pc}
  406438:	6da0      	ldr	r0, [r4, #88]	; 0x58
  40643a:	f000 fb07 	bl	406a4c <__retarget_lock_release_recursive>
  40643e:	4628      	mov	r0, r5
  406440:	b003      	add	sp, #12
  406442:	bd30      	pop	{r4, r5, pc}
  406444:	6da0      	ldr	r0, [r4, #88]	; 0x58
  406446:	9101      	str	r1, [sp, #4]
  406448:	f000 fafe 	bl	406a48 <__retarget_lock_acquire_recursive>
  40644c:	f9b4 300c 	ldrsh.w	r3, [r4, #12]
  406450:	9901      	ldr	r1, [sp, #4]
  406452:	b29a      	uxth	r2, r3
  406454:	e7d9      	b.n	40640a <_fputwc_r+0x1a>
  406456:	bf00      	nop

00406458 <_malloc_trim_r>:
  406458:	b5f8      	push	{r3, r4, r5, r6, r7, lr}
  40645a:	4f24      	ldr	r7, [pc, #144]	; (4064ec <_malloc_trim_r+0x94>)
  40645c:	460c      	mov	r4, r1
  40645e:	4606      	mov	r6, r0
  406460:	f7fc fb34 	bl	402acc <__malloc_lock>
  406464:	68bb      	ldr	r3, [r7, #8]
  406466:	685d      	ldr	r5, [r3, #4]
  406468:	f5c4 617e 	rsb	r1, r4, #4064	; 0xfe0
  40646c:	310f      	adds	r1, #15
  40646e:	f025 0503 	bic.w	r5, r5, #3
  406472:	4429      	add	r1, r5
  406474:	f421 617f 	bic.w	r1, r1, #4080	; 0xff0
  406478:	f021 010f 	bic.w	r1, r1, #15
  40647c:	f5a1 5480 	sub.w	r4, r1, #4096	; 0x1000
  406480:	f5b4 5f80 	cmp.w	r4, #4096	; 0x1000
  406484:	db07      	blt.n	406496 <_malloc_trim_r+0x3e>
  406486:	2100      	movs	r1, #0
  406488:	4630      	mov	r0, r6
  40648a:	f7fc fb3f 	bl	402b0c <_sbrk_r>
  40648e:	68bb      	ldr	r3, [r7, #8]
  406490:	442b      	add	r3, r5
  406492:	4298      	cmp	r0, r3
  406494:	d004      	beq.n	4064a0 <_malloc_trim_r+0x48>
  406496:	4630      	mov	r0, r6
  406498:	f7fc fb1e 	bl	402ad8 <__malloc_unlock>
  40649c:	2000      	movs	r0, #0
  40649e:	bdf8      	pop	{r3, r4, r5, r6, r7, pc}
  4064a0:	4261      	negs	r1, r4
  4064a2:	4630      	mov	r0, r6
  4064a4:	f7fc fb32 	bl	402b0c <_sbrk_r>
  4064a8:	3001      	adds	r0, #1
  4064aa:	d00d      	beq.n	4064c8 <_malloc_trim_r+0x70>
  4064ac:	4b10      	ldr	r3, [pc, #64]	; (4064f0 <_malloc_trim_r+0x98>)
  4064ae:	68ba      	ldr	r2, [r7, #8]
  4064b0:	6819      	ldr	r1, [r3, #0]
  4064b2:	1b2d      	subs	r5, r5, r4
  4064b4:	f045 0501 	orr.w	r5, r5, #1
  4064b8:	4630      	mov	r0, r6
  4064ba:	1b09      	subs	r1, r1, r4
  4064bc:	6055      	str	r5, [r2, #4]
  4064be:	6019      	str	r1, [r3, #0]
  4064c0:	f7fc fb0a 	bl	402ad8 <__malloc_unlock>
  4064c4:	2001      	movs	r0, #1
  4064c6:	bdf8      	pop	{r3, r4, r5, r6, r7, pc}
  4064c8:	2100      	movs	r1, #0
  4064ca:	4630      	mov	r0, r6
  4064cc:	f7fc fb1e 	bl	402b0c <_sbrk_r>
  4064d0:	68ba      	ldr	r2, [r7, #8]
  4064d2:	1a83      	subs	r3, r0, r2
  4064d4:	2b0f      	cmp	r3, #15
  4064d6:	ddde      	ble.n	406496 <_malloc_trim_r+0x3e>
  4064d8:	4c06      	ldr	r4, [pc, #24]	; (4064f4 <_malloc_trim_r+0x9c>)
  4064da:	4905      	ldr	r1, [pc, #20]	; (4064f0 <_malloc_trim_r+0x98>)
  4064dc:	6824      	ldr	r4, [r4, #0]
  4064de:	f043 0301 	orr.w	r3, r3, #1
  4064e2:	1b00      	subs	r0, r0, r4
  4064e4:	6053      	str	r3, [r2, #4]
  4064e6:	6008      	str	r0, [r1, #0]
  4064e8:	e7d5      	b.n	406496 <_malloc_trim_r+0x3e>
  4064ea:	bf00      	nop
  4064ec:	20400498 	.word	0x20400498
  4064f0:	20408c5c 	.word	0x20408c5c
  4064f4:	204008a0 	.word	0x204008a0

004064f8 <_free_r>:
  4064f8:	2900      	cmp	r1, #0
  4064fa:	d044      	beq.n	406586 <_free_r+0x8e>
  4064fc:	e92d 41f0 	stmdb	sp!, {r4, r5, r6, r7, r8, lr}
  406500:	460d      	mov	r5, r1
  406502:	4680      	mov	r8, r0
  406504:	f7fc fae2 	bl	402acc <__malloc_lock>
  406508:	f855 7c04 	ldr.w	r7, [r5, #-4]
  40650c:	4969      	ldr	r1, [pc, #420]	; (4066b4 <_free_r+0x1bc>)
  40650e:	f027 0301 	bic.w	r3, r7, #1
  406512:	f1a5 0408 	sub.w	r4, r5, #8
  406516:	18e2      	adds	r2, r4, r3
  406518:	688e      	ldr	r6, [r1, #8]
  40651a:	6850      	ldr	r0, [r2, #4]
  40651c:	42b2      	cmp	r2, r6
  40651e:	f020 0003 	bic.w	r0, r0, #3
  406522:	d05e      	beq.n	4065e2 <_free_r+0xea>
  406524:	07fe      	lsls	r6, r7, #31
  406526:	6050      	str	r0, [r2, #4]
  406528:	d40b      	bmi.n	406542 <_free_r+0x4a>
  40652a:	f855 7c08 	ldr.w	r7, [r5, #-8]
  40652e:	1be4      	subs	r4, r4, r7
  406530:	f101 0e08 	add.w	lr, r1, #8
  406534:	68a5      	ldr	r5, [r4, #8]
  406536:	4575      	cmp	r5, lr
  406538:	443b      	add	r3, r7
  40653a:	d06d      	beq.n	406618 <_free_r+0x120>
  40653c:	68e7      	ldr	r7, [r4, #12]
  40653e:	60ef      	str	r7, [r5, #12]
  406540:	60bd      	str	r5, [r7, #8]
  406542:	1815      	adds	r5, r2, r0
  406544:	686d      	ldr	r5, [r5, #4]
  406546:	07ed      	lsls	r5, r5, #31
  406548:	d53e      	bpl.n	4065c8 <_free_r+0xd0>
  40654a:	f043 0201 	orr.w	r2, r3, #1
  40654e:	6062      	str	r2, [r4, #4]
  406550:	50e3      	str	r3, [r4, r3]
  406552:	f5b3 7f00 	cmp.w	r3, #512	; 0x200
  406556:	d217      	bcs.n	406588 <_free_r+0x90>
  406558:	08db      	lsrs	r3, r3, #3
  40655a:	1c58      	adds	r0, r3, #1
  40655c:	109a      	asrs	r2, r3, #2
  40655e:	684d      	ldr	r5, [r1, #4]
  406560:	f851 7030 	ldr.w	r7, [r1, r0, lsl #3]
  406564:	60a7      	str	r7, [r4, #8]
  406566:	2301      	movs	r3, #1
  406568:	4093      	lsls	r3, r2
  40656a:	eb01 02c0 	add.w	r2, r1, r0, lsl #3
  40656e:	432b      	orrs	r3, r5
  406570:	3a08      	subs	r2, #8
  406572:	60e2      	str	r2, [r4, #12]
  406574:	604b      	str	r3, [r1, #4]
  406576:	f841 4030 	str.w	r4, [r1, r0, lsl #3]
  40657a:	60fc      	str	r4, [r7, #12]
  40657c:	4640      	mov	r0, r8
  40657e:	e8bd 41f0 	ldmia.w	sp!, {r4, r5, r6, r7, r8, lr}
  406582:	f7fc baa9 	b.w	402ad8 <__malloc_unlock>
  406586:	4770      	bx	lr
  406588:	0a5a      	lsrs	r2, r3, #9
  40658a:	2a04      	cmp	r2, #4
  40658c:	d852      	bhi.n	406634 <_free_r+0x13c>
  40658e:	099a      	lsrs	r2, r3, #6
  406590:	f102 0739 	add.w	r7, r2, #57	; 0x39
  406594:	00ff      	lsls	r7, r7, #3
  406596:	f102 0538 	add.w	r5, r2, #56	; 0x38
  40659a:	19c8      	adds	r0, r1, r7
  40659c:	59ca      	ldr	r2, [r1, r7]
  40659e:	3808      	subs	r0, #8
  4065a0:	4290      	cmp	r0, r2
  4065a2:	d04f      	beq.n	406644 <_free_r+0x14c>
  4065a4:	6851      	ldr	r1, [r2, #4]
  4065a6:	f021 0103 	bic.w	r1, r1, #3
  4065aa:	428b      	cmp	r3, r1
  4065ac:	d232      	bcs.n	406614 <_free_r+0x11c>
  4065ae:	6892      	ldr	r2, [r2, #8]
  4065b0:	4290      	cmp	r0, r2
  4065b2:	d1f7      	bne.n	4065a4 <_free_r+0xac>
  4065b4:	68c3      	ldr	r3, [r0, #12]
  4065b6:	60a0      	str	r0, [r4, #8]
  4065b8:	60e3      	str	r3, [r4, #12]
  4065ba:	609c      	str	r4, [r3, #8]
  4065bc:	60c4      	str	r4, [r0, #12]
  4065be:	4640      	mov	r0, r8
  4065c0:	e8bd 41f0 	ldmia.w	sp!, {r4, r5, r6, r7, r8, lr}
  4065c4:	f7fc ba88 	b.w	402ad8 <__malloc_unlock>
  4065c8:	6895      	ldr	r5, [r2, #8]
  4065ca:	4f3b      	ldr	r7, [pc, #236]	; (4066b8 <_free_r+0x1c0>)
  4065cc:	42bd      	cmp	r5, r7
  4065ce:	4403      	add	r3, r0
  4065d0:	d040      	beq.n	406654 <_free_r+0x15c>
  4065d2:	68d0      	ldr	r0, [r2, #12]
  4065d4:	60e8      	str	r0, [r5, #12]
  4065d6:	f043 0201 	orr.w	r2, r3, #1
  4065da:	6085      	str	r5, [r0, #8]
  4065dc:	6062      	str	r2, [r4, #4]
  4065de:	50e3      	str	r3, [r4, r3]
  4065e0:	e7b7      	b.n	406552 <_free_r+0x5a>
  4065e2:	07ff      	lsls	r7, r7, #31
  4065e4:	4403      	add	r3, r0
  4065e6:	d407      	bmi.n	4065f8 <_free_r+0x100>
  4065e8:	f855 2c08 	ldr.w	r2, [r5, #-8]
  4065ec:	1aa4      	subs	r4, r4, r2
  4065ee:	4413      	add	r3, r2
  4065f0:	68a0      	ldr	r0, [r4, #8]
  4065f2:	68e2      	ldr	r2, [r4, #12]
  4065f4:	60c2      	str	r2, [r0, #12]
  4065f6:	6090      	str	r0, [r2, #8]
  4065f8:	4a30      	ldr	r2, [pc, #192]	; (4066bc <_free_r+0x1c4>)
  4065fa:	6812      	ldr	r2, [r2, #0]
  4065fc:	f043 0001 	orr.w	r0, r3, #1
  406600:	4293      	cmp	r3, r2
  406602:	6060      	str	r0, [r4, #4]
  406604:	608c      	str	r4, [r1, #8]
  406606:	d3b9      	bcc.n	40657c <_free_r+0x84>
  406608:	4b2d      	ldr	r3, [pc, #180]	; (4066c0 <_free_r+0x1c8>)
  40660a:	4640      	mov	r0, r8
  40660c:	6819      	ldr	r1, [r3, #0]
  40660e:	f7ff ff23 	bl	406458 <_malloc_trim_r>
  406612:	e7b3      	b.n	40657c <_free_r+0x84>
  406614:	4610      	mov	r0, r2
  406616:	e7cd      	b.n	4065b4 <_free_r+0xbc>
  406618:	1811      	adds	r1, r2, r0
  40661a:	6849      	ldr	r1, [r1, #4]
  40661c:	07c9      	lsls	r1, r1, #31
  40661e:	d444      	bmi.n	4066aa <_free_r+0x1b2>
  406620:	6891      	ldr	r1, [r2, #8]
  406622:	68d2      	ldr	r2, [r2, #12]
  406624:	60ca      	str	r2, [r1, #12]
  406626:	4403      	add	r3, r0
  406628:	f043 0001 	orr.w	r0, r3, #1
  40662c:	6091      	str	r1, [r2, #8]
  40662e:	6060      	str	r0, [r4, #4]
  406630:	50e3      	str	r3, [r4, r3]
  406632:	e7a3      	b.n	40657c <_free_r+0x84>
  406634:	2a14      	cmp	r2, #20
  406636:	d816      	bhi.n	406666 <_free_r+0x16e>
  406638:	f102 075c 	add.w	r7, r2, #92	; 0x5c
  40663c:	00ff      	lsls	r7, r7, #3
  40663e:	f102 055b 	add.w	r5, r2, #91	; 0x5b
  406642:	e7aa      	b.n	40659a <_free_r+0xa2>
  406644:	10aa      	asrs	r2, r5, #2
  406646:	2301      	movs	r3, #1
  406648:	684d      	ldr	r5, [r1, #4]
  40664a:	4093      	lsls	r3, r2
  40664c:	432b      	orrs	r3, r5
  40664e:	604b      	str	r3, [r1, #4]
  406650:	4603      	mov	r3, r0
  406652:	e7b0      	b.n	4065b6 <_free_r+0xbe>
  406654:	f043 0201 	orr.w	r2, r3, #1
  406658:	614c      	str	r4, [r1, #20]
  40665a:	610c      	str	r4, [r1, #16]
  40665c:	60e5      	str	r5, [r4, #12]
  40665e:	60a5      	str	r5, [r4, #8]
  406660:	6062      	str	r2, [r4, #4]
  406662:	50e3      	str	r3, [r4, r3]
  406664:	e78a      	b.n	40657c <_free_r+0x84>
  406666:	2a54      	cmp	r2, #84	; 0x54
  406668:	d806      	bhi.n	406678 <_free_r+0x180>
  40666a:	0b1a      	lsrs	r2, r3, #12
  40666c:	f102 076f 	add.w	r7, r2, #111	; 0x6f
  406670:	00ff      	lsls	r7, r7, #3
  406672:	f102 056e 	add.w	r5, r2, #110	; 0x6e
  406676:	e790      	b.n	40659a <_free_r+0xa2>
  406678:	f5b2 7faa 	cmp.w	r2, #340	; 0x154
  40667c:	d806      	bhi.n	40668c <_free_r+0x194>
  40667e:	0bda      	lsrs	r2, r3, #15
  406680:	f102 0778 	add.w	r7, r2, #120	; 0x78
  406684:	00ff      	lsls	r7, r7, #3
  406686:	f102 0577 	add.w	r5, r2, #119	; 0x77
  40668a:	e786      	b.n	40659a <_free_r+0xa2>
  40668c:	f240 5054 	movw	r0, #1364	; 0x554
  406690:	4282      	cmp	r2, r0
  406692:	d806      	bhi.n	4066a2 <_free_r+0x1aa>
  406694:	0c9a      	lsrs	r2, r3, #18
  406696:	f102 077d 	add.w	r7, r2, #125	; 0x7d
  40669a:	00ff      	lsls	r7, r7, #3
  40669c:	f102 057c 	add.w	r5, r2, #124	; 0x7c
  4066a0:	e77b      	b.n	40659a <_free_r+0xa2>
  4066a2:	f44f 777e 	mov.w	r7, #1016	; 0x3f8
  4066a6:	257e      	movs	r5, #126	; 0x7e
  4066a8:	e777      	b.n	40659a <_free_r+0xa2>
  4066aa:	f043 0101 	orr.w	r1, r3, #1
  4066ae:	6061      	str	r1, [r4, #4]
  4066b0:	6013      	str	r3, [r2, #0]
  4066b2:	e763      	b.n	40657c <_free_r+0x84>
  4066b4:	20400498 	.word	0x20400498
  4066b8:	204004a0 	.word	0x204004a0
  4066bc:	204008a4 	.word	0x204008a4
  4066c0:	20408c8c 	.word	0x20408c8c

004066c4 <__sfvwrite_r>:
  4066c4:	6893      	ldr	r3, [r2, #8]
  4066c6:	2b00      	cmp	r3, #0
  4066c8:	d073      	beq.n	4067b2 <__sfvwrite_r+0xee>
  4066ca:	e92d 4ff0 	stmdb	sp!, {r4, r5, r6, r7, r8, r9, sl, fp, lr}
  4066ce:	898b      	ldrh	r3, [r1, #12]
  4066d0:	b083      	sub	sp, #12
  4066d2:	460c      	mov	r4, r1
  4066d4:	0719      	lsls	r1, r3, #28
  4066d6:	9000      	str	r0, [sp, #0]
  4066d8:	4616      	mov	r6, r2
  4066da:	d526      	bpl.n	40672a <__sfvwrite_r+0x66>
  4066dc:	6922      	ldr	r2, [r4, #16]
  4066de:	b322      	cbz	r2, 40672a <__sfvwrite_r+0x66>
  4066e0:	f013 0002 	ands.w	r0, r3, #2
  4066e4:	6835      	ldr	r5, [r6, #0]
  4066e6:	d02c      	beq.n	406742 <__sfvwrite_r+0x7e>
  4066e8:	f04f 0900 	mov.w	r9, #0
  4066ec:	4fb0      	ldr	r7, [pc, #704]	; (4069b0 <__sfvwrite_r+0x2ec>)
  4066ee:	46c8      	mov	r8, r9
  4066f0:	46b2      	mov	sl, r6
  4066f2:	45b8      	cmp	r8, r7
  4066f4:	4643      	mov	r3, r8
  4066f6:	464a      	mov	r2, r9
  4066f8:	bf28      	it	cs
  4066fa:	463b      	movcs	r3, r7
  4066fc:	9800      	ldr	r0, [sp, #0]
  4066fe:	f1b8 0f00 	cmp.w	r8, #0
  406702:	d050      	beq.n	4067a6 <__sfvwrite_r+0xe2>
  406704:	69e1      	ldr	r1, [r4, #28]
  406706:	6a66      	ldr	r6, [r4, #36]	; 0x24
  406708:	47b0      	blx	r6
  40670a:	2800      	cmp	r0, #0
  40670c:	dd58      	ble.n	4067c0 <__sfvwrite_r+0xfc>
  40670e:	f8da 3008 	ldr.w	r3, [sl, #8]
  406712:	1a1b      	subs	r3, r3, r0
  406714:	4481      	add	r9, r0
  406716:	eba8 0800 	sub.w	r8, r8, r0
  40671a:	f8ca 3008 	str.w	r3, [sl, #8]
  40671e:	2b00      	cmp	r3, #0
  406720:	d1e7      	bne.n	4066f2 <__sfvwrite_r+0x2e>
  406722:	2000      	movs	r0, #0
  406724:	b003      	add	sp, #12
  406726:	e8bd 8ff0 	ldmia.w	sp!, {r4, r5, r6, r7, r8, r9, sl, fp, pc}
  40672a:	4621      	mov	r1, r4
  40672c:	9800      	ldr	r0, [sp, #0]
  40672e:	f7fe fc89 	bl	405044 <__swsetup_r>
  406732:	2800      	cmp	r0, #0
  406734:	f040 8133 	bne.w	40699e <__sfvwrite_r+0x2da>
  406738:	89a3      	ldrh	r3, [r4, #12]
  40673a:	6835      	ldr	r5, [r6, #0]
  40673c:	f013 0002 	ands.w	r0, r3, #2
  406740:	d1d2      	bne.n	4066e8 <__sfvwrite_r+0x24>
  406742:	f013 0901 	ands.w	r9, r3, #1
  406746:	d145      	bne.n	4067d4 <__sfvwrite_r+0x110>
  406748:	464f      	mov	r7, r9
  40674a:	9601      	str	r6, [sp, #4]
  40674c:	b337      	cbz	r7, 40679c <__sfvwrite_r+0xd8>
  40674e:	059a      	lsls	r2, r3, #22
  406750:	f8d4 8008 	ldr.w	r8, [r4, #8]
  406754:	f140 8083 	bpl.w	40685e <__sfvwrite_r+0x19a>
  406758:	4547      	cmp	r7, r8
  40675a:	46c3      	mov	fp, r8
  40675c:	f0c0 80ab 	bcc.w	4068b6 <__sfvwrite_r+0x1f2>
  406760:	f413 6f90 	tst.w	r3, #1152	; 0x480
  406764:	f040 80ac 	bne.w	4068c0 <__sfvwrite_r+0x1fc>
  406768:	6820      	ldr	r0, [r4, #0]
  40676a:	46ba      	mov	sl, r7
  40676c:	465a      	mov	r2, fp
  40676e:	4649      	mov	r1, r9
  406770:	f000 fa4e 	bl	406c10 <memmove>
  406774:	68a2      	ldr	r2, [r4, #8]
  406776:	6823      	ldr	r3, [r4, #0]
  406778:	eba2 0208 	sub.w	r2, r2, r8
  40677c:	445b      	add	r3, fp
  40677e:	60a2      	str	r2, [r4, #8]
  406780:	6023      	str	r3, [r4, #0]
  406782:	9a01      	ldr	r2, [sp, #4]
  406784:	6893      	ldr	r3, [r2, #8]
  406786:	eba3 030a 	sub.w	r3, r3, sl
  40678a:	44d1      	add	r9, sl
  40678c:	eba7 070a 	sub.w	r7, r7, sl
  406790:	6093      	str	r3, [r2, #8]
  406792:	2b00      	cmp	r3, #0
  406794:	d0c5      	beq.n	406722 <__sfvwrite_r+0x5e>
  406796:	89a3      	ldrh	r3, [r4, #12]
  406798:	2f00      	cmp	r7, #0
  40679a:	d1d8      	bne.n	40674e <__sfvwrite_r+0x8a>
  40679c:	f8d5 9000 	ldr.w	r9, [r5]
  4067a0:	686f      	ldr	r7, [r5, #4]
  4067a2:	3508      	adds	r5, #8
  4067a4:	e7d2      	b.n	40674c <__sfvwrite_r+0x88>
  4067a6:	f8d5 9000 	ldr.w	r9, [r5]
  4067aa:	f8d5 8004 	ldr.w	r8, [r5, #4]
  4067ae:	3508      	adds	r5, #8
  4067b0:	e79f      	b.n	4066f2 <__sfvwrite_r+0x2e>
  4067b2:	2000      	movs	r0, #0
  4067b4:	4770      	bx	lr
  4067b6:	4621      	mov	r1, r4
  4067b8:	9800      	ldr	r0, [sp, #0]
  4067ba:	f7ff fd1f 	bl	4061fc <_fflush_r>
  4067be:	b370      	cbz	r0, 40681e <__sfvwrite_r+0x15a>
  4067c0:	f9b4 300c 	ldrsh.w	r3, [r4, #12]
  4067c4:	f043 0340 	orr.w	r3, r3, #64	; 0x40
  4067c8:	f04f 30ff 	mov.w	r0, #4294967295
  4067cc:	81a3      	strh	r3, [r4, #12]
  4067ce:	b003      	add	sp, #12
  4067d0:	e8bd 8ff0 	ldmia.w	sp!, {r4, r5, r6, r7, r8, r9, sl, fp, pc}
  4067d4:	4681      	mov	r9, r0
  4067d6:	4633      	mov	r3, r6
  4067d8:	464e      	mov	r6, r9
  4067da:	46a8      	mov	r8, r5
  4067dc:	469a      	mov	sl, r3
  4067de:	464d      	mov	r5, r9
  4067e0:	b34e      	cbz	r6, 406836 <__sfvwrite_r+0x172>
  4067e2:	b380      	cbz	r0, 406846 <__sfvwrite_r+0x182>
  4067e4:	6820      	ldr	r0, [r4, #0]
  4067e6:	6923      	ldr	r3, [r4, #16]
  4067e8:	6962      	ldr	r2, [r4, #20]
  4067ea:	45b1      	cmp	r9, r6
  4067ec:	46cb      	mov	fp, r9
  4067ee:	bf28      	it	cs
  4067f0:	46b3      	movcs	fp, r6
  4067f2:	4298      	cmp	r0, r3
  4067f4:	465f      	mov	r7, fp
  4067f6:	d904      	bls.n	406802 <__sfvwrite_r+0x13e>
  4067f8:	68a3      	ldr	r3, [r4, #8]
  4067fa:	4413      	add	r3, r2
  4067fc:	459b      	cmp	fp, r3
  4067fe:	f300 80a6 	bgt.w	40694e <__sfvwrite_r+0x28a>
  406802:	4593      	cmp	fp, r2
  406804:	db4b      	blt.n	40689e <__sfvwrite_r+0x1da>
  406806:	4613      	mov	r3, r2
  406808:	6a67      	ldr	r7, [r4, #36]	; 0x24
  40680a:	69e1      	ldr	r1, [r4, #28]
  40680c:	9800      	ldr	r0, [sp, #0]
  40680e:	462a      	mov	r2, r5
  406810:	47b8      	blx	r7
  406812:	1e07      	subs	r7, r0, #0
  406814:	ddd4      	ble.n	4067c0 <__sfvwrite_r+0xfc>
  406816:	ebb9 0907 	subs.w	r9, r9, r7
  40681a:	d0cc      	beq.n	4067b6 <__sfvwrite_r+0xf2>
  40681c:	2001      	movs	r0, #1
  40681e:	f8da 3008 	ldr.w	r3, [sl, #8]
  406822:	1bdb      	subs	r3, r3, r7
  406824:	443d      	add	r5, r7
  406826:	1bf6      	subs	r6, r6, r7
  406828:	f8ca 3008 	str.w	r3, [sl, #8]
  40682c:	2b00      	cmp	r3, #0
  40682e:	f43f af78 	beq.w	406722 <__sfvwrite_r+0x5e>
  406832:	2e00      	cmp	r6, #0
  406834:	d1d5      	bne.n	4067e2 <__sfvwrite_r+0x11e>
  406836:	f108 0308 	add.w	r3, r8, #8
  40683a:	e913 0060 	ldmdb	r3, {r5, r6}
  40683e:	4698      	mov	r8, r3
  406840:	3308      	adds	r3, #8
  406842:	2e00      	cmp	r6, #0
  406844:	d0f9      	beq.n	40683a <__sfvwrite_r+0x176>
  406846:	4632      	mov	r2, r6
  406848:	210a      	movs	r1, #10
  40684a:	4628      	mov	r0, r5
  40684c:	f000 f990 	bl	406b70 <memchr>
  406850:	2800      	cmp	r0, #0
  406852:	f000 80a1 	beq.w	406998 <__sfvwrite_r+0x2d4>
  406856:	3001      	adds	r0, #1
  406858:	eba0 0905 	sub.w	r9, r0, r5
  40685c:	e7c2      	b.n	4067e4 <__sfvwrite_r+0x120>
  40685e:	6820      	ldr	r0, [r4, #0]
  406860:	6923      	ldr	r3, [r4, #16]
  406862:	4298      	cmp	r0, r3
  406864:	d802      	bhi.n	40686c <__sfvwrite_r+0x1a8>
  406866:	6963      	ldr	r3, [r4, #20]
  406868:	429f      	cmp	r7, r3
  40686a:	d25d      	bcs.n	406928 <__sfvwrite_r+0x264>
  40686c:	45b8      	cmp	r8, r7
  40686e:	bf28      	it	cs
  406870:	46b8      	movcs	r8, r7
  406872:	4642      	mov	r2, r8
  406874:	4649      	mov	r1, r9
  406876:	f000 f9cb 	bl	406c10 <memmove>
  40687a:	68a3      	ldr	r3, [r4, #8]
  40687c:	6822      	ldr	r2, [r4, #0]
  40687e:	eba3 0308 	sub.w	r3, r3, r8
  406882:	4442      	add	r2, r8
  406884:	60a3      	str	r3, [r4, #8]
  406886:	6022      	str	r2, [r4, #0]
  406888:	b10b      	cbz	r3, 40688e <__sfvwrite_r+0x1ca>
  40688a:	46c2      	mov	sl, r8
  40688c:	e779      	b.n	406782 <__sfvwrite_r+0xbe>
  40688e:	4621      	mov	r1, r4
  406890:	9800      	ldr	r0, [sp, #0]
  406892:	f7ff fcb3 	bl	4061fc <_fflush_r>
  406896:	2800      	cmp	r0, #0
  406898:	d192      	bne.n	4067c0 <__sfvwrite_r+0xfc>
  40689a:	46c2      	mov	sl, r8
  40689c:	e771      	b.n	406782 <__sfvwrite_r+0xbe>
  40689e:	465a      	mov	r2, fp
  4068a0:	4629      	mov	r1, r5
  4068a2:	f000 f9b5 	bl	406c10 <memmove>
  4068a6:	68a2      	ldr	r2, [r4, #8]
  4068a8:	6823      	ldr	r3, [r4, #0]
  4068aa:	eba2 020b 	sub.w	r2, r2, fp
  4068ae:	445b      	add	r3, fp
  4068b0:	60a2      	str	r2, [r4, #8]
  4068b2:	6023      	str	r3, [r4, #0]
  4068b4:	e7af      	b.n	406816 <__sfvwrite_r+0x152>
  4068b6:	6820      	ldr	r0, [r4, #0]
  4068b8:	46b8      	mov	r8, r7
  4068ba:	46ba      	mov	sl, r7
  4068bc:	46bb      	mov	fp, r7
  4068be:	e755      	b.n	40676c <__sfvwrite_r+0xa8>
  4068c0:	6962      	ldr	r2, [r4, #20]
  4068c2:	6820      	ldr	r0, [r4, #0]
  4068c4:	6921      	ldr	r1, [r4, #16]
  4068c6:	eb02 0842 	add.w	r8, r2, r2, lsl #1
  4068ca:	eba0 0a01 	sub.w	sl, r0, r1
  4068ce:	eb08 78d8 	add.w	r8, r8, r8, lsr #31
  4068d2:	f10a 0001 	add.w	r0, sl, #1
  4068d6:	ea4f 0868 	mov.w	r8, r8, asr #1
  4068da:	4438      	add	r0, r7
  4068dc:	4540      	cmp	r0, r8
  4068de:	4642      	mov	r2, r8
  4068e0:	bf84      	itt	hi
  4068e2:	4680      	movhi	r8, r0
  4068e4:	4642      	movhi	r2, r8
  4068e6:	055b      	lsls	r3, r3, #21
  4068e8:	d544      	bpl.n	406974 <__sfvwrite_r+0x2b0>
  4068ea:	4611      	mov	r1, r2
  4068ec:	9800      	ldr	r0, [sp, #0]
  4068ee:	f7fb fd55 	bl	40239c <_malloc_r>
  4068f2:	4683      	mov	fp, r0
  4068f4:	2800      	cmp	r0, #0
  4068f6:	d055      	beq.n	4069a4 <__sfvwrite_r+0x2e0>
  4068f8:	4652      	mov	r2, sl
  4068fa:	6921      	ldr	r1, [r4, #16]
  4068fc:	f7fb fffe 	bl	4028fc <memcpy>
  406900:	89a3      	ldrh	r3, [r4, #12]
  406902:	f423 6390 	bic.w	r3, r3, #1152	; 0x480
  406906:	f043 0380 	orr.w	r3, r3, #128	; 0x80
  40690a:	81a3      	strh	r3, [r4, #12]
  40690c:	eb0b 000a 	add.w	r0, fp, sl
  406910:	eba8 030a 	sub.w	r3, r8, sl
  406914:	f8c4 b010 	str.w	fp, [r4, #16]
  406918:	f8c4 8014 	str.w	r8, [r4, #20]
  40691c:	6020      	str	r0, [r4, #0]
  40691e:	60a3      	str	r3, [r4, #8]
  406920:	46b8      	mov	r8, r7
  406922:	46ba      	mov	sl, r7
  406924:	46bb      	mov	fp, r7
  406926:	e721      	b.n	40676c <__sfvwrite_r+0xa8>
  406928:	f06f 4100 	mvn.w	r1, #2147483648	; 0x80000000
  40692c:	42b9      	cmp	r1, r7
  40692e:	bf28      	it	cs
  406930:	4639      	movcs	r1, r7
  406932:	464a      	mov	r2, r9
  406934:	fb91 f1f3 	sdiv	r1, r1, r3
  406938:	9800      	ldr	r0, [sp, #0]
  40693a:	6a66      	ldr	r6, [r4, #36]	; 0x24
  40693c:	fb03 f301 	mul.w	r3, r3, r1
  406940:	69e1      	ldr	r1, [r4, #28]
  406942:	47b0      	blx	r6
  406944:	f1b0 0a00 	subs.w	sl, r0, #0
  406948:	f73f af1b 	bgt.w	406782 <__sfvwrite_r+0xbe>
  40694c:	e738      	b.n	4067c0 <__sfvwrite_r+0xfc>
  40694e:	461a      	mov	r2, r3
  406950:	4629      	mov	r1, r5
  406952:	9301      	str	r3, [sp, #4]
  406954:	f000 f95c 	bl	406c10 <memmove>
  406958:	6822      	ldr	r2, [r4, #0]
  40695a:	9b01      	ldr	r3, [sp, #4]
  40695c:	9800      	ldr	r0, [sp, #0]
  40695e:	441a      	add	r2, r3
  406960:	6022      	str	r2, [r4, #0]
  406962:	4621      	mov	r1, r4
  406964:	f7ff fc4a 	bl	4061fc <_fflush_r>
  406968:	9b01      	ldr	r3, [sp, #4]
  40696a:	2800      	cmp	r0, #0
  40696c:	f47f af28 	bne.w	4067c0 <__sfvwrite_r+0xfc>
  406970:	461f      	mov	r7, r3
  406972:	e750      	b.n	406816 <__sfvwrite_r+0x152>
  406974:	9800      	ldr	r0, [sp, #0]
  406976:	f000 fca9 	bl	4072cc <_realloc_r>
  40697a:	4683      	mov	fp, r0
  40697c:	2800      	cmp	r0, #0
  40697e:	d1c5      	bne.n	40690c <__sfvwrite_r+0x248>
  406980:	9d00      	ldr	r5, [sp, #0]
  406982:	6921      	ldr	r1, [r4, #16]
  406984:	4628      	mov	r0, r5
  406986:	f7ff fdb7 	bl	4064f8 <_free_r>
  40698a:	f9b4 300c 	ldrsh.w	r3, [r4, #12]
  40698e:	220c      	movs	r2, #12
  406990:	f023 0380 	bic.w	r3, r3, #128	; 0x80
  406994:	602a      	str	r2, [r5, #0]
  406996:	e715      	b.n	4067c4 <__sfvwrite_r+0x100>
  406998:	f106 0901 	add.w	r9, r6, #1
  40699c:	e722      	b.n	4067e4 <__sfvwrite_r+0x120>
  40699e:	f04f 30ff 	mov.w	r0, #4294967295
  4069a2:	e6bf      	b.n	406724 <__sfvwrite_r+0x60>
  4069a4:	9a00      	ldr	r2, [sp, #0]
  4069a6:	230c      	movs	r3, #12
  4069a8:	6013      	str	r3, [r2, #0]
  4069aa:	f9b4 300c 	ldrsh.w	r3, [r4, #12]
  4069ae:	e709      	b.n	4067c4 <__sfvwrite_r+0x100>
  4069b0:	7ffffc00 	.word	0x7ffffc00

004069b4 <_fwalk_reent>:
  4069b4:	e92d 43f8 	stmdb	sp!, {r3, r4, r5, r6, r7, r8, r9, lr}
  4069b8:	f510 7738 	adds.w	r7, r0, #736	; 0x2e0
  4069bc:	d01f      	beq.n	4069fe <_fwalk_reent+0x4a>
  4069be:	4688      	mov	r8, r1
  4069c0:	4606      	mov	r6, r0
  4069c2:	f04f 0900 	mov.w	r9, #0
  4069c6:	687d      	ldr	r5, [r7, #4]
  4069c8:	68bc      	ldr	r4, [r7, #8]
  4069ca:	3d01      	subs	r5, #1
  4069cc:	d411      	bmi.n	4069f2 <_fwalk_reent+0x3e>
  4069ce:	89a3      	ldrh	r3, [r4, #12]
  4069d0:	2b01      	cmp	r3, #1
  4069d2:	f105 35ff 	add.w	r5, r5, #4294967295
  4069d6:	d908      	bls.n	4069ea <_fwalk_reent+0x36>
  4069d8:	f9b4 300e 	ldrsh.w	r3, [r4, #14]
  4069dc:	3301      	adds	r3, #1
  4069de:	4621      	mov	r1, r4
  4069e0:	4630      	mov	r0, r6
  4069e2:	d002      	beq.n	4069ea <_fwalk_reent+0x36>
  4069e4:	47c0      	blx	r8
  4069e6:	ea49 0900 	orr.w	r9, r9, r0
  4069ea:	1c6b      	adds	r3, r5, #1
  4069ec:	f104 0468 	add.w	r4, r4, #104	; 0x68
  4069f0:	d1ed      	bne.n	4069ce <_fwalk_reent+0x1a>
  4069f2:	683f      	ldr	r7, [r7, #0]
  4069f4:	2f00      	cmp	r7, #0
  4069f6:	d1e6      	bne.n	4069c6 <_fwalk_reent+0x12>
  4069f8:	4648      	mov	r0, r9
  4069fa:	e8bd 83f8 	ldmia.w	sp!, {r3, r4, r5, r6, r7, r8, r9, pc}
  4069fe:	46b9      	mov	r9, r7
  406a00:	4648      	mov	r0, r9
  406a02:	e8bd 83f8 	ldmia.w	sp!, {r3, r4, r5, r6, r7, r8, r9, pc}
  406a06:	bf00      	nop

00406a08 <__locale_mb_cur_max>:
  406a08:	4b04      	ldr	r3, [pc, #16]	; (406a1c <__locale_mb_cur_max+0x14>)
  406a0a:	4a05      	ldr	r2, [pc, #20]	; (406a20 <__locale_mb_cur_max+0x18>)
  406a0c:	681b      	ldr	r3, [r3, #0]
  406a0e:	6b5b      	ldr	r3, [r3, #52]	; 0x34
  406a10:	2b00      	cmp	r3, #0
  406a12:	bf08      	it	eq
  406a14:	4613      	moveq	r3, r2
  406a16:	f893 0128 	ldrb.w	r0, [r3, #296]	; 0x128
  406a1a:	4770      	bx	lr
  406a1c:	20400068 	.word	0x20400068
  406a20:	204008ac 	.word	0x204008ac

00406a24 <_localeconv_r>:
  406a24:	4a04      	ldr	r2, [pc, #16]	; (406a38 <_localeconv_r+0x14>)
  406a26:	4b05      	ldr	r3, [pc, #20]	; (406a3c <_localeconv_r+0x18>)
  406a28:	6812      	ldr	r2, [r2, #0]
  406a2a:	6b50      	ldr	r0, [r2, #52]	; 0x34
  406a2c:	2800      	cmp	r0, #0
  406a2e:	bf08      	it	eq
  406a30:	4618      	moveq	r0, r3
  406a32:	30f0      	adds	r0, #240	; 0xf0
  406a34:	4770      	bx	lr
  406a36:	bf00      	nop
  406a38:	20400068 	.word	0x20400068
  406a3c:	204008ac 	.word	0x204008ac

00406a40 <__retarget_lock_init_recursive>:
  406a40:	4770      	bx	lr
  406a42:	bf00      	nop

00406a44 <__retarget_lock_close_recursive>:
  406a44:	4770      	bx	lr
  406a46:	bf00      	nop

00406a48 <__retarget_lock_acquire_recursive>:
  406a48:	4770      	bx	lr
  406a4a:	bf00      	nop

00406a4c <__retarget_lock_release_recursive>:
  406a4c:	4770      	bx	lr
  406a4e:	bf00      	nop

00406a50 <__swhatbuf_r>:
  406a50:	b570      	push	{r4, r5, r6, lr}
  406a52:	460c      	mov	r4, r1
  406a54:	f9b1 100e 	ldrsh.w	r1, [r1, #14]
  406a58:	2900      	cmp	r1, #0
  406a5a:	b090      	sub	sp, #64	; 0x40
  406a5c:	4615      	mov	r5, r2
  406a5e:	461e      	mov	r6, r3
  406a60:	db14      	blt.n	406a8c <__swhatbuf_r+0x3c>
  406a62:	aa01      	add	r2, sp, #4
  406a64:	f001 f886 	bl	407b74 <_fstat_r>
  406a68:	2800      	cmp	r0, #0
  406a6a:	db0f      	blt.n	406a8c <__swhatbuf_r+0x3c>
  406a6c:	9a02      	ldr	r2, [sp, #8]
  406a6e:	f402 4270 	and.w	r2, r2, #61440	; 0xf000
  406a72:	f5a2 5200 	sub.w	r2, r2, #8192	; 0x2000
  406a76:	fab2 f282 	clz	r2, r2
  406a7a:	0952      	lsrs	r2, r2, #5
  406a7c:	f44f 6380 	mov.w	r3, #1024	; 0x400
  406a80:	f44f 6000 	mov.w	r0, #2048	; 0x800
  406a84:	6032      	str	r2, [r6, #0]
  406a86:	602b      	str	r3, [r5, #0]
  406a88:	b010      	add	sp, #64	; 0x40
  406a8a:	bd70      	pop	{r4, r5, r6, pc}
  406a8c:	89a2      	ldrh	r2, [r4, #12]
  406a8e:	2300      	movs	r3, #0
  406a90:	f012 0080 	ands.w	r0, r2, #128	; 0x80
  406a94:	6033      	str	r3, [r6, #0]
  406a96:	d004      	beq.n	406aa2 <__swhatbuf_r+0x52>
  406a98:	2240      	movs	r2, #64	; 0x40
  406a9a:	4618      	mov	r0, r3
  406a9c:	602a      	str	r2, [r5, #0]
  406a9e:	b010      	add	sp, #64	; 0x40
  406aa0:	bd70      	pop	{r4, r5, r6, pc}
  406aa2:	f44f 6380 	mov.w	r3, #1024	; 0x400
  406aa6:	602b      	str	r3, [r5, #0]
  406aa8:	b010      	add	sp, #64	; 0x40
  406aaa:	bd70      	pop	{r4, r5, r6, pc}

00406aac <__smakebuf_r>:
  406aac:	898a      	ldrh	r2, [r1, #12]
  406aae:	0792      	lsls	r2, r2, #30
  406ab0:	460b      	mov	r3, r1
  406ab2:	d506      	bpl.n	406ac2 <__smakebuf_r+0x16>
  406ab4:	f101 0243 	add.w	r2, r1, #67	; 0x43
  406ab8:	2101      	movs	r1, #1
  406aba:	601a      	str	r2, [r3, #0]
  406abc:	611a      	str	r2, [r3, #16]
  406abe:	6159      	str	r1, [r3, #20]
  406ac0:	4770      	bx	lr
  406ac2:	b5f0      	push	{r4, r5, r6, r7, lr}
  406ac4:	b083      	sub	sp, #12
  406ac6:	ab01      	add	r3, sp, #4
  406ac8:	466a      	mov	r2, sp
  406aca:	460c      	mov	r4, r1
  406acc:	4606      	mov	r6, r0
  406ace:	f7ff ffbf 	bl	406a50 <__swhatbuf_r>
  406ad2:	9900      	ldr	r1, [sp, #0]
  406ad4:	4605      	mov	r5, r0
  406ad6:	4630      	mov	r0, r6
  406ad8:	f7fb fc60 	bl	40239c <_malloc_r>
  406adc:	f9b4 300c 	ldrsh.w	r3, [r4, #12]
  406ae0:	b1d8      	cbz	r0, 406b1a <__smakebuf_r+0x6e>
  406ae2:	9a01      	ldr	r2, [sp, #4]
  406ae4:	4f15      	ldr	r7, [pc, #84]	; (406b3c <__smakebuf_r+0x90>)
  406ae6:	9900      	ldr	r1, [sp, #0]
  406ae8:	63f7      	str	r7, [r6, #60]	; 0x3c
  406aea:	f043 0380 	orr.w	r3, r3, #128	; 0x80
  406aee:	81a3      	strh	r3, [r4, #12]
  406af0:	6020      	str	r0, [r4, #0]
  406af2:	6120      	str	r0, [r4, #16]
  406af4:	6161      	str	r1, [r4, #20]
  406af6:	b91a      	cbnz	r2, 406b00 <__smakebuf_r+0x54>
  406af8:	432b      	orrs	r3, r5
  406afa:	81a3      	strh	r3, [r4, #12]
  406afc:	b003      	add	sp, #12
  406afe:	bdf0      	pop	{r4, r5, r6, r7, pc}
  406b00:	4630      	mov	r0, r6
  406b02:	f9b4 100e 	ldrsh.w	r1, [r4, #14]
  406b06:	f001 f849 	bl	407b9c <_isatty_r>
  406b0a:	b1a0      	cbz	r0, 406b36 <__smakebuf_r+0x8a>
  406b0c:	89a3      	ldrh	r3, [r4, #12]
  406b0e:	f023 0303 	bic.w	r3, r3, #3
  406b12:	f043 0301 	orr.w	r3, r3, #1
  406b16:	b21b      	sxth	r3, r3
  406b18:	e7ee      	b.n	406af8 <__smakebuf_r+0x4c>
  406b1a:	059a      	lsls	r2, r3, #22
  406b1c:	d4ee      	bmi.n	406afc <__smakebuf_r+0x50>
  406b1e:	f023 0303 	bic.w	r3, r3, #3
  406b22:	f104 0243 	add.w	r2, r4, #67	; 0x43
  406b26:	f043 0302 	orr.w	r3, r3, #2
  406b2a:	2101      	movs	r1, #1
  406b2c:	81a3      	strh	r3, [r4, #12]
  406b2e:	6022      	str	r2, [r4, #0]
  406b30:	6122      	str	r2, [r4, #16]
  406b32:	6161      	str	r1, [r4, #20]
  406b34:	e7e2      	b.n	406afc <__smakebuf_r+0x50>
  406b36:	f9b4 300c 	ldrsh.w	r3, [r4, #12]
  406b3a:	e7dd      	b.n	406af8 <__smakebuf_r+0x4c>
  406b3c:	00406251 	.word	0x00406251

00406b40 <__ascii_mbtowc>:
  406b40:	b082      	sub	sp, #8
  406b42:	b149      	cbz	r1, 406b58 <__ascii_mbtowc+0x18>
  406b44:	b15a      	cbz	r2, 406b5e <__ascii_mbtowc+0x1e>
  406b46:	b16b      	cbz	r3, 406b64 <__ascii_mbtowc+0x24>
  406b48:	7813      	ldrb	r3, [r2, #0]
  406b4a:	600b      	str	r3, [r1, #0]
  406b4c:	7812      	ldrb	r2, [r2, #0]
  406b4e:	1c10      	adds	r0, r2, #0
  406b50:	bf18      	it	ne
  406b52:	2001      	movne	r0, #1
  406b54:	b002      	add	sp, #8
  406b56:	4770      	bx	lr
  406b58:	a901      	add	r1, sp, #4
  406b5a:	2a00      	cmp	r2, #0
  406b5c:	d1f3      	bne.n	406b46 <__ascii_mbtowc+0x6>
  406b5e:	4610      	mov	r0, r2
  406b60:	b002      	add	sp, #8
  406b62:	4770      	bx	lr
  406b64:	f06f 0001 	mvn.w	r0, #1
  406b68:	e7f4      	b.n	406b54 <__ascii_mbtowc+0x14>
  406b6a:	bf00      	nop
  406b6c:	0000      	movs	r0, r0
	...

00406b70 <memchr>:
  406b70:	f001 01ff 	and.w	r1, r1, #255	; 0xff
  406b74:	2a10      	cmp	r2, #16
  406b76:	db2b      	blt.n	406bd0 <memchr+0x60>
  406b78:	f010 0f07 	tst.w	r0, #7
  406b7c:	d008      	beq.n	406b90 <memchr+0x20>
  406b7e:	f810 3b01 	ldrb.w	r3, [r0], #1
  406b82:	3a01      	subs	r2, #1
  406b84:	428b      	cmp	r3, r1
  406b86:	d02d      	beq.n	406be4 <memchr+0x74>
  406b88:	f010 0f07 	tst.w	r0, #7
  406b8c:	b342      	cbz	r2, 406be0 <memchr+0x70>
  406b8e:	d1f6      	bne.n	406b7e <memchr+0xe>
  406b90:	b4f0      	push	{r4, r5, r6, r7}
  406b92:	ea41 2101 	orr.w	r1, r1, r1, lsl #8
  406b96:	ea41 4101 	orr.w	r1, r1, r1, lsl #16
  406b9a:	f022 0407 	bic.w	r4, r2, #7
  406b9e:	f07f 0700 	mvns.w	r7, #0
  406ba2:	2300      	movs	r3, #0
  406ba4:	e8f0 5602 	ldrd	r5, r6, [r0], #8
  406ba8:	3c08      	subs	r4, #8
  406baa:	ea85 0501 	eor.w	r5, r5, r1
  406bae:	ea86 0601 	eor.w	r6, r6, r1
  406bb2:	fa85 f547 	uadd8	r5, r5, r7
  406bb6:	faa3 f587 	sel	r5, r3, r7
  406bba:	fa86 f647 	uadd8	r6, r6, r7
  406bbe:	faa5 f687 	sel	r6, r5, r7
  406bc2:	b98e      	cbnz	r6, 406be8 <memchr+0x78>
  406bc4:	d1ee      	bne.n	406ba4 <memchr+0x34>
  406bc6:	bcf0      	pop	{r4, r5, r6, r7}
  406bc8:	f001 01ff 	and.w	r1, r1, #255	; 0xff
  406bcc:	f002 0207 	and.w	r2, r2, #7
  406bd0:	b132      	cbz	r2, 406be0 <memchr+0x70>
  406bd2:	f810 3b01 	ldrb.w	r3, [r0], #1
  406bd6:	3a01      	subs	r2, #1
  406bd8:	ea83 0301 	eor.w	r3, r3, r1
  406bdc:	b113      	cbz	r3, 406be4 <memchr+0x74>
  406bde:	d1f8      	bne.n	406bd2 <memchr+0x62>
  406be0:	2000      	movs	r0, #0
  406be2:	4770      	bx	lr
  406be4:	3801      	subs	r0, #1
  406be6:	4770      	bx	lr
  406be8:	2d00      	cmp	r5, #0
  406bea:	bf06      	itte	eq
  406bec:	4635      	moveq	r5, r6
  406bee:	3803      	subeq	r0, #3
  406bf0:	3807      	subne	r0, #7
  406bf2:	f015 0f01 	tst.w	r5, #1
  406bf6:	d107      	bne.n	406c08 <memchr+0x98>
  406bf8:	3001      	adds	r0, #1
  406bfa:	f415 7f80 	tst.w	r5, #256	; 0x100
  406bfe:	bf02      	ittt	eq
  406c00:	3001      	addeq	r0, #1
  406c02:	f415 3fc0 	tsteq.w	r5, #98304	; 0x18000
  406c06:	3001      	addeq	r0, #1
  406c08:	bcf0      	pop	{r4, r5, r6, r7}
  406c0a:	3801      	subs	r0, #1
  406c0c:	4770      	bx	lr
  406c0e:	bf00      	nop

00406c10 <memmove>:
  406c10:	4288      	cmp	r0, r1
  406c12:	b5f0      	push	{r4, r5, r6, r7, lr}
  406c14:	d90d      	bls.n	406c32 <memmove+0x22>
  406c16:	188b      	adds	r3, r1, r2
  406c18:	4298      	cmp	r0, r3
  406c1a:	d20a      	bcs.n	406c32 <memmove+0x22>
  406c1c:	1884      	adds	r4, r0, r2
  406c1e:	2a00      	cmp	r2, #0
  406c20:	d051      	beq.n	406cc6 <memmove+0xb6>
  406c22:	4622      	mov	r2, r4
  406c24:	f813 4d01 	ldrb.w	r4, [r3, #-1]!
  406c28:	f802 4d01 	strb.w	r4, [r2, #-1]!
  406c2c:	4299      	cmp	r1, r3
  406c2e:	d1f9      	bne.n	406c24 <memmove+0x14>
  406c30:	bdf0      	pop	{r4, r5, r6, r7, pc}
  406c32:	2a0f      	cmp	r2, #15
  406c34:	d948      	bls.n	406cc8 <memmove+0xb8>
  406c36:	ea41 0300 	orr.w	r3, r1, r0
  406c3a:	079b      	lsls	r3, r3, #30
  406c3c:	d146      	bne.n	406ccc <memmove+0xbc>
  406c3e:	f100 0410 	add.w	r4, r0, #16
  406c42:	f101 0310 	add.w	r3, r1, #16
  406c46:	4615      	mov	r5, r2
  406c48:	f853 6c10 	ldr.w	r6, [r3, #-16]
  406c4c:	f844 6c10 	str.w	r6, [r4, #-16]
  406c50:	f853 6c0c 	ldr.w	r6, [r3, #-12]
  406c54:	f844 6c0c 	str.w	r6, [r4, #-12]
  406c58:	f853 6c08 	ldr.w	r6, [r3, #-8]
  406c5c:	f844 6c08 	str.w	r6, [r4, #-8]
  406c60:	3d10      	subs	r5, #16
  406c62:	f853 6c04 	ldr.w	r6, [r3, #-4]
  406c66:	f844 6c04 	str.w	r6, [r4, #-4]
  406c6a:	2d0f      	cmp	r5, #15
  406c6c:	f103 0310 	add.w	r3, r3, #16
  406c70:	f104 0410 	add.w	r4, r4, #16
  406c74:	d8e8      	bhi.n	406c48 <memmove+0x38>
  406c76:	f1a2 0310 	sub.w	r3, r2, #16
  406c7a:	f023 030f 	bic.w	r3, r3, #15
  406c7e:	f002 0e0f 	and.w	lr, r2, #15
  406c82:	3310      	adds	r3, #16
  406c84:	f1be 0f03 	cmp.w	lr, #3
  406c88:	4419      	add	r1, r3
  406c8a:	4403      	add	r3, r0
  406c8c:	d921      	bls.n	406cd2 <memmove+0xc2>
  406c8e:	1f1e      	subs	r6, r3, #4
  406c90:	460d      	mov	r5, r1
  406c92:	4674      	mov	r4, lr
  406c94:	3c04      	subs	r4, #4
  406c96:	f855 7b04 	ldr.w	r7, [r5], #4
  406c9a:	f846 7f04 	str.w	r7, [r6, #4]!
  406c9e:	2c03      	cmp	r4, #3
  406ca0:	d8f8      	bhi.n	406c94 <memmove+0x84>
  406ca2:	f1ae 0404 	sub.w	r4, lr, #4
  406ca6:	f024 0403 	bic.w	r4, r4, #3
  406caa:	3404      	adds	r4, #4
  406cac:	4421      	add	r1, r4
  406cae:	4423      	add	r3, r4
  406cb0:	f002 0203 	and.w	r2, r2, #3
  406cb4:	b162      	cbz	r2, 406cd0 <memmove+0xc0>
  406cb6:	3b01      	subs	r3, #1
  406cb8:	440a      	add	r2, r1
  406cba:	f811 4b01 	ldrb.w	r4, [r1], #1
  406cbe:	f803 4f01 	strb.w	r4, [r3, #1]!
  406cc2:	428a      	cmp	r2, r1
  406cc4:	d1f9      	bne.n	406cba <memmove+0xaa>
  406cc6:	bdf0      	pop	{r4, r5, r6, r7, pc}
  406cc8:	4603      	mov	r3, r0
  406cca:	e7f3      	b.n	406cb4 <memmove+0xa4>
  406ccc:	4603      	mov	r3, r0
  406cce:	e7f2      	b.n	406cb6 <memmove+0xa6>
  406cd0:	bdf0      	pop	{r4, r5, r6, r7, pc}
  406cd2:	4672      	mov	r2, lr
  406cd4:	e7ee      	b.n	406cb4 <memmove+0xa4>
  406cd6:	bf00      	nop

00406cd8 <_Balloc>:
  406cd8:	6cc3      	ldr	r3, [r0, #76]	; 0x4c
  406cda:	b570      	push	{r4, r5, r6, lr}
  406cdc:	4605      	mov	r5, r0
  406cde:	460c      	mov	r4, r1
  406ce0:	b14b      	cbz	r3, 406cf6 <_Balloc+0x1e>
  406ce2:	f853 0024 	ldr.w	r0, [r3, r4, lsl #2]
  406ce6:	b180      	cbz	r0, 406d0a <_Balloc+0x32>
  406ce8:	6802      	ldr	r2, [r0, #0]
  406cea:	f843 2024 	str.w	r2, [r3, r4, lsl #2]
  406cee:	2300      	movs	r3, #0
  406cf0:	6103      	str	r3, [r0, #16]
  406cf2:	60c3      	str	r3, [r0, #12]
  406cf4:	bd70      	pop	{r4, r5, r6, pc}
  406cf6:	2221      	movs	r2, #33	; 0x21
  406cf8:	2104      	movs	r1, #4
  406cfa:	f000 fe97 	bl	407a2c <_calloc_r>
  406cfe:	64e8      	str	r0, [r5, #76]	; 0x4c
  406d00:	4603      	mov	r3, r0
  406d02:	2800      	cmp	r0, #0
  406d04:	d1ed      	bne.n	406ce2 <_Balloc+0xa>
  406d06:	2000      	movs	r0, #0
  406d08:	bd70      	pop	{r4, r5, r6, pc}
  406d0a:	2101      	movs	r1, #1
  406d0c:	fa01 f604 	lsl.w	r6, r1, r4
  406d10:	1d72      	adds	r2, r6, #5
  406d12:	4628      	mov	r0, r5
  406d14:	0092      	lsls	r2, r2, #2
  406d16:	f000 fe89 	bl	407a2c <_calloc_r>
  406d1a:	2800      	cmp	r0, #0
  406d1c:	d0f3      	beq.n	406d06 <_Balloc+0x2e>
  406d1e:	6044      	str	r4, [r0, #4]
  406d20:	6086      	str	r6, [r0, #8]
  406d22:	e7e4      	b.n	406cee <_Balloc+0x16>

00406d24 <_Bfree>:
  406d24:	b131      	cbz	r1, 406d34 <_Bfree+0x10>
  406d26:	6cc3      	ldr	r3, [r0, #76]	; 0x4c
  406d28:	684a      	ldr	r2, [r1, #4]
  406d2a:	f853 0022 	ldr.w	r0, [r3, r2, lsl #2]
  406d2e:	6008      	str	r0, [r1, #0]
  406d30:	f843 1022 	str.w	r1, [r3, r2, lsl #2]
  406d34:	4770      	bx	lr
  406d36:	bf00      	nop

00406d38 <__multadd>:
  406d38:	b5f0      	push	{r4, r5, r6, r7, lr}
  406d3a:	690c      	ldr	r4, [r1, #16]
  406d3c:	b083      	sub	sp, #12
  406d3e:	460d      	mov	r5, r1
  406d40:	4606      	mov	r6, r0
  406d42:	f101 0e14 	add.w	lr, r1, #20
  406d46:	2700      	movs	r7, #0
  406d48:	f8de 0000 	ldr.w	r0, [lr]
  406d4c:	b281      	uxth	r1, r0
  406d4e:	fb02 3301 	mla	r3, r2, r1, r3
  406d52:	0c01      	lsrs	r1, r0, #16
  406d54:	0c18      	lsrs	r0, r3, #16
  406d56:	fb02 0101 	mla	r1, r2, r1, r0
  406d5a:	b29b      	uxth	r3, r3
  406d5c:	3701      	adds	r7, #1
  406d5e:	eb03 4301 	add.w	r3, r3, r1, lsl #16
  406d62:	42bc      	cmp	r4, r7
  406d64:	f84e 3b04 	str.w	r3, [lr], #4
  406d68:	ea4f 4311 	mov.w	r3, r1, lsr #16
  406d6c:	dcec      	bgt.n	406d48 <__multadd+0x10>
  406d6e:	b13b      	cbz	r3, 406d80 <__multadd+0x48>
  406d70:	68aa      	ldr	r2, [r5, #8]
  406d72:	4294      	cmp	r4, r2
  406d74:	da07      	bge.n	406d86 <__multadd+0x4e>
  406d76:	eb05 0284 	add.w	r2, r5, r4, lsl #2
  406d7a:	3401      	adds	r4, #1
  406d7c:	6153      	str	r3, [r2, #20]
  406d7e:	612c      	str	r4, [r5, #16]
  406d80:	4628      	mov	r0, r5
  406d82:	b003      	add	sp, #12
  406d84:	bdf0      	pop	{r4, r5, r6, r7, pc}
  406d86:	6869      	ldr	r1, [r5, #4]
  406d88:	9301      	str	r3, [sp, #4]
  406d8a:	3101      	adds	r1, #1
  406d8c:	4630      	mov	r0, r6
  406d8e:	f7ff ffa3 	bl	406cd8 <_Balloc>
  406d92:	692a      	ldr	r2, [r5, #16]
  406d94:	3202      	adds	r2, #2
  406d96:	f105 010c 	add.w	r1, r5, #12
  406d9a:	4607      	mov	r7, r0
  406d9c:	0092      	lsls	r2, r2, #2
  406d9e:	300c      	adds	r0, #12
  406da0:	f7fb fdac 	bl	4028fc <memcpy>
  406da4:	6cf2      	ldr	r2, [r6, #76]	; 0x4c
  406da6:	6869      	ldr	r1, [r5, #4]
  406da8:	9b01      	ldr	r3, [sp, #4]
  406daa:	f852 0021 	ldr.w	r0, [r2, r1, lsl #2]
  406dae:	6028      	str	r0, [r5, #0]
  406db0:	f842 5021 	str.w	r5, [r2, r1, lsl #2]
  406db4:	463d      	mov	r5, r7
  406db6:	e7de      	b.n	406d76 <__multadd+0x3e>

00406db8 <__hi0bits>:
  406db8:	0c02      	lsrs	r2, r0, #16
  406dba:	0412      	lsls	r2, r2, #16
  406dbc:	4603      	mov	r3, r0
  406dbe:	b9b2      	cbnz	r2, 406dee <__hi0bits+0x36>
  406dc0:	0403      	lsls	r3, r0, #16
  406dc2:	2010      	movs	r0, #16
  406dc4:	f013 4f7f 	tst.w	r3, #4278190080	; 0xff000000
  406dc8:	bf04      	itt	eq
  406dca:	021b      	lsleq	r3, r3, #8
  406dcc:	3008      	addeq	r0, #8
  406dce:	f013 4f70 	tst.w	r3, #4026531840	; 0xf0000000
  406dd2:	bf04      	itt	eq
  406dd4:	011b      	lsleq	r3, r3, #4
  406dd6:	3004      	addeq	r0, #4
  406dd8:	f013 4f40 	tst.w	r3, #3221225472	; 0xc0000000
  406ddc:	bf04      	itt	eq
  406dde:	009b      	lsleq	r3, r3, #2
  406de0:	3002      	addeq	r0, #2
  406de2:	2b00      	cmp	r3, #0
  406de4:	db02      	blt.n	406dec <__hi0bits+0x34>
  406de6:	005b      	lsls	r3, r3, #1
  406de8:	d403      	bmi.n	406df2 <__hi0bits+0x3a>
  406dea:	2020      	movs	r0, #32
  406dec:	4770      	bx	lr
  406dee:	2000      	movs	r0, #0
  406df0:	e7e8      	b.n	406dc4 <__hi0bits+0xc>
  406df2:	3001      	adds	r0, #1
  406df4:	4770      	bx	lr
  406df6:	bf00      	nop

00406df8 <__lo0bits>:
  406df8:	6803      	ldr	r3, [r0, #0]
  406dfa:	f013 0207 	ands.w	r2, r3, #7
  406dfe:	4601      	mov	r1, r0
  406e00:	d007      	beq.n	406e12 <__lo0bits+0x1a>
  406e02:	07da      	lsls	r2, r3, #31
  406e04:	d421      	bmi.n	406e4a <__lo0bits+0x52>
  406e06:	0798      	lsls	r0, r3, #30
  406e08:	d421      	bmi.n	406e4e <__lo0bits+0x56>
  406e0a:	089b      	lsrs	r3, r3, #2
  406e0c:	600b      	str	r3, [r1, #0]
  406e0e:	2002      	movs	r0, #2
  406e10:	4770      	bx	lr
  406e12:	b298      	uxth	r0, r3
  406e14:	b198      	cbz	r0, 406e3e <__lo0bits+0x46>
  406e16:	4610      	mov	r0, r2
  406e18:	f013 0fff 	tst.w	r3, #255	; 0xff
  406e1c:	bf04      	itt	eq
  406e1e:	0a1b      	lsreq	r3, r3, #8
  406e20:	3008      	addeq	r0, #8
  406e22:	071a      	lsls	r2, r3, #28
  406e24:	bf04      	itt	eq
  406e26:	091b      	lsreq	r3, r3, #4
  406e28:	3004      	addeq	r0, #4
  406e2a:	079a      	lsls	r2, r3, #30
  406e2c:	bf04      	itt	eq
  406e2e:	089b      	lsreq	r3, r3, #2
  406e30:	3002      	addeq	r0, #2
  406e32:	07da      	lsls	r2, r3, #31
  406e34:	d407      	bmi.n	406e46 <__lo0bits+0x4e>
  406e36:	085b      	lsrs	r3, r3, #1
  406e38:	d104      	bne.n	406e44 <__lo0bits+0x4c>
  406e3a:	2020      	movs	r0, #32
  406e3c:	4770      	bx	lr
  406e3e:	0c1b      	lsrs	r3, r3, #16
  406e40:	2010      	movs	r0, #16
  406e42:	e7e9      	b.n	406e18 <__lo0bits+0x20>
  406e44:	3001      	adds	r0, #1
  406e46:	600b      	str	r3, [r1, #0]
  406e48:	4770      	bx	lr
  406e4a:	2000      	movs	r0, #0
  406e4c:	4770      	bx	lr
  406e4e:	085b      	lsrs	r3, r3, #1
  406e50:	600b      	str	r3, [r1, #0]
  406e52:	2001      	movs	r0, #1
  406e54:	4770      	bx	lr
  406e56:	bf00      	nop

00406e58 <__i2b>:
  406e58:	b510      	push	{r4, lr}
  406e5a:	460c      	mov	r4, r1
  406e5c:	2101      	movs	r1, #1
  406e5e:	f7ff ff3b 	bl	406cd8 <_Balloc>
  406e62:	2201      	movs	r2, #1
  406e64:	6144      	str	r4, [r0, #20]
  406e66:	6102      	str	r2, [r0, #16]
  406e68:	bd10      	pop	{r4, pc}
  406e6a:	bf00      	nop

00406e6c <__multiply>:
  406e6c:	e92d 4ff0 	stmdb	sp!, {r4, r5, r6, r7, r8, r9, sl, fp, lr}
  406e70:	690c      	ldr	r4, [r1, #16]
  406e72:	6915      	ldr	r5, [r2, #16]
  406e74:	42ac      	cmp	r4, r5
  406e76:	b083      	sub	sp, #12
  406e78:	468b      	mov	fp, r1
  406e7a:	4616      	mov	r6, r2
  406e7c:	da04      	bge.n	406e88 <__multiply+0x1c>
  406e7e:	4622      	mov	r2, r4
  406e80:	46b3      	mov	fp, r6
  406e82:	462c      	mov	r4, r5
  406e84:	460e      	mov	r6, r1
  406e86:	4615      	mov	r5, r2
  406e88:	f8db 3008 	ldr.w	r3, [fp, #8]
  406e8c:	f8db 1004 	ldr.w	r1, [fp, #4]
  406e90:	eb04 0805 	add.w	r8, r4, r5
  406e94:	4598      	cmp	r8, r3
  406e96:	bfc8      	it	gt
  406e98:	3101      	addgt	r1, #1
  406e9a:	f7ff ff1d 	bl	406cd8 <_Balloc>
  406e9e:	f100 0914 	add.w	r9, r0, #20
  406ea2:	eb09 0a88 	add.w	sl, r9, r8, lsl #2
  406ea6:	45d1      	cmp	r9, sl
  406ea8:	9000      	str	r0, [sp, #0]
  406eaa:	d205      	bcs.n	406eb8 <__multiply+0x4c>
  406eac:	464b      	mov	r3, r9
  406eae:	2100      	movs	r1, #0
  406eb0:	f843 1b04 	str.w	r1, [r3], #4
  406eb4:	459a      	cmp	sl, r3
  406eb6:	d8fb      	bhi.n	406eb0 <__multiply+0x44>
  406eb8:	f106 0c14 	add.w	ip, r6, #20
  406ebc:	eb0c 0385 	add.w	r3, ip, r5, lsl #2
  406ec0:	f10b 0b14 	add.w	fp, fp, #20
  406ec4:	459c      	cmp	ip, r3
  406ec6:	eb0b 0e84 	add.w	lr, fp, r4, lsl #2
  406eca:	d24c      	bcs.n	406f66 <__multiply+0xfa>
  406ecc:	f8cd a004 	str.w	sl, [sp, #4]
  406ed0:	469a      	mov	sl, r3
  406ed2:	f8dc 5000 	ldr.w	r5, [ip]
  406ed6:	b2af      	uxth	r7, r5
  406ed8:	b1ef      	cbz	r7, 406f16 <__multiply+0xaa>
  406eda:	2100      	movs	r1, #0
  406edc:	464d      	mov	r5, r9
  406ede:	465e      	mov	r6, fp
  406ee0:	460c      	mov	r4, r1
  406ee2:	f856 2b04 	ldr.w	r2, [r6], #4
  406ee6:	6828      	ldr	r0, [r5, #0]
  406ee8:	b293      	uxth	r3, r2
  406eea:	b281      	uxth	r1, r0
  406eec:	fb07 1303 	mla	r3, r7, r3, r1
  406ef0:	0c12      	lsrs	r2, r2, #16
  406ef2:	0c01      	lsrs	r1, r0, #16
  406ef4:	4423      	add	r3, r4
  406ef6:	fb07 1102 	mla	r1, r7, r2, r1
  406efa:	eb01 4113 	add.w	r1, r1, r3, lsr #16
  406efe:	b29b      	uxth	r3, r3
  406f00:	ea43 4301 	orr.w	r3, r3, r1, lsl #16
  406f04:	45b6      	cmp	lr, r6
  406f06:	f845 3b04 	str.w	r3, [r5], #4
  406f0a:	ea4f 4411 	mov.w	r4, r1, lsr #16
  406f0e:	d8e8      	bhi.n	406ee2 <__multiply+0x76>
  406f10:	602c      	str	r4, [r5, #0]
  406f12:	f8dc 5000 	ldr.w	r5, [ip]
  406f16:	0c2d      	lsrs	r5, r5, #16
  406f18:	d01d      	beq.n	406f56 <__multiply+0xea>
  406f1a:	f8d9 3000 	ldr.w	r3, [r9]
  406f1e:	4648      	mov	r0, r9
  406f20:	461c      	mov	r4, r3
  406f22:	4659      	mov	r1, fp
  406f24:	2200      	movs	r2, #0
  406f26:	880e      	ldrh	r6, [r1, #0]
  406f28:	0c24      	lsrs	r4, r4, #16
  406f2a:	fb05 4406 	mla	r4, r5, r6, r4
  406f2e:	4422      	add	r2, r4
  406f30:	b29b      	uxth	r3, r3
  406f32:	ea43 4302 	orr.w	r3, r3, r2, lsl #16
  406f36:	f840 3b04 	str.w	r3, [r0], #4
  406f3a:	f851 3b04 	ldr.w	r3, [r1], #4
  406f3e:	6804      	ldr	r4, [r0, #0]
  406f40:	0c1b      	lsrs	r3, r3, #16
  406f42:	b2a6      	uxth	r6, r4
  406f44:	fb05 6303 	mla	r3, r5, r3, r6
  406f48:	eb03 4312 	add.w	r3, r3, r2, lsr #16
  406f4c:	458e      	cmp	lr, r1
  406f4e:	ea4f 4213 	mov.w	r2, r3, lsr #16
  406f52:	d8e8      	bhi.n	406f26 <__multiply+0xba>
  406f54:	6003      	str	r3, [r0, #0]
  406f56:	f10c 0c04 	add.w	ip, ip, #4
  406f5a:	45e2      	cmp	sl, ip
  406f5c:	f109 0904 	add.w	r9, r9, #4
  406f60:	d8b7      	bhi.n	406ed2 <__multiply+0x66>
  406f62:	f8dd a004 	ldr.w	sl, [sp, #4]
  406f66:	f1b8 0f00 	cmp.w	r8, #0
  406f6a:	dd0b      	ble.n	406f84 <__multiply+0x118>
  406f6c:	f85a 3c04 	ldr.w	r3, [sl, #-4]
  406f70:	f1aa 0a04 	sub.w	sl, sl, #4
  406f74:	b11b      	cbz	r3, 406f7e <__multiply+0x112>
  406f76:	e005      	b.n	406f84 <__multiply+0x118>
  406f78:	f85a 3d04 	ldr.w	r3, [sl, #-4]!
  406f7c:	b913      	cbnz	r3, 406f84 <__multiply+0x118>
  406f7e:	f1b8 0801 	subs.w	r8, r8, #1
  406f82:	d1f9      	bne.n	406f78 <__multiply+0x10c>
  406f84:	9800      	ldr	r0, [sp, #0]
  406f86:	f8c0 8010 	str.w	r8, [r0, #16]
  406f8a:	b003      	add	sp, #12
  406f8c:	e8bd 8ff0 	ldmia.w	sp!, {r4, r5, r6, r7, r8, r9, sl, fp, pc}

00406f90 <__pow5mult>:
  406f90:	f012 0303 	ands.w	r3, r2, #3
  406f94:	e92d 41f0 	stmdb	sp!, {r4, r5, r6, r7, r8, lr}
  406f98:	4614      	mov	r4, r2
  406f9a:	4607      	mov	r7, r0
  406f9c:	d12e      	bne.n	406ffc <__pow5mult+0x6c>
  406f9e:	460d      	mov	r5, r1
  406fa0:	10a4      	asrs	r4, r4, #2
  406fa2:	d01c      	beq.n	406fde <__pow5mult+0x4e>
  406fa4:	6cbe      	ldr	r6, [r7, #72]	; 0x48
  406fa6:	b396      	cbz	r6, 40700e <__pow5mult+0x7e>
  406fa8:	07e3      	lsls	r3, r4, #31
  406faa:	f04f 0800 	mov.w	r8, #0
  406fae:	d406      	bmi.n	406fbe <__pow5mult+0x2e>
  406fb0:	1064      	asrs	r4, r4, #1
  406fb2:	d014      	beq.n	406fde <__pow5mult+0x4e>
  406fb4:	6830      	ldr	r0, [r6, #0]
  406fb6:	b1a8      	cbz	r0, 406fe4 <__pow5mult+0x54>
  406fb8:	4606      	mov	r6, r0
  406fba:	07e3      	lsls	r3, r4, #31
  406fbc:	d5f8      	bpl.n	406fb0 <__pow5mult+0x20>
  406fbe:	4632      	mov	r2, r6
  406fc0:	4629      	mov	r1, r5
  406fc2:	4638      	mov	r0, r7
  406fc4:	f7ff ff52 	bl	406e6c <__multiply>
  406fc8:	b1b5      	cbz	r5, 406ff8 <__pow5mult+0x68>
  406fca:	686a      	ldr	r2, [r5, #4]
  406fcc:	6cfb      	ldr	r3, [r7, #76]	; 0x4c
  406fce:	1064      	asrs	r4, r4, #1
  406fd0:	f853 1022 	ldr.w	r1, [r3, r2, lsl #2]
  406fd4:	6029      	str	r1, [r5, #0]
  406fd6:	f843 5022 	str.w	r5, [r3, r2, lsl #2]
  406fda:	4605      	mov	r5, r0
  406fdc:	d1ea      	bne.n	406fb4 <__pow5mult+0x24>
  406fde:	4628      	mov	r0, r5
  406fe0:	e8bd 81f0 	ldmia.w	sp!, {r4, r5, r6, r7, r8, pc}
  406fe4:	4632      	mov	r2, r6
  406fe6:	4631      	mov	r1, r6
  406fe8:	4638      	mov	r0, r7
  406fea:	f7ff ff3f 	bl	406e6c <__multiply>
  406fee:	6030      	str	r0, [r6, #0]
  406ff0:	f8c0 8000 	str.w	r8, [r0]
  406ff4:	4606      	mov	r6, r0
  406ff6:	e7e0      	b.n	406fba <__pow5mult+0x2a>
  406ff8:	4605      	mov	r5, r0
  406ffa:	e7d9      	b.n	406fb0 <__pow5mult+0x20>
  406ffc:	1e5a      	subs	r2, r3, #1
  406ffe:	4d0b      	ldr	r5, [pc, #44]	; (40702c <__pow5mult+0x9c>)
  407000:	2300      	movs	r3, #0
  407002:	f855 2022 	ldr.w	r2, [r5, r2, lsl #2]
  407006:	f7ff fe97 	bl	406d38 <__multadd>
  40700a:	4605      	mov	r5, r0
  40700c:	e7c8      	b.n	406fa0 <__pow5mult+0x10>
  40700e:	2101      	movs	r1, #1
  407010:	4638      	mov	r0, r7
  407012:	f7ff fe61 	bl	406cd8 <_Balloc>
  407016:	f240 2171 	movw	r1, #625	; 0x271
  40701a:	2201      	movs	r2, #1
  40701c:	2300      	movs	r3, #0
  40701e:	6141      	str	r1, [r0, #20]
  407020:	6102      	str	r2, [r0, #16]
  407022:	4606      	mov	r6, r0
  407024:	64b8      	str	r0, [r7, #72]	; 0x48
  407026:	6003      	str	r3, [r0, #0]
  407028:	e7be      	b.n	406fa8 <__pow5mult+0x18>
  40702a:	bf00      	nop
  40702c:	00409b40 	.word	0x00409b40

00407030 <__lshift>:
  407030:	e92d 43f8 	stmdb	sp!, {r3, r4, r5, r6, r7, r8, r9, lr}
  407034:	4691      	mov	r9, r2
  407036:	690a      	ldr	r2, [r1, #16]
  407038:	688b      	ldr	r3, [r1, #8]
  40703a:	ea4f 1469 	mov.w	r4, r9, asr #5
  40703e:	eb04 0802 	add.w	r8, r4, r2
  407042:	f108 0501 	add.w	r5, r8, #1
  407046:	429d      	cmp	r5, r3
  407048:	460e      	mov	r6, r1
  40704a:	4607      	mov	r7, r0
  40704c:	6849      	ldr	r1, [r1, #4]
  40704e:	dd04      	ble.n	40705a <__lshift+0x2a>
  407050:	005b      	lsls	r3, r3, #1
  407052:	429d      	cmp	r5, r3
  407054:	f101 0101 	add.w	r1, r1, #1
  407058:	dcfa      	bgt.n	407050 <__lshift+0x20>
  40705a:	4638      	mov	r0, r7
  40705c:	f7ff fe3c 	bl	406cd8 <_Balloc>
  407060:	2c00      	cmp	r4, #0
  407062:	f100 0314 	add.w	r3, r0, #20
  407066:	dd06      	ble.n	407076 <__lshift+0x46>
  407068:	eb03 0284 	add.w	r2, r3, r4, lsl #2
  40706c:	2100      	movs	r1, #0
  40706e:	f843 1b04 	str.w	r1, [r3], #4
  407072:	429a      	cmp	r2, r3
  407074:	d1fb      	bne.n	40706e <__lshift+0x3e>
  407076:	6934      	ldr	r4, [r6, #16]
  407078:	f106 0114 	add.w	r1, r6, #20
  40707c:	f019 091f 	ands.w	r9, r9, #31
  407080:	eb01 0e84 	add.w	lr, r1, r4, lsl #2
  407084:	d01d      	beq.n	4070c2 <__lshift+0x92>
  407086:	f1c9 0c20 	rsb	ip, r9, #32
  40708a:	2200      	movs	r2, #0
  40708c:	680c      	ldr	r4, [r1, #0]
  40708e:	fa04 f409 	lsl.w	r4, r4, r9
  407092:	4314      	orrs	r4, r2
  407094:	f843 4b04 	str.w	r4, [r3], #4
  407098:	f851 2b04 	ldr.w	r2, [r1], #4
  40709c:	458e      	cmp	lr, r1
  40709e:	fa22 f20c 	lsr.w	r2, r2, ip
  4070a2:	d8f3      	bhi.n	40708c <__lshift+0x5c>
  4070a4:	601a      	str	r2, [r3, #0]
  4070a6:	b10a      	cbz	r2, 4070ac <__lshift+0x7c>
  4070a8:	f108 0502 	add.w	r5, r8, #2
  4070ac:	6cfb      	ldr	r3, [r7, #76]	; 0x4c
  4070ae:	6872      	ldr	r2, [r6, #4]
  4070b0:	3d01      	subs	r5, #1
  4070b2:	f853 1022 	ldr.w	r1, [r3, r2, lsl #2]
  4070b6:	6105      	str	r5, [r0, #16]
  4070b8:	6031      	str	r1, [r6, #0]
  4070ba:	f843 6022 	str.w	r6, [r3, r2, lsl #2]
  4070be:	e8bd 83f8 	ldmia.w	sp!, {r3, r4, r5, r6, r7, r8, r9, pc}
  4070c2:	3b04      	subs	r3, #4
  4070c4:	f851 2b04 	ldr.w	r2, [r1], #4
  4070c8:	f843 2f04 	str.w	r2, [r3, #4]!
  4070cc:	458e      	cmp	lr, r1
  4070ce:	d8f9      	bhi.n	4070c4 <__lshift+0x94>
  4070d0:	e7ec      	b.n	4070ac <__lshift+0x7c>
  4070d2:	bf00      	nop

004070d4 <__mcmp>:
  4070d4:	b430      	push	{r4, r5}
  4070d6:	690b      	ldr	r3, [r1, #16]
  4070d8:	4605      	mov	r5, r0
  4070da:	6900      	ldr	r0, [r0, #16]
  4070dc:	1ac0      	subs	r0, r0, r3
  4070de:	d10f      	bne.n	407100 <__mcmp+0x2c>
  4070e0:	009b      	lsls	r3, r3, #2
  4070e2:	3514      	adds	r5, #20
  4070e4:	3114      	adds	r1, #20
  4070e6:	4419      	add	r1, r3
  4070e8:	442b      	add	r3, r5
  4070ea:	e001      	b.n	4070f0 <__mcmp+0x1c>
  4070ec:	429d      	cmp	r5, r3
  4070ee:	d207      	bcs.n	407100 <__mcmp+0x2c>
  4070f0:	f853 4d04 	ldr.w	r4, [r3, #-4]!
  4070f4:	f851 2d04 	ldr.w	r2, [r1, #-4]!
  4070f8:	4294      	cmp	r4, r2
  4070fa:	d0f7      	beq.n	4070ec <__mcmp+0x18>
  4070fc:	d302      	bcc.n	407104 <__mcmp+0x30>
  4070fe:	2001      	movs	r0, #1
  407100:	bc30      	pop	{r4, r5}
  407102:	4770      	bx	lr
  407104:	f04f 30ff 	mov.w	r0, #4294967295
  407108:	e7fa      	b.n	407100 <__mcmp+0x2c>
  40710a:	bf00      	nop

0040710c <__mdiff>:
  40710c:	e92d 41f0 	stmdb	sp!, {r4, r5, r6, r7, r8, lr}
  407110:	690f      	ldr	r7, [r1, #16]
  407112:	460e      	mov	r6, r1
  407114:	6911      	ldr	r1, [r2, #16]
  407116:	1a7f      	subs	r7, r7, r1
  407118:	2f00      	cmp	r7, #0
  40711a:	4690      	mov	r8, r2
  40711c:	d117      	bne.n	40714e <__mdiff+0x42>
  40711e:	0089      	lsls	r1, r1, #2
  407120:	f106 0514 	add.w	r5, r6, #20
  407124:	f102 0e14 	add.w	lr, r2, #20
  407128:	186b      	adds	r3, r5, r1
  40712a:	4471      	add	r1, lr
  40712c:	e001      	b.n	407132 <__mdiff+0x26>
  40712e:	429d      	cmp	r5, r3
  407130:	d25c      	bcs.n	4071ec <__mdiff+0xe0>
  407132:	f853 2d04 	ldr.w	r2, [r3, #-4]!
  407136:	f851 4d04 	ldr.w	r4, [r1, #-4]!
  40713a:	42a2      	cmp	r2, r4
  40713c:	d0f7      	beq.n	40712e <__mdiff+0x22>
  40713e:	d25e      	bcs.n	4071fe <__mdiff+0xf2>
  407140:	4633      	mov	r3, r6
  407142:	462c      	mov	r4, r5
  407144:	4646      	mov	r6, r8
  407146:	4675      	mov	r5, lr
  407148:	4698      	mov	r8, r3
  40714a:	2701      	movs	r7, #1
  40714c:	e005      	b.n	40715a <__mdiff+0x4e>
  40714e:	db58      	blt.n	407202 <__mdiff+0xf6>
  407150:	f106 0514 	add.w	r5, r6, #20
  407154:	f108 0414 	add.w	r4, r8, #20
  407158:	2700      	movs	r7, #0
  40715a:	6871      	ldr	r1, [r6, #4]
  40715c:	f7ff fdbc 	bl	406cd8 <_Balloc>
  407160:	f8d8 3010 	ldr.w	r3, [r8, #16]
  407164:	6936      	ldr	r6, [r6, #16]
  407166:	60c7      	str	r7, [r0, #12]
  407168:	eb04 0c83 	add.w	ip, r4, r3, lsl #2
  40716c:	46a6      	mov	lr, r4
  40716e:	eb05 0786 	add.w	r7, r5, r6, lsl #2
  407172:	f100 0414 	add.w	r4, r0, #20
  407176:	2300      	movs	r3, #0
  407178:	f85e 1b04 	ldr.w	r1, [lr], #4
  40717c:	f855 8b04 	ldr.w	r8, [r5], #4
  407180:	b28a      	uxth	r2, r1
  407182:	fa13 f388 	uxtah	r3, r3, r8
  407186:	0c09      	lsrs	r1, r1, #16
  407188:	1a9a      	subs	r2, r3, r2
  40718a:	ebc1 4318 	rsb	r3, r1, r8, lsr #16
  40718e:	eb03 4322 	add.w	r3, r3, r2, asr #16
  407192:	b292      	uxth	r2, r2
  407194:	ea42 4203 	orr.w	r2, r2, r3, lsl #16
  407198:	45f4      	cmp	ip, lr
  40719a:	f844 2b04 	str.w	r2, [r4], #4
  40719e:	ea4f 4323 	mov.w	r3, r3, asr #16
  4071a2:	d8e9      	bhi.n	407178 <__mdiff+0x6c>
  4071a4:	42af      	cmp	r7, r5
  4071a6:	d917      	bls.n	4071d8 <__mdiff+0xcc>
  4071a8:	46a4      	mov	ip, r4
  4071aa:	46ae      	mov	lr, r5
  4071ac:	f85e 2b04 	ldr.w	r2, [lr], #4
  4071b0:	fa13 f382 	uxtah	r3, r3, r2
  4071b4:	1419      	asrs	r1, r3, #16
  4071b6:	eb01 4112 	add.w	r1, r1, r2, lsr #16
  4071ba:	b29b      	uxth	r3, r3
  4071bc:	ea43 4201 	orr.w	r2, r3, r1, lsl #16
  4071c0:	4577      	cmp	r7, lr
  4071c2:	f84c 2b04 	str.w	r2, [ip], #4
  4071c6:	ea4f 4321 	mov.w	r3, r1, asr #16
  4071ca:	d8ef      	bhi.n	4071ac <__mdiff+0xa0>
  4071cc:	43ed      	mvns	r5, r5
  4071ce:	442f      	add	r7, r5
  4071d0:	f027 0703 	bic.w	r7, r7, #3
  4071d4:	3704      	adds	r7, #4
  4071d6:	443c      	add	r4, r7
  4071d8:	3c04      	subs	r4, #4
  4071da:	b922      	cbnz	r2, 4071e6 <__mdiff+0xda>
  4071dc:	f854 3d04 	ldr.w	r3, [r4, #-4]!
  4071e0:	3e01      	subs	r6, #1
  4071e2:	2b00      	cmp	r3, #0
  4071e4:	d0fa      	beq.n	4071dc <__mdiff+0xd0>
  4071e6:	6106      	str	r6, [r0, #16]
  4071e8:	e8bd 81f0 	ldmia.w	sp!, {r4, r5, r6, r7, r8, pc}
  4071ec:	2100      	movs	r1, #0
  4071ee:	f7ff fd73 	bl	406cd8 <_Balloc>
  4071f2:	2201      	movs	r2, #1
  4071f4:	2300      	movs	r3, #0
  4071f6:	6102      	str	r2, [r0, #16]
  4071f8:	6143      	str	r3, [r0, #20]
  4071fa:	e8bd 81f0 	ldmia.w	sp!, {r4, r5, r6, r7, r8, pc}
  4071fe:	4674      	mov	r4, lr
  407200:	e7ab      	b.n	40715a <__mdiff+0x4e>
  407202:	4633      	mov	r3, r6
  407204:	f106 0414 	add.w	r4, r6, #20
  407208:	f102 0514 	add.w	r5, r2, #20
  40720c:	4616      	mov	r6, r2
  40720e:	2701      	movs	r7, #1
  407210:	4698      	mov	r8, r3
  407212:	e7a2      	b.n	40715a <__mdiff+0x4e>

00407214 <__d2b>:
  407214:	e92d 41f0 	stmdb	sp!, {r4, r5, r6, r7, r8, lr}
  407218:	b082      	sub	sp, #8
  40721a:	2101      	movs	r1, #1
  40721c:	461c      	mov	r4, r3
  40721e:	f3c3 570a 	ubfx	r7, r3, #20, #11
  407222:	4615      	mov	r5, r2
  407224:	9e08      	ldr	r6, [sp, #32]
  407226:	f7ff fd57 	bl	406cd8 <_Balloc>
  40722a:	f3c4 0413 	ubfx	r4, r4, #0, #20
  40722e:	4680      	mov	r8, r0
  407230:	b10f      	cbz	r7, 407236 <__d2b+0x22>
  407232:	f444 1480 	orr.w	r4, r4, #1048576	; 0x100000
  407236:	9401      	str	r4, [sp, #4]
  407238:	b31d      	cbz	r5, 407282 <__d2b+0x6e>
  40723a:	a802      	add	r0, sp, #8
  40723c:	f840 5d08 	str.w	r5, [r0, #-8]!
  407240:	f7ff fdda 	bl	406df8 <__lo0bits>
  407244:	2800      	cmp	r0, #0
  407246:	d134      	bne.n	4072b2 <__d2b+0x9e>
  407248:	e89d 000c 	ldmia.w	sp, {r2, r3}
  40724c:	f8c8 2014 	str.w	r2, [r8, #20]
  407250:	2b00      	cmp	r3, #0
  407252:	bf0c      	ite	eq
  407254:	2101      	moveq	r1, #1
  407256:	2102      	movne	r1, #2
  407258:	f8c8 3018 	str.w	r3, [r8, #24]
  40725c:	f8c8 1010 	str.w	r1, [r8, #16]
  407260:	b9df      	cbnz	r7, 40729a <__d2b+0x86>
  407262:	eb08 0381 	add.w	r3, r8, r1, lsl #2
  407266:	f2a0 4032 	subw	r0, r0, #1074	; 0x432
  40726a:	6030      	str	r0, [r6, #0]
  40726c:	6918      	ldr	r0, [r3, #16]
  40726e:	f7ff fda3 	bl	406db8 <__hi0bits>
  407272:	9b09      	ldr	r3, [sp, #36]	; 0x24
  407274:	ebc0 1041 	rsb	r0, r0, r1, lsl #5
  407278:	6018      	str	r0, [r3, #0]
  40727a:	4640      	mov	r0, r8
  40727c:	b002      	add	sp, #8
  40727e:	e8bd 81f0 	ldmia.w	sp!, {r4, r5, r6, r7, r8, pc}
  407282:	a801      	add	r0, sp, #4
  407284:	f7ff fdb8 	bl	406df8 <__lo0bits>
  407288:	9b01      	ldr	r3, [sp, #4]
  40728a:	f8c8 3014 	str.w	r3, [r8, #20]
  40728e:	2101      	movs	r1, #1
  407290:	3020      	adds	r0, #32
  407292:	f8c8 1010 	str.w	r1, [r8, #16]
  407296:	2f00      	cmp	r7, #0
  407298:	d0e3      	beq.n	407262 <__d2b+0x4e>
  40729a:	9b09      	ldr	r3, [sp, #36]	; 0x24
  40729c:	f2a7 4733 	subw	r7, r7, #1075	; 0x433
  4072a0:	4407      	add	r7, r0
  4072a2:	f1c0 0035 	rsb	r0, r0, #53	; 0x35
  4072a6:	6037      	str	r7, [r6, #0]
  4072a8:	6018      	str	r0, [r3, #0]
  4072aa:	4640      	mov	r0, r8
  4072ac:	b002      	add	sp, #8
  4072ae:	e8bd 81f0 	ldmia.w	sp!, {r4, r5, r6, r7, r8, pc}
  4072b2:	e89d 000a 	ldmia.w	sp, {r1, r3}
  4072b6:	f1c0 0220 	rsb	r2, r0, #32
  4072ba:	fa03 f202 	lsl.w	r2, r3, r2
  4072be:	430a      	orrs	r2, r1
  4072c0:	40c3      	lsrs	r3, r0
  4072c2:	9301      	str	r3, [sp, #4]
  4072c4:	f8c8 2014 	str.w	r2, [r8, #20]
  4072c8:	e7c2      	b.n	407250 <__d2b+0x3c>
  4072ca:	bf00      	nop

004072cc <_realloc_r>:
  4072cc:	2900      	cmp	r1, #0
  4072ce:	f000 8095 	beq.w	4073fc <_realloc_r+0x130>
  4072d2:	e92d 4ff0 	stmdb	sp!, {r4, r5, r6, r7, r8, r9, sl, fp, lr}
  4072d6:	460d      	mov	r5, r1
  4072d8:	4616      	mov	r6, r2
  4072da:	b083      	sub	sp, #12
  4072dc:	4680      	mov	r8, r0
  4072de:	f106 070b 	add.w	r7, r6, #11
  4072e2:	f7fb fbf3 	bl	402acc <__malloc_lock>
  4072e6:	f855 ec04 	ldr.w	lr, [r5, #-4]
  4072ea:	2f16      	cmp	r7, #22
  4072ec:	f02e 0403 	bic.w	r4, lr, #3
  4072f0:	f1a5 0908 	sub.w	r9, r5, #8
  4072f4:	d83c      	bhi.n	407370 <_realloc_r+0xa4>
  4072f6:	2210      	movs	r2, #16
  4072f8:	4617      	mov	r7, r2
  4072fa:	42be      	cmp	r6, r7
  4072fc:	d83d      	bhi.n	40737a <_realloc_r+0xae>
  4072fe:	4294      	cmp	r4, r2
  407300:	da43      	bge.n	40738a <_realloc_r+0xbe>
  407302:	4bc4      	ldr	r3, [pc, #784]	; (407614 <_realloc_r+0x348>)
  407304:	6899      	ldr	r1, [r3, #8]
  407306:	eb09 0004 	add.w	r0, r9, r4
  40730a:	4288      	cmp	r0, r1
  40730c:	f000 80b4 	beq.w	407478 <_realloc_r+0x1ac>
  407310:	6843      	ldr	r3, [r0, #4]
  407312:	f023 0101 	bic.w	r1, r3, #1
  407316:	4401      	add	r1, r0
  407318:	6849      	ldr	r1, [r1, #4]
  40731a:	07c9      	lsls	r1, r1, #31
  40731c:	d54c      	bpl.n	4073b8 <_realloc_r+0xec>
  40731e:	f01e 0f01 	tst.w	lr, #1
  407322:	f000 809b 	beq.w	40745c <_realloc_r+0x190>
  407326:	4631      	mov	r1, r6
  407328:	4640      	mov	r0, r8
  40732a:	f7fb f837 	bl	40239c <_malloc_r>
  40732e:	4606      	mov	r6, r0
  407330:	2800      	cmp	r0, #0
  407332:	d03a      	beq.n	4073aa <_realloc_r+0xde>
  407334:	f855 3c04 	ldr.w	r3, [r5, #-4]
  407338:	f023 0301 	bic.w	r3, r3, #1
  40733c:	444b      	add	r3, r9
  40733e:	f1a0 0208 	sub.w	r2, r0, #8
  407342:	429a      	cmp	r2, r3
  407344:	f000 8121 	beq.w	40758a <_realloc_r+0x2be>
  407348:	1f22      	subs	r2, r4, #4
  40734a:	2a24      	cmp	r2, #36	; 0x24
  40734c:	f200 8107 	bhi.w	40755e <_realloc_r+0x292>
  407350:	2a13      	cmp	r2, #19
  407352:	f200 80db 	bhi.w	40750c <_realloc_r+0x240>
  407356:	4603      	mov	r3, r0
  407358:	462a      	mov	r2, r5
  40735a:	6811      	ldr	r1, [r2, #0]
  40735c:	6019      	str	r1, [r3, #0]
  40735e:	6851      	ldr	r1, [r2, #4]
  407360:	6059      	str	r1, [r3, #4]
  407362:	6892      	ldr	r2, [r2, #8]
  407364:	609a      	str	r2, [r3, #8]
  407366:	4629      	mov	r1, r5
  407368:	4640      	mov	r0, r8
  40736a:	f7ff f8c5 	bl	4064f8 <_free_r>
  40736e:	e01c      	b.n	4073aa <_realloc_r+0xde>
  407370:	f027 0707 	bic.w	r7, r7, #7
  407374:	2f00      	cmp	r7, #0
  407376:	463a      	mov	r2, r7
  407378:	dabf      	bge.n	4072fa <_realloc_r+0x2e>
  40737a:	2600      	movs	r6, #0
  40737c:	230c      	movs	r3, #12
  40737e:	4630      	mov	r0, r6
  407380:	f8c8 3000 	str.w	r3, [r8]
  407384:	b003      	add	sp, #12
  407386:	e8bd 8ff0 	ldmia.w	sp!, {r4, r5, r6, r7, r8, r9, sl, fp, pc}
  40738a:	462e      	mov	r6, r5
  40738c:	1be3      	subs	r3, r4, r7
  40738e:	2b0f      	cmp	r3, #15
  407390:	d81e      	bhi.n	4073d0 <_realloc_r+0x104>
  407392:	f8d9 3004 	ldr.w	r3, [r9, #4]
  407396:	f003 0301 	and.w	r3, r3, #1
  40739a:	4323      	orrs	r3, r4
  40739c:	444c      	add	r4, r9
  40739e:	f8c9 3004 	str.w	r3, [r9, #4]
  4073a2:	6863      	ldr	r3, [r4, #4]
  4073a4:	f043 0301 	orr.w	r3, r3, #1
  4073a8:	6063      	str	r3, [r4, #4]
  4073aa:	4640      	mov	r0, r8
  4073ac:	f7fb fb94 	bl	402ad8 <__malloc_unlock>
  4073b0:	4630      	mov	r0, r6
  4073b2:	b003      	add	sp, #12
  4073b4:	e8bd 8ff0 	ldmia.w	sp!, {r4, r5, r6, r7, r8, r9, sl, fp, pc}
  4073b8:	f023 0303 	bic.w	r3, r3, #3
  4073bc:	18e1      	adds	r1, r4, r3
  4073be:	4291      	cmp	r1, r2
  4073c0:	db1f      	blt.n	407402 <_realloc_r+0x136>
  4073c2:	68c3      	ldr	r3, [r0, #12]
  4073c4:	6882      	ldr	r2, [r0, #8]
  4073c6:	462e      	mov	r6, r5
  4073c8:	60d3      	str	r3, [r2, #12]
  4073ca:	460c      	mov	r4, r1
  4073cc:	609a      	str	r2, [r3, #8]
  4073ce:	e7dd      	b.n	40738c <_realloc_r+0xc0>
  4073d0:	f8d9 2004 	ldr.w	r2, [r9, #4]
  4073d4:	eb09 0107 	add.w	r1, r9, r7
  4073d8:	f002 0201 	and.w	r2, r2, #1
  4073dc:	444c      	add	r4, r9
  4073de:	f043 0301 	orr.w	r3, r3, #1
  4073e2:	4317      	orrs	r7, r2
  4073e4:	f8c9 7004 	str.w	r7, [r9, #4]
  4073e8:	604b      	str	r3, [r1, #4]
  4073ea:	6863      	ldr	r3, [r4, #4]
  4073ec:	f043 0301 	orr.w	r3, r3, #1
  4073f0:	3108      	adds	r1, #8
  4073f2:	6063      	str	r3, [r4, #4]
  4073f4:	4640      	mov	r0, r8
  4073f6:	f7ff f87f 	bl	4064f8 <_free_r>
  4073fa:	e7d6      	b.n	4073aa <_realloc_r+0xde>
  4073fc:	4611      	mov	r1, r2
  4073fe:	f7fa bfcd 	b.w	40239c <_malloc_r>
  407402:	f01e 0f01 	tst.w	lr, #1
  407406:	d18e      	bne.n	407326 <_realloc_r+0x5a>
  407408:	f855 1c08 	ldr.w	r1, [r5, #-8]
  40740c:	eba9 0a01 	sub.w	sl, r9, r1
  407410:	f8da 1004 	ldr.w	r1, [sl, #4]
  407414:	f021 0103 	bic.w	r1, r1, #3
  407418:	440b      	add	r3, r1
  40741a:	4423      	add	r3, r4
  40741c:	4293      	cmp	r3, r2
  40741e:	db25      	blt.n	40746c <_realloc_r+0x1a0>
  407420:	68c2      	ldr	r2, [r0, #12]
  407422:	6881      	ldr	r1, [r0, #8]
  407424:	4656      	mov	r6, sl
  407426:	60ca      	str	r2, [r1, #12]
  407428:	6091      	str	r1, [r2, #8]
  40742a:	f8da 100c 	ldr.w	r1, [sl, #12]
  40742e:	f856 0f08 	ldr.w	r0, [r6, #8]!
  407432:	1f22      	subs	r2, r4, #4
  407434:	2a24      	cmp	r2, #36	; 0x24
  407436:	60c1      	str	r1, [r0, #12]
  407438:	6088      	str	r0, [r1, #8]
  40743a:	f200 8094 	bhi.w	407566 <_realloc_r+0x29a>
  40743e:	2a13      	cmp	r2, #19
  407440:	d96f      	bls.n	407522 <_realloc_r+0x256>
  407442:	6829      	ldr	r1, [r5, #0]
  407444:	f8ca 1008 	str.w	r1, [sl, #8]
  407448:	6869      	ldr	r1, [r5, #4]
  40744a:	f8ca 100c 	str.w	r1, [sl, #12]
  40744e:	2a1b      	cmp	r2, #27
  407450:	f200 80a2 	bhi.w	407598 <_realloc_r+0x2cc>
  407454:	3508      	adds	r5, #8
  407456:	f10a 0210 	add.w	r2, sl, #16
  40745a:	e063      	b.n	407524 <_realloc_r+0x258>
  40745c:	f855 3c08 	ldr.w	r3, [r5, #-8]
  407460:	eba9 0a03 	sub.w	sl, r9, r3
  407464:	f8da 1004 	ldr.w	r1, [sl, #4]
  407468:	f021 0103 	bic.w	r1, r1, #3
  40746c:	1863      	adds	r3, r4, r1
  40746e:	4293      	cmp	r3, r2
  407470:	f6ff af59 	blt.w	407326 <_realloc_r+0x5a>
  407474:	4656      	mov	r6, sl
  407476:	e7d8      	b.n	40742a <_realloc_r+0x15e>
  407478:	6841      	ldr	r1, [r0, #4]
  40747a:	f021 0b03 	bic.w	fp, r1, #3
  40747e:	44a3      	add	fp, r4
  407480:	f107 0010 	add.w	r0, r7, #16
  407484:	4583      	cmp	fp, r0
  407486:	da56      	bge.n	407536 <_realloc_r+0x26a>
  407488:	f01e 0f01 	tst.w	lr, #1
  40748c:	f47f af4b 	bne.w	407326 <_realloc_r+0x5a>
  407490:	f855 1c08 	ldr.w	r1, [r5, #-8]
  407494:	eba9 0a01 	sub.w	sl, r9, r1
  407498:	f8da 1004 	ldr.w	r1, [sl, #4]
  40749c:	f021 0103 	bic.w	r1, r1, #3
  4074a0:	448b      	add	fp, r1
  4074a2:	4558      	cmp	r0, fp
  4074a4:	dce2      	bgt.n	40746c <_realloc_r+0x1a0>
  4074a6:	4656      	mov	r6, sl
  4074a8:	f8da 100c 	ldr.w	r1, [sl, #12]
  4074ac:	f856 0f08 	ldr.w	r0, [r6, #8]!
  4074b0:	1f22      	subs	r2, r4, #4
  4074b2:	2a24      	cmp	r2, #36	; 0x24
  4074b4:	60c1      	str	r1, [r0, #12]
  4074b6:	6088      	str	r0, [r1, #8]
  4074b8:	f200 808f 	bhi.w	4075da <_realloc_r+0x30e>
  4074bc:	2a13      	cmp	r2, #19
  4074be:	f240 808a 	bls.w	4075d6 <_realloc_r+0x30a>
  4074c2:	6829      	ldr	r1, [r5, #0]
  4074c4:	f8ca 1008 	str.w	r1, [sl, #8]
  4074c8:	6869      	ldr	r1, [r5, #4]
  4074ca:	f8ca 100c 	str.w	r1, [sl, #12]
  4074ce:	2a1b      	cmp	r2, #27
  4074d0:	f200 808a 	bhi.w	4075e8 <_realloc_r+0x31c>
  4074d4:	3508      	adds	r5, #8
  4074d6:	f10a 0210 	add.w	r2, sl, #16
  4074da:	6829      	ldr	r1, [r5, #0]
  4074dc:	6011      	str	r1, [r2, #0]
  4074de:	6869      	ldr	r1, [r5, #4]
  4074e0:	6051      	str	r1, [r2, #4]
  4074e2:	68a9      	ldr	r1, [r5, #8]
  4074e4:	6091      	str	r1, [r2, #8]
  4074e6:	eb0a 0107 	add.w	r1, sl, r7
  4074ea:	ebab 0207 	sub.w	r2, fp, r7
  4074ee:	f042 0201 	orr.w	r2, r2, #1
  4074f2:	6099      	str	r1, [r3, #8]
  4074f4:	604a      	str	r2, [r1, #4]
  4074f6:	f8da 3004 	ldr.w	r3, [sl, #4]
  4074fa:	f003 0301 	and.w	r3, r3, #1
  4074fe:	431f      	orrs	r7, r3
  407500:	4640      	mov	r0, r8
  407502:	f8ca 7004 	str.w	r7, [sl, #4]
  407506:	f7fb fae7 	bl	402ad8 <__malloc_unlock>
  40750a:	e751      	b.n	4073b0 <_realloc_r+0xe4>
  40750c:	682b      	ldr	r3, [r5, #0]
  40750e:	6003      	str	r3, [r0, #0]
  407510:	686b      	ldr	r3, [r5, #4]
  407512:	6043      	str	r3, [r0, #4]
  407514:	2a1b      	cmp	r2, #27
  407516:	d82d      	bhi.n	407574 <_realloc_r+0x2a8>
  407518:	f100 0308 	add.w	r3, r0, #8
  40751c:	f105 0208 	add.w	r2, r5, #8
  407520:	e71b      	b.n	40735a <_realloc_r+0x8e>
  407522:	4632      	mov	r2, r6
  407524:	6829      	ldr	r1, [r5, #0]
  407526:	6011      	str	r1, [r2, #0]
  407528:	6869      	ldr	r1, [r5, #4]
  40752a:	6051      	str	r1, [r2, #4]
  40752c:	68a9      	ldr	r1, [r5, #8]
  40752e:	6091      	str	r1, [r2, #8]
  407530:	461c      	mov	r4, r3
  407532:	46d1      	mov	r9, sl
  407534:	e72a      	b.n	40738c <_realloc_r+0xc0>
  407536:	eb09 0107 	add.w	r1, r9, r7
  40753a:	ebab 0b07 	sub.w	fp, fp, r7
  40753e:	f04b 0201 	orr.w	r2, fp, #1
  407542:	6099      	str	r1, [r3, #8]
  407544:	604a      	str	r2, [r1, #4]
  407546:	f855 3c04 	ldr.w	r3, [r5, #-4]
  40754a:	f003 0301 	and.w	r3, r3, #1
  40754e:	431f      	orrs	r7, r3
  407550:	4640      	mov	r0, r8
  407552:	f845 7c04 	str.w	r7, [r5, #-4]
  407556:	f7fb fabf 	bl	402ad8 <__malloc_unlock>
  40755a:	462e      	mov	r6, r5
  40755c:	e728      	b.n	4073b0 <_realloc_r+0xe4>
  40755e:	4629      	mov	r1, r5
  407560:	f7ff fb56 	bl	406c10 <memmove>
  407564:	e6ff      	b.n	407366 <_realloc_r+0x9a>
  407566:	4629      	mov	r1, r5
  407568:	4630      	mov	r0, r6
  40756a:	461c      	mov	r4, r3
  40756c:	46d1      	mov	r9, sl
  40756e:	f7ff fb4f 	bl	406c10 <memmove>
  407572:	e70b      	b.n	40738c <_realloc_r+0xc0>
  407574:	68ab      	ldr	r3, [r5, #8]
  407576:	6083      	str	r3, [r0, #8]
  407578:	68eb      	ldr	r3, [r5, #12]
  40757a:	60c3      	str	r3, [r0, #12]
  40757c:	2a24      	cmp	r2, #36	; 0x24
  40757e:	d017      	beq.n	4075b0 <_realloc_r+0x2e4>
  407580:	f100 0310 	add.w	r3, r0, #16
  407584:	f105 0210 	add.w	r2, r5, #16
  407588:	e6e7      	b.n	40735a <_realloc_r+0x8e>
  40758a:	f850 3c04 	ldr.w	r3, [r0, #-4]
  40758e:	f023 0303 	bic.w	r3, r3, #3
  407592:	441c      	add	r4, r3
  407594:	462e      	mov	r6, r5
  407596:	e6f9      	b.n	40738c <_realloc_r+0xc0>
  407598:	68a9      	ldr	r1, [r5, #8]
  40759a:	f8ca 1010 	str.w	r1, [sl, #16]
  40759e:	68e9      	ldr	r1, [r5, #12]
  4075a0:	f8ca 1014 	str.w	r1, [sl, #20]
  4075a4:	2a24      	cmp	r2, #36	; 0x24
  4075a6:	d00c      	beq.n	4075c2 <_realloc_r+0x2f6>
  4075a8:	3510      	adds	r5, #16
  4075aa:	f10a 0218 	add.w	r2, sl, #24
  4075ae:	e7b9      	b.n	407524 <_realloc_r+0x258>
  4075b0:	692b      	ldr	r3, [r5, #16]
  4075b2:	6103      	str	r3, [r0, #16]
  4075b4:	696b      	ldr	r3, [r5, #20]
  4075b6:	6143      	str	r3, [r0, #20]
  4075b8:	f105 0218 	add.w	r2, r5, #24
  4075bc:	f100 0318 	add.w	r3, r0, #24
  4075c0:	e6cb      	b.n	40735a <_realloc_r+0x8e>
  4075c2:	692a      	ldr	r2, [r5, #16]
  4075c4:	f8ca 2018 	str.w	r2, [sl, #24]
  4075c8:	696a      	ldr	r2, [r5, #20]
  4075ca:	f8ca 201c 	str.w	r2, [sl, #28]
  4075ce:	3518      	adds	r5, #24
  4075d0:	f10a 0220 	add.w	r2, sl, #32
  4075d4:	e7a6      	b.n	407524 <_realloc_r+0x258>
  4075d6:	4632      	mov	r2, r6
  4075d8:	e77f      	b.n	4074da <_realloc_r+0x20e>
  4075da:	4629      	mov	r1, r5
  4075dc:	4630      	mov	r0, r6
  4075de:	9301      	str	r3, [sp, #4]
  4075e0:	f7ff fb16 	bl	406c10 <memmove>
  4075e4:	9b01      	ldr	r3, [sp, #4]
  4075e6:	e77e      	b.n	4074e6 <_realloc_r+0x21a>
  4075e8:	68a9      	ldr	r1, [r5, #8]
  4075ea:	f8ca 1010 	str.w	r1, [sl, #16]
  4075ee:	68e9      	ldr	r1, [r5, #12]
  4075f0:	f8ca 1014 	str.w	r1, [sl, #20]
  4075f4:	2a24      	cmp	r2, #36	; 0x24
  4075f6:	d003      	beq.n	407600 <_realloc_r+0x334>
  4075f8:	3510      	adds	r5, #16
  4075fa:	f10a 0218 	add.w	r2, sl, #24
  4075fe:	e76c      	b.n	4074da <_realloc_r+0x20e>
  407600:	692a      	ldr	r2, [r5, #16]
  407602:	f8ca 2018 	str.w	r2, [sl, #24]
  407606:	696a      	ldr	r2, [r5, #20]
  407608:	f8ca 201c 	str.w	r2, [sl, #28]
  40760c:	3518      	adds	r5, #24
  40760e:	f10a 0220 	add.w	r2, sl, #32
  407612:	e762      	b.n	4074da <_realloc_r+0x20e>
  407614:	20400498 	.word	0x20400498

00407618 <_raise_r>:
  407618:	291f      	cmp	r1, #31
  40761a:	d828      	bhi.n	40766e <_raise_r+0x56>
  40761c:	b520      	push	{r5, lr}
  40761e:	f8d0 22dc 	ldr.w	r2, [r0, #732]	; 0x2dc
  407622:	b082      	sub	sp, #8
  407624:	4605      	mov	r5, r0
  407626:	b1aa      	cbz	r2, 407654 <_raise_r+0x3c>
  407628:	f852 3021 	ldr.w	r3, [r2, r1, lsl #2]
  40762c:	b193      	cbz	r3, 407654 <_raise_r+0x3c>
  40762e:	2b01      	cmp	r3, #1
  407630:	d00e      	beq.n	407650 <_raise_r+0x38>
  407632:	1c58      	adds	r0, r3, #1
  407634:	d007      	beq.n	407646 <_raise_r+0x2e>
  407636:	2500      	movs	r5, #0
  407638:	4608      	mov	r0, r1
  40763a:	f842 5021 	str.w	r5, [r2, r1, lsl #2]
  40763e:	4798      	blx	r3
  407640:	4628      	mov	r0, r5
  407642:	b002      	add	sp, #8
  407644:	bd20      	pop	{r5, pc}
  407646:	2316      	movs	r3, #22
  407648:	2001      	movs	r0, #1
  40764a:	602b      	str	r3, [r5, #0]
  40764c:	b002      	add	sp, #8
  40764e:	bd20      	pop	{r5, pc}
  407650:	2000      	movs	r0, #0
  407652:	e7f6      	b.n	407642 <_raise_r+0x2a>
  407654:	4628      	mov	r0, r5
  407656:	9101      	str	r1, [sp, #4]
  407658:	f000 f82a 	bl	4076b0 <_getpid_r>
  40765c:	9901      	ldr	r1, [sp, #4]
  40765e:	460a      	mov	r2, r1
  407660:	4601      	mov	r1, r0
  407662:	4628      	mov	r0, r5
  407664:	b002      	add	sp, #8
  407666:	e8bd 4020 	ldmia.w	sp!, {r5, lr}
  40766a:	f000 b80d 	b.w	407688 <_kill_r>
  40766e:	2316      	movs	r3, #22
  407670:	6003      	str	r3, [r0, #0]
  407672:	f04f 30ff 	mov.w	r0, #4294967295
  407676:	4770      	bx	lr

00407678 <raise>:
  407678:	4b02      	ldr	r3, [pc, #8]	; (407684 <raise+0xc>)
  40767a:	4601      	mov	r1, r0
  40767c:	6818      	ldr	r0, [r3, #0]
  40767e:	f7ff bfcb 	b.w	407618 <_raise_r>
  407682:	bf00      	nop
  407684:	20400068 	.word	0x20400068

00407688 <_kill_r>:
  407688:	b538      	push	{r3, r4, r5, lr}
  40768a:	460b      	mov	r3, r1
  40768c:	4c07      	ldr	r4, [pc, #28]	; (4076ac <_kill_r+0x24>)
  40768e:	4605      	mov	r5, r0
  407690:	4611      	mov	r1, r2
  407692:	4618      	mov	r0, r3
  407694:	2300      	movs	r3, #0
  407696:	6023      	str	r3, [r4, #0]
  407698:	f7f8 fe64 	bl	400364 <_kill>
  40769c:	1c43      	adds	r3, r0, #1
  40769e:	d000      	beq.n	4076a2 <_kill_r+0x1a>
  4076a0:	bd38      	pop	{r3, r4, r5, pc}
  4076a2:	6823      	ldr	r3, [r4, #0]
  4076a4:	2b00      	cmp	r3, #0
  4076a6:	d0fb      	beq.n	4076a0 <_kill_r+0x18>
  4076a8:	602b      	str	r3, [r5, #0]
  4076aa:	bd38      	pop	{r3, r4, r5, pc}
  4076ac:	20408cc4 	.word	0x20408cc4

004076b0 <_getpid_r>:
  4076b0:	f7f8 be59 	b.w	400366 <_getpid>

004076b4 <__sread>:
  4076b4:	b510      	push	{r4, lr}
  4076b6:	460c      	mov	r4, r1
  4076b8:	f9b1 100e 	ldrsh.w	r1, [r1, #14]
  4076bc:	f000 fa96 	bl	407bec <_read_r>
  4076c0:	2800      	cmp	r0, #0
  4076c2:	db03      	blt.n	4076cc <__sread+0x18>
  4076c4:	6d23      	ldr	r3, [r4, #80]	; 0x50
  4076c6:	4403      	add	r3, r0
  4076c8:	6523      	str	r3, [r4, #80]	; 0x50
  4076ca:	bd10      	pop	{r4, pc}
  4076cc:	89a3      	ldrh	r3, [r4, #12]
  4076ce:	f423 5380 	bic.w	r3, r3, #4096	; 0x1000
  4076d2:	81a3      	strh	r3, [r4, #12]
  4076d4:	bd10      	pop	{r4, pc}
  4076d6:	bf00      	nop

004076d8 <__swrite>:
  4076d8:	e92d 41f0 	stmdb	sp!, {r4, r5, r6, r7, r8, lr}
  4076dc:	4616      	mov	r6, r2
  4076de:	f9b1 200c 	ldrsh.w	r2, [r1, #12]
  4076e2:	461f      	mov	r7, r3
  4076e4:	05d3      	lsls	r3, r2, #23
  4076e6:	460c      	mov	r4, r1
  4076e8:	4605      	mov	r5, r0
  4076ea:	d507      	bpl.n	4076fc <__swrite+0x24>
  4076ec:	2200      	movs	r2, #0
  4076ee:	2302      	movs	r3, #2
  4076f0:	f9b1 100e 	ldrsh.w	r1, [r1, #14]
  4076f4:	f000 fa64 	bl	407bc0 <_lseek_r>
  4076f8:	f9b4 200c 	ldrsh.w	r2, [r4, #12]
  4076fc:	f9b4 100e 	ldrsh.w	r1, [r4, #14]
  407700:	f422 5280 	bic.w	r2, r2, #4096	; 0x1000
  407704:	81a2      	strh	r2, [r4, #12]
  407706:	463b      	mov	r3, r7
  407708:	4632      	mov	r2, r6
  40770a:	4628      	mov	r0, r5
  40770c:	e8bd 41f0 	ldmia.w	sp!, {r4, r5, r6, r7, r8, lr}
  407710:	f000 b914 	b.w	40793c <_write_r>

00407714 <__sseek>:
  407714:	b510      	push	{r4, lr}
  407716:	460c      	mov	r4, r1
  407718:	f9b1 100e 	ldrsh.w	r1, [r1, #14]
  40771c:	f000 fa50 	bl	407bc0 <_lseek_r>
  407720:	89a3      	ldrh	r3, [r4, #12]
  407722:	1c42      	adds	r2, r0, #1
  407724:	bf0e      	itee	eq
  407726:	f423 5380 	biceq.w	r3, r3, #4096	; 0x1000
  40772a:	f443 5380 	orrne.w	r3, r3, #4096	; 0x1000
  40772e:	6520      	strne	r0, [r4, #80]	; 0x50
  407730:	81a3      	strh	r3, [r4, #12]
  407732:	bd10      	pop	{r4, pc}

00407734 <__sclose>:
  407734:	f9b1 100e 	ldrsh.w	r1, [r1, #14]
  407738:	f000 b9a8 	b.w	407a8c <_close_r>
  40773c:	0000      	movs	r0, r0
	...

00407740 <strlen>:
  407740:	f890 f000 	pld	[r0]
  407744:	e96d 4502 	strd	r4, r5, [sp, #-8]!
  407748:	f020 0107 	bic.w	r1, r0, #7
  40774c:	f06f 0c00 	mvn.w	ip, #0
  407750:	f010 0407 	ands.w	r4, r0, #7
  407754:	f891 f020 	pld	[r1, #32]
  407758:	f040 8049 	bne.w	4077ee <strlen+0xae>
  40775c:	f04f 0400 	mov.w	r4, #0
  407760:	f06f 0007 	mvn.w	r0, #7
  407764:	e9d1 2300 	ldrd	r2, r3, [r1]
  407768:	f891 f040 	pld	[r1, #64]	; 0x40
  40776c:	f100 0008 	add.w	r0, r0, #8
  407770:	fa82 f24c 	uadd8	r2, r2, ip
  407774:	faa4 f28c 	sel	r2, r4, ip
  407778:	fa83 f34c 	uadd8	r3, r3, ip
  40777c:	faa2 f38c 	sel	r3, r2, ip
  407780:	bb4b      	cbnz	r3, 4077d6 <strlen+0x96>
  407782:	e9d1 2302 	ldrd	r2, r3, [r1, #8]
  407786:	fa82 f24c 	uadd8	r2, r2, ip
  40778a:	f100 0008 	add.w	r0, r0, #8
  40778e:	faa4 f28c 	sel	r2, r4, ip
  407792:	fa83 f34c 	uadd8	r3, r3, ip
  407796:	faa2 f38c 	sel	r3, r2, ip
  40779a:	b9e3      	cbnz	r3, 4077d6 <strlen+0x96>
  40779c:	e9d1 2304 	ldrd	r2, r3, [r1, #16]
  4077a0:	fa82 f24c 	uadd8	r2, r2, ip
  4077a4:	f100 0008 	add.w	r0, r0, #8
  4077a8:	faa4 f28c 	sel	r2, r4, ip
  4077ac:	fa83 f34c 	uadd8	r3, r3, ip
  4077b0:	faa2 f38c 	sel	r3, r2, ip
  4077b4:	b97b      	cbnz	r3, 4077d6 <strlen+0x96>
  4077b6:	e9d1 2306 	ldrd	r2, r3, [r1, #24]
  4077ba:	f101 0120 	add.w	r1, r1, #32
  4077be:	fa82 f24c 	uadd8	r2, r2, ip
  4077c2:	f100 0008 	add.w	r0, r0, #8
  4077c6:	faa4 f28c 	sel	r2, r4, ip
  4077ca:	fa83 f34c 	uadd8	r3, r3, ip
  4077ce:	faa2 f38c 	sel	r3, r2, ip
  4077d2:	2b00      	cmp	r3, #0
  4077d4:	d0c6      	beq.n	407764 <strlen+0x24>
  4077d6:	2a00      	cmp	r2, #0
  4077d8:	bf04      	itt	eq
  4077da:	3004      	addeq	r0, #4
  4077dc:	461a      	moveq	r2, r3
  4077de:	ba12      	rev	r2, r2
  4077e0:	fab2 f282 	clz	r2, r2
  4077e4:	e8fd 4502 	ldrd	r4, r5, [sp], #8
  4077e8:	eb00 00d2 	add.w	r0, r0, r2, lsr #3
  4077ec:	4770      	bx	lr
  4077ee:	e9d1 2300 	ldrd	r2, r3, [r1]
  4077f2:	f004 0503 	and.w	r5, r4, #3
  4077f6:	f1c4 0000 	rsb	r0, r4, #0
  4077fa:	ea4f 05c5 	mov.w	r5, r5, lsl #3
  4077fe:	f014 0f04 	tst.w	r4, #4
  407802:	f891 f040 	pld	[r1, #64]	; 0x40
  407806:	fa0c f505 	lsl.w	r5, ip, r5
  40780a:	ea62 0205 	orn	r2, r2, r5
  40780e:	bf1c      	itt	ne
  407810:	ea63 0305 	ornne	r3, r3, r5
  407814:	4662      	movne	r2, ip
  407816:	f04f 0400 	mov.w	r4, #0
  40781a:	e7a9      	b.n	407770 <strlen+0x30>

0040781c <__swbuf_r>:
  40781c:	b5f8      	push	{r3, r4, r5, r6, r7, lr}
  40781e:	460d      	mov	r5, r1
  407820:	4614      	mov	r4, r2
  407822:	4606      	mov	r6, r0
  407824:	b110      	cbz	r0, 40782c <__swbuf_r+0x10>
  407826:	6b83      	ldr	r3, [r0, #56]	; 0x38
  407828:	2b00      	cmp	r3, #0
  40782a:	d04b      	beq.n	4078c4 <__swbuf_r+0xa8>
  40782c:	f9b4 200c 	ldrsh.w	r2, [r4, #12]
  407830:	69a3      	ldr	r3, [r4, #24]
  407832:	60a3      	str	r3, [r4, #8]
  407834:	b291      	uxth	r1, r2
  407836:	0708      	lsls	r0, r1, #28
  407838:	d539      	bpl.n	4078ae <__swbuf_r+0x92>
  40783a:	6923      	ldr	r3, [r4, #16]
  40783c:	2b00      	cmp	r3, #0
  40783e:	d036      	beq.n	4078ae <__swbuf_r+0x92>
  407840:	b2ed      	uxtb	r5, r5
  407842:	0489      	lsls	r1, r1, #18
  407844:	462f      	mov	r7, r5
  407846:	d515      	bpl.n	407874 <__swbuf_r+0x58>
  407848:	6822      	ldr	r2, [r4, #0]
  40784a:	6961      	ldr	r1, [r4, #20]
  40784c:	1ad3      	subs	r3, r2, r3
  40784e:	428b      	cmp	r3, r1
  407850:	da1c      	bge.n	40788c <__swbuf_r+0x70>
  407852:	3301      	adds	r3, #1
  407854:	68a1      	ldr	r1, [r4, #8]
  407856:	1c50      	adds	r0, r2, #1
  407858:	3901      	subs	r1, #1
  40785a:	60a1      	str	r1, [r4, #8]
  40785c:	6020      	str	r0, [r4, #0]
  40785e:	7015      	strb	r5, [r2, #0]
  407860:	6962      	ldr	r2, [r4, #20]
  407862:	429a      	cmp	r2, r3
  407864:	d01a      	beq.n	40789c <__swbuf_r+0x80>
  407866:	89a3      	ldrh	r3, [r4, #12]
  407868:	07db      	lsls	r3, r3, #31
  40786a:	d501      	bpl.n	407870 <__swbuf_r+0x54>
  40786c:	2d0a      	cmp	r5, #10
  40786e:	d015      	beq.n	40789c <__swbuf_r+0x80>
  407870:	4638      	mov	r0, r7
  407872:	bdf8      	pop	{r3, r4, r5, r6, r7, pc}
  407874:	6e61      	ldr	r1, [r4, #100]	; 0x64
  407876:	f442 5200 	orr.w	r2, r2, #8192	; 0x2000
  40787a:	f421 5100 	bic.w	r1, r1, #8192	; 0x2000
  40787e:	81a2      	strh	r2, [r4, #12]
  407880:	6822      	ldr	r2, [r4, #0]
  407882:	6661      	str	r1, [r4, #100]	; 0x64
  407884:	6961      	ldr	r1, [r4, #20]
  407886:	1ad3      	subs	r3, r2, r3
  407888:	428b      	cmp	r3, r1
  40788a:	dbe2      	blt.n	407852 <__swbuf_r+0x36>
  40788c:	4621      	mov	r1, r4
  40788e:	4630      	mov	r0, r6
  407890:	f7fe fcb4 	bl	4061fc <_fflush_r>
  407894:	b940      	cbnz	r0, 4078a8 <__swbuf_r+0x8c>
  407896:	6822      	ldr	r2, [r4, #0]
  407898:	2301      	movs	r3, #1
  40789a:	e7db      	b.n	407854 <__swbuf_r+0x38>
  40789c:	4621      	mov	r1, r4
  40789e:	4630      	mov	r0, r6
  4078a0:	f7fe fcac 	bl	4061fc <_fflush_r>
  4078a4:	2800      	cmp	r0, #0
  4078a6:	d0e3      	beq.n	407870 <__swbuf_r+0x54>
  4078a8:	f04f 37ff 	mov.w	r7, #4294967295
  4078ac:	e7e0      	b.n	407870 <__swbuf_r+0x54>
  4078ae:	4621      	mov	r1, r4
  4078b0:	4630      	mov	r0, r6
  4078b2:	f7fd fbc7 	bl	405044 <__swsetup_r>
  4078b6:	2800      	cmp	r0, #0
  4078b8:	d1f6      	bne.n	4078a8 <__swbuf_r+0x8c>
  4078ba:	f9b4 200c 	ldrsh.w	r2, [r4, #12]
  4078be:	6923      	ldr	r3, [r4, #16]
  4078c0:	b291      	uxth	r1, r2
  4078c2:	e7bd      	b.n	407840 <__swbuf_r+0x24>
  4078c4:	f7fe fcf2 	bl	4062ac <__sinit>
  4078c8:	e7b0      	b.n	40782c <__swbuf_r+0x10>
  4078ca:	bf00      	nop

004078cc <_wcrtomb_r>:
  4078cc:	b5f0      	push	{r4, r5, r6, r7, lr}
  4078ce:	4606      	mov	r6, r0
  4078d0:	b085      	sub	sp, #20
  4078d2:	461f      	mov	r7, r3
  4078d4:	b189      	cbz	r1, 4078fa <_wcrtomb_r+0x2e>
  4078d6:	4c10      	ldr	r4, [pc, #64]	; (407918 <_wcrtomb_r+0x4c>)
  4078d8:	4d10      	ldr	r5, [pc, #64]	; (40791c <_wcrtomb_r+0x50>)
  4078da:	6824      	ldr	r4, [r4, #0]
  4078dc:	6b64      	ldr	r4, [r4, #52]	; 0x34
  4078de:	2c00      	cmp	r4, #0
  4078e0:	bf08      	it	eq
  4078e2:	462c      	moveq	r4, r5
  4078e4:	f8d4 40e0 	ldr.w	r4, [r4, #224]	; 0xe0
  4078e8:	47a0      	blx	r4
  4078ea:	1c43      	adds	r3, r0, #1
  4078ec:	d103      	bne.n	4078f6 <_wcrtomb_r+0x2a>
  4078ee:	2200      	movs	r2, #0
  4078f0:	238a      	movs	r3, #138	; 0x8a
  4078f2:	603a      	str	r2, [r7, #0]
  4078f4:	6033      	str	r3, [r6, #0]
  4078f6:	b005      	add	sp, #20
  4078f8:	bdf0      	pop	{r4, r5, r6, r7, pc}
  4078fa:	460c      	mov	r4, r1
  4078fc:	4906      	ldr	r1, [pc, #24]	; (407918 <_wcrtomb_r+0x4c>)
  4078fe:	4a07      	ldr	r2, [pc, #28]	; (40791c <_wcrtomb_r+0x50>)
  407900:	6809      	ldr	r1, [r1, #0]
  407902:	6b49      	ldr	r1, [r1, #52]	; 0x34
  407904:	2900      	cmp	r1, #0
  407906:	bf08      	it	eq
  407908:	4611      	moveq	r1, r2
  40790a:	4622      	mov	r2, r4
  40790c:	f8d1 40e0 	ldr.w	r4, [r1, #224]	; 0xe0
  407910:	a901      	add	r1, sp, #4
  407912:	47a0      	blx	r4
  407914:	e7e9      	b.n	4078ea <_wcrtomb_r+0x1e>
  407916:	bf00      	nop
  407918:	20400068 	.word	0x20400068
  40791c:	204008ac 	.word	0x204008ac

00407920 <__ascii_wctomb>:
  407920:	b121      	cbz	r1, 40792c <__ascii_wctomb+0xc>
  407922:	2aff      	cmp	r2, #255	; 0xff
  407924:	d804      	bhi.n	407930 <__ascii_wctomb+0x10>
  407926:	700a      	strb	r2, [r1, #0]
  407928:	2001      	movs	r0, #1
  40792a:	4770      	bx	lr
  40792c:	4608      	mov	r0, r1
  40792e:	4770      	bx	lr
  407930:	238a      	movs	r3, #138	; 0x8a
  407932:	6003      	str	r3, [r0, #0]
  407934:	f04f 30ff 	mov.w	r0, #4294967295
  407938:	4770      	bx	lr
  40793a:	bf00      	nop

0040793c <_write_r>:
  40793c:	b570      	push	{r4, r5, r6, lr}
  40793e:	460d      	mov	r5, r1
  407940:	4c08      	ldr	r4, [pc, #32]	; (407964 <_write_r+0x28>)
  407942:	4611      	mov	r1, r2
  407944:	4606      	mov	r6, r0
  407946:	461a      	mov	r2, r3
  407948:	4628      	mov	r0, r5
  40794a:	2300      	movs	r3, #0
  40794c:	6023      	str	r3, [r4, #0]
  40794e:	f7f8 fcef 	bl	400330 <_write>
  407952:	1c43      	adds	r3, r0, #1
  407954:	d000      	beq.n	407958 <_write_r+0x1c>
  407956:	bd70      	pop	{r4, r5, r6, pc}
  407958:	6823      	ldr	r3, [r4, #0]
  40795a:	2b00      	cmp	r3, #0
  40795c:	d0fb      	beq.n	407956 <_write_r+0x1a>
  40795e:	6033      	str	r3, [r6, #0]
  407960:	bd70      	pop	{r4, r5, r6, pc}
  407962:	bf00      	nop
  407964:	20408cc4 	.word	0x20408cc4

00407968 <__register_exitproc>:
  407968:	e92d 43f8 	stmdb	sp!, {r3, r4, r5, r6, r7, r8, r9, lr}
  40796c:	4d2c      	ldr	r5, [pc, #176]	; (407a20 <__register_exitproc+0xb8>)
  40796e:	4606      	mov	r6, r0
  407970:	6828      	ldr	r0, [r5, #0]
  407972:	4698      	mov	r8, r3
  407974:	460f      	mov	r7, r1
  407976:	4691      	mov	r9, r2
  407978:	f7ff f866 	bl	406a48 <__retarget_lock_acquire_recursive>
  40797c:	4b29      	ldr	r3, [pc, #164]	; (407a24 <__register_exitproc+0xbc>)
  40797e:	681c      	ldr	r4, [r3, #0]
  407980:	f8d4 3148 	ldr.w	r3, [r4, #328]	; 0x148
  407984:	2b00      	cmp	r3, #0
  407986:	d03e      	beq.n	407a06 <__register_exitproc+0x9e>
  407988:	685a      	ldr	r2, [r3, #4]
  40798a:	2a1f      	cmp	r2, #31
  40798c:	dc1c      	bgt.n	4079c8 <__register_exitproc+0x60>
  40798e:	f102 0e01 	add.w	lr, r2, #1
  407992:	b176      	cbz	r6, 4079b2 <__register_exitproc+0x4a>
  407994:	eb03 0182 	add.w	r1, r3, r2, lsl #2
  407998:	2401      	movs	r4, #1
  40799a:	f8c1 9088 	str.w	r9, [r1, #136]	; 0x88
  40799e:	f8d3 0188 	ldr.w	r0, [r3, #392]	; 0x188
  4079a2:	4094      	lsls	r4, r2
  4079a4:	4320      	orrs	r0, r4
  4079a6:	2e02      	cmp	r6, #2
  4079a8:	f8c3 0188 	str.w	r0, [r3, #392]	; 0x188
  4079ac:	f8c1 8108 	str.w	r8, [r1, #264]	; 0x108
  4079b0:	d023      	beq.n	4079fa <__register_exitproc+0x92>
  4079b2:	3202      	adds	r2, #2
  4079b4:	f8c3 e004 	str.w	lr, [r3, #4]
  4079b8:	6828      	ldr	r0, [r5, #0]
  4079ba:	f843 7022 	str.w	r7, [r3, r2, lsl #2]
  4079be:	f7ff f845 	bl	406a4c <__retarget_lock_release_recursive>
  4079c2:	2000      	movs	r0, #0
  4079c4:	e8bd 83f8 	ldmia.w	sp!, {r3, r4, r5, r6, r7, r8, r9, pc}
  4079c8:	4b17      	ldr	r3, [pc, #92]	; (407a28 <__register_exitproc+0xc0>)
  4079ca:	b30b      	cbz	r3, 407a10 <__register_exitproc+0xa8>
  4079cc:	f44f 70c8 	mov.w	r0, #400	; 0x190
  4079d0:	f7fa fcdc 	bl	40238c <malloc>
  4079d4:	4603      	mov	r3, r0
  4079d6:	b1d8      	cbz	r0, 407a10 <__register_exitproc+0xa8>
  4079d8:	f8d4 2148 	ldr.w	r2, [r4, #328]	; 0x148
  4079dc:	6002      	str	r2, [r0, #0]
  4079de:	2100      	movs	r1, #0
  4079e0:	6041      	str	r1, [r0, #4]
  4079e2:	460a      	mov	r2, r1
  4079e4:	f8c4 0148 	str.w	r0, [r4, #328]	; 0x148
  4079e8:	f04f 0e01 	mov.w	lr, #1
  4079ec:	f8c0 1188 	str.w	r1, [r0, #392]	; 0x188
  4079f0:	f8c0 118c 	str.w	r1, [r0, #396]	; 0x18c
  4079f4:	2e00      	cmp	r6, #0
  4079f6:	d0dc      	beq.n	4079b2 <__register_exitproc+0x4a>
  4079f8:	e7cc      	b.n	407994 <__register_exitproc+0x2c>
  4079fa:	f8d3 118c 	ldr.w	r1, [r3, #396]	; 0x18c
  4079fe:	430c      	orrs	r4, r1
  407a00:	f8c3 418c 	str.w	r4, [r3, #396]	; 0x18c
  407a04:	e7d5      	b.n	4079b2 <__register_exitproc+0x4a>
  407a06:	f504 73a6 	add.w	r3, r4, #332	; 0x14c
  407a0a:	f8c4 3148 	str.w	r3, [r4, #328]	; 0x148
  407a0e:	e7bb      	b.n	407988 <__register_exitproc+0x20>
  407a10:	6828      	ldr	r0, [r5, #0]
  407a12:	f7ff f81b 	bl	406a4c <__retarget_lock_release_recursive>
  407a16:	f04f 30ff 	mov.w	r0, #4294967295
  407a1a:	e8bd 83f8 	ldmia.w	sp!, {r3, r4, r5, r6, r7, r8, r9, pc}
  407a1e:	bf00      	nop
  407a20:	204008a8 	.word	0x204008a8
  407a24:	004099a8 	.word	0x004099a8
  407a28:	0040238d 	.word	0x0040238d

00407a2c <_calloc_r>:
  407a2c:	b510      	push	{r4, lr}
  407a2e:	fb02 f101 	mul.w	r1, r2, r1
  407a32:	f7fa fcb3 	bl	40239c <_malloc_r>
  407a36:	4604      	mov	r4, r0
  407a38:	b1d8      	cbz	r0, 407a72 <_calloc_r+0x46>
  407a3a:	f850 2c04 	ldr.w	r2, [r0, #-4]
  407a3e:	f022 0203 	bic.w	r2, r2, #3
  407a42:	3a04      	subs	r2, #4
  407a44:	2a24      	cmp	r2, #36	; 0x24
  407a46:	d818      	bhi.n	407a7a <_calloc_r+0x4e>
  407a48:	2a13      	cmp	r2, #19
  407a4a:	d914      	bls.n	407a76 <_calloc_r+0x4a>
  407a4c:	2300      	movs	r3, #0
  407a4e:	2a1b      	cmp	r2, #27
  407a50:	6003      	str	r3, [r0, #0]
  407a52:	6043      	str	r3, [r0, #4]
  407a54:	d916      	bls.n	407a84 <_calloc_r+0x58>
  407a56:	2a24      	cmp	r2, #36	; 0x24
  407a58:	6083      	str	r3, [r0, #8]
  407a5a:	60c3      	str	r3, [r0, #12]
  407a5c:	bf11      	iteee	ne
  407a5e:	f100 0210 	addne.w	r2, r0, #16
  407a62:	6103      	streq	r3, [r0, #16]
  407a64:	6143      	streq	r3, [r0, #20]
  407a66:	f100 0218 	addeq.w	r2, r0, #24
  407a6a:	2300      	movs	r3, #0
  407a6c:	6013      	str	r3, [r2, #0]
  407a6e:	6053      	str	r3, [r2, #4]
  407a70:	6093      	str	r3, [r2, #8]
  407a72:	4620      	mov	r0, r4
  407a74:	bd10      	pop	{r4, pc}
  407a76:	4602      	mov	r2, r0
  407a78:	e7f7      	b.n	407a6a <_calloc_r+0x3e>
  407a7a:	2100      	movs	r1, #0
  407a7c:	f7fa ffd8 	bl	402a30 <memset>
  407a80:	4620      	mov	r0, r4
  407a82:	bd10      	pop	{r4, pc}
  407a84:	f100 0208 	add.w	r2, r0, #8
  407a88:	e7ef      	b.n	407a6a <_calloc_r+0x3e>
  407a8a:	bf00      	nop

00407a8c <_close_r>:
  407a8c:	b538      	push	{r3, r4, r5, lr}
  407a8e:	4c07      	ldr	r4, [pc, #28]	; (407aac <_close_r+0x20>)
  407a90:	2300      	movs	r3, #0
  407a92:	4605      	mov	r5, r0
  407a94:	4608      	mov	r0, r1
  407a96:	6023      	str	r3, [r4, #0]
  407a98:	f7f8 fc3c 	bl	400314 <_close>
  407a9c:	1c43      	adds	r3, r0, #1
  407a9e:	d000      	beq.n	407aa2 <_close_r+0x16>
  407aa0:	bd38      	pop	{r3, r4, r5, pc}
  407aa2:	6823      	ldr	r3, [r4, #0]
  407aa4:	2b00      	cmp	r3, #0
  407aa6:	d0fb      	beq.n	407aa0 <_close_r+0x14>
  407aa8:	602b      	str	r3, [r5, #0]
  407aaa:	bd38      	pop	{r3, r4, r5, pc}
  407aac:	20408cc4 	.word	0x20408cc4

00407ab0 <_fclose_r>:
  407ab0:	b570      	push	{r4, r5, r6, lr}
  407ab2:	b159      	cbz	r1, 407acc <_fclose_r+0x1c>
  407ab4:	4605      	mov	r5, r0
  407ab6:	460c      	mov	r4, r1
  407ab8:	b110      	cbz	r0, 407ac0 <_fclose_r+0x10>
  407aba:	6b83      	ldr	r3, [r0, #56]	; 0x38
  407abc:	2b00      	cmp	r3, #0
  407abe:	d03c      	beq.n	407b3a <_fclose_r+0x8a>
  407ac0:	6e63      	ldr	r3, [r4, #100]	; 0x64
  407ac2:	07d8      	lsls	r0, r3, #31
  407ac4:	d505      	bpl.n	407ad2 <_fclose_r+0x22>
  407ac6:	f9b4 300c 	ldrsh.w	r3, [r4, #12]
  407aca:	b92b      	cbnz	r3, 407ad8 <_fclose_r+0x28>
  407acc:	2600      	movs	r6, #0
  407ace:	4630      	mov	r0, r6
  407ad0:	bd70      	pop	{r4, r5, r6, pc}
  407ad2:	89a3      	ldrh	r3, [r4, #12]
  407ad4:	0599      	lsls	r1, r3, #22
  407ad6:	d53c      	bpl.n	407b52 <_fclose_r+0xa2>
  407ad8:	4621      	mov	r1, r4
  407ada:	4628      	mov	r0, r5
  407adc:	f7fe faee 	bl	4060bc <__sflush_r>
  407ae0:	6ae3      	ldr	r3, [r4, #44]	; 0x2c
  407ae2:	4606      	mov	r6, r0
  407ae4:	b133      	cbz	r3, 407af4 <_fclose_r+0x44>
  407ae6:	69e1      	ldr	r1, [r4, #28]
  407ae8:	4628      	mov	r0, r5
  407aea:	4798      	blx	r3
  407aec:	2800      	cmp	r0, #0
  407aee:	bfb8      	it	lt
  407af0:	f04f 36ff 	movlt.w	r6, #4294967295
  407af4:	89a3      	ldrh	r3, [r4, #12]
  407af6:	061a      	lsls	r2, r3, #24
  407af8:	d422      	bmi.n	407b40 <_fclose_r+0x90>
  407afa:	6b21      	ldr	r1, [r4, #48]	; 0x30
  407afc:	b141      	cbz	r1, 407b10 <_fclose_r+0x60>
  407afe:	f104 0340 	add.w	r3, r4, #64	; 0x40
  407b02:	4299      	cmp	r1, r3
  407b04:	d002      	beq.n	407b0c <_fclose_r+0x5c>
  407b06:	4628      	mov	r0, r5
  407b08:	f7fe fcf6 	bl	4064f8 <_free_r>
  407b0c:	2300      	movs	r3, #0
  407b0e:	6323      	str	r3, [r4, #48]	; 0x30
  407b10:	6c61      	ldr	r1, [r4, #68]	; 0x44
  407b12:	b121      	cbz	r1, 407b1e <_fclose_r+0x6e>
  407b14:	4628      	mov	r0, r5
  407b16:	f7fe fcef 	bl	4064f8 <_free_r>
  407b1a:	2300      	movs	r3, #0
  407b1c:	6463      	str	r3, [r4, #68]	; 0x44
  407b1e:	f7fe fbf1 	bl	406304 <__sfp_lock_acquire>
  407b22:	6e63      	ldr	r3, [r4, #100]	; 0x64
  407b24:	2200      	movs	r2, #0
  407b26:	07db      	lsls	r3, r3, #31
  407b28:	81a2      	strh	r2, [r4, #12]
  407b2a:	d50e      	bpl.n	407b4a <_fclose_r+0x9a>
  407b2c:	6da0      	ldr	r0, [r4, #88]	; 0x58
  407b2e:	f7fe ff89 	bl	406a44 <__retarget_lock_close_recursive>
  407b32:	f7fe fbed 	bl	406310 <__sfp_lock_release>
  407b36:	4630      	mov	r0, r6
  407b38:	bd70      	pop	{r4, r5, r6, pc}
  407b3a:	f7fe fbb7 	bl	4062ac <__sinit>
  407b3e:	e7bf      	b.n	407ac0 <_fclose_r+0x10>
  407b40:	6921      	ldr	r1, [r4, #16]
  407b42:	4628      	mov	r0, r5
  407b44:	f7fe fcd8 	bl	4064f8 <_free_r>
  407b48:	e7d7      	b.n	407afa <_fclose_r+0x4a>
  407b4a:	6da0      	ldr	r0, [r4, #88]	; 0x58
  407b4c:	f7fe ff7e 	bl	406a4c <__retarget_lock_release_recursive>
  407b50:	e7ec      	b.n	407b2c <_fclose_r+0x7c>
  407b52:	6da0      	ldr	r0, [r4, #88]	; 0x58
  407b54:	f7fe ff78 	bl	406a48 <__retarget_lock_acquire_recursive>
  407b58:	f9b4 300c 	ldrsh.w	r3, [r4, #12]
  407b5c:	2b00      	cmp	r3, #0
  407b5e:	d1bb      	bne.n	407ad8 <_fclose_r+0x28>
  407b60:	6e66      	ldr	r6, [r4, #100]	; 0x64
  407b62:	f016 0601 	ands.w	r6, r6, #1
  407b66:	d1b1      	bne.n	407acc <_fclose_r+0x1c>
  407b68:	6da0      	ldr	r0, [r4, #88]	; 0x58
  407b6a:	f7fe ff6f 	bl	406a4c <__retarget_lock_release_recursive>
  407b6e:	4630      	mov	r0, r6
  407b70:	bd70      	pop	{r4, r5, r6, pc}
  407b72:	bf00      	nop

00407b74 <_fstat_r>:
  407b74:	b538      	push	{r3, r4, r5, lr}
  407b76:	460b      	mov	r3, r1
  407b78:	4c07      	ldr	r4, [pc, #28]	; (407b98 <_fstat_r+0x24>)
  407b7a:	4605      	mov	r5, r0
  407b7c:	4611      	mov	r1, r2
  407b7e:	4618      	mov	r0, r3
  407b80:	2300      	movs	r3, #0
  407b82:	6023      	str	r3, [r4, #0]
  407b84:	f7f8 fbc9 	bl	40031a <_fstat>
  407b88:	1c43      	adds	r3, r0, #1
  407b8a:	d000      	beq.n	407b8e <_fstat_r+0x1a>
  407b8c:	bd38      	pop	{r3, r4, r5, pc}
  407b8e:	6823      	ldr	r3, [r4, #0]
  407b90:	2b00      	cmp	r3, #0
  407b92:	d0fb      	beq.n	407b8c <_fstat_r+0x18>
  407b94:	602b      	str	r3, [r5, #0]
  407b96:	bd38      	pop	{r3, r4, r5, pc}
  407b98:	20408cc4 	.word	0x20408cc4

00407b9c <_isatty_r>:
  407b9c:	b538      	push	{r3, r4, r5, lr}
  407b9e:	4c07      	ldr	r4, [pc, #28]	; (407bbc <_isatty_r+0x20>)
  407ba0:	2300      	movs	r3, #0
  407ba2:	4605      	mov	r5, r0
  407ba4:	4608      	mov	r0, r1
  407ba6:	6023      	str	r3, [r4, #0]
  407ba8:	f7f8 fbbc 	bl	400324 <_isatty>
  407bac:	1c43      	adds	r3, r0, #1
  407bae:	d000      	beq.n	407bb2 <_isatty_r+0x16>
  407bb0:	bd38      	pop	{r3, r4, r5, pc}
  407bb2:	6823      	ldr	r3, [r4, #0]
  407bb4:	2b00      	cmp	r3, #0
  407bb6:	d0fb      	beq.n	407bb0 <_isatty_r+0x14>
  407bb8:	602b      	str	r3, [r5, #0]
  407bba:	bd38      	pop	{r3, r4, r5, pc}
  407bbc:	20408cc4 	.word	0x20408cc4

00407bc0 <_lseek_r>:
  407bc0:	b570      	push	{r4, r5, r6, lr}
  407bc2:	460d      	mov	r5, r1
  407bc4:	4c08      	ldr	r4, [pc, #32]	; (407be8 <_lseek_r+0x28>)
  407bc6:	4611      	mov	r1, r2
  407bc8:	4606      	mov	r6, r0
  407bca:	461a      	mov	r2, r3
  407bcc:	4628      	mov	r0, r5
  407bce:	2300      	movs	r3, #0
  407bd0:	6023      	str	r3, [r4, #0]
  407bd2:	f7f8 fba9 	bl	400328 <_lseek>
  407bd6:	1c43      	adds	r3, r0, #1
  407bd8:	d000      	beq.n	407bdc <_lseek_r+0x1c>
  407bda:	bd70      	pop	{r4, r5, r6, pc}
  407bdc:	6823      	ldr	r3, [r4, #0]
  407bde:	2b00      	cmp	r3, #0
  407be0:	d0fb      	beq.n	407bda <_lseek_r+0x1a>
  407be2:	6033      	str	r3, [r6, #0]
  407be4:	bd70      	pop	{r4, r5, r6, pc}
  407be6:	bf00      	nop
  407be8:	20408cc4 	.word	0x20408cc4

00407bec <_read_r>:
  407bec:	b570      	push	{r4, r5, r6, lr}
  407bee:	460d      	mov	r5, r1
  407bf0:	4c08      	ldr	r4, [pc, #32]	; (407c14 <_read_r+0x28>)
  407bf2:	4611      	mov	r1, r2
  407bf4:	4606      	mov	r6, r0
  407bf6:	461a      	mov	r2, r3
  407bf8:	4628      	mov	r0, r5
  407bfa:	2300      	movs	r3, #0
  407bfc:	6023      	str	r3, [r4, #0]
  407bfe:	f7f8 fb95 	bl	40032c <_read>
  407c02:	1c43      	adds	r3, r0, #1
  407c04:	d000      	beq.n	407c08 <_read_r+0x1c>
  407c06:	bd70      	pop	{r4, r5, r6, pc}
  407c08:	6823      	ldr	r3, [r4, #0]
  407c0a:	2b00      	cmp	r3, #0
  407c0c:	d0fb      	beq.n	407c06 <_read_r+0x1a>
  407c0e:	6033      	str	r3, [r6, #0]
  407c10:	bd70      	pop	{r4, r5, r6, pc}
  407c12:	bf00      	nop
  407c14:	20408cc4 	.word	0x20408cc4

00407c18 <__aeabi_drsub>:
  407c18:	f081 4100 	eor.w	r1, r1, #2147483648	; 0x80000000
  407c1c:	e002      	b.n	407c24 <__adddf3>
  407c1e:	bf00      	nop

00407c20 <__aeabi_dsub>:
  407c20:	f083 4300 	eor.w	r3, r3, #2147483648	; 0x80000000

00407c24 <__adddf3>:
  407c24:	b530      	push	{r4, r5, lr}
  407c26:	ea4f 0441 	mov.w	r4, r1, lsl #1
  407c2a:	ea4f 0543 	mov.w	r5, r3, lsl #1
  407c2e:	ea94 0f05 	teq	r4, r5
  407c32:	bf08      	it	eq
  407c34:	ea90 0f02 	teqeq	r0, r2
  407c38:	bf1f      	itttt	ne
  407c3a:	ea54 0c00 	orrsne.w	ip, r4, r0
  407c3e:	ea55 0c02 	orrsne.w	ip, r5, r2
  407c42:	ea7f 5c64 	mvnsne.w	ip, r4, asr #21
  407c46:	ea7f 5c65 	mvnsne.w	ip, r5, asr #21
  407c4a:	f000 80e2 	beq.w	407e12 <__adddf3+0x1ee>
  407c4e:	ea4f 5454 	mov.w	r4, r4, lsr #21
  407c52:	ebd4 5555 	rsbs	r5, r4, r5, lsr #21
  407c56:	bfb8      	it	lt
  407c58:	426d      	neglt	r5, r5
  407c5a:	dd0c      	ble.n	407c76 <__adddf3+0x52>
  407c5c:	442c      	add	r4, r5
  407c5e:	ea80 0202 	eor.w	r2, r0, r2
  407c62:	ea81 0303 	eor.w	r3, r1, r3
  407c66:	ea82 0000 	eor.w	r0, r2, r0
  407c6a:	ea83 0101 	eor.w	r1, r3, r1
  407c6e:	ea80 0202 	eor.w	r2, r0, r2
  407c72:	ea81 0303 	eor.w	r3, r1, r3
  407c76:	2d36      	cmp	r5, #54	; 0x36
  407c78:	bf88      	it	hi
  407c7a:	bd30      	pophi	{r4, r5, pc}
  407c7c:	f011 4f00 	tst.w	r1, #2147483648	; 0x80000000
  407c80:	ea4f 3101 	mov.w	r1, r1, lsl #12
  407c84:	f44f 1c80 	mov.w	ip, #1048576	; 0x100000
  407c88:	ea4c 3111 	orr.w	r1, ip, r1, lsr #12
  407c8c:	d002      	beq.n	407c94 <__adddf3+0x70>
  407c8e:	4240      	negs	r0, r0
  407c90:	eb61 0141 	sbc.w	r1, r1, r1, lsl #1
  407c94:	f013 4f00 	tst.w	r3, #2147483648	; 0x80000000
  407c98:	ea4f 3303 	mov.w	r3, r3, lsl #12
  407c9c:	ea4c 3313 	orr.w	r3, ip, r3, lsr #12
  407ca0:	d002      	beq.n	407ca8 <__adddf3+0x84>
  407ca2:	4252      	negs	r2, r2
  407ca4:	eb63 0343 	sbc.w	r3, r3, r3, lsl #1
  407ca8:	ea94 0f05 	teq	r4, r5
  407cac:	f000 80a7 	beq.w	407dfe <__adddf3+0x1da>
  407cb0:	f1a4 0401 	sub.w	r4, r4, #1
  407cb4:	f1d5 0e20 	rsbs	lr, r5, #32
  407cb8:	db0d      	blt.n	407cd6 <__adddf3+0xb2>
  407cba:	fa02 fc0e 	lsl.w	ip, r2, lr
  407cbe:	fa22 f205 	lsr.w	r2, r2, r5
  407cc2:	1880      	adds	r0, r0, r2
  407cc4:	f141 0100 	adc.w	r1, r1, #0
  407cc8:	fa03 f20e 	lsl.w	r2, r3, lr
  407ccc:	1880      	adds	r0, r0, r2
  407cce:	fa43 f305 	asr.w	r3, r3, r5
  407cd2:	4159      	adcs	r1, r3
  407cd4:	e00e      	b.n	407cf4 <__adddf3+0xd0>
  407cd6:	f1a5 0520 	sub.w	r5, r5, #32
  407cda:	f10e 0e20 	add.w	lr, lr, #32
  407cde:	2a01      	cmp	r2, #1
  407ce0:	fa03 fc0e 	lsl.w	ip, r3, lr
  407ce4:	bf28      	it	cs
  407ce6:	f04c 0c02 	orrcs.w	ip, ip, #2
  407cea:	fa43 f305 	asr.w	r3, r3, r5
  407cee:	18c0      	adds	r0, r0, r3
  407cf0:	eb51 71e3 	adcs.w	r1, r1, r3, asr #31
  407cf4:	f001 4500 	and.w	r5, r1, #2147483648	; 0x80000000
  407cf8:	d507      	bpl.n	407d0a <__adddf3+0xe6>
  407cfa:	f04f 0e00 	mov.w	lr, #0
  407cfe:	f1dc 0c00 	rsbs	ip, ip, #0
  407d02:	eb7e 0000 	sbcs.w	r0, lr, r0
  407d06:	eb6e 0101 	sbc.w	r1, lr, r1
  407d0a:	f5b1 1f80 	cmp.w	r1, #1048576	; 0x100000
  407d0e:	d31b      	bcc.n	407d48 <__adddf3+0x124>
  407d10:	f5b1 1f00 	cmp.w	r1, #2097152	; 0x200000
  407d14:	d30c      	bcc.n	407d30 <__adddf3+0x10c>
  407d16:	0849      	lsrs	r1, r1, #1
  407d18:	ea5f 0030 	movs.w	r0, r0, rrx
  407d1c:	ea4f 0c3c 	mov.w	ip, ip, rrx
  407d20:	f104 0401 	add.w	r4, r4, #1
  407d24:	ea4f 5244 	mov.w	r2, r4, lsl #21
  407d28:	f512 0f80 	cmn.w	r2, #4194304	; 0x400000
  407d2c:	f080 809a 	bcs.w	407e64 <__adddf3+0x240>
  407d30:	f1bc 4f00 	cmp.w	ip, #2147483648	; 0x80000000
  407d34:	bf08      	it	eq
  407d36:	ea5f 0c50 	movseq.w	ip, r0, lsr #1
  407d3a:	f150 0000 	adcs.w	r0, r0, #0
  407d3e:	eb41 5104 	adc.w	r1, r1, r4, lsl #20
  407d42:	ea41 0105 	orr.w	r1, r1, r5
  407d46:	bd30      	pop	{r4, r5, pc}
  407d48:	ea5f 0c4c 	movs.w	ip, ip, lsl #1
  407d4c:	4140      	adcs	r0, r0
  407d4e:	eb41 0101 	adc.w	r1, r1, r1
  407d52:	f411 1f80 	tst.w	r1, #1048576	; 0x100000
  407d56:	f1a4 0401 	sub.w	r4, r4, #1
  407d5a:	d1e9      	bne.n	407d30 <__adddf3+0x10c>
  407d5c:	f091 0f00 	teq	r1, #0
  407d60:	bf04      	itt	eq
  407d62:	4601      	moveq	r1, r0
  407d64:	2000      	moveq	r0, #0
  407d66:	fab1 f381 	clz	r3, r1
  407d6a:	bf08      	it	eq
  407d6c:	3320      	addeq	r3, #32
  407d6e:	f1a3 030b 	sub.w	r3, r3, #11
  407d72:	f1b3 0220 	subs.w	r2, r3, #32
  407d76:	da0c      	bge.n	407d92 <__adddf3+0x16e>
  407d78:	320c      	adds	r2, #12
  407d7a:	dd08      	ble.n	407d8e <__adddf3+0x16a>
  407d7c:	f102 0c14 	add.w	ip, r2, #20
  407d80:	f1c2 020c 	rsb	r2, r2, #12
  407d84:	fa01 f00c 	lsl.w	r0, r1, ip
  407d88:	fa21 f102 	lsr.w	r1, r1, r2
  407d8c:	e00c      	b.n	407da8 <__adddf3+0x184>
  407d8e:	f102 0214 	add.w	r2, r2, #20
  407d92:	bfd8      	it	le
  407d94:	f1c2 0c20 	rsble	ip, r2, #32
  407d98:	fa01 f102 	lsl.w	r1, r1, r2
  407d9c:	fa20 fc0c 	lsr.w	ip, r0, ip
  407da0:	bfdc      	itt	le
  407da2:	ea41 010c 	orrle.w	r1, r1, ip
  407da6:	4090      	lslle	r0, r2
  407da8:	1ae4      	subs	r4, r4, r3
  407daa:	bfa2      	ittt	ge
  407dac:	eb01 5104 	addge.w	r1, r1, r4, lsl #20
  407db0:	4329      	orrge	r1, r5
  407db2:	bd30      	popge	{r4, r5, pc}
  407db4:	ea6f 0404 	mvn.w	r4, r4
  407db8:	3c1f      	subs	r4, #31
  407dba:	da1c      	bge.n	407df6 <__adddf3+0x1d2>
  407dbc:	340c      	adds	r4, #12
  407dbe:	dc0e      	bgt.n	407dde <__adddf3+0x1ba>
  407dc0:	f104 0414 	add.w	r4, r4, #20
  407dc4:	f1c4 0220 	rsb	r2, r4, #32
  407dc8:	fa20 f004 	lsr.w	r0, r0, r4
  407dcc:	fa01 f302 	lsl.w	r3, r1, r2
  407dd0:	ea40 0003 	orr.w	r0, r0, r3
  407dd4:	fa21 f304 	lsr.w	r3, r1, r4
  407dd8:	ea45 0103 	orr.w	r1, r5, r3
  407ddc:	bd30      	pop	{r4, r5, pc}
  407dde:	f1c4 040c 	rsb	r4, r4, #12
  407de2:	f1c4 0220 	rsb	r2, r4, #32
  407de6:	fa20 f002 	lsr.w	r0, r0, r2
  407dea:	fa01 f304 	lsl.w	r3, r1, r4
  407dee:	ea40 0003 	orr.w	r0, r0, r3
  407df2:	4629      	mov	r1, r5
  407df4:	bd30      	pop	{r4, r5, pc}
  407df6:	fa21 f004 	lsr.w	r0, r1, r4
  407dfa:	4629      	mov	r1, r5
  407dfc:	bd30      	pop	{r4, r5, pc}
  407dfe:	f094 0f00 	teq	r4, #0
  407e02:	f483 1380 	eor.w	r3, r3, #1048576	; 0x100000
  407e06:	bf06      	itte	eq
  407e08:	f481 1180 	eoreq.w	r1, r1, #1048576	; 0x100000
  407e0c:	3401      	addeq	r4, #1
  407e0e:	3d01      	subne	r5, #1
  407e10:	e74e      	b.n	407cb0 <__adddf3+0x8c>
  407e12:	ea7f 5c64 	mvns.w	ip, r4, asr #21
  407e16:	bf18      	it	ne
  407e18:	ea7f 5c65 	mvnsne.w	ip, r5, asr #21
  407e1c:	d029      	beq.n	407e72 <__adddf3+0x24e>
  407e1e:	ea94 0f05 	teq	r4, r5
  407e22:	bf08      	it	eq
  407e24:	ea90 0f02 	teqeq	r0, r2
  407e28:	d005      	beq.n	407e36 <__adddf3+0x212>
  407e2a:	ea54 0c00 	orrs.w	ip, r4, r0
  407e2e:	bf04      	itt	eq
  407e30:	4619      	moveq	r1, r3
  407e32:	4610      	moveq	r0, r2
  407e34:	bd30      	pop	{r4, r5, pc}
  407e36:	ea91 0f03 	teq	r1, r3
  407e3a:	bf1e      	ittt	ne
  407e3c:	2100      	movne	r1, #0
  407e3e:	2000      	movne	r0, #0
  407e40:	bd30      	popne	{r4, r5, pc}
  407e42:	ea5f 5c54 	movs.w	ip, r4, lsr #21
  407e46:	d105      	bne.n	407e54 <__adddf3+0x230>
  407e48:	0040      	lsls	r0, r0, #1
  407e4a:	4149      	adcs	r1, r1
  407e4c:	bf28      	it	cs
  407e4e:	f041 4100 	orrcs.w	r1, r1, #2147483648	; 0x80000000
  407e52:	bd30      	pop	{r4, r5, pc}
  407e54:	f514 0480 	adds.w	r4, r4, #4194304	; 0x400000
  407e58:	bf3c      	itt	cc
  407e5a:	f501 1180 	addcc.w	r1, r1, #1048576	; 0x100000
  407e5e:	bd30      	popcc	{r4, r5, pc}
  407e60:	f001 4500 	and.w	r5, r1, #2147483648	; 0x80000000
  407e64:	f045 41fe 	orr.w	r1, r5, #2130706432	; 0x7f000000
  407e68:	f441 0170 	orr.w	r1, r1, #15728640	; 0xf00000
  407e6c:	f04f 0000 	mov.w	r0, #0
  407e70:	bd30      	pop	{r4, r5, pc}
  407e72:	ea7f 5c64 	mvns.w	ip, r4, asr #21
  407e76:	bf1a      	itte	ne
  407e78:	4619      	movne	r1, r3
  407e7a:	4610      	movne	r0, r2
  407e7c:	ea7f 5c65 	mvnseq.w	ip, r5, asr #21
  407e80:	bf1c      	itt	ne
  407e82:	460b      	movne	r3, r1
  407e84:	4602      	movne	r2, r0
  407e86:	ea50 3401 	orrs.w	r4, r0, r1, lsl #12
  407e8a:	bf06      	itte	eq
  407e8c:	ea52 3503 	orrseq.w	r5, r2, r3, lsl #12
  407e90:	ea91 0f03 	teqeq	r1, r3
  407e94:	f441 2100 	orrne.w	r1, r1, #524288	; 0x80000
  407e98:	bd30      	pop	{r4, r5, pc}
  407e9a:	bf00      	nop

00407e9c <__aeabi_ui2d>:
  407e9c:	f090 0f00 	teq	r0, #0
  407ea0:	bf04      	itt	eq
  407ea2:	2100      	moveq	r1, #0
  407ea4:	4770      	bxeq	lr
  407ea6:	b530      	push	{r4, r5, lr}
  407ea8:	f44f 6480 	mov.w	r4, #1024	; 0x400
  407eac:	f104 0432 	add.w	r4, r4, #50	; 0x32
  407eb0:	f04f 0500 	mov.w	r5, #0
  407eb4:	f04f 0100 	mov.w	r1, #0
  407eb8:	e750      	b.n	407d5c <__adddf3+0x138>
  407eba:	bf00      	nop

00407ebc <__aeabi_i2d>:
  407ebc:	f090 0f00 	teq	r0, #0
  407ec0:	bf04      	itt	eq
  407ec2:	2100      	moveq	r1, #0
  407ec4:	4770      	bxeq	lr
  407ec6:	b530      	push	{r4, r5, lr}
  407ec8:	f44f 6480 	mov.w	r4, #1024	; 0x400
  407ecc:	f104 0432 	add.w	r4, r4, #50	; 0x32
  407ed0:	f010 4500 	ands.w	r5, r0, #2147483648	; 0x80000000
  407ed4:	bf48      	it	mi
  407ed6:	4240      	negmi	r0, r0
  407ed8:	f04f 0100 	mov.w	r1, #0
  407edc:	e73e      	b.n	407d5c <__adddf3+0x138>
  407ede:	bf00      	nop

00407ee0 <__aeabi_f2d>:
  407ee0:	0042      	lsls	r2, r0, #1
  407ee2:	ea4f 01e2 	mov.w	r1, r2, asr #3
  407ee6:	ea4f 0131 	mov.w	r1, r1, rrx
  407eea:	ea4f 7002 	mov.w	r0, r2, lsl #28
  407eee:	bf1f      	itttt	ne
  407ef0:	f012 437f 	andsne.w	r3, r2, #4278190080	; 0xff000000
  407ef4:	f093 4f7f 	teqne	r3, #4278190080	; 0xff000000
  407ef8:	f081 5160 	eorne.w	r1, r1, #939524096	; 0x38000000
  407efc:	4770      	bxne	lr
  407efe:	f092 0f00 	teq	r2, #0
  407f02:	bf14      	ite	ne
  407f04:	f093 4f7f 	teqne	r3, #4278190080	; 0xff000000
  407f08:	4770      	bxeq	lr
  407f0a:	b530      	push	{r4, r5, lr}
  407f0c:	f44f 7460 	mov.w	r4, #896	; 0x380
  407f10:	f001 4500 	and.w	r5, r1, #2147483648	; 0x80000000
  407f14:	f021 4100 	bic.w	r1, r1, #2147483648	; 0x80000000
  407f18:	e720      	b.n	407d5c <__adddf3+0x138>
  407f1a:	bf00      	nop

00407f1c <__aeabi_ul2d>:
  407f1c:	ea50 0201 	orrs.w	r2, r0, r1
  407f20:	bf08      	it	eq
  407f22:	4770      	bxeq	lr
  407f24:	b530      	push	{r4, r5, lr}
  407f26:	f04f 0500 	mov.w	r5, #0
  407f2a:	e00a      	b.n	407f42 <__aeabi_l2d+0x16>

00407f2c <__aeabi_l2d>:
  407f2c:	ea50 0201 	orrs.w	r2, r0, r1
  407f30:	bf08      	it	eq
  407f32:	4770      	bxeq	lr
  407f34:	b530      	push	{r4, r5, lr}
  407f36:	f011 4500 	ands.w	r5, r1, #2147483648	; 0x80000000
  407f3a:	d502      	bpl.n	407f42 <__aeabi_l2d+0x16>
  407f3c:	4240      	negs	r0, r0
  407f3e:	eb61 0141 	sbc.w	r1, r1, r1, lsl #1
  407f42:	f44f 6480 	mov.w	r4, #1024	; 0x400
  407f46:	f104 0432 	add.w	r4, r4, #50	; 0x32
  407f4a:	ea5f 5c91 	movs.w	ip, r1, lsr #22
  407f4e:	f43f aedc 	beq.w	407d0a <__adddf3+0xe6>
  407f52:	f04f 0203 	mov.w	r2, #3
  407f56:	ea5f 0cdc 	movs.w	ip, ip, lsr #3
  407f5a:	bf18      	it	ne
  407f5c:	3203      	addne	r2, #3
  407f5e:	ea5f 0cdc 	movs.w	ip, ip, lsr #3
  407f62:	bf18      	it	ne
  407f64:	3203      	addne	r2, #3
  407f66:	eb02 02dc 	add.w	r2, r2, ip, lsr #3
  407f6a:	f1c2 0320 	rsb	r3, r2, #32
  407f6e:	fa00 fc03 	lsl.w	ip, r0, r3
  407f72:	fa20 f002 	lsr.w	r0, r0, r2
  407f76:	fa01 fe03 	lsl.w	lr, r1, r3
  407f7a:	ea40 000e 	orr.w	r0, r0, lr
  407f7e:	fa21 f102 	lsr.w	r1, r1, r2
  407f82:	4414      	add	r4, r2
  407f84:	e6c1      	b.n	407d0a <__adddf3+0xe6>
  407f86:	bf00      	nop

00407f88 <__aeabi_dmul>:
  407f88:	b570      	push	{r4, r5, r6, lr}
  407f8a:	f04f 0cff 	mov.w	ip, #255	; 0xff
  407f8e:	f44c 6ce0 	orr.w	ip, ip, #1792	; 0x700
  407f92:	ea1c 5411 	ands.w	r4, ip, r1, lsr #20
  407f96:	bf1d      	ittte	ne
  407f98:	ea1c 5513 	andsne.w	r5, ip, r3, lsr #20
  407f9c:	ea94 0f0c 	teqne	r4, ip
  407fa0:	ea95 0f0c 	teqne	r5, ip
  407fa4:	f000 f8de 	bleq	408164 <__aeabi_dmul+0x1dc>
  407fa8:	442c      	add	r4, r5
  407faa:	ea81 0603 	eor.w	r6, r1, r3
  407fae:	ea21 514c 	bic.w	r1, r1, ip, lsl #21
  407fb2:	ea23 534c 	bic.w	r3, r3, ip, lsl #21
  407fb6:	ea50 3501 	orrs.w	r5, r0, r1, lsl #12
  407fba:	bf18      	it	ne
  407fbc:	ea52 3503 	orrsne.w	r5, r2, r3, lsl #12
  407fc0:	f441 1180 	orr.w	r1, r1, #1048576	; 0x100000
  407fc4:	f443 1380 	orr.w	r3, r3, #1048576	; 0x100000
  407fc8:	d038      	beq.n	40803c <__aeabi_dmul+0xb4>
  407fca:	fba0 ce02 	umull	ip, lr, r0, r2
  407fce:	f04f 0500 	mov.w	r5, #0
  407fd2:	fbe1 e502 	umlal	lr, r5, r1, r2
  407fd6:	f006 4200 	and.w	r2, r6, #2147483648	; 0x80000000
  407fda:	fbe0 e503 	umlal	lr, r5, r0, r3
  407fde:	f04f 0600 	mov.w	r6, #0
  407fe2:	fbe1 5603 	umlal	r5, r6, r1, r3
  407fe6:	f09c 0f00 	teq	ip, #0
  407fea:	bf18      	it	ne
  407fec:	f04e 0e01 	orrne.w	lr, lr, #1
  407ff0:	f1a4 04ff 	sub.w	r4, r4, #255	; 0xff
  407ff4:	f5b6 7f00 	cmp.w	r6, #512	; 0x200
  407ff8:	f564 7440 	sbc.w	r4, r4, #768	; 0x300
  407ffc:	d204      	bcs.n	408008 <__aeabi_dmul+0x80>
  407ffe:	ea5f 0e4e 	movs.w	lr, lr, lsl #1
  408002:	416d      	adcs	r5, r5
  408004:	eb46 0606 	adc.w	r6, r6, r6
  408008:	ea42 21c6 	orr.w	r1, r2, r6, lsl #11
  40800c:	ea41 5155 	orr.w	r1, r1, r5, lsr #21
  408010:	ea4f 20c5 	mov.w	r0, r5, lsl #11
  408014:	ea40 505e 	orr.w	r0, r0, lr, lsr #21
  408018:	ea4f 2ece 	mov.w	lr, lr, lsl #11
  40801c:	f1b4 0cfd 	subs.w	ip, r4, #253	; 0xfd
  408020:	bf88      	it	hi
  408022:	f5bc 6fe0 	cmphi.w	ip, #1792	; 0x700
  408026:	d81e      	bhi.n	408066 <__aeabi_dmul+0xde>
  408028:	f1be 4f00 	cmp.w	lr, #2147483648	; 0x80000000
  40802c:	bf08      	it	eq
  40802e:	ea5f 0e50 	movseq.w	lr, r0, lsr #1
  408032:	f150 0000 	adcs.w	r0, r0, #0
  408036:	eb41 5104 	adc.w	r1, r1, r4, lsl #20
  40803a:	bd70      	pop	{r4, r5, r6, pc}
  40803c:	f006 4600 	and.w	r6, r6, #2147483648	; 0x80000000
  408040:	ea46 0101 	orr.w	r1, r6, r1
  408044:	ea40 0002 	orr.w	r0, r0, r2
  408048:	ea81 0103 	eor.w	r1, r1, r3
  40804c:	ebb4 045c 	subs.w	r4, r4, ip, lsr #1
  408050:	bfc2      	ittt	gt
  408052:	ebd4 050c 	rsbsgt	r5, r4, ip
  408056:	ea41 5104 	orrgt.w	r1, r1, r4, lsl #20
  40805a:	bd70      	popgt	{r4, r5, r6, pc}
  40805c:	f441 1180 	orr.w	r1, r1, #1048576	; 0x100000
  408060:	f04f 0e00 	mov.w	lr, #0
  408064:	3c01      	subs	r4, #1
  408066:	f300 80ab 	bgt.w	4081c0 <__aeabi_dmul+0x238>
  40806a:	f114 0f36 	cmn.w	r4, #54	; 0x36
  40806e:	bfde      	ittt	le
  408070:	2000      	movle	r0, #0
  408072:	f001 4100 	andle.w	r1, r1, #2147483648	; 0x80000000
  408076:	bd70      	pople	{r4, r5, r6, pc}
  408078:	f1c4 0400 	rsb	r4, r4, #0
  40807c:	3c20      	subs	r4, #32
  40807e:	da35      	bge.n	4080ec <__aeabi_dmul+0x164>
  408080:	340c      	adds	r4, #12
  408082:	dc1b      	bgt.n	4080bc <__aeabi_dmul+0x134>
  408084:	f104 0414 	add.w	r4, r4, #20
  408088:	f1c4 0520 	rsb	r5, r4, #32
  40808c:	fa00 f305 	lsl.w	r3, r0, r5
  408090:	fa20 f004 	lsr.w	r0, r0, r4
  408094:	fa01 f205 	lsl.w	r2, r1, r5
  408098:	ea40 0002 	orr.w	r0, r0, r2
  40809c:	f001 4200 	and.w	r2, r1, #2147483648	; 0x80000000
  4080a0:	f021 4100 	bic.w	r1, r1, #2147483648	; 0x80000000
  4080a4:	eb10 70d3 	adds.w	r0, r0, r3, lsr #31
  4080a8:	fa21 f604 	lsr.w	r6, r1, r4
  4080ac:	eb42 0106 	adc.w	r1, r2, r6
  4080b0:	ea5e 0e43 	orrs.w	lr, lr, r3, lsl #1
  4080b4:	bf08      	it	eq
  4080b6:	ea20 70d3 	biceq.w	r0, r0, r3, lsr #31
  4080ba:	bd70      	pop	{r4, r5, r6, pc}
  4080bc:	f1c4 040c 	rsb	r4, r4, #12
  4080c0:	f1c4 0520 	rsb	r5, r4, #32
  4080c4:	fa00 f304 	lsl.w	r3, r0, r4
  4080c8:	fa20 f005 	lsr.w	r0, r0, r5
  4080cc:	fa01 f204 	lsl.w	r2, r1, r4
  4080d0:	ea40 0002 	orr.w	r0, r0, r2
  4080d4:	f001 4100 	and.w	r1, r1, #2147483648	; 0x80000000
  4080d8:	eb10 70d3 	adds.w	r0, r0, r3, lsr #31
  4080dc:	f141 0100 	adc.w	r1, r1, #0
  4080e0:	ea5e 0e43 	orrs.w	lr, lr, r3, lsl #1
  4080e4:	bf08      	it	eq
  4080e6:	ea20 70d3 	biceq.w	r0, r0, r3, lsr #31
  4080ea:	bd70      	pop	{r4, r5, r6, pc}
  4080ec:	f1c4 0520 	rsb	r5, r4, #32
  4080f0:	fa00 f205 	lsl.w	r2, r0, r5
  4080f4:	ea4e 0e02 	orr.w	lr, lr, r2
  4080f8:	fa20 f304 	lsr.w	r3, r0, r4
  4080fc:	fa01 f205 	lsl.w	r2, r1, r5
  408100:	ea43 0302 	orr.w	r3, r3, r2
  408104:	fa21 f004 	lsr.w	r0, r1, r4
  408108:	f001 4100 	and.w	r1, r1, #2147483648	; 0x80000000
  40810c:	fa21 f204 	lsr.w	r2, r1, r4
  408110:	ea20 0002 	bic.w	r0, r0, r2
  408114:	eb00 70d3 	add.w	r0, r0, r3, lsr #31
  408118:	ea5e 0e43 	orrs.w	lr, lr, r3, lsl #1
  40811c:	bf08      	it	eq
  40811e:	ea20 70d3 	biceq.w	r0, r0, r3, lsr #31
  408122:	bd70      	pop	{r4, r5, r6, pc}
  408124:	f094 0f00 	teq	r4, #0
  408128:	d10f      	bne.n	40814a <__aeabi_dmul+0x1c2>
  40812a:	f001 4600 	and.w	r6, r1, #2147483648	; 0x80000000
  40812e:	0040      	lsls	r0, r0, #1
  408130:	eb41 0101 	adc.w	r1, r1, r1
  408134:	f411 1f80 	tst.w	r1, #1048576	; 0x100000
  408138:	bf08      	it	eq
  40813a:	3c01      	subeq	r4, #1
  40813c:	d0f7      	beq.n	40812e <__aeabi_dmul+0x1a6>
  40813e:	ea41 0106 	orr.w	r1, r1, r6
  408142:	f095 0f00 	teq	r5, #0
  408146:	bf18      	it	ne
  408148:	4770      	bxne	lr
  40814a:	f003 4600 	and.w	r6, r3, #2147483648	; 0x80000000
  40814e:	0052      	lsls	r2, r2, #1
  408150:	eb43 0303 	adc.w	r3, r3, r3
  408154:	f413 1f80 	tst.w	r3, #1048576	; 0x100000
  408158:	bf08      	it	eq
  40815a:	3d01      	subeq	r5, #1
  40815c:	d0f7      	beq.n	40814e <__aeabi_dmul+0x1c6>
  40815e:	ea43 0306 	orr.w	r3, r3, r6
  408162:	4770      	bx	lr
  408164:	ea94 0f0c 	teq	r4, ip
  408168:	ea0c 5513 	and.w	r5, ip, r3, lsr #20
  40816c:	bf18      	it	ne
  40816e:	ea95 0f0c 	teqne	r5, ip
  408172:	d00c      	beq.n	40818e <__aeabi_dmul+0x206>
  408174:	ea50 0641 	orrs.w	r6, r0, r1, lsl #1
  408178:	bf18      	it	ne
  40817a:	ea52 0643 	orrsne.w	r6, r2, r3, lsl #1
  40817e:	d1d1      	bne.n	408124 <__aeabi_dmul+0x19c>
  408180:	ea81 0103 	eor.w	r1, r1, r3
  408184:	f001 4100 	and.w	r1, r1, #2147483648	; 0x80000000
  408188:	f04f 0000 	mov.w	r0, #0
  40818c:	bd70      	pop	{r4, r5, r6, pc}
  40818e:	ea50 0641 	orrs.w	r6, r0, r1, lsl #1
  408192:	bf06      	itte	eq
  408194:	4610      	moveq	r0, r2
  408196:	4619      	moveq	r1, r3
  408198:	ea52 0643 	orrsne.w	r6, r2, r3, lsl #1
  40819c:	d019      	beq.n	4081d2 <__aeabi_dmul+0x24a>
  40819e:	ea94 0f0c 	teq	r4, ip
  4081a2:	d102      	bne.n	4081aa <__aeabi_dmul+0x222>
  4081a4:	ea50 3601 	orrs.w	r6, r0, r1, lsl #12
  4081a8:	d113      	bne.n	4081d2 <__aeabi_dmul+0x24a>
  4081aa:	ea95 0f0c 	teq	r5, ip
  4081ae:	d105      	bne.n	4081bc <__aeabi_dmul+0x234>
  4081b0:	ea52 3603 	orrs.w	r6, r2, r3, lsl #12
  4081b4:	bf1c      	itt	ne
  4081b6:	4610      	movne	r0, r2
  4081b8:	4619      	movne	r1, r3
  4081ba:	d10a      	bne.n	4081d2 <__aeabi_dmul+0x24a>
  4081bc:	ea81 0103 	eor.w	r1, r1, r3
  4081c0:	f001 4100 	and.w	r1, r1, #2147483648	; 0x80000000
  4081c4:	f041 41fe 	orr.w	r1, r1, #2130706432	; 0x7f000000
  4081c8:	f441 0170 	orr.w	r1, r1, #15728640	; 0xf00000
  4081cc:	f04f 0000 	mov.w	r0, #0
  4081d0:	bd70      	pop	{r4, r5, r6, pc}
  4081d2:	f041 41fe 	orr.w	r1, r1, #2130706432	; 0x7f000000
  4081d6:	f441 0178 	orr.w	r1, r1, #16252928	; 0xf80000
  4081da:	bd70      	pop	{r4, r5, r6, pc}

004081dc <__aeabi_ddiv>:
  4081dc:	b570      	push	{r4, r5, r6, lr}
  4081de:	f04f 0cff 	mov.w	ip, #255	; 0xff
  4081e2:	f44c 6ce0 	orr.w	ip, ip, #1792	; 0x700
  4081e6:	ea1c 5411 	ands.w	r4, ip, r1, lsr #20
  4081ea:	bf1d      	ittte	ne
  4081ec:	ea1c 5513 	andsne.w	r5, ip, r3, lsr #20
  4081f0:	ea94 0f0c 	teqne	r4, ip
  4081f4:	ea95 0f0c 	teqne	r5, ip
  4081f8:	f000 f8a7 	bleq	40834a <__aeabi_ddiv+0x16e>
  4081fc:	eba4 0405 	sub.w	r4, r4, r5
  408200:	ea81 0e03 	eor.w	lr, r1, r3
  408204:	ea52 3503 	orrs.w	r5, r2, r3, lsl #12
  408208:	ea4f 3101 	mov.w	r1, r1, lsl #12
  40820c:	f000 8088 	beq.w	408320 <__aeabi_ddiv+0x144>
  408210:	ea4f 3303 	mov.w	r3, r3, lsl #12
  408214:	f04f 5580 	mov.w	r5, #268435456	; 0x10000000
  408218:	ea45 1313 	orr.w	r3, r5, r3, lsr #4
  40821c:	ea43 6312 	orr.w	r3, r3, r2, lsr #24
  408220:	ea4f 2202 	mov.w	r2, r2, lsl #8
  408224:	ea45 1511 	orr.w	r5, r5, r1, lsr #4
  408228:	ea45 6510 	orr.w	r5, r5, r0, lsr #24
  40822c:	ea4f 2600 	mov.w	r6, r0, lsl #8
  408230:	f00e 4100 	and.w	r1, lr, #2147483648	; 0x80000000
  408234:	429d      	cmp	r5, r3
  408236:	bf08      	it	eq
  408238:	4296      	cmpeq	r6, r2
  40823a:	f144 04fd 	adc.w	r4, r4, #253	; 0xfd
  40823e:	f504 7440 	add.w	r4, r4, #768	; 0x300
  408242:	d202      	bcs.n	40824a <__aeabi_ddiv+0x6e>
  408244:	085b      	lsrs	r3, r3, #1
  408246:	ea4f 0232 	mov.w	r2, r2, rrx
  40824a:	1ab6      	subs	r6, r6, r2
  40824c:	eb65 0503 	sbc.w	r5, r5, r3
  408250:	085b      	lsrs	r3, r3, #1
  408252:	ea4f 0232 	mov.w	r2, r2, rrx
  408256:	f44f 1080 	mov.w	r0, #1048576	; 0x100000
  40825a:	f44f 2c00 	mov.w	ip, #524288	; 0x80000
  40825e:	ebb6 0e02 	subs.w	lr, r6, r2
  408262:	eb75 0e03 	sbcs.w	lr, r5, r3
  408266:	bf22      	ittt	cs
  408268:	1ab6      	subcs	r6, r6, r2
  40826a:	4675      	movcs	r5, lr
  40826c:	ea40 000c 	orrcs.w	r0, r0, ip
  408270:	085b      	lsrs	r3, r3, #1
  408272:	ea4f 0232 	mov.w	r2, r2, rrx
  408276:	ebb6 0e02 	subs.w	lr, r6, r2
  40827a:	eb75 0e03 	sbcs.w	lr, r5, r3
  40827e:	bf22      	ittt	cs
  408280:	1ab6      	subcs	r6, r6, r2
  408282:	4675      	movcs	r5, lr
  408284:	ea40 005c 	orrcs.w	r0, r0, ip, lsr #1
  408288:	085b      	lsrs	r3, r3, #1
  40828a:	ea4f 0232 	mov.w	r2, r2, rrx
  40828e:	ebb6 0e02 	subs.w	lr, r6, r2
  408292:	eb75 0e03 	sbcs.w	lr, r5, r3
  408296:	bf22      	ittt	cs
  408298:	1ab6      	subcs	r6, r6, r2
  40829a:	4675      	movcs	r5, lr
  40829c:	ea40 009c 	orrcs.w	r0, r0, ip, lsr #2
  4082a0:	085b      	lsrs	r3, r3, #1
  4082a2:	ea4f 0232 	mov.w	r2, r2, rrx
  4082a6:	ebb6 0e02 	subs.w	lr, r6, r2
  4082aa:	eb75 0e03 	sbcs.w	lr, r5, r3
  4082ae:	bf22      	ittt	cs
  4082b0:	1ab6      	subcs	r6, r6, r2
  4082b2:	4675      	movcs	r5, lr
  4082b4:	ea40 00dc 	orrcs.w	r0, r0, ip, lsr #3
  4082b8:	ea55 0e06 	orrs.w	lr, r5, r6
  4082bc:	d018      	beq.n	4082f0 <__aeabi_ddiv+0x114>
  4082be:	ea4f 1505 	mov.w	r5, r5, lsl #4
  4082c2:	ea45 7516 	orr.w	r5, r5, r6, lsr #28
  4082c6:	ea4f 1606 	mov.w	r6, r6, lsl #4
  4082ca:	ea4f 03c3 	mov.w	r3, r3, lsl #3
  4082ce:	ea43 7352 	orr.w	r3, r3, r2, lsr #29
  4082d2:	ea4f 02c2 	mov.w	r2, r2, lsl #3
  4082d6:	ea5f 1c1c 	movs.w	ip, ip, lsr #4
  4082da:	d1c0      	bne.n	40825e <__aeabi_ddiv+0x82>
  4082dc:	f411 1f80 	tst.w	r1, #1048576	; 0x100000
  4082e0:	d10b      	bne.n	4082fa <__aeabi_ddiv+0x11e>
  4082e2:	ea41 0100 	orr.w	r1, r1, r0
  4082e6:	f04f 0000 	mov.w	r0, #0
  4082ea:	f04f 4c00 	mov.w	ip, #2147483648	; 0x80000000
  4082ee:	e7b6      	b.n	40825e <__aeabi_ddiv+0x82>
  4082f0:	f411 1f80 	tst.w	r1, #1048576	; 0x100000
  4082f4:	bf04      	itt	eq
  4082f6:	4301      	orreq	r1, r0
  4082f8:	2000      	moveq	r0, #0
  4082fa:	f1b4 0cfd 	subs.w	ip, r4, #253	; 0xfd
  4082fe:	bf88      	it	hi
  408300:	f5bc 6fe0 	cmphi.w	ip, #1792	; 0x700
  408304:	f63f aeaf 	bhi.w	408066 <__aeabi_dmul+0xde>
  408308:	ebb5 0c03 	subs.w	ip, r5, r3
  40830c:	bf04      	itt	eq
  40830e:	ebb6 0c02 	subseq.w	ip, r6, r2
  408312:	ea5f 0c50 	movseq.w	ip, r0, lsr #1
  408316:	f150 0000 	adcs.w	r0, r0, #0
  40831a:	eb41 5104 	adc.w	r1, r1, r4, lsl #20
  40831e:	bd70      	pop	{r4, r5, r6, pc}
  408320:	f00e 4e00 	and.w	lr, lr, #2147483648	; 0x80000000
  408324:	ea4e 3111 	orr.w	r1, lr, r1, lsr #12
  408328:	eb14 045c 	adds.w	r4, r4, ip, lsr #1
  40832c:	bfc2      	ittt	gt
  40832e:	ebd4 050c 	rsbsgt	r5, r4, ip
  408332:	ea41 5104 	orrgt.w	r1, r1, r4, lsl #20
  408336:	bd70      	popgt	{r4, r5, r6, pc}
  408338:	f441 1180 	orr.w	r1, r1, #1048576	; 0x100000
  40833c:	f04f 0e00 	mov.w	lr, #0
  408340:	3c01      	subs	r4, #1
  408342:	e690      	b.n	408066 <__aeabi_dmul+0xde>
  408344:	ea45 0e06 	orr.w	lr, r5, r6
  408348:	e68d      	b.n	408066 <__aeabi_dmul+0xde>
  40834a:	ea0c 5513 	and.w	r5, ip, r3, lsr #20
  40834e:	ea94 0f0c 	teq	r4, ip
  408352:	bf08      	it	eq
  408354:	ea95 0f0c 	teqeq	r5, ip
  408358:	f43f af3b 	beq.w	4081d2 <__aeabi_dmul+0x24a>
  40835c:	ea94 0f0c 	teq	r4, ip
  408360:	d10a      	bne.n	408378 <__aeabi_ddiv+0x19c>
  408362:	ea50 3401 	orrs.w	r4, r0, r1, lsl #12
  408366:	f47f af34 	bne.w	4081d2 <__aeabi_dmul+0x24a>
  40836a:	ea95 0f0c 	teq	r5, ip
  40836e:	f47f af25 	bne.w	4081bc <__aeabi_dmul+0x234>
  408372:	4610      	mov	r0, r2
  408374:	4619      	mov	r1, r3
  408376:	e72c      	b.n	4081d2 <__aeabi_dmul+0x24a>
  408378:	ea95 0f0c 	teq	r5, ip
  40837c:	d106      	bne.n	40838c <__aeabi_ddiv+0x1b0>
  40837e:	ea52 3503 	orrs.w	r5, r2, r3, lsl #12
  408382:	f43f aefd 	beq.w	408180 <__aeabi_dmul+0x1f8>
  408386:	4610      	mov	r0, r2
  408388:	4619      	mov	r1, r3
  40838a:	e722      	b.n	4081d2 <__aeabi_dmul+0x24a>
  40838c:	ea50 0641 	orrs.w	r6, r0, r1, lsl #1
  408390:	bf18      	it	ne
  408392:	ea52 0643 	orrsne.w	r6, r2, r3, lsl #1
  408396:	f47f aec5 	bne.w	408124 <__aeabi_dmul+0x19c>
  40839a:	ea50 0441 	orrs.w	r4, r0, r1, lsl #1
  40839e:	f47f af0d 	bne.w	4081bc <__aeabi_dmul+0x234>
  4083a2:	ea52 0543 	orrs.w	r5, r2, r3, lsl #1
  4083a6:	f47f aeeb 	bne.w	408180 <__aeabi_dmul+0x1f8>
  4083aa:	e712      	b.n	4081d2 <__aeabi_dmul+0x24a>

004083ac <__gedf2>:
  4083ac:	f04f 3cff 	mov.w	ip, #4294967295
  4083b0:	e006      	b.n	4083c0 <__cmpdf2+0x4>
  4083b2:	bf00      	nop

004083b4 <__ledf2>:
  4083b4:	f04f 0c01 	mov.w	ip, #1
  4083b8:	e002      	b.n	4083c0 <__cmpdf2+0x4>
  4083ba:	bf00      	nop

004083bc <__cmpdf2>:
  4083bc:	f04f 0c01 	mov.w	ip, #1
  4083c0:	f84d cd04 	str.w	ip, [sp, #-4]!
  4083c4:	ea4f 0c41 	mov.w	ip, r1, lsl #1
  4083c8:	ea7f 5c6c 	mvns.w	ip, ip, asr #21
  4083cc:	ea4f 0c43 	mov.w	ip, r3, lsl #1
  4083d0:	bf18      	it	ne
  4083d2:	ea7f 5c6c 	mvnsne.w	ip, ip, asr #21
  4083d6:	d01b      	beq.n	408410 <__cmpdf2+0x54>
  4083d8:	b001      	add	sp, #4
  4083da:	ea50 0c41 	orrs.w	ip, r0, r1, lsl #1
  4083de:	bf0c      	ite	eq
  4083e0:	ea52 0c43 	orrseq.w	ip, r2, r3, lsl #1
  4083e4:	ea91 0f03 	teqne	r1, r3
  4083e8:	bf02      	ittt	eq
  4083ea:	ea90 0f02 	teqeq	r0, r2
  4083ee:	2000      	moveq	r0, #0
  4083f0:	4770      	bxeq	lr
  4083f2:	f110 0f00 	cmn.w	r0, #0
  4083f6:	ea91 0f03 	teq	r1, r3
  4083fa:	bf58      	it	pl
  4083fc:	4299      	cmppl	r1, r3
  4083fe:	bf08      	it	eq
  408400:	4290      	cmpeq	r0, r2
  408402:	bf2c      	ite	cs
  408404:	17d8      	asrcs	r0, r3, #31
  408406:	ea6f 70e3 	mvncc.w	r0, r3, asr #31
  40840a:	f040 0001 	orr.w	r0, r0, #1
  40840e:	4770      	bx	lr
  408410:	ea4f 0c41 	mov.w	ip, r1, lsl #1
  408414:	ea7f 5c6c 	mvns.w	ip, ip, asr #21
  408418:	d102      	bne.n	408420 <__cmpdf2+0x64>
  40841a:	ea50 3c01 	orrs.w	ip, r0, r1, lsl #12
  40841e:	d107      	bne.n	408430 <__cmpdf2+0x74>
  408420:	ea4f 0c43 	mov.w	ip, r3, lsl #1
  408424:	ea7f 5c6c 	mvns.w	ip, ip, asr #21
  408428:	d1d6      	bne.n	4083d8 <__cmpdf2+0x1c>
  40842a:	ea52 3c03 	orrs.w	ip, r2, r3, lsl #12
  40842e:	d0d3      	beq.n	4083d8 <__cmpdf2+0x1c>
  408430:	f85d 0b04 	ldr.w	r0, [sp], #4
  408434:	4770      	bx	lr
  408436:	bf00      	nop

00408438 <__aeabi_cdrcmple>:
  408438:	4684      	mov	ip, r0
  40843a:	4610      	mov	r0, r2
  40843c:	4662      	mov	r2, ip
  40843e:	468c      	mov	ip, r1
  408440:	4619      	mov	r1, r3
  408442:	4663      	mov	r3, ip
  408444:	e000      	b.n	408448 <__aeabi_cdcmpeq>
  408446:	bf00      	nop

00408448 <__aeabi_cdcmpeq>:
  408448:	b501      	push	{r0, lr}
  40844a:	f7ff ffb7 	bl	4083bc <__cmpdf2>
  40844e:	2800      	cmp	r0, #0
  408450:	bf48      	it	mi
  408452:	f110 0f00 	cmnmi.w	r0, #0
  408456:	bd01      	pop	{r0, pc}

00408458 <__aeabi_dcmpeq>:
  408458:	f84d ed08 	str.w	lr, [sp, #-8]!
  40845c:	f7ff fff4 	bl	408448 <__aeabi_cdcmpeq>
  408460:	bf0c      	ite	eq
  408462:	2001      	moveq	r0, #1
  408464:	2000      	movne	r0, #0
  408466:	f85d fb08 	ldr.w	pc, [sp], #8
  40846a:	bf00      	nop

0040846c <__aeabi_dcmplt>:
  40846c:	f84d ed08 	str.w	lr, [sp, #-8]!
  408470:	f7ff ffea 	bl	408448 <__aeabi_cdcmpeq>
  408474:	bf34      	ite	cc
  408476:	2001      	movcc	r0, #1
  408478:	2000      	movcs	r0, #0
  40847a:	f85d fb08 	ldr.w	pc, [sp], #8
  40847e:	bf00      	nop

00408480 <__aeabi_dcmple>:
  408480:	f84d ed08 	str.w	lr, [sp, #-8]!
  408484:	f7ff ffe0 	bl	408448 <__aeabi_cdcmpeq>
  408488:	bf94      	ite	ls
  40848a:	2001      	movls	r0, #1
  40848c:	2000      	movhi	r0, #0
  40848e:	f85d fb08 	ldr.w	pc, [sp], #8
  408492:	bf00      	nop

00408494 <__aeabi_dcmpge>:
  408494:	f84d ed08 	str.w	lr, [sp, #-8]!
  408498:	f7ff ffce 	bl	408438 <__aeabi_cdrcmple>
  40849c:	bf94      	ite	ls
  40849e:	2001      	movls	r0, #1
  4084a0:	2000      	movhi	r0, #0
  4084a2:	f85d fb08 	ldr.w	pc, [sp], #8
  4084a6:	bf00      	nop

004084a8 <__aeabi_dcmpgt>:
  4084a8:	f84d ed08 	str.w	lr, [sp, #-8]!
  4084ac:	f7ff ffc4 	bl	408438 <__aeabi_cdrcmple>
  4084b0:	bf34      	ite	cc
  4084b2:	2001      	movcc	r0, #1
  4084b4:	2000      	movcs	r0, #0
  4084b6:	f85d fb08 	ldr.w	pc, [sp], #8
  4084ba:	bf00      	nop

004084bc <__aeabi_dcmpun>:
  4084bc:	ea4f 0c41 	mov.w	ip, r1, lsl #1
  4084c0:	ea7f 5c6c 	mvns.w	ip, ip, asr #21
  4084c4:	d102      	bne.n	4084cc <__aeabi_dcmpun+0x10>
  4084c6:	ea50 3c01 	orrs.w	ip, r0, r1, lsl #12
  4084ca:	d10a      	bne.n	4084e2 <__aeabi_dcmpun+0x26>
  4084cc:	ea4f 0c43 	mov.w	ip, r3, lsl #1
  4084d0:	ea7f 5c6c 	mvns.w	ip, ip, asr #21
  4084d4:	d102      	bne.n	4084dc <__aeabi_dcmpun+0x20>
  4084d6:	ea52 3c03 	orrs.w	ip, r2, r3, lsl #12
  4084da:	d102      	bne.n	4084e2 <__aeabi_dcmpun+0x26>
  4084dc:	f04f 0000 	mov.w	r0, #0
  4084e0:	4770      	bx	lr
  4084e2:	f04f 0001 	mov.w	r0, #1
  4084e6:	4770      	bx	lr

004084e8 <__aeabi_d2iz>:
  4084e8:	ea4f 0241 	mov.w	r2, r1, lsl #1
  4084ec:	f512 1200 	adds.w	r2, r2, #2097152	; 0x200000
  4084f0:	d215      	bcs.n	40851e <__aeabi_d2iz+0x36>
  4084f2:	d511      	bpl.n	408518 <__aeabi_d2iz+0x30>
  4084f4:	f46f 7378 	mvn.w	r3, #992	; 0x3e0
  4084f8:	ebb3 5262 	subs.w	r2, r3, r2, asr #21
  4084fc:	d912      	bls.n	408524 <__aeabi_d2iz+0x3c>
  4084fe:	ea4f 23c1 	mov.w	r3, r1, lsl #11
  408502:	f043 4300 	orr.w	r3, r3, #2147483648	; 0x80000000
  408506:	ea43 5350 	orr.w	r3, r3, r0, lsr #21
  40850a:	f011 4f00 	tst.w	r1, #2147483648	; 0x80000000
  40850e:	fa23 f002 	lsr.w	r0, r3, r2
  408512:	bf18      	it	ne
  408514:	4240      	negne	r0, r0
  408516:	4770      	bx	lr
  408518:	f04f 0000 	mov.w	r0, #0
  40851c:	4770      	bx	lr
  40851e:	ea50 3001 	orrs.w	r0, r0, r1, lsl #12
  408522:	d105      	bne.n	408530 <__aeabi_d2iz+0x48>
  408524:	f011 4000 	ands.w	r0, r1, #2147483648	; 0x80000000
  408528:	bf08      	it	eq
  40852a:	f06f 4000 	mvneq.w	r0, #2147483648	; 0x80000000
  40852e:	4770      	bx	lr
  408530:	f04f 0000 	mov.w	r0, #0
  408534:	4770      	bx	lr
  408536:	bf00      	nop

00408538 <__aeabi_uldivmod>:
  408538:	b953      	cbnz	r3, 408550 <__aeabi_uldivmod+0x18>
  40853a:	b94a      	cbnz	r2, 408550 <__aeabi_uldivmod+0x18>
  40853c:	2900      	cmp	r1, #0
  40853e:	bf08      	it	eq
  408540:	2800      	cmpeq	r0, #0
  408542:	bf1c      	itt	ne
  408544:	f04f 31ff 	movne.w	r1, #4294967295
  408548:	f04f 30ff 	movne.w	r0, #4294967295
  40854c:	f000 b97a 	b.w	408844 <__aeabi_idiv0>
  408550:	f1ad 0c08 	sub.w	ip, sp, #8
  408554:	e96d ce04 	strd	ip, lr, [sp, #-16]!
  408558:	f000 f806 	bl	408568 <__udivmoddi4>
  40855c:	f8dd e004 	ldr.w	lr, [sp, #4]
  408560:	e9dd 2302 	ldrd	r2, r3, [sp, #8]
  408564:	b004      	add	sp, #16
  408566:	4770      	bx	lr

00408568 <__udivmoddi4>:
  408568:	e92d 47f0 	stmdb	sp!, {r4, r5, r6, r7, r8, r9, sl, lr}
  40856c:	468c      	mov	ip, r1
  40856e:	460d      	mov	r5, r1
  408570:	4604      	mov	r4, r0
  408572:	9e08      	ldr	r6, [sp, #32]
  408574:	2b00      	cmp	r3, #0
  408576:	d151      	bne.n	40861c <__udivmoddi4+0xb4>
  408578:	428a      	cmp	r2, r1
  40857a:	4617      	mov	r7, r2
  40857c:	d96d      	bls.n	40865a <__udivmoddi4+0xf2>
  40857e:	fab2 fe82 	clz	lr, r2
  408582:	f1be 0f00 	cmp.w	lr, #0
  408586:	d00b      	beq.n	4085a0 <__udivmoddi4+0x38>
  408588:	f1ce 0c20 	rsb	ip, lr, #32
  40858c:	fa01 f50e 	lsl.w	r5, r1, lr
  408590:	fa20 fc0c 	lsr.w	ip, r0, ip
  408594:	fa02 f70e 	lsl.w	r7, r2, lr
  408598:	ea4c 0c05 	orr.w	ip, ip, r5
  40859c:	fa00 f40e 	lsl.w	r4, r0, lr
  4085a0:	ea4f 4a17 	mov.w	sl, r7, lsr #16
  4085a4:	0c25      	lsrs	r5, r4, #16
  4085a6:	fbbc f8fa 	udiv	r8, ip, sl
  4085aa:	fa1f f987 	uxth.w	r9, r7
  4085ae:	fb0a cc18 	mls	ip, sl, r8, ip
  4085b2:	ea45 450c 	orr.w	r5, r5, ip, lsl #16
  4085b6:	fb08 f309 	mul.w	r3, r8, r9
  4085ba:	42ab      	cmp	r3, r5
  4085bc:	d90a      	bls.n	4085d4 <__udivmoddi4+0x6c>
  4085be:	19ed      	adds	r5, r5, r7
  4085c0:	f108 32ff 	add.w	r2, r8, #4294967295
  4085c4:	f080 8123 	bcs.w	40880e <__udivmoddi4+0x2a6>
  4085c8:	42ab      	cmp	r3, r5
  4085ca:	f240 8120 	bls.w	40880e <__udivmoddi4+0x2a6>
  4085ce:	f1a8 0802 	sub.w	r8, r8, #2
  4085d2:	443d      	add	r5, r7
  4085d4:	1aed      	subs	r5, r5, r3
  4085d6:	b2a4      	uxth	r4, r4
  4085d8:	fbb5 f0fa 	udiv	r0, r5, sl
  4085dc:	fb0a 5510 	mls	r5, sl, r0, r5
  4085e0:	ea44 4405 	orr.w	r4, r4, r5, lsl #16
  4085e4:	fb00 f909 	mul.w	r9, r0, r9
  4085e8:	45a1      	cmp	r9, r4
  4085ea:	d909      	bls.n	408600 <__udivmoddi4+0x98>
  4085ec:	19e4      	adds	r4, r4, r7
  4085ee:	f100 33ff 	add.w	r3, r0, #4294967295
  4085f2:	f080 810a 	bcs.w	40880a <__udivmoddi4+0x2a2>
  4085f6:	45a1      	cmp	r9, r4
  4085f8:	f240 8107 	bls.w	40880a <__udivmoddi4+0x2a2>
  4085fc:	3802      	subs	r0, #2
  4085fe:	443c      	add	r4, r7
  408600:	eba4 0409 	sub.w	r4, r4, r9
  408604:	ea40 4008 	orr.w	r0, r0, r8, lsl #16
  408608:	2100      	movs	r1, #0
  40860a:	2e00      	cmp	r6, #0
  40860c:	d061      	beq.n	4086d2 <__udivmoddi4+0x16a>
  40860e:	fa24 f40e 	lsr.w	r4, r4, lr
  408612:	2300      	movs	r3, #0
  408614:	6034      	str	r4, [r6, #0]
  408616:	6073      	str	r3, [r6, #4]
  408618:	e8bd 87f0 	ldmia.w	sp!, {r4, r5, r6, r7, r8, r9, sl, pc}
  40861c:	428b      	cmp	r3, r1
  40861e:	d907      	bls.n	408630 <__udivmoddi4+0xc8>
  408620:	2e00      	cmp	r6, #0
  408622:	d054      	beq.n	4086ce <__udivmoddi4+0x166>
  408624:	2100      	movs	r1, #0
  408626:	e886 0021 	stmia.w	r6, {r0, r5}
  40862a:	4608      	mov	r0, r1
  40862c:	e8bd 87f0 	ldmia.w	sp!, {r4, r5, r6, r7, r8, r9, sl, pc}
  408630:	fab3 f183 	clz	r1, r3
  408634:	2900      	cmp	r1, #0
  408636:	f040 808e 	bne.w	408756 <__udivmoddi4+0x1ee>
  40863a:	42ab      	cmp	r3, r5
  40863c:	d302      	bcc.n	408644 <__udivmoddi4+0xdc>
  40863e:	4282      	cmp	r2, r0
  408640:	f200 80fa 	bhi.w	408838 <__udivmoddi4+0x2d0>
  408644:	1a84      	subs	r4, r0, r2
  408646:	eb65 0503 	sbc.w	r5, r5, r3
  40864a:	2001      	movs	r0, #1
  40864c:	46ac      	mov	ip, r5
  40864e:	2e00      	cmp	r6, #0
  408650:	d03f      	beq.n	4086d2 <__udivmoddi4+0x16a>
  408652:	e886 1010 	stmia.w	r6, {r4, ip}
  408656:	e8bd 87f0 	ldmia.w	sp!, {r4, r5, r6, r7, r8, r9, sl, pc}
  40865a:	b912      	cbnz	r2, 408662 <__udivmoddi4+0xfa>
  40865c:	2701      	movs	r7, #1
  40865e:	fbb7 f7f2 	udiv	r7, r7, r2
  408662:	fab7 fe87 	clz	lr, r7
  408666:	f1be 0f00 	cmp.w	lr, #0
  40866a:	d134      	bne.n	4086d6 <__udivmoddi4+0x16e>
  40866c:	1beb      	subs	r3, r5, r7
  40866e:	0c3a      	lsrs	r2, r7, #16
  408670:	fa1f fc87 	uxth.w	ip, r7
  408674:	2101      	movs	r1, #1
  408676:	fbb3 f8f2 	udiv	r8, r3, r2
  40867a:	0c25      	lsrs	r5, r4, #16
  40867c:	fb02 3318 	mls	r3, r2, r8, r3
  408680:	ea45 4503 	orr.w	r5, r5, r3, lsl #16
  408684:	fb0c f308 	mul.w	r3, ip, r8
  408688:	42ab      	cmp	r3, r5
  40868a:	d907      	bls.n	40869c <__udivmoddi4+0x134>
  40868c:	19ed      	adds	r5, r5, r7
  40868e:	f108 30ff 	add.w	r0, r8, #4294967295
  408692:	d202      	bcs.n	40869a <__udivmoddi4+0x132>
  408694:	42ab      	cmp	r3, r5
  408696:	f200 80d1 	bhi.w	40883c <__udivmoddi4+0x2d4>
  40869a:	4680      	mov	r8, r0
  40869c:	1aed      	subs	r5, r5, r3
  40869e:	b2a3      	uxth	r3, r4
  4086a0:	fbb5 f0f2 	udiv	r0, r5, r2
  4086a4:	fb02 5510 	mls	r5, r2, r0, r5
  4086a8:	ea43 4405 	orr.w	r4, r3, r5, lsl #16
  4086ac:	fb0c fc00 	mul.w	ip, ip, r0
  4086b0:	45a4      	cmp	ip, r4
  4086b2:	d907      	bls.n	4086c4 <__udivmoddi4+0x15c>
  4086b4:	19e4      	adds	r4, r4, r7
  4086b6:	f100 33ff 	add.w	r3, r0, #4294967295
  4086ba:	d202      	bcs.n	4086c2 <__udivmoddi4+0x15a>
  4086bc:	45a4      	cmp	ip, r4
  4086be:	f200 80b8 	bhi.w	408832 <__udivmoddi4+0x2ca>
  4086c2:	4618      	mov	r0, r3
  4086c4:	eba4 040c 	sub.w	r4, r4, ip
  4086c8:	ea40 4008 	orr.w	r0, r0, r8, lsl #16
  4086cc:	e79d      	b.n	40860a <__udivmoddi4+0xa2>
  4086ce:	4631      	mov	r1, r6
  4086d0:	4630      	mov	r0, r6
  4086d2:	e8bd 87f0 	ldmia.w	sp!, {r4, r5, r6, r7, r8, r9, sl, pc}
  4086d6:	f1ce 0420 	rsb	r4, lr, #32
  4086da:	fa05 f30e 	lsl.w	r3, r5, lr
  4086de:	fa07 f70e 	lsl.w	r7, r7, lr
  4086e2:	fa20 f804 	lsr.w	r8, r0, r4
  4086e6:	0c3a      	lsrs	r2, r7, #16
  4086e8:	fa25 f404 	lsr.w	r4, r5, r4
  4086ec:	ea48 0803 	orr.w	r8, r8, r3
  4086f0:	fbb4 f1f2 	udiv	r1, r4, r2
  4086f4:	ea4f 4518 	mov.w	r5, r8, lsr #16
  4086f8:	fb02 4411 	mls	r4, r2, r1, r4
  4086fc:	fa1f fc87 	uxth.w	ip, r7
  408700:	ea45 4504 	orr.w	r5, r5, r4, lsl #16
  408704:	fb01 f30c 	mul.w	r3, r1, ip
  408708:	42ab      	cmp	r3, r5
  40870a:	fa00 f40e 	lsl.w	r4, r0, lr
  40870e:	d909      	bls.n	408724 <__udivmoddi4+0x1bc>
  408710:	19ed      	adds	r5, r5, r7
  408712:	f101 30ff 	add.w	r0, r1, #4294967295
  408716:	f080 808a 	bcs.w	40882e <__udivmoddi4+0x2c6>
  40871a:	42ab      	cmp	r3, r5
  40871c:	f240 8087 	bls.w	40882e <__udivmoddi4+0x2c6>
  408720:	3902      	subs	r1, #2
  408722:	443d      	add	r5, r7
  408724:	1aeb      	subs	r3, r5, r3
  408726:	fa1f f588 	uxth.w	r5, r8
  40872a:	fbb3 f0f2 	udiv	r0, r3, r2
  40872e:	fb02 3310 	mls	r3, r2, r0, r3
  408732:	ea45 4503 	orr.w	r5, r5, r3, lsl #16
  408736:	fb00 f30c 	mul.w	r3, r0, ip
  40873a:	42ab      	cmp	r3, r5
  40873c:	d907      	bls.n	40874e <__udivmoddi4+0x1e6>
  40873e:	19ed      	adds	r5, r5, r7
  408740:	f100 38ff 	add.w	r8, r0, #4294967295
  408744:	d26f      	bcs.n	408826 <__udivmoddi4+0x2be>
  408746:	42ab      	cmp	r3, r5
  408748:	d96d      	bls.n	408826 <__udivmoddi4+0x2be>
  40874a:	3802      	subs	r0, #2
  40874c:	443d      	add	r5, r7
  40874e:	1aeb      	subs	r3, r5, r3
  408750:	ea40 4101 	orr.w	r1, r0, r1, lsl #16
  408754:	e78f      	b.n	408676 <__udivmoddi4+0x10e>
  408756:	f1c1 0720 	rsb	r7, r1, #32
  40875a:	fa22 f807 	lsr.w	r8, r2, r7
  40875e:	408b      	lsls	r3, r1
  408760:	fa05 f401 	lsl.w	r4, r5, r1
  408764:	ea48 0303 	orr.w	r3, r8, r3
  408768:	fa20 fe07 	lsr.w	lr, r0, r7
  40876c:	ea4f 4c13 	mov.w	ip, r3, lsr #16
  408770:	40fd      	lsrs	r5, r7
  408772:	ea4e 0e04 	orr.w	lr, lr, r4
  408776:	fbb5 f9fc 	udiv	r9, r5, ip
  40877a:	ea4f 441e 	mov.w	r4, lr, lsr #16
  40877e:	fb0c 5519 	mls	r5, ip, r9, r5
  408782:	fa1f f883 	uxth.w	r8, r3
  408786:	ea44 4505 	orr.w	r5, r4, r5, lsl #16
  40878a:	fb09 f408 	mul.w	r4, r9, r8
  40878e:	42ac      	cmp	r4, r5
  408790:	fa02 f201 	lsl.w	r2, r2, r1
  408794:	fa00 fa01 	lsl.w	sl, r0, r1
  408798:	d908      	bls.n	4087ac <__udivmoddi4+0x244>
  40879a:	18ed      	adds	r5, r5, r3
  40879c:	f109 30ff 	add.w	r0, r9, #4294967295
  4087a0:	d243      	bcs.n	40882a <__udivmoddi4+0x2c2>
  4087a2:	42ac      	cmp	r4, r5
  4087a4:	d941      	bls.n	40882a <__udivmoddi4+0x2c2>
  4087a6:	f1a9 0902 	sub.w	r9, r9, #2
  4087aa:	441d      	add	r5, r3
  4087ac:	1b2d      	subs	r5, r5, r4
  4087ae:	fa1f fe8e 	uxth.w	lr, lr
  4087b2:	fbb5 f0fc 	udiv	r0, r5, ip
  4087b6:	fb0c 5510 	mls	r5, ip, r0, r5
  4087ba:	ea4e 4405 	orr.w	r4, lr, r5, lsl #16
  4087be:	fb00 f808 	mul.w	r8, r0, r8
  4087c2:	45a0      	cmp	r8, r4
  4087c4:	d907      	bls.n	4087d6 <__udivmoddi4+0x26e>
  4087c6:	18e4      	adds	r4, r4, r3
  4087c8:	f100 35ff 	add.w	r5, r0, #4294967295
  4087cc:	d229      	bcs.n	408822 <__udivmoddi4+0x2ba>
  4087ce:	45a0      	cmp	r8, r4
  4087d0:	d927      	bls.n	408822 <__udivmoddi4+0x2ba>
  4087d2:	3802      	subs	r0, #2
  4087d4:	441c      	add	r4, r3
  4087d6:	ea40 4009 	orr.w	r0, r0, r9, lsl #16
  4087da:	eba4 0408 	sub.w	r4, r4, r8
  4087de:	fba0 8902 	umull	r8, r9, r0, r2
  4087e2:	454c      	cmp	r4, r9
  4087e4:	46c6      	mov	lr, r8
  4087e6:	464d      	mov	r5, r9
  4087e8:	d315      	bcc.n	408816 <__udivmoddi4+0x2ae>
  4087ea:	d012      	beq.n	408812 <__udivmoddi4+0x2aa>
  4087ec:	b156      	cbz	r6, 408804 <__udivmoddi4+0x29c>
  4087ee:	ebba 030e 	subs.w	r3, sl, lr
  4087f2:	eb64 0405 	sbc.w	r4, r4, r5
  4087f6:	fa04 f707 	lsl.w	r7, r4, r7
  4087fa:	40cb      	lsrs	r3, r1
  4087fc:	431f      	orrs	r7, r3
  4087fe:	40cc      	lsrs	r4, r1
  408800:	6037      	str	r7, [r6, #0]
  408802:	6074      	str	r4, [r6, #4]
  408804:	2100      	movs	r1, #0
  408806:	e8bd 87f0 	ldmia.w	sp!, {r4, r5, r6, r7, r8, r9, sl, pc}
  40880a:	4618      	mov	r0, r3
  40880c:	e6f8      	b.n	408600 <__udivmoddi4+0x98>
  40880e:	4690      	mov	r8, r2
  408810:	e6e0      	b.n	4085d4 <__udivmoddi4+0x6c>
  408812:	45c2      	cmp	sl, r8
  408814:	d2ea      	bcs.n	4087ec <__udivmoddi4+0x284>
  408816:	ebb8 0e02 	subs.w	lr, r8, r2
  40881a:	eb69 0503 	sbc.w	r5, r9, r3
  40881e:	3801      	subs	r0, #1
  408820:	e7e4      	b.n	4087ec <__udivmoddi4+0x284>
  408822:	4628      	mov	r0, r5
  408824:	e7d7      	b.n	4087d6 <__udivmoddi4+0x26e>
  408826:	4640      	mov	r0, r8
  408828:	e791      	b.n	40874e <__udivmoddi4+0x1e6>
  40882a:	4681      	mov	r9, r0
  40882c:	e7be      	b.n	4087ac <__udivmoddi4+0x244>
  40882e:	4601      	mov	r1, r0
  408830:	e778      	b.n	408724 <__udivmoddi4+0x1bc>
  408832:	3802      	subs	r0, #2
  408834:	443c      	add	r4, r7
  408836:	e745      	b.n	4086c4 <__udivmoddi4+0x15c>
  408838:	4608      	mov	r0, r1
  40883a:	e708      	b.n	40864e <__udivmoddi4+0xe6>
  40883c:	f1a8 0802 	sub.w	r8, r8, #2
  408840:	443d      	add	r5, r7
  408842:	e72b      	b.n	40869c <__udivmoddi4+0x134>

00408844 <__aeabi_idiv0>:
  408844:	4770      	bx	lr
  408846:	bf00      	nop
  408848:	00000010 	.word	0x00000010
  40884c:	400e1000 	.word	0x400e1000
  408850:	0000030b 	.word	0x0000030b
  408854:	00200000 	.word	0x00200000
  408858:	400e0e00 	.word	0x400e0e00
  40885c:	0000000a 	.word	0x0000000a
  408860:	74697845 	.word	0x74697845
  408864:	20676e69 	.word	0x20676e69
  408868:	68746977 	.word	0x68746977
  40886c:	61747320 	.word	0x61747320
  408870:	20737574 	.word	0x20737574
  408874:	0a2e6425 	.word	0x0a2e6425
  408878:	00000000 	.word	0x00000000

0040887c <wm8904_access_slow>:
  40887c:	00000000 0004001a 00050047 00050043     ........G...C...
  40888c:	0004000b 000c0003 000e0003 0012000c     ................
  40889c:	00210000 003d0000 00620001 00680005     ..!...=...b...h.
  4088ac:	00740000 00750704 00768000 00771760     ..t...u...v.`.w.
  4088bc:	00740005 00150c05 0014845e 00164006     ..t.....^....@..
  4088cc:	00190042 001a00e8 001b0820 000c0003     B....... .......
  4088dc:	0012000f 002c0010 002d0010 002e0044     ......,...-.D...
  4088ec:	002f0044 005a0011 005a0033 0043000f     D./...Z.3.Z...C.
  4088fc:	004400f0 005a0077 005a00ff 003900b9     ..D.w.Z...Z...9.
  40890c:	003a00b9                                ..:.

00408910 <wm8904_access_main>:
  408910:	00040019 00050043 000c0003 000e0003     ....C...........
  408920:	0012000f 0014845e 00160006 0019404a     ....^.......J@..
  408930:	001b0840 00210000 002c0005 002d0005     @.....!...,...-.
  408940:	002e0000 002f0000 003a00ad 00430003     ....../...:...C.
  408950:	005a00ff 00620001 00680005 00740004     ..Z...b...h...t.
  408960:	00750704 00768000 00771760 00ff55aa     ..u...v.`.w..U..
  408970:	50203a57 6e204b43 7320746f 6f707075     W: PCK not suppo
  408980:	64657472 0d0a2021 00000000 452d0a0d     rted! ........-E
  408990:	6e45202d 20726574 5f494d4e 646e6148     - Enter NMI_Hand
  4089a0:	2172656c 00000000 61480d0a 61466472     ler!......HardFa
  4089b0:	20746c75 61207461 65726464 30207373     ult at address 0
  4089c0:	0a782558 0000000d 654d0d0a 79726f6d     X%x.......Memory
  4089d0:	466d654d 746c7561 504d2820 61662055     MemFault (MPU fa
  4089e0:	29746c75 20746120 72646461 20737365     ult) at address 
  4089f0:	78255830 00000d0a 75420d0a 61462073     0X%x......Bus Fa
  408a00:	20746c75 61207461 65726464 30207373     ult at address 0
  408a10:	0a782558 0000000d 73550a0d 20656761     X%x.......Usage 
  408a20:	6c756166 74612074 64646120 73736572     fault at address
  408a30:	25583020 00000078                        0X%x...

00408a38 <__func__.10406>:
  408a38:	496f6950 7265746e 74707572 646e6148     PioInterruptHand
  408a48:	0072656c                                ler.

00408a4c <__func__.10435>:
  408a4c:	5f4f4950 666e6f43 72756769 00744965     PIO_ConfigureIt.

00408a5c <__func__.10441>:
  408a5c:	5f4f4950 62616e45 7449656c 00000000     PIO_EnableIt....

00408a6c <__func__.10448>:
  408a6c:	5f4f4950 61736944 49656c62 00000074     PIO_DisableIt...
  408a7c:	203c2069 4e77645f 6f536d75 65637275     i < _dwNumSource
  408a8c:	00000073 6c2f2e2e 68636269 732f7069     s...../libchip/s
  408a9c:	6372756f 69702f65 74695f6f 0000632e     ource/pio_it.c..
  408aac:	6e695070 00000000 4e77645f 6f536d75     pPin...._dwNumSo
  408abc:	65637275 203c2073 5f58414d 45544e49     urces < MAX_INTE
  408acc:	50555252 4f535f54 45435255 00000053     RRUPT_SOURCES...
  408adc:	6e695070 203d2120 4c4c554e 00000000     pPin != NULL....
  408aec:	6f467764 20646e75 30203d21 00000000     dwFound != 0....

00408afc <__func__.10423>:
  408afc:	5f434d50 62616e45 6550656c 68706972     PMC_EnablePeriph
  408b0c:	6c617265 00000000                       eral....

00408b14 <__func__.10427>:
  408b14:	5f434d50 61736944 50656c62 70697265     PMC_DisablePerip
  408b24:	61726568 0000006c                       heral...

00408b2c <__func__.10449>:
  408b2c:	5f434d50 65507349 68706972 62616e45     PMC_IsPeriphEnab
  408b3c:	0064656c 64497764 36203c20 00000033     led.dwId < 63...
  408b4c:	6c2f2e2e 68636269 732f7069 6372756f     ../libchip/sourc
  408b5c:	6d702f65 00632e63 64497764 49203c20     e/pmc.c.dwId < I
  408b6c:	45505f44 48504952 554f435f 0000544e     D_PERIPH_COUNT..

00408b7c <__func__.11129>:
  408b7c:	44746547 79616c65 69546e49 00736b63     GetDelayInTicks.

00408b8c <__func__.11133>:
  408b8c:	54746547 736b6369 00000000              GetTicks....

00408b98 <__func__.11139>:
  408b98:	74696157 00000000                       Wait....

00408ba0 <__func__.11148>:
  408ba0:	65656c53 00000070 202d492d 666e6f43     Sleep...-I- Conf
  408bb0:	72756769 79732065 6d657473 63697420     igure system tic
  408bc0:	6f74206b 74656720 736d3120 63697420     k to get 1ms tic
  408bd0:	6570206b 646f6972 000d0a2e 202d452d     k period....-E- 
  408be0:	54737953 206b6369 666e6f63 72756769     SysTick configur
  408bf0:	6f697461 7265206e 0a726f72 0000000d     ation error.....
  408c00:	54737953 436b6369 69666e6f 65727567     SysTickConfigure
  408c10:	00000064 6c2f2e2e 68636269 732f7069     d...../libchip/s
  408c20:	6372756f 69742f65 6974656d 632e6b63     ource/timetick.c
  408c30:	00000000                                ....

00408c34 <__func__.10402>:
  408c34:	5f495754 666e6f43 72756769 73614d65     TWI_ConfigureMas
  408c44:	00726574                                ter.

00408c48 <__func__.10410>:
  408c48:	5f495754 666e6f43 72756769 616c5365     TWI_ConfigureSla
  408c58:	00006576                                ve..

00408c5c <__func__.10414>:
  408c5c:	5f495754 706f7453 00000000              TWI_Stop....

00408c68 <__func__.10421>:
  408c68:	5f495754 72617453 61655274 00000064     TWI_StartRead...

00408c78 <__func__.10425>:
  408c78:	5f495754 64616552 65747942 00000000     TWI_ReadByte....

00408c88 <__func__.10430>:
  408c88:	5f495754 74697257 74794265 00000065     TWI_WriteByte...

00408c98 <__func__.10438>:
  408c98:	5f495754 72617453 69725774 00006574     TWI_StartWrite..

00408ca8 <__func__.10452>:
  408ca8:	5f495754 62616e45 7449656c 00000000     TWI_EnableIt....

00408cb8 <__func__.10457>:
  408cb8:	5f495754 61736944 49656c62 00000074     TWI_DisableIt...

00408cc8 <__func__.10461>:
  408cc8:	5f495754 53746547 75746174 00000073     TWI_GetStatus...

00408cd8 <__func__.10466>:
  408cd8:	5f495754 4d746547 656b7361 61745364     TWI_GetMaskedSta
  408ce8:	00737574                                tus.

00408cec <__func__.10470>:
  408cec:	5f495754 646e6553 504f5453 646e6f43     TWI_SendSTOPCond
  408cfc:	6f697469 0000006e 69775470 00000000     ition...pTwi....
  408d0c:	6c2f2e2e 68636269 732f7069 6372756f     ../libchip/sourc
  408d1c:	77742f65 00632e69 6b437764 20766944     e/twi.c.dwCkDiv 
  408d2c:	0038203c 77547028 543e2d69 53484957     < 8.(pTwi->TWIHS
  408d3c:	2052435f 57542026 5f534849 535f5243     _CR & TWIHS_CR_S
  408d4c:	53494456 3d212029 49575420 435f5348     VDIS) != TWIHS_C
  408d5c:	56535f52 00534944 69775470 203d2120     R_SVDIS.pTwi != 
  408d6c:	4c4c554e 00000000 64646128 73736572     NULL....(address
  408d7c:	30202620 29303878 203d3d20 00000030      & 0x80) == 0...
  408d8c:	64616928 73657264 20262073 46467830     (iaddress & 0xFF
  408d9c:	30303030 20293030 30203d3d 00000000     000000) == 0....
  408dac:	7a697369 203c2065 00000034 756f7328     isize < 4...(sou
  408dbc:	73656372 54202620 53484957 2954495f     rces & TWIHS_IT)
  408dcc:	00000000 72756f73 20736563 57542026     ....sources & TW
  408ddc:	5f534849 00005449                       IHS_IT..

00408de4 <__func__.10436>:
  408de4:	44495754 696e495f 6c616974 00657a69     TWID_Initialize.

00408df4 <__func__.10443>:
  408df4:	44495754 6e61485f 72656c64 00000000     TWID_Handler....

00408e04 <__func__.10456>:
  408e04:	44495754 6165525f 00000064              TWID_Read...

00408e10 <__func__.10478>:
  408e10:	44495754 6972575f 00006574              TWID_Write..

00408e1c <__func__.10493>:
  408e1c:	44495754 616d445f 74696e49 696c6169     TWID_DmaInitiali
  408e2c:	0000657a                                ze..

00408e30 <__func__.10507>:
  408e30:	44495754 616d445f 64616552 00000000     TWID_DmaRead....

00408e40 <__func__.10533>:
  408e40:	44495754 616d445f 74697257 00000065     TWID_DmaWrite...
  408e50:	202d452d 276e6143 6c612074 61636f6c     -E- Can't alloca
  408e60:	58206574 20414d44 6e616863 0a6c656e     te XDMA channel.
  408e70:	0000000d 69775470 3d212064 4c554e20     ....pTwid != NUL
  408e80:	0000004c 6c2f2e2e 68636269 732f7069     L...../libchip/s
  408e90:	6372756f 77742f65 632e6469 00000000     ource/twid.c....
  408ea0:	61725470 6566736e 3d212072 4c554e20     pTransfer != NUL
  408eb0:	0000004c 202d452d 44495754 6165525f     L...-E- TWID_Rea
  408ec0:	41203a64 61727420 6566736e 73692072     d: A transfer is
  408ed0:	726c6120 79646165 6e657020 676e6964      already pending
  408ee0:	00000d0a 202d452d 44495754 6d695420     ....-E- TWID Tim
  408ef0:	74756f65 0a524220 0000000d 202d452d     eout BR.....-E- 
  408f00:	44495754 6d695420 74756f65 0a435420     TWID Timeout TC.
  408f10:	0000000d 202d452d 5f495754 74697257     ....-E- TWI_Writ
  408f20:	41203a65 61727420 6566736e 73692072     e: A transfer is
  408f30:	726c6120 79646165 6e657020 676e6964      already pending
  408f40:	00000d0a 202d452d 44495754 6d695420     ....-E- TWID Tim
  408f50:	74756f65 0a534220 0000000d 202d452d     eout BS.....-E- 
  408f60:	44495754 6d695420 74756f65 32435420     TWID Timeout TC2
  408f70:	00000d0a 69775470 20616d64 4e203d21     ....pTwidma != N
  408f80:	004c4c55 69775470 616d6458 54703e2d     ULL.pTwiXdma->pT
  408f90:	20646977 4e203d21 004c4c55 202d452d     wid != NULL.-E- 
  408fa0:	44495754 414d4420 746f6e20 6e6f6420     TWID DMA not don
  408fb0:	000d0a65 202d452d 44495754 6d695420     e...-E- TWID Tim
  408fc0:	74756f65 61655220 000d0a64 202d452d     eout Read...-E- 
  408fd0:	44495754 414d4420 746f6e20 6e6f6420     TWID DMA not don
  408fe0:	43202c65 6e6e6168 53206c65 65746174     e, Channel State
  408ff0:	20736920 0d0a6425 00000000 202d452d      is %d......-E- 
  409000:	44495754 6d695420 74756f65 52585420     TWID Timeout TXR
  409010:	0d0a5944 00000000 202d452d 44495754     DY......-E- TWID
  409020:	6d695420 74756f65 69725720 0d0a6574      Timeout Write..
  409030:	00000000                                ....

00409034 <__func__.10396>:
  409034:	414d4458 65475f43 70795474 00000065     XDMAC_GetType...

00409044 <__func__.10400>:
  409044:	414d4458 65475f43 6e6f4374 00676966     XDMAC_GetConfig.

00409054 <__func__.10404>:
  409054:	414d4458 65475f43 62724174 72657469     XDMAC_GetArbiter
  409064:	00000000                                ....

00409068 <__func__.10409>:
  409068:	414d4458 6e455f43 656c6261 00744947     XDMAC_EnableGIt.

00409078 <__func__.10414>:
  409078:	414d4458 69445f43 6c626173 74494765     XDMAC_DisableGIt
  409088:	00000000                                ....

0040908c <__func__.10418>:
  40908c:	414d4458 65475f43 74494774 6b73614d     XDMAC_GetGItMask
  40909c:	00000000                                ....

004090a0 <__func__.10422>:
  4090a0:	414d4458 65475f43 73494774 00000072     XDMAC_GetGIsr...

004090b0 <__func__.10427>:
  4090b0:	414d4458 65475f43 73614d74 4764656b     XDMAC_GetMaskedG
  4090c0:	00727349                                Isr.

004090c4 <__func__.10432>:
  4090c4:	414d4458 6e455f43 656c6261 6e616843     XDMAC_EnableChan
  4090d4:	006c656e                                nel.

004090d8 <__func__.10437>:
  4090d8:	414d4458 6e455f43 656c6261 6e616843     XDMAC_EnableChan
  4090e8:	736c656e 00000000                       nels....

004090f0 <__func__.10442>:
  4090f0:	414d4458 69445f43 6c626173 61684365     XDMAC_DisableCha
  409100:	6c656e6e 00000000                       nnel....

00409108 <__func__.10447>:
  409108:	414d4458 69445f43 6c626173 61684365     XDMAC_DisableCha
  409118:	6c656e6e 00000073                       nnels...

00409120 <__func__.10451>:
  409120:	414d4458 65475f43 6f6c4774 436c6162     XDMAC_GetGlobalC
  409130:	61745368 00737574                       hStatus.

00409138 <__func__.10456>:
  409138:	414d4458 75535f43 6e657073 61655264     XDMAC_SuspendRea
  409148:	61684364 6c656e6e 00000000              dChannel....

00409154 <__func__.10461>:
  409154:	414d4458 75535f43 6e657073 69725764     XDMAC_SuspendWri
  409164:	68436574 656e6e61 0000006c              teChannel...

00409170 <__func__.10466>:
  409170:	414d4458 75535f43 6e657073 61655264     XDMAC_SuspendRea
  409180:	69725764 68436574 656e6e61 0000006c     dWriteChannel...

00409190 <__func__.10471>:
  409190:	414d4458 65525f43 656d7573 64616552     XDMAC_ResumeRead
  4091a0:	74697257 61684365 6c656e6e 00000000     WriteChannel....

004091b0 <__func__.10476>:
  4091b0:	414d4458 6f535f43 61777466 72546572     XDMAC_SoftwareTr
  4091c0:	66736e61 65527265 00000071              ansferReq...

004091cc <__func__.10480>:
  4091cc:	414d4458 65475f43 666f5374 72617774     XDMAC_GetSoftwar
  4091dc:	61725465 6566736e 61745372 00737574     eTransferStatus.

004091ec <__func__.10494>:
  4091ec:	414d4458 6e455f43 656c6261 6e616843     XDMAC_EnableChan
  4091fc:	496c656e 00000074                       nelIt...

00409204 <__func__.10500>:
  409204:	414d4458 69445f43 6c626173 61684365     XDMAC_DisableCha
  409214:	6c656e6e 00007449                       nnelIt..

0040921c <__func__.10505>:
  40921c:	414d4458 65475f43 61684374 6c656e6e     XDMAC_GetChannel
  40922c:	614d7449 00006b73                       ItMask..

00409234 <__func__.10510>:
  409234:	414d4458 65475f43 61684374 6c656e6e     XDMAC_GetChannel
  409244:	00727349                                Isr.

00409248 <__func__.10485>:
  409248:	414d4458 6f535f43 61777466 6c466572     XDMAC_SoftwareFl
  409258:	52687375 00007165                       ushReq..

00409260 <__func__.10516>:
  409260:	414d4458 65475f43 73614d74 6168436b     XDMAC_GetMaskCha
  409270:	6c656e6e 00727349                       nnelIsr.

00409278 <__func__.10522>:
  409278:	414d4458 65535f43 756f5374 41656372     XDMAC_SetSourceA
  409288:	00726464                                ddr.

0040928c <__func__.10528>:
  40928c:	414d4458 65535f43 73654474 616e6974     XDMAC_SetDestina
  40929c:	6e6f6974 72646441 00000000              tionAddr....

004092a8 <__func__.10535>:
  4092a8:	414d4458 65535f43 73654474 70697263     XDMAC_SetDescrip
  4092b8:	41726f74 00726464                       torAddr.

004092c0 <__func__.10541>:
  4092c0:	414d4458 65535f43 73654474 70697263     XDMAC_SetDescrip
  4092d0:	43726f74 72746e6f 00006c6f              torControl..

004092dc <__func__.10547>:
  4092dc:	414d4458 65535f43 63694d74 6c626f72     XDMAC_SetMicrobl
  4092ec:	436b636f 72746e6f 00006c6f              ockControl..

004092f8 <__func__.10553>:
  4092f8:	414d4458 65535f43 6f6c4274 6f436b63     XDMAC_SetBlockCo
  409308:	6f72746e 0000006c                       ntrol...

00409310 <__func__.10559>:
  409310:	414d4458 65535f43 61684374 6c656e6e     XDMAC_SetChannel
  409320:	666e6f43 00006769                       Config..

00409328 <__func__.10564>:
  409328:	414d4458 65475f43 61684374 6c656e6e     XDMAC_GetChannel
  409338:	666e6f43 00006769                       Config..

00409340 <__func__.10570>:
  409340:	414d4458 65535f43 74614474 72745361     XDMAC_SetDataStr
  409350:	5f656469 506d654d 65747461 00006e72     ide_MemPattern..

00409360 <__func__.10576>:
  409360:	414d4458 65535f43 756f5374 4d656372     XDMAC_SetSourceM
  409370:	6f726369 636f6c42 7274536b 00656469     icroBlockStride.

00409380 <__func__.10582>:
  409380:	414d4458 65535f43 73654474 616e6974     XDMAC_SetDestina
  409390:	6e6f6974 7263694d 6f6c426f 74536b63     tionMicroBlockSt
  4093a0:	65646972 00000000                       ride....

004093a8 <__func__.10587>:
  4093a8:	414d4458 65475f43 44684374 69747365     XDMAC_GetChDesti
  4093b8:	6974616e 64416e6f 00007264 6d645870     nationAddr..pXdm
  4093c8:	00006361 6c2f2e2e 68636269 732f7069     ac..../libchip/s
  4093d8:	6372756f 64782f65 2e63616d 00000063     ource/xdmac.c...
  4093e8:	6e616863 206c656e 4458203c 5f43414d     channel < XDMAC_
  4093f8:	4e414843 5f4c454e 004d554e 6961646e     CHANNEL_NUM.ndai
  409408:	203c2066 00000032                       f < 2...

00409410 <__FUNCTION__.10400>:
  409410:	414d4458 6c415f44 61636f6c 64586574     XDMAD_AllocateXd
  409420:	4363616d 6e6e6168 00006c65              macChannel..

0040942c <__func__.10410>:
  40942c:	414d4458 6e495f44 61697469 657a696c     XDMAD_Initialize
  40943c:	00000000                                ....

00409440 <__func__.10426>:
  409440:	414d4458 72465f44 68436565 656e6e61     XDMAD_FreeChanne
  409450:	0000006c                                l...

00409454 <__func__.10440>:
  409454:	414d4458 65535f44 6c614374 6361626c     XDMAD_SetCallbac
  409464:	0000006b                                k...

00409468 <__func__.10447>:
  409468:	414d4458 72505f44 72617065 61684365     XDMAD_PrepareCha
  409478:	6c656e6e 00000000                       nnel....

00409480 <__func__.10458>:
  409480:	414d4458 61485f44 656c646e 00000072     XDMAD_Handler...

00409490 <__func__.10469>:
  409490:	414d4458 73495f44 6e617254 72656673     XDMAD_IsTransfer
  4094a0:	656e6f44 00000000                       Done....

004094a8 <__func__.10479>:
  4094a8:	414d4458 6f435f44 6769666e 54657275     XDMAD_ConfigureT
  4094b8:	736e6172 00726566                       ransfer.

004094c0 <__func__.10486>:
  4094c0:	414d4458 74535f44 54747261 736e6172     XDMAD_StartTrans
  4094d0:	00726566                                fer.

004094d4 <__FUNCTION__.10488>:
  4094d4:	414d4458 74535f44 54747261 736e6172     XDMAD_StartTrans
  4094e4:	00726566                                fer.

004094e8 <__func__.10494>:
  4094e8:	414d4458 74535f44 7254706f 66736e61     XDMAD_StopTransf
  4094f8:	00007265 202d452d 3a3a7325 6c6c4120     er..-E- %s:: All
  409508:	7461636f 206e6f69 6c696166 00006465     ocation failed..
  409518:	202d452d 3a3a7325 6c6c4120 7461636f     -E- %s:: Allocat
  409528:	206e6f69 6c696166 202c6465 206c6c61     ion failed, all 
  409538:	6e616863 736c656e 65726120 63636f20     channels are occ
  409548:	65697075 00000064 6d645870 00006461     upied...pXdmad..
  409558:	6c2f2e2e 68636269 732f7069 6372756f     ../libchip/sourc
  409568:	64782f65 2e64616d 00000063 6d645870     e/xdmad.c...pXdm
  409578:	21206461 554e203d 00004c4c 616d4470     ad != NULL..pDma
  409588:	3d212064 4c554e20 0000004c 202d452d     d != NULL...-E- 
  409598:	3a3a7325 4d445820 535f4441 45544154     %s:: XDMAD_STATE
  4095a8:	4552465f 0d0a2045 00000000 202d452d     _FREE ......-E- 
  4095b8:	3a3a7325 4d445820 535f4441 45544154     %s:: XDMAD_STATE
  4095c8:	4154535f 0a205452 0000000d              _START .....

004095d4 <xdmaHwIf>:
  4095d4:	00000000 00000012 00000000 00000000     ................
  4095e4:	00000012 00000001 00000000 00000015     ................
  4095f4:	00000100 00000000 00000015 00000201     ................
  409604:	00000000 0000002a 00000300 00000000     ....*...........
  409614:	0000002a 00000401 00000000 0000002b     *...........+...
  409624:	00000500 00000000 0000002b 00000601     ........+.......
  409634:	00000000 0000000d 00000700 00000000     ................
  409644:	0000000d 00000801 00000000 0000000e     ................
  409654:	00000900 00000000 0000000e 00000a01     ................
  409664:	00000000 0000000f 00000b00 00000000     ................
  409674:	0000000f 00000c01 00000000 0000001f     ................
  409684:	00000d00 00000000 00000013 00000e00     ................
  409694:	00000000 00000013 00000f01 00000000     ................
  4096a4:	00000014 00001000 00000000 00000014     ................
  4096b4:	00001101 00000000 00000029 00001200     ........).......
  4096c4:	00000000 00000029 00001301 00000000     ....)...........
  4096d4:	00000007 00001400 00000000 00000007     ................
  4096e4:	00001501 00000000 00000008 00001600     ................
  4096f4:	00000000 00000008 00001701 00000000     ................
  409704:	0000002c 00001800 00000000 0000002c     ,...........,...
  409714:	00001901 00000000 0000002d 00001a00     ........-.......
  409724:	00000000 0000002d 00001b01 00000000     ....-...........
  409734:	0000002e 00001c00 00000000 0000002e     ................
  409744:	00001d01 00000000 0000001e 00001e00     ................
  409754:	00000000 0000001e 00001f00 00000000     ................
  409764:	00000016 00002000 00000000 00000016     ..... ..........
  409774:	00002101 00000000 0000000a 00002201     .!..........."..
  409784:	00000000 0000001d 00002301 00000000     .........#......
  409794:	00000028 00002401 00000000 00000038     (....$......8...
  4097a4:	00002500 00000000 00000038 00002601     .%......8....&..
  4097b4:	00000000 0000003c 00002700 00000000     ....<....'......
  4097c4:	00000017 00002801 00000000 00000018     .....(..........
  4097d4:	00002901 00000000 00000019 00002a01     .)...........*..
  4097e4:	00000000 0000001a 00002b01              .........+..

004097f0 <pinsSsc>:
  4097f0:	00000008 400e0e00 0000000a 00000010     .......@........
  409800:	400e0e00 0000000a 04000000 400e1400     ...@...........@
  409810:	00000110 00000002 400e1000 0000030b     ...........@....
  409820:	00000001 400e1000 0000030b 00000400     .......@........
  409830:	400e0e00 0000020a 00400000 400e0e00     ...@......@....@
  409840:	0000000a 01000000 400e1400 00000110     ...........@....
  409850:	00040000 400e0e00 0000010a 414d4478     .......@....xDMA
  409860:	61686320 6c656e6e 6c6c6120 7461636f      channel allocat
  409870:	206e6f69 6f727265 000d0a72 00352e31     ion error...1.5.
  409880:	53202d2d 44204353 4120414d 6f696475     -- SSC DMA Audio
  409890:	61784520 656c706d 20732520 0d0a2d2d      Example %s --..
  4098a0:	00000000 204d4153 20313756 616c7058     ....SAM V71 Xpla
  4098b0:	64656e69 746c5520 00006172 25202d2d     ined Ultra..-- %
  4098c0:	000d0a73 00434347 343a3130 37323a36     s...GCC.01:46:27
  4098d0:	00000000 20636544 32203232 00373130     ....Dec 22 2017.
  4098e0:	43202d2d 69706d6f 3a64656c 20732520     -- Compiled: %s 
  4098f0:	57207325 20687469 2d2d7325 00000d0a     %s With %s--....
  409900:	202d462d 74737953 206b6369 666e6f63     -F- Systick conf
  409910:	72756769 6f697461 7265206e 0a726f72     iguration error.
  409920:	0000000d 39384d57 6e203430 6620746f     ....WM8904 not f
  409930:	646e756f 000d0a21 65736e49 4c207472     ound!...Insert L
  409940:	2d656e69 63206e69 656c6261 74697720     ine-in cable wit
  409950:	43502068 61654820 6f687064 6f20656e     h PC Headphone o
  409960:	75707475 000d0a74 7566202c 6974636e     utput..., functi
  409970:	203a6e6f 00000000 65737361 6f697472     on: ....assertio
  409980:	2522206e 66202273 656c6961 66203a64     n "%s" failed: f
  409990:	20656c69 22732522 696c202c 2520656e     ile "%s", line %
  4099a0:	25732564 00000a73                       d%s%s...

004099a8 <_global_impure_ptr>:
  4099a8:	20400070 33323130 37363534 42413938     p.@ 0123456789AB
  4099b8:	46454443 00000000 33323130 37363534     CDEF....01234567
  4099c8:	62613938 66656463 00000000 6c756e28     89abcdef....(nul
  4099d8:	0000296c                                l)..

004099dc <blanks.7217>:
  4099dc:	20202020 20202020 20202020 20202020                     

004099ec <zeroes.7218>:
  4099ec:	30303030 30303030 30303030 30303030     0000000000000000
  4099fc:	00464e49 00666e69 004e414e 006e616e     INF.inf.NAN.nan.

00409a0c <blanks.7238>:
  409a0c:	20202020 20202020 20202020 20202020                     

00409a1c <zeroes.7239>:
  409a1c:	30303030 30303030 30303030 30303030     0000000000000000
  409a2c:	69666e49 7974696e 00000000 004e614e     Infinity....NaN.
  409a3c:	00000043 49534f50 00000058 0000002e     C...POSIX.......
  409a4c:	00000000                                ....

00409a50 <__mprec_bigtens>:
  409a50:	37e08000 4341c379 b5056e17 4693b8b5     ...7y.AC.n.....F
  409a60:	e93ff9f5 4d384f03 f9301d32 5a827748     ..?..O8M2.0.Hw.Z
  409a70:	7f73bf3c 75154fdd                       <.s..O.u

00409a78 <__mprec_tens>:
  409a78:	00000000 3ff00000 00000000 40240000     .......?......$@
  409a88:	00000000 40590000 00000000 408f4000     ......Y@.....@.@
  409a98:	00000000 40c38800 00000000 40f86a00     .......@.....j.@
  409aa8:	00000000 412e8480 00000000 416312d0     .......A......cA
  409ab8:	00000000 4197d784 00000000 41cdcd65     .......A....e..A
  409ac8:	20000000 4202a05f e8000000 42374876     ... _..B....vH7B
  409ad8:	a2000000 426d1a94 e5400000 42a2309c     ......mB..@..0.B
  409ae8:	1e900000 42d6bcc4 26340000 430c6bf5     .......B..4&.k.C
  409af8:	37e08000 4341c379 85d8a000 43763457     ...7y.AC....W4vC
  409b08:	674ec800 43abc16d 60913d00 43e158e4     ..Ngm..C.=.`.X.C
  409b18:	78b58c40 4415af1d d6e2ef50 444b1ae4     @..x...DP.....KD
  409b28:	064dd592 4480f0cf c7e14af6 44b52d02     ..M....D.J...-.D
  409b38:	79d99db4 44ea7843                       ...yCx.D

00409b40 <p05.6055>:
  409b40:	00000005 00000019 0000007d              ........}...

00409b4c <_ctype_>:
  409b4c:	20202000 20202020 28282020 20282828     .         ((((( 
  409b5c:	20202020 20202020 20202020 20202020                     
  409b6c:	10108820 10101010 10101010 10101010      ...............
  409b7c:	04040410 04040404 10040404 10101010     ................
  409b8c:	41411010 41414141 01010101 01010101     ..AAAAAA........
  409b9c:	01010101 01010101 01010101 10101010     ................
  409bac:	42421010 42424242 02020202 02020202     ..BBBBBB........
  409bbc:	02020202 02020202 02020202 10101010     ................
  409bcc:	00000020 00000000 00000000 00000000      ...............
	...

00409c50 <_init>:
  409c50:	b5f8      	push	{r3, r4, r5, r6, r7, lr}
  409c52:	bf00      	nop
  409c54:	bcf8      	pop	{r3, r4, r5, r6, r7}
  409c56:	bc08      	pop	{r3}
  409c58:	469e      	mov	lr, r3
  409c5a:	4770      	bx	lr

00409c5c <__init_array_start>:
  409c5c:	0040510d 	.word	0x0040510d

00409c60 <__frame_dummy_init_array_entry>:
  409c60:	00400165                                e.@.

00409c64 <_fini>:
  409c64:	b5f8      	push	{r3, r4, r5, r6, r7, lr}
  409c66:	bf00      	nop
  409c68:	bcf8      	pop	{r3, r4, r5, r6, r7}
  409c6a:	bc08      	pop	{r3}
  409c6c:	469e      	mov	lr, r3
  409c6e:	4770      	bx	lr

00409c70 <__fini_array_start>:
  409c70:	00400141 	.word	0x00400141
